
fernbedienung.elf:     file format elf32-avr

Sections:
Idx Name          Size      VMA       LMA       File off  Algn
  0 .data         00000300  00800200  0000b976  0000ba0a  2**0
                  CONTENTS, ALLOC, LOAD, DATA
  1 .text         0000b976  00000000  00000000  00000094  2**1
                  CONTENTS, ALLOC, LOAD, READONLY, CODE
  2 .bss          00000703  00800500  00800500  0000bd0a  2**0
                  ALLOC
  3 .comment      00000030  00000000  00000000  0000bd0a  2**0
                  CONTENTS, READONLY
  4 .note.gnu.avr.deviceinfo 00000040  00000000  00000000  0000bd3c  2**2
                  CONTENTS, READONLY
  5 .debug_aranges 00000a68  00000000  00000000  0000bd7c  2**0
                  CONTENTS, READONLY, DEBUGGING
  6 .debug_info   0001f7f7  00000000  00000000  0000c7e4  2**0
                  CONTENTS, READONLY, DEBUGGING
  7 .debug_abbrev 0000332c  00000000  00000000  0002bfdb  2**0
                  CONTENTS, READONLY, DEBUGGING
  8 .debug_line   00006eed  00000000  00000000  0002f307  2**0
                  CONTENTS, READONLY, DEBUGGING
  9 .debug_frame  00002c74  00000000  00000000  000361f4  2**2
                  CONTENTS, READONLY, DEBUGGING
 10 .debug_str    00003920  00000000  00000000  00038e68  2**0
                  CONTENTS, READONLY, DEBUGGING
 11 .debug_loc    00013147  00000000  00000000  0003c788  2**0
                  CONTENTS, READONLY, DEBUGGING
 12 .debug_ranges 00000cf8  00000000  00000000  0004f8cf  2**0
                  CONTENTS, READONLY, DEBUGGING

Disassembly of section .text:

00000000 <__vectors>:
       0:	0c 94 36 19 	jmp	0x326c	; 0x326c <__dtors_end>
       4:	0c 94 67 19 	jmp	0x32ce	; 0x32ce <__bad_interrupt>
       8:	0c 94 67 19 	jmp	0x32ce	; 0x32ce <__bad_interrupt>
       c:	0c 94 67 19 	jmp	0x32ce	; 0x32ce <__bad_interrupt>
      10:	0c 94 67 19 	jmp	0x32ce	; 0x32ce <__bad_interrupt>
      14:	0c 94 67 19 	jmp	0x32ce	; 0x32ce <__bad_interrupt>
      18:	0c 94 67 19 	jmp	0x32ce	; 0x32ce <__bad_interrupt>
      1c:	0c 94 67 19 	jmp	0x32ce	; 0x32ce <__bad_interrupt>
      20:	0c 94 67 19 	jmp	0x32ce	; 0x32ce <__bad_interrupt>
      24:	0c 94 67 19 	jmp	0x32ce	; 0x32ce <__bad_interrupt>
      28:	0c 94 67 19 	jmp	0x32ce	; 0x32ce <__bad_interrupt>
      2c:	0c 94 67 19 	jmp	0x32ce	; 0x32ce <__bad_interrupt>
      30:	0c 94 67 19 	jmp	0x32ce	; 0x32ce <__bad_interrupt>
      34:	0c 94 67 19 	jmp	0x32ce	; 0x32ce <__bad_interrupt>
      38:	0c 94 67 19 	jmp	0x32ce	; 0x32ce <__bad_interrupt>
      3c:	0c 94 67 19 	jmp	0x32ce	; 0x32ce <__bad_interrupt>
      40:	0c 94 67 19 	jmp	0x32ce	; 0x32ce <__bad_interrupt>
      44:	0c 94 cb 32 	jmp	0x6596	; 0x6596 <__vector_17>
      48:	0c 94 67 19 	jmp	0x32ce	; 0x32ce <__bad_interrupt>
      4c:	0c 94 67 19 	jmp	0x32ce	; 0x32ce <__bad_interrupt>
      50:	0c 94 67 19 	jmp	0x32ce	; 0x32ce <__bad_interrupt>
      54:	0c 94 67 19 	jmp	0x32ce	; 0x32ce <__bad_interrupt>
      58:	0c 94 67 19 	jmp	0x32ce	; 0x32ce <__bad_interrupt>
      5c:	0c 94 d3 3a 	jmp	0x75a6	; 0x75a6 <__vector_23>
      60:	0c 94 67 19 	jmp	0x32ce	; 0x32ce <__bad_interrupt>
      64:	0c 94 32 39 	jmp	0x7264	; 0x7264 <__vector_25>
      68:	0c 94 68 39 	jmp	0x72d0	; 0x72d0 <__vector_26>
      6c:	0c 94 67 19 	jmp	0x32ce	; 0x32ce <__bad_interrupt>
      70:	0c 94 67 19 	jmp	0x32ce	; 0x32ce <__bad_interrupt>
      74:	0c 94 67 19 	jmp	0x32ce	; 0x32ce <__bad_interrupt>
      78:	0c 94 67 19 	jmp	0x32ce	; 0x32ce <__bad_interrupt>
      7c:	0c 94 67 19 	jmp	0x32ce	; 0x32ce <__bad_interrupt>
      80:	0c 94 67 19 	jmp	0x32ce	; 0x32ce <__bad_interrupt>
      84:	0c 94 67 19 	jmp	0x32ce	; 0x32ce <__bad_interrupt>
      88:	0c 94 67 19 	jmp	0x32ce	; 0x32ce <__bad_interrupt>
      8c:	0c 94 67 19 	jmp	0x32ce	; 0x32ce <__bad_interrupt>
      90:	0c 94 96 34 	jmp	0x692c	; 0x692c <__vector_36>
      94:	0c 94 67 19 	jmp	0x32ce	; 0x32ce <__bad_interrupt>
      98:	0c 94 6a 34 	jmp	0x68d4	; 0x68d4 <__vector_38>
      9c:	0c 94 67 19 	jmp	0x32ce	; 0x32ce <__bad_interrupt>
      a0:	0c 94 67 19 	jmp	0x32ce	; 0x32ce <__bad_interrupt>
      a4:	0c 94 67 19 	jmp	0x32ce	; 0x32ce <__bad_interrupt>
      a8:	0c 94 67 19 	jmp	0x32ce	; 0x32ce <__bad_interrupt>
      ac:	0c 94 67 19 	jmp	0x32ce	; 0x32ce <__bad_interrupt>
      b0:	0c 94 67 19 	jmp	0x32ce	; 0x32ce <__bad_interrupt>
      b4:	0c 94 67 19 	jmp	0x32ce	; 0x32ce <__bad_interrupt>
      b8:	0c 94 67 19 	jmp	0x32ce	; 0x32ce <__bad_interrupt>
      bc:	0c 94 67 19 	jmp	0x32ce	; 0x32ce <__bad_interrupt>
      c0:	0c 94 67 19 	jmp	0x32ce	; 0x32ce <__bad_interrupt>
      c4:	0c 94 67 19 	jmp	0x32ce	; 0x32ce <__bad_interrupt>
      c8:	0c 94 67 19 	jmp	0x32ce	; 0x32ce <__bad_interrupt>
      cc:	0c 94 67 19 	jmp	0x32ce	; 0x32ce <__bad_interrupt>
      d0:	0c 94 67 19 	jmp	0x32ce	; 0x32ce <__bad_interrupt>
      d4:	0c 94 67 19 	jmp	0x32ce	; 0x32ce <__bad_interrupt>
      d8:	0c 94 67 19 	jmp	0x32ce	; 0x32ce <__bad_interrupt>
      dc:	0c 94 67 19 	jmp	0x32ce	; 0x32ce <__bad_interrupt>
      e0:	0c 94 67 19 	jmp	0x32ce	; 0x32ce <__bad_interrupt>
      e4:	07 2c       	mov	r0, r7
      e6:	7a a5       	ldd	r23, Y+42	; 0x2a
      e8:	ba 6c       	ori	r27, 0xCA	; 202
      ea:	c5 90       	lpm	r12, Z+
      ec:	da 3b       	cpi	r29, 0xBA	; 186
      ee:	93 65       	ori	r25, 0x53	; 83
      f0:	fc 8b       	std	Y+20, r31	; 0x14
      f2:	bc 53       	subi	r27, 0x3C	; 60
      f4:	f8 10       	cpse	r15, r8
      f6:	fd 3c       	cpi	r31, 0xCD	; 205
      f8:	56 92       	lac	Z, r5
      fa:	83 4d       	sbci	r24, 0xD3	; 211
      fc:	bd 87       	std	Y+13, r27	; 0x0d
      fe:	9d 3a       	cpi	r25, 0xAD	; 173
     100:	b6 3d       	cpi	r27, 0xD6	; 214
     102:	cb c9       	rjmp	.-3178   	; 0xfffff49a <__eeprom_end+0xff7ef49a>
     104:	bf 5b       	subi	r27, 0xBF	; 191
     106:	be 73       	andi	r27, 0x3E	; 62
     108:	da 0f       	add	r29, r26
     10a:	c9 3f       	cpi	r28, 0xF9	; 249
     10c:	05 a8       	ldd	r0, Z+53	; 0x35
     10e:	4c cd       	rjmp	.-1384   	; 0xfffffba8 <__eeprom_end+0xff7efba8>
     110:	b2 d4       	rcall	.+2404   	; 0xa76 <__FUSE_REGION_LENGTH__+0x676>
     112:	4e b9       	out	0x0e, r20	; 14
     114:	38 36       	cpi	r19, 0x68	; 104
     116:	a9 02       	muls	r26, r25
     118:	0c 50       	subi	r16, 0x0C	; 12
     11a:	b9 91       	ld	r27, Y+
     11c:	86 88       	ldd	r8, Z+22	; 0x16
     11e:	08 3c       	cpi	r16, 0xC8	; 200
     120:	a6 aa       	std	Z+54, r10	; 0x36
     122:	aa 2a       	or	r10, r26
     124:	be 00       	.word	0x00be	; ????
     126:	00 00       	nop
     128:	80 3f       	cpi	r24, 0xF0	; 240
     12a:	2a 3c       	cpi	r18, 0xCA	; 202
     12c:	2d 3c       	cpi	r18, 0xCD	; 205
     12e:	1c 3c       	cpi	r17, 0xCC	; 204
     130:	20 3c       	cpi	r18, 0xC0	; 192
     132:	26 3c       	cpi	r18, 0xC6	; 198
     134:	64 3c       	cpi	r22, 0xC4	; 196
     136:	31 3c       	cpi	r19, 0xC1	; 193
     138:	35 3c       	cpi	r19, 0xC5	; 197
     13a:	3b 3c       	cpi	r19, 0xCB	; 203
     13c:	3f 3c       	cpi	r19, 0xCF	; 207
     13e:	43 3c       	cpi	r20, 0xC3	; 195
     140:	49 3c       	cpi	r20, 0xC9	; 201
     142:	4d 3c       	cpi	r20, 0xCD	; 205
     144:	51 3c       	cpi	r21, 0xC1	; 193
     146:	64 3c       	cpi	r22, 0xC4	; 196
     148:	57 3c       	cpi	r21, 0xC7	; 199
     14a:	5b 3c       	cpi	r21, 0xCB	; 203
     14c:	5f 3c       	cpi	r21, 0xCF	; 207

0000014e <__trampolines_end>:
     14e:	00 00       	nop
     150:	0a 0b       	sbc	r16, r26
     152:	02 09       	sbc	r16, r2
     154:	0c 0d       	add	r16, r12
     156:	0e 08       	sbc	r0, r14
     158:	07 03       	mulsu	r16, r23
     15a:	04 01       	movw	r0, r8
	...
     178:	00 00       	nop
     17a:	12 11       	cpse	r17, r2
     17c:	10 00       	.word	0x0010	; ????
	...

00000194 <digital_pin_to_bit_mask_PGM>:
     194:	01 02 10 20 20 08 08 10 20 40 10 20 40 80 02 01     ...  ... @. @...
     1a4:	02 01 08 04 02 01 01 02 04 08 10 20 40 80 80 40     ........... @..@
     1b4:	20 10 08 04 02 01 80 04 02 01 80 40 20 10 08 04      ..........@ ...
     1c4:	02 01 08 04 02 01 01 02 04 08 10 20 40 80 01 02     ........... @...
     1d4:	04 08 10 20 40 80                                   ... @.

000001da <digital_pin_to_port_PGM>:
     1da:	05 05 05 05 07 05 08 08 08 08 02 02 02 02 0a 0a     ................
     1ea:	08 08 04 04 04 04 01 01 01 01 01 01 01 01 03 03     ................
     1fa:	03 03 03 03 03 03 04 07 07 07 0c 0c 0c 0c 0c 0c     ................
     20a:	0c 0c 02 02 02 02 06 06 06 06 06 06 06 06 0b 0b     ................
     21a:	0b 0b 0b 0b 0b 0b                                   ......

00000220 <port_to_input_PGM>:
     220:	00 00 20 00 23 00 26 00 29 00 2c 00 2f 00 32 00     .. .#.&.).,./.2.
     230:	00 01 00 00 03 01 06 01 09 01                       ..........

0000023a <port_to_output_PGM>:
     23a:	00 00 22 00 25 00 28 00 2b 00 2e 00 31 00 34 00     ..".%.(.+...1.4.
     24a:	02 01 00 00 05 01 08 01 0b 01                       ..........

00000254 <port_to_mode_PGM>:
     254:	00 00 21 00 24 00 27 00 2a 00 2d 00 30 00 33 00     ..!.$.'.*.-.0.3.
     264:	01 01 00 00 04 01 07 01 0a 01                       ..........

0000026e <various_symbols>:
     26e:	10 10 20 5f 00 00 00 00 00 00 00 00 00 00 00 00     .. _............
	...
     29a:	01 00 01 00 01 00 0f e0 01 00 01 00 01 00 00 00     ................
     2aa:	00 00 0f e0 00 00 00 00 00 00 00 06 03 e4 0f f8     ................
     2ba:	1f 1c 1c 2e 3c 4e 38 8e 39 8e 39 1e 3a 3c 1c 7c     ....<N8.9.9.:<.|
     2ca:	0f f8 13 e0 30 00 00 00 00 00 00 00 00 00 00 00     ....0...........
	...
     2e6:	00 00 0c cc 0c cc 0c cc 00 00 00 00 00 00 00 00     ................
     2f6:	00 00 30 80 69 00 4b 00 5a 00 36 00 04 00 0d 8c     ..0.i.K.Z.6.....
     306:	0b 5a 12 52 12 d6 21 8c 00 00 00 00 00 00 00 00     .Z.R..!.........
     316:	00 00 1e 18 33 30 63 60 63 40 66 c0 3d bc 03 66     ....30c`c@f.=..f
     326:	02 c6 06 c6 0c cc 18 78 00 00 00 00 00 00 00 00     .......x........
     336:	00 00 03 e0 06 60 0c c0 0d c0 06 e0 00 00 00 00     .....`..........
	...
     356:	03 e0 00 30 00 30 00 70 01 c0 07 00 07 e0 00 00     ...0.0.p........
	...
     376:	07 c0 00 c0 03 80 06 00 01 c0 00 c0 0f 80 00 00     ................
	...
     396:	01 80 03 80 1f f0 03 00 03 00 3f e0 07 00 06 00     ..........?.....
     3a6:	0e 00 0e 00 00 00 00 00 00 00 00 00 00 00 00 00     ................
     3b6:	00 00 00 00 00 30 00 70 00 60 00 00 0f fe 0f fe     .....0.p.`......
     3c6:	00 00 00 c0 01 c0 01 80 00 00 00 00 00 00 00 00     ................
     3d6:	00 30 00 e0 00 e0 00 60 00 60 00 c0 00 c0 00 c0     .0.....`.`......
	...
     3f6:	00 00 38 1c 1c 3c 1c 18 0e 30 1e 78 03 c0 03 c0     ..8..<...0.x....
     406:	3f f8 03 00 07 00 07 00 00 00 00 00 00 00 00 00     ?...............
     416:	00 f8 03 f8 03 00 03 80 07 f0 0c f8 0e 18 0f 98     ................
     426:	03 e0 00 f0 08 30 0f f0 07 c0 00 00 00 00 00 00     .....0..........
	...
     43e:	00 00 01 80 03 c0 03 c0 01 80 00 00 00 00 00 00     ................
	...
     456:	00 10 00 7c 00 fc 01 d0 03 a0 03 a0 03 a0 03 a0     ...|............
     466:	01 f8 00 f0 00 40 00 40 00 00 00 00 00 00 00 00     .....@.@........
     476:	03 c0 0f f0 1c 38 1d b8 39 9c 39 9c 39 9c 39 9c     .....8..9.9.9.9.
     486:	1d b8 1c 38 0f f0 03 c0 00 00 00 00 00 00 00 00     ...8............
     496:	03 c0 0f f0 1f 38 1e 38 3f 3c 3f 3c 3f 3c 3f 3c     .....8.8?<?<?<?<
     4a6:	1f 38 1f f8 0f f0 03 c0 00 00 00 00 00 00 00 00     .8..............
     4b6:	03 c0 0f f0 1e 38 1d 98 3f 9c 3f 3c 3e 7c 3c fc     .....8..?.?<>|<.
     4c6:	1c 18 1f f8 0f f0 03 c0 00 00 00 00 00 00 00 00     ................
     4d6:	03 c0 0f f0 1c 38 1f 98 3f 9c 3e 7c 3f 9c 3f 9c     .....8..?.>|?.?.
     4e6:	1f 98 1c 38 0f f0 03 c0 00 00 00 00 00 00 00 00     ...8............
     4f6:	03 c0 0f f0 1f 78 1e 78 3d 7c 3d 7c 3b 7c 38 3c     .....x.x=|=|;|8<
     506:	1f 78 1f 78 0f f0 03 c0 00 00 00 00 00 00 00 00     .x.x............
     516:	03 c0 0f f0 1f f8 1c 38 3d fc 3d fc 3c 7c 3f 3c     .......8=.=.<|?<
     526:	1f 38 1c 78 0f f0 03 c0 00 00 00 00 00 00 00 00     .8.x............
     536:	03 c0 0f f0 1e 18 1c f8 39 fc 38 3c 39 9c 39 9c     ........9.8<9.9.
     546:	1d 98 1c 38 0f f0 03 c0 00 00 00 00 00 00 00 00     ...8............
     556:	03 c0 0f f0 1f f8 1c 18 3f dc 3f bc 3f 7c 3e fc     ........?.?.?|>.
     566:	1c f8 1f f8 0f f0 03 c0 00 00 00 00 00 00 00 00     ................
     576:	03 c0 0f f0 1c 38 1b d8 39 dc 3c 7c 3f 3c 3b dc     .....8..9.<|?<;.
     586:	1b d8 1c 38 0f f0 03 c0 00 00 00 00 00 00 00 00     ...8............
     596:	03 e0 0f f8 1c 3c 19 dc 39 ce 39 ce 3c 4e 3f ce     .....<..9.9.<N?.
     5a6:	1f 9c 1c 3c 0f f8 03 e0 00 00 00 00 00 00 00 00     ...<............
     5b6:	00 00 0f fc 0f fc 0f fc 0f fc 0f fc 0f fc 0f fc     ................
     5c6:	0f fc 0f fc 0f fc 00 00 00 00 00 00 00 00 00 00     ................
     5d6:	03 c0 0f f0 1c 38 18 18 30 0c 30 0c 30 0c 30 0c     .....8..0.0.0.0.
     5e6:	18 18 1c 38 0f f0 03 c0 00 00 00 00 00 00 00 00     ...8............
     5f6:	3f fc 28 14 28 14 28 14 28 14 28 14 2f f4 27 e4     ?.(.(.(.(.(./.'.
     606:	24 e4 24 e4 24 e4 1f fc 00 00 00 00 00 00 00 00     $.$.$...........
     616:	00 c0 01 40 01 20 02 10 02 10 04 08 08 08 08 04     ...@. ..........
     626:	10 02 10 02 3f ff 00 00 00 00 00 00 00 00 00 00     ....?...........
     636:	3f ff 10 02 10 02 08 04 08 08 04 08 02 10 02 10     ?...............
     646:	01 20 01 40 00 c0 00 00 00 00 00 00 00 00 00 04     . .@............
     656:	00 1c 00 24 00 c4 03 04 04 04 18 04 10 04 0c 04     ...$............
     666:	03 04 00 84 00 64 00 1c 00 04 00 00 00 00 00 00     .....d..........
     676:	3f fc 3f fc 30 0c 32 6c 32 ec 33 cc 31 8c 33 ec     ?.?.0.2l2.3.1.3.
     686:	36 6c 36 0c 3f fc 3f fc 00 00 00 00 00 00 00 02     6l6.?.?.........
     696:	3f fc 3f fc 30 1c 30 2c 30 4c 34 cc 3f 8c 33 0c     ?.?.0.0,0L4.?.3.
     6a6:	33 0c 30 0c 3f fc 3f fc 00 00 00 00 00 00 00 00     3.0.?.?.........
     6b6:	00 00 00 00 00 00 3f fe 28 06 26 1a 23 62 26 b2     ......?.(.&.#b&.
     6c6:	38 0e 30 06 3f fe 00 00 00 00 00 00 00 00 00 00     8.0.?...........
     6d6:	3f fc 3f fc 30 0c 30 0c 30 0c 30 0c 30 0c 30 0c     ?.?.0.0.0.0.0.0.
     6e6:	30 0c 30 0c 3f fc 3f fc 00 00 00 00 00 00 00 60     0.0.?.?........`
     6f6:	01 fc 02 06 04 00 08 00 3f f8 08 00 1f f8 08 00     ........?.......
     706:	0c 00 04 00 03 04 01 f8 00 00 00 00 00 00 00 38     ...............8
     716:	00 70 00 e0 00 c0 01 80 03 10 03 e0 06 c0 00 80     .p..............
     726:	01 80 0b 00 0a 00 0f 80 0c 00 00 00 00 00 00 00     ................
     736:	1c 60 38 c0 18 80 19 80 13 38 32 70 36 60 0c cc     .`8......82p6`..
     746:	08 fc 10 18 30 18 00 00 00 00 00 00 00 00 00 00     ....0...........
     756:	0c 30 38 60 18 40 18 80 31 fc 33 06 02 06 04 1c     .08`.@..1.3.....
     766:	0c 70 18 fc 00 00 00 00 00 00 00 00 00 00 00 00     .p..............
     776:	00 00 7c 18 0c 30 38 20 70 60 0c dc 0c b8 f9 30     ..|..08 p`.....0
     786:	03 66 02 7e 04 0c 0c 0c 00 00 00 00 00 00 00 00     .f.~............
     796:	00 00 00 60 00 e0 00 e0 00 00 00 c0 01 c0 07 80     ...`............
     7a6:	0f 00 0e 00 0e 10 07 f0 03 e0 00 00 00 00 00 00     ................
     7b6:	01 90 02 70 00 00 0c 60 1d f0 1f 70 1e 70 1c e0     ...p...`...p.p..
     7c6:	1c e0 38 e0 38 f0 00 00 00 00 00 00 00 00 07 c0     ..8.8...........
     7d6:	18 30 30 18 2c 68 4c 64 40 04 40 04 48 24 48 24     .00.,hLd@.@.H$H$
     7e6:	24 48 33 98 18 30 07 c0 00 00 00 00 00 00 03 e0     $H3..0..........
     7f6:	0c 18 18 0c 16 34 26 32 20 02 21 c2 22 22 24 12     .....4&2 .!.""$.
     806:	14 14 18 0c 0c 18 03 e0 00 00 00 00 00 00 00 00     ................
     816:	07 c0 18 30 30 18 26 c8 46 c4 40 04 40 04 4f e4     ...00.&.F.@.@.O.
     826:	20 08 30 18 18 30 07 c0 00 00 00 00 00 00 00 00      .0..0..........
     836:	01 e0 03 f0 03 f0 02 d0 01 20 00 c0 00 c0 0c 08     ......... ......
     846:	0f 38 00 c0 03 30 0e 18 00 00 00 00 00 00 00 80     .8...0..........
     856:	01 c0 03 e0 07 f0 0f f8 1f fc 3d de 31 c6 21 c2     ..........=.1.!.
     866:	01 c0 01 c0 01 c0 01 c0 01 c0 01 c0 00 00 01 c0     ................
     876:	01 c0 01 c0 01 c0 01 c0 01 c0 21 c2 31 c6 3d de     ..........!.1.=.
     886:	1f fc 0f f8 07 f0 03 e0 01 c0 00 80 00 00 03 80     ................
     896:	07 00 0e 00 1e 00 3c 00 7f fe ff fe 7f fe 3c 00     ......<.......<.
     8a6:	1e 00 0e 00 07 00 03 80 00 00 00 00 00 00 01 c0     ................
     8b6:	00 e0 00 70 00 78 00 3c 7f fe 7f ff 7f fe 00 3c     ...p.x.<.......<
     8c6:	00 78 00 70 00 e0 01 c0 00 00 00 00 00 00 00 08     .x.p............
     8d6:	00 10 00 20 00 40 00 80 01 80 33 00 1a 00 0e 00     ... .@....3.....
     8e6:	0c 00 08 00 00 00 00 00 00 00 00 00 00 00 20 00     .............. .
     8f6:	38 00 24 00 23 00 20 c0 20 20 20 18 20 08 20 30     8.$.#. .   . . 0
     906:	20 c0 21 00 26 00 38 00 20 00 00 00 00 00 00 00      .!.&.8. .......
     916:	00 38 00 38 10 38 10 2c 20 04 20 04 20 04 20 04     .8.8.8., . . . .
     926:	10 08 10 08 0c 30 03 c0 00 00 00 00 00 00 00 00     .....0..........
     936:	1c 00 1c 00 1c 08 34 08 20 04 20 04 20 04 20 04     ......4. . . . .
     946:	10 08 10 08 0c 30 03 c0 00 00 00 00 00 00 00 00     .....0..........
     956:	1c 70 32 98 21 08 21 08 20 08 20 08 10 10 10 10     .p2.!.!. . .....
     966:	08 20 04 40 02 80 03 00 01 00 00 00 00 00 00 00     . .@............
     976:	07 f0 08 08 13 e4 24 12 24 02 24 02 24 02 24 12     ......$.$.$.$.$.
     986:	23 e2 10 04 08 08 07 f0 00 00 00 00 00 00 00 00     #...............
     996:	07 e0 08 10 17 c8 24 24 24 24 27 c4 24 84 24 44     ......$$$$'.$.$D
     9a6:	24 24 10 08 08 10 07 e0 00 00 00 00 00 00 00 00     $$..............
     9b6:	07 c0 08 20 10 10 20 08 20 08 20 08 20 08 20 08     ... .. . . . . .
     9c6:	10 10 10 10 0c 60 3e f8 00 00 00 00 00 00 00 00     .....`>.........
     9d6:	00 00 01 80 02 80 02 80 02 80 03 00 02 00 02 00     ................
     9e6:	06 00 02 00 02 80 03 80 00 00 00 00 00 00 00 00     ................
	...
     9fe:	06 70 09 88 08 88 09 88 06 70 00 00 00 00 00 00     .p.......p......
	...
     a16:	00 00 40 80 40 80 60 9c 50 a2 48 a2 48 a2 44 a2     ..@.@.`.P.H.H.D.
     a26:	42 9c 41 80 40 be 40 80 00 00 00 00 00 80 01 c0     B.A.@.@.........
     a36:	01 40 02 20 04 10 00 00 00 00 00 00 00 00 00 00     .@. ............
	...
     a6e:	00 00 ff ff 00 00 00 00 00 7c 00 e6 00 c6 00 ce     .........|......
     a7e:	00 7c 00 00 00 00 00 00 00 00 00 00 00 00 00 00     .|..............
	...
     a96:	00 7c 00 fe 01 c2 03 80 03 80 03 f8 03 f8 07 00     .|..............
     aa6:	06 00 0f fc 07 fc 00 00 00 00 00 00 00 00 00 00     ................
     ab6:	00 00 00 00 03 30 03 30 02 20 06 60 06 68 06 e8     .....0.0. .`.h..
     ac6:	07 b0 04 00 0c 00 0c 00 0c 00 00 00 00 00 03 f8     ................
     ad6:	06 18 0c 08 0c 00 1f f0 1f f0 08 00 1f e0 0c 00     ................
     ae6:	0c 08 07 18 03 f0 00 00 00 00 00 00 00 00 00 00     ................
     af6:	00 00 00 80 01 80 03 80 07 80 0f 80 0f 80 07 80     ................
     b06:	03 80 01 80 00 80 00 00 00 00 00 00 00 00 00 00     ................
     b16:	00 00 02 00 03 00 03 80 03 c0 03 e0 03 e0 03 c0     ................
     b26:	03 80 03 00 02 00 00 00 00 00 00 00 00 00 00 00     ................
     b36:	00 00 00 00 03 00 07 80 0f c0 1f e0 3f f0 00 00     ............?...
	...
     b5a:	00 00 3f f0 1f e0 0f c0 07 80 03 00 00 00 00 00     ..?.............
	...
     b7a:	02 10 06 30 0e 70 1e f0 3f f0 3f f0 1e f0 0e 70     ...0.p..?.?....p
     b8a:	06 30 02 10 00 00 00 00 00 00 7f fc 43 82 43 c2     .0..........C.C.
     b9a:	47 c2 43 82 40 02 47 c2 43 c2 43 c2 43 c2 43 c2     G.C.@.G.C.C.C.C.
     baa:	43 c2 40 02 7f fc 00 00 00 00 00 00 00 00 08 40     C.@............@
     bba:	0c 60 0e 70 0f 78 0f fc 0f fc 0f 78 0e 70 0c 60     .`.p.x.....x.p.`
     bca:	08 40 00 00 00 00 00 00 00 00 00 00 00 00 00 00     .@..............
     bda:	30 84 31 8c 33 9c 37 bc 3f fc 3f fc 37 bc 33 9c     0.1.3.7.?.?.7.3.
     bea:	31 8c 30 84 00 00 00 00 00 00 00 00 00 00 00 00     1.0.............
     bfa:	21 0c 31 8c 39 cc 3d ec 3f fc 3f fc 3d ec 39 cc     !.1.9.=.?.?.=.9.
     c0a:	31 8c 21 0c 00 00 00 00 00 00 00 00 00 00 0c c0     1.!.............
     c1a:	0c c0 0c c0 0c c0 0c c0 0c c0 0c c0 0c c0 0c c0     ................
     c2a:	0c c0 0c c0 00 00 00 00 00 00 00 00 00 00 0f fc     ................
     c3a:	0f fc 0f fc 0f fc 0f fc 0f fc 0f fc 0f fc 0f fc     ................
     c4a:	0f fc 00 00 00 00 00 00 00 00 00 00 00 00 01 e0     ................
     c5a:	07 f8 07 f8 0f fc 0f fc 0f fc 0f fc 07 f8 07 f8     ................
     c6a:	01 e0 00 00 00 00 00 00 00 00 08 00 0c 00 0e 00     ................
     c7a:	0f 00 0f c0 0f c0 0f c0 0f c0 0f c0 0f 00 0e 00     ................
     c8a:	0c 00 08 00 00 00 00 00 00 00 00 08 00 38 00 78     .............8.x
     c9a:	01 e8 03 c8 03 08 02 08 02 78 02 f8 02 f0 1e 00     .........x......
     caa:	3e 00 3c 00 00 00 00 00 00 00 04 20 1c 70 1c 30     >.<........ .p.0
     cba:	1c 38 30 18 30 18 30 18 30 18 38 70 18 70 1c 70     .80.0.0.0.8p.p.p
     cca:	08 40 00 00 00 00 00 00 00 00 00 00 01 80 03 80     .@..............
     cda:	03 80 03 00 02 00 02 00 02 00 02 00 03 00 03 80     ................
     cea:	03 80 01 80 00 00 00 00 00 00 06 00 1c 18 38 20     ..............8 
     cfa:	34 3a 6e 7c e7 70 43 e0 01 c0 03 e0 07 70 1e 38     4:n|.pC......p.8
     d0a:	2c 1c 04 0e 18 04 00 00 03 00 07 80 0f c0 1f e0     ,...............
     d1a:	3f f0 7f f8 ff fc ff fc 7f f8 3f f0 1f e0 0f c0     ?.........?.....
     d2a:	07 80 03 00 00 00 00 00 00 00 00 00 00 00 00 00     ................
     d3a:	00 00 06 70 0f f8 3f fe 1c 1c 0f f8 03 e0 00 00     ...p..?.........
	...
     d56:	03 e0 0c 18 18 0c 13 c4 22 22 22 22 22 22 23 c2     ........""""""#.
     d66:	22 02 12 04 1a 0c 0c 18 03 e0 00 00 00 00 00 00     "...............
     d76:	00 00 03 fc 1f fe 1f ff 3f ff 3f ff 3f ff 1f ff     ........?.?.?...
     d86:	0f ff 1f f8 1c 00 38 00 00 00 00 00 00 00 02 00     ......8.........
     d96:	01 00 01 c0 00 e0 20 e0 30 e0 bf ff 30 e0 20 e0     ...... .0...0. .
     da6:	00 e0 01 80 01 c0 03 00 00 00 00 00 00 00 00 00     ................
     db6:	78 00 4e 00 b5 00 ba c0 89 b0 78 48 26 38 19 94     x.N.......xH&8..
     dc6:	06 64 01 a2 00 7e 00 00 00 00 00 00 00 00 01 80     .d...~..........
     dd6:	01 80 01 80 0f f0 0f f0 01 80 01 80 01 80 01 80     ................
     de6:	01 80 01 80 01 80 00 00 00 00 00 00 00 00 00 00     ................
     df6:	00 00 c0 00 78 00 3f 00 1f e0 0f fc 08 0e 10 70     ....x.?........p
     e06:	23 80 4c 00 f0 00 00 00 00 00 00 00 00 00 00 00     #.L.............
     e16:	00 00 70 00 50 0f 78 7c 07 e0 03 80 07 e0 78 7c     ..p.P.x|......x|
     e26:	50 0f 70 00 00 00 00 00 00 00 00 00 00 00 00 80     P.p.............
     e36:	00 c0 00 c0 01 e0 03 30 07 38 1e 1e 20 03 1f 3c     .......0.8.. ..<
     e46:	03 30 01 a0 00 c0 00 c0 00 80 00 00                 .0..........

00000e52 <arial_bold>:
     e52:	10 10 20 5f 00 00 00 00 00 00 00 00 00 00 00 00     .. _............
	...
     e7a:	03 00 03 00 03 00 03 00 03 00 03 00 03 00 03 00     ................
     e8a:	03 00 00 00 03 00 03 00 00 00 00 00 00 00 00 00     ................
     e9a:	06 60 06 60 06 60 06 60 00 00 00 00 00 00 00 00     .`.`.`.`........
	...
     eba:	03 60 03 60 06 c0 3f f0 3f f0 06 c0 0d 80 3f f0     .`.`..?.?.....?.
     eca:	3f f0 0d 80 1b 00 1b 00 00 00 00 00 00 00 01 00     ?...............
     eda:	03 80 07 c0 0d 60 0d 00 0f 00 07 80 03 c0 01 e0     .....`..........
     eea:	0d 60 0d 60 07 c0 03 80 01 00 00 00 00 00 00 00     .`.`............
     efa:	3c 18 66 30 66 30 66 60 66 c0 3c c0 01 9e 01 b3     <.f0f0f`f.<.....
     f0a:	03 33 03 33 06 33 0c 1e 00 00 00 00 00 00 00 00     .3.3.3..........
     f1a:	07 c0 0f e0 0c 60 0c 60 07 c0 07 80 0d 90 19 d8     .....`.`........
     f2a:	18 f0 18 78 0f fc 07 88 00 00 00 00 00 00 00 00     ...x............
     f3a:	01 80 01 80 01 80 01 80 00 00 00 00 00 00 00 00     ................
	...
     f56:	00 00 01 80 03 00 03 00 06 00 06 00 06 00 06 00     ................
     f66:	06 00 06 00 06 00 03 00 03 00 01 80 00 00 00 00     ................
     f76:	00 00 06 00 03 00 03 00 01 80 01 80 01 80 01 80     ................
     f86:	01 80 01 80 01 80 03 00 03 00 06 00 00 00 00 00     ................
	...
     f9e:	03 80 03 80 33 98 3f f8 07 c0 07 c0 0e e0 1c 70     ....3.?........p
     fae:	04 40 00 00 00 00 00 00 00 00 00 00 00 00 00 00     .@..............
     fbe:	00 00 00 c0 00 c0 00 c0 07 f8 07 f8 00 c0 00 c0     ................
     fce:	00 c0 00 00 00 00 00 00 00 00 00 00 00 00 00 00     ................
	...
     fea:	03 00 03 00 01 00 01 00 02 00 00 00 00 00 00 00     ................
	...
    1006:	03 e0 03 e0 00 00 00 00 00 00 00 00 00 00 00 00     ................
	...
    102a:	00 00 03 00 03 00 00 00 00 00 00 00 00 00 00 00     ................
    103a:	00 60 00 60 00 c0 00 c0 00 c0 00 c0 01 80 01 80     .`.`............
    104a:	01 80 01 80 03 00 03 00 00 00 00 00 00 00 00 00     ................
    105a:	03 c0 07 e0 0e 70 0c 30 0c 30 0c 30 0c 30 0c 30     .....p.0.0.0.0.0
    106a:	0c 30 0e 70 07 e0 03 c0 00 00 00 00 00 00 00 00     .0.p............
    107a:	01 80 03 80 07 80 0d 80 09 80 01 80 01 80 01 80     ................
    108a:	01 80 01 80 01 80 01 80 00 00 00 00 00 00 00 00     ................
    109a:	03 c0 07 e0 0e 30 0c 30 00 30 00 60 00 e0 01 c0     .....0.0.0.`....
    10aa:	03 80 06 00 0f f0 0f f0 00 00 00 00 00 00 00 00     ................
    10ba:	03 e0 07 f0 0e 30 00 30 01 e0 01 e0 00 70 00 30     .....0.0.....p.0
    10ca:	0c 30 0e 70 07 e0 03 c0 00 00 00 00 00 00 00 00     .0.p............
    10da:	00 60 00 e0 00 e0 01 e0 03 60 03 60 06 60 0c 60     .`.......`.`.`.`
    10ea:	0f f0 0f f0 00 60 00 60 00 00 00 00 00 00 00 00     .....`.`........
    10fa:	07 e0 07 e0 06 00 0c 00 0f c0 0f e0 0c 70 00 30     .............p.0
    110a:	0c 30 0e 70 07 e0 03 c0 00 00 00 00 00 00 00 00     .0.p............
    111a:	03 e0 07 f0 06 30 0c 00 0d c0 0f e0 0e 70 0c 30     .....0.......p.0
    112a:	0c 30 06 30 07 e0 03 c0 00 00 00 00 00 00 00 00     .0.0............
    113a:	0f f0 0f f0 00 60 00 c0 00 c0 01 80 01 80 01 80     .....`..........
    114a:	03 80 03 00 03 00 03 00 00 00 00 00 00 00 00 00     ................
    115a:	03 c0 07 e0 0c 30 0c 30 0c 30 07 e0 07 e0 0c 30     .....0.0.0.....0
    116a:	0c 30 0c 30 07 e0 03 c0 00 00 00 00 00 00 00 00     .0.0............
    117a:	03 c0 07 e0 0c 60 0c 30 0c 30 0e 70 07 f0 03 b0     .....`.0.0.p....
    118a:	00 30 0c 60 0f e0 07 c0 00 00 00 00 00 00 00 00     .0.`............
    119a:	00 00 01 80 01 80 00 00 00 00 00 00 00 00 00 00     ................
    11aa:	01 80 01 80 00 00 00 00 00 00 00 00 00 00 00 00     ................
    11ba:	00 00 01 80 01 80 00 00 00 00 00 00 00 00 00 00     ................
    11ca:	01 80 01 80 00 80 00 80 01 00 00 00 00 00 00 00     ................
    11da:	00 00 00 00 00 20 00 e0 03 c0 0f 00 1c 00 0f 00     ..... ..........
    11ea:	03 c0 00 e0 00 20 00 00 00 00 00 00 00 00 00 00     ..... ..........
    11fa:	00 00 00 00 1f f0 1f f0 00 00 00 00 1f f0 1f f0     ................
	...
    121e:	08 00 0e 00 07 80 01 e0 00 70 01 e0 07 80 0e 00     .........p......
    122e:	08 00 00 00 00 00 00 00 00 00 00 00 03 c0 07 e0     ................
    123e:	0e 30 0c 30 00 70 00 e0 01 c0 01 80 01 80 00 00     .0.0.p..........
    124e:	01 80 01 80 00 00 00 00 00 00 07 c0 0c 30 13 78     .............0.x
    125e:	17 e8 2c c8 2c c8 2c c8 2f d0 26 e0 10 08 08 10     ..,.,.,./.&.....
    126e:	07 e0 00 00 00 00 00 00 00 00 00 00 03 80 03 80     ................
    127e:	06 c0 06 c0 06 c0 0c 60 0c 60 0f e0 1f f0 18 30     .......`.`.....0
    128e:	18 30 30 18 00 00 00 00 00 00 00 00 1f e0 1f f0     .00.............
    129e:	18 30 18 30 18 30 1f e0 1f f0 18 18 18 18 18 18     .0.0.0..........
    12ae:	1f f0 1f e0 00 00 00 00 00 00 00 00 03 e0 0f f0     ................
    12be:	0c 38 1c 10 18 00 18 00 18 00 18 00 1c 10 0c 38     .8.............8
    12ce:	0f f0 03 e0 00 00 00 00 00 00 00 00 1f c0 1f f0     ................
    12de:	18 30 18 18 18 18 18 18 18 18 18 18 18 18 18 30     .0.............0
    12ee:	1f f0 1f c0 00 00 00 00 00 00 00 00 0f f8 0f f8     ................
    12fe:	0c 00 0c 00 0c 00 0f f8 0f f8 0c 00 0c 00 0c 00     ................
    130e:	0f f8 0f f8 00 00 00 00 00 00 00 00 0f f0 0f f0     ................
    131e:	0c 00 0c 00 0c 00 0f e0 0f e0 0c 00 0c 00 0c 00     ................
    132e:	0c 00 0c 00 00 00 00 00 00 00 00 00 07 e0 1f f0     ................
    133e:	18 38 38 10 30 00 30 00 30 f8 30 f8 38 18 18 38     .88.0.0.0.0.8..8
    134e:	1f f8 07 e0 00 00 00 00 00 00 00 00 18 18 18 18     ................
    135e:	18 18 18 18 18 18 1f f8 1f f8 18 18 18 18 18 18     ................
    136e:	18 18 18 18 00 00 00 00 00 00 00 00 01 80 01 80     ................
    137e:	01 80 01 80 01 80 01 80 01 80 01 80 01 80 01 80     ................
    138e:	01 80 01 80 00 00 00 00 00 00 00 00 00 30 00 30     .............0.0
    139e:	00 30 00 30 00 30 00 30 00 30 00 30 0c 30 0e 70     .0.0.0.0.0.0.0.p
    13ae:	07 e0 03 c0 00 00 00 00 00 00 00 00 18 18 18 30     ...............0
    13be:	18 60 18 c0 19 80 1b c0 1e c0 1c 60 18 70 18 30     .`.........`.p.0
    13ce:	18 18 18 18 00 00 00 00 00 00 00 00 0c 00 0c 00     ................
    13de:	0c 00 0c 00 0c 00 0c 00 0c 00 0c 00 0c 00 0c 00     ................
    13ee:	0f f0 0f f0 00 00 00 00 00 00 00 00 38 38 38 38     ............8888
    13fe:	3c 78 3c 78 34 58 36 d8 36 d8 36 d8 33 98 33 98     <x<x4X6.6.6.3.3.
    140e:	33 98 31 18 00 00 00 00 00 00 00 00 18 18 1c 18     3.1.............
    141e:	1e 18 1e 18 1b 18 19 98 19 98 18 d8 18 78 18 78     .............x.x
    142e:	18 38 18 18 00 00 00 00 00 00 00 00 07 c0 1f f0     .8..............
    143e:	18 30 30 18 30 18 30 18 30 18 30 18 30 18 18 30     .00.0.0.0.0.0..0
    144e:	1f f0 07 c0 00 00 00 00 00 00 00 00 0f e0 0f f0     ................
    145e:	0c 38 0c 18 0c 38 0f f0 0f e0 0c 00 0c 00 0c 00     .8...8..........
    146e:	0c 00 0c 00 00 00 00 00 00 00 00 00 07 c0 1f f0     ................
    147e:	18 30 30 18 30 18 30 18 30 18 30 18 31 b8 18 f0     .00.0.0.0.0.1...
    148e:	1f f0 07 b0 00 18 00 00 00 00 00 00 1f e0 1f f0     ................
    149e:	18 38 18 18 18 38 1f f0 1f c0 18 e0 18 70 18 30     .8...8.......p.0
    14ae:	18 38 18 1c 00 00 00 00 00 00 00 00 03 e0 07 f0     .8..............
    14be:	0e 38 0c 18 0f 00 07 e0 01 f0 00 38 0c 18 0e 38     .8.........8...8
    14ce:	07 f0 03 e0 00 00 00 00 00 00 00 00 1f f8 1f f8     ................
    14de:	01 80 01 80 01 80 01 80 01 80 01 80 01 80 01 80     ................
    14ee:	01 80 01 80 00 00 00 00 00 00 00 00 18 18 18 18     ................
    14fe:	18 18 18 18 18 18 18 18 18 18 18 18 18 18 1c 38     ...............8
    150e:	0f f0 07 e0 00 00 00 00 00 00 00 00 30 18 18 30     ............0..0
    151e:	18 30 18 30 0c 60 0c 60 0e e0 06 c0 06 c0 03 80     .0.0.`.`........
    152e:	03 80 03 80 00 00 00 00 00 00 00 00 31 c6 31 c6     ............1.1.
    153e:	31 c6 1b 6c 1b 6c 1b 6c 1b 6c 1b 6c 0e 38 0e 38     1..l.l.l.l.l.8.8
    154e:	0e 38 0e 38 00 00 00 00 00 00 00 00 18 30 1c 70     .8.8.........0.p
    155e:	0c 60 06 c0 07 c0 03 80 03 80 07 c0 06 c0 0c 60     .`.............`
    156e:	1c 70 18 30 00 00 00 00 00 00 00 00 18 18 1c 38     .p.0...........8
    157e:	0c 30 06 60 06 60 03 c0 01 80 01 80 01 80 01 80     .0.`.`..........
    158e:	01 80 01 80 00 00 00 00 00 00 00 00 07 f8 07 f8     ................
    159e:	00 30 00 60 00 e0 00 c0 01 80 03 80 03 00 06 00     .0.`............
    15ae:	0f f8 0f f8 00 00 00 00 00 00 03 c0 03 c0 03 00     ................
    15be:	03 00 03 00 03 00 03 00 03 00 03 00 03 00 03 00     ................
    15ce:	03 00 03 c0 03 c0 00 00 00 00 00 00 03 00 03 00     ................
    15de:	01 80 01 80 01 80 01 80 00 c0 00 c0 00 c0 00 c0     ................
    15ee:	00 60 00 60 00 00 00 00 00 00 03 c0 03 c0 00 c0     .`.`............
    15fe:	00 c0 00 c0 00 c0 00 c0 00 c0 00 c0 00 c0 00 c0     ................
    160e:	00 c0 03 c0 03 c0 00 00 00 00 01 80 03 c0 03 c0     ................
    161e:	06 60 06 60 06 60 0c 30 00 00 00 00 00 00 00 00     .`.`.`.0........
	...
    164e:	00 00 ff ff ff ff 00 00 00 00 00 00 01 80 00 c0     ................
	...
    167e:	07 c0 0f e0 0c 60 01 e0 07 e0 0e 60 0c 60 0f e0     .....`.....`.`..
    168e:	07 b0 00 00 00 00 00 00 00 00 0c 00 0c 00 0c 00     ................
    169e:	0d c0 0f e0 0e 70 0c 30 0c 30 0c 30 0e 70 0f e0     .....p.0.0.0.p..
    16ae:	0d c0 00 00 00 00 00 00 00 00 00 00 00 00 00 00     ................
    16be:	03 c0 07 e0 0e 60 0c 00 0c 00 0c 00 0e 60 07 e0     .....`.......`..
    16ce:	03 c0 00 00 00 00 00 00 00 00 00 30 00 30 00 30     ...........0.0.0
    16de:	03 b0 07 f0 0e 70 0c 30 0c 30 0c 30 0e 70 07 f0     .....p.0.0.0.p..
    16ee:	03 b0 00 00 00 00 00 00 00 00 00 00 00 00 00 00     ................
    16fe:	03 80 07 c0 0c 60 0f e0 0f e0 0c 00 0e 60 07 c0     .....`.......`..
    170e:	03 80 00 00 00 00 00 00 00 00 03 c0 07 c0 06 00     ................
    171e:	0f 80 0f 80 06 00 06 00 06 00 06 00 06 00 06 00     ................
    172e:	06 00 00 00 00 00 00 00 00 00 00 00 00 00 07 60     ...............`
    173e:	0f e0 1c e0 18 60 18 60 18 60 1c e0 0f e0 07 60     .....`.`.`.....`
    174e:	18 60 1f e0 0f c0 00 00 00 00 0c 00 0c 00 0c 00     .`..............
    175e:	0d e0 0f f0 0e 30 0c 30 0c 30 0c 30 0c 30 0c 30     .....0.0.0.0.0.0
    176e:	0c 30 00 00 00 00 00 00 00 00 00 00 01 80 01 80     .0..............
    177e:	00 00 01 80 01 80 01 80 01 80 01 80 01 80 01 80     ................
    178e:	01 80 00 00 00 00 00 00 00 00 00 00 01 80 01 80     ................
    179e:	00 00 01 80 01 80 01 80 01 80 01 80 01 80 01 80     ................
    17ae:	01 80 01 80 07 80 07 00 00 00 0c 00 0c 00 0c 00     ................
    17be:	0c 60 0c c0 0d 80 0f 80 0f c0 0e c0 0c c0 0c 60     .`.............`
    17ce:	0c 60 00 00 00 00 00 00 00 00 01 80 01 80 01 80     .`..............
    17de:	01 80 01 80 01 80 01 80 01 80 01 80 01 80 01 80     ................
    17ee:	01 80 00 00 00 00 00 00 00 00 00 00 00 00 00 00     ................
    17fe:	37 38 3f fc 39 cc 31 8c 31 8c 31 8c 31 8c 31 8c     78?.9.1.1.1.1.1.
    180e:	31 8c 00 00 00 00 00 00 00 00 00 00 00 00 00 00     1...............
    181e:	0d e0 0f f0 0e 30 0c 30 0c 30 0c 30 0c 30 0c 30     .....0.0.0.0.0.0
    182e:	0c 30 00 00 00 00 00 00 00 00 00 00 00 00 00 00     .0..............
    183e:	03 c0 07 e0 0e 70 0c 30 0c 30 0c 30 0e 70 07 e0     .....p.0.0.0.p..
    184e:	03 c0 00 00 00 00 00 00 00 00 00 00 00 00 00 00     ................
    185e:	0d c0 0f e0 0e 70 0c 30 0c 30 0c 30 0e 70 0f e0     .....p.0.0.0.p..
    186e:	0d c0 0c 00 0c 00 0c 00 00 00 00 00 00 00 00 00     ................
    187e:	03 b0 07 f0 0e 70 0c 30 0c 30 0c 30 0e 70 07 f0     .....p.0.0.0.p..
    188e:	03 b0 00 30 00 30 00 30 00 00 00 00 00 00 00 00     ...0.0.0........
    189e:	03 70 03 f0 03 80 03 00 03 00 03 00 03 00 03 00     .p..............
    18ae:	03 00 00 00 00 00 00 00 00 00 00 00 00 00 00 00     ................
    18be:	07 c0 0f e0 0c 60 0f 00 07 c0 00 e0 0c 60 0f e0     .....`.......`..
    18ce:	07 c0 00 00 00 00 00 00 00 00 01 00 03 00 03 00     ................
    18de:	07 c0 07 c0 03 00 03 00 03 00 03 00 03 00 03 c0     ................
    18ee:	01 c0 00 00 00 00 00 00 00 00 00 00 00 00 00 00     ................
    18fe:	0c 30 0c 30 0c 30 0c 30 0c 30 0c 30 0c 70 0f f0     .0.0.0.0.0.0.p..
    190e:	07 b0 00 00 00 00 00 00 00 00 00 00 00 00 00 00     ................
    191e:	06 30 06 30 06 30 03 60 03 60 03 60 01 c0 01 c0     .0.0.0.`.`.`....
    192e:	01 c0 00 00 00 00 00 00 00 00 00 00 00 00 00 00     ................
    193e:	31 c6 31 c6 19 cc 1b 6c 1b 6c 1b 6c 0e 38 0e 38     1.1....l.l.l.8.8
    194e:	0e 38 00 00 00 00 00 00 00 00 00 00 00 00 00 00     .8..............
    195e:	06 30 07 70 03 60 01 c0 01 c0 01 c0 03 60 07 70     .0.p.`.......`.p
    196e:	06 30 00 00 00 00 00 00 00 00 00 00 00 00 00 00     .0..............
    197e:	0c 18 0c 18 06 30 06 30 03 60 03 60 03 e0 01 c0     .....0.0.`.`....
    198e:	01 c0 01 80 07 80 07 00 00 00 00 00 00 00 00 00     ................
    199e:	03 f8 03 f8 00 30 00 70 00 e0 01 c0 01 80 03 f8     .....0.p........
    19ae:	03 f8 00 00 00 00 00 00 01 c0 03 c0 03 00 03 00     ................
    19be:	03 00 03 00 0e 00 0e 00 03 00 03 00 03 00 03 00     ................
    19ce:	03 00 03 c0 01 c0 00 00 01 80 01 80 01 80 01 80     ................
    19de:	01 80 01 80 01 80 01 80 01 80 01 80 01 80 01 80     ................
    19ee:	01 80 01 80 01 80 01 80 03 80 03 c0 00 c0 00 c0     ................
    19fe:	00 c0 00 c0 00 70 00 70 00 c0 00 c0 00 c0 00 c0     .....p.p........
    1a0e:	00 c0 03 c0 03 80 00 00 00 00 00 00 07 88 0f f8     ................
    1a1e:	08 f0 00 00 00 00 00 00 00 00 00 00 00 00 00 00     ................
	...

00001a36 <SevenSegNumFont>:
    1a36:	20 32 30 0a 00 00 00 00 00 00 00 00 00 ff fe 00      20.............
    1a46:	01 ff ff 00 03 ff ff 80 01 ff ff 60 0c ff fe f0     ...........`....
    1a56:	1e 00 01 f8 3f 00 01 f8 3f 00 01 f8 3f 00 01 f8     ....?...?...?...
    1a66:	3f 00 01 f8 3f 00 01 f8 3f 00 01 f8 3f 00 01 f8     ?...?...?...?...
    1a76:	3f 00 01 f8 3f 00 01 f8 3f 00 01 f8 3f 00 01 f8     ?...?...?...?...
    1a86:	3f 00 01 f8 3f 00 01 f8 3e 00 00 78 38 00 00 18     ?...?...>..x8...
    1a96:	20 00 00 08 00 00 00 00 20 00 00 00 38 00 00 18      ....... ...8...
    1aa6:	3e 00 00 78 3f 00 01 f8 3f 00 01 f8 3f 00 01 f8     >..x?...?...?...
    1ab6:	3f 00 01 f8 3f 00 01 f8 3f 00 01 f8 3f 00 01 f8     ?...?...?...?...
    1ac6:	3f 00 01 f8 3f 00 01 f8 3f 00 01 f8 3f 00 01 f8     ?...?...?...?...
    1ad6:	3f 00 01 f8 3f 00 01 f8 3f 00 01 f8 1e 00 00 f0     ?...?...?.......
    1ae6:	0c ff fe 60 01 ff ff 00 03 ff ff 80 01 ff ff 00     ...`............
    1af6:	00 ff fe 00 00 00 00 00 00 00 00 00 00 00 00 00     ................
	...
    1b16:	00 00 00 60 00 00 00 f0 00 00 01 f8 00 00 01 f8     ...`............
    1b26:	00 00 01 f8 00 00 01 f8 00 00 01 f8 00 00 01 f8     ................
    1b36:	00 00 01 f8 00 00 01 f8 00 00 01 f8 00 00 01 f8     ................
    1b46:	00 00 01 f8 00 00 01 f8 00 00 01 f8 00 00 01 f8     ................
    1b56:	00 00 00 78 00 00 00 18 00 00 00 08 00 00 00 00     ...x............
    1b66:	00 00 00 00 00 00 00 18 00 00 00 78 00 00 01 f8     ...........x....
    1b76:	00 00 01 f8 00 00 01 f8 00 00 01 f8 00 00 01 f8     ................
    1b86:	00 00 01 f8 00 00 01 f8 00 00 01 f8 00 00 01 f8     ................
    1b96:	00 00 01 f8 00 00 01 f8 00 00 01 f8 00 00 01 f8     ................
    1ba6:	00 00 01 f8 00 00 00 f0 00 00 00 60 00 00 00 00     ...........`....
	...
    1bd2:	00 ff fe 00 01 ff ff 00 03 ff ff 80 01 ff ff 60     ...............`
    1be2:	00 ff fe f0 00 00 01 f8 00 00 01 f8 00 00 01 f8     ................
    1bf2:	00 00 01 f8 00 00 01 f8 00 00 01 f8 00 00 01 f8     ................
    1c02:	00 00 01 f8 00 00 01 f8 00 00 01 f8 00 00 01 f8     ................
    1c12:	00 00 01 f8 00 00 01 f8 00 00 01 f8 00 00 00 78     ...............x
    1c22:	01 ff fe 18 03 ff ff 88 0f ff ff e0 27 ff ff c0     ............'...
    1c32:	39 ff ff 00 3e 00 00 00 3f 00 00 00 3f 00 00 00     9...>...?...?...
    1c42:	3f 00 00 00 3f 00 00 00 3f 00 00 00 3f 00 00 00     ?...?...?...?...
    1c52:	3f 00 00 00 3f 00 00 00 3f 00 00 00 3f 00 00 00     ?...?...?...?...
    1c62:	3f 00 00 00 3f 00 00 00 3f 00 00 00 3f 00 00 00     ?...?...?...?...
    1c72:	1e 00 00 00 0c ff fe 00 01 ff ff 00 03 ff ff 80     ................
    1c82:	01 ff ff 00 00 ff fe 00 00 00 00 00 00 00 00 00     ................
	...
    1c9a:	00 ff fe 00 01 ff ff 00 03 ff ff 80 01 ff ff 60     ...............`
    1caa:	00 ff fe f0 00 00 01 f8 00 00 01 f8 00 00 01 f8     ................
    1cba:	00 00 01 f8 00 00 01 f8 00 00 01 f8 00 00 01 f8     ................
    1cca:	00 00 01 f8 00 00 01 f8 00 00 01 f8 00 00 01 f8     ................
    1cda:	00 00 01 f8 00 00 01 f8 00 00 01 f8 00 00 00 78     ...............x
    1cea:	01 ff fe 18 03 ff ff 88 0f ff ff e0 07 ff ff c0     ................
    1cfa:	01 ff ff 18 00 00 00 78 00 00 01 f8 00 00 01 f8     .......x........
    1d0a:	00 00 01 f8 00 00 01 f8 00 00 01 f8 00 00 01 f8     ................
    1d1a:	00 00 01 f8 00 00 01 f8 00 00 01 f8 00 00 01 f8     ................
    1d2a:	00 00 01 f8 00 00 01 f8 00 00 01 f8 00 00 01 f8     ................
    1d3a:	00 00 00 f0 00 ff fe 60 01 ff ff 00 03 ff ff 80     .......`........
    1d4a:	01 ff ff 00 00 ff fe 00 00 00 00 00 00 00 00 00     ................
	...
    1d6e:	00 00 00 60 0c 00 00 f0 1e 00 01 f8 3f 00 01 f8     ...`........?...
    1d7e:	3f 00 01 f8 3f 00 01 f8 3f 00 01 f8 3f 00 01 f8     ?...?...?...?...
    1d8e:	3f 00 01 f8 3f 00 01 f8 3f 00 01 f8 3f 00 01 f8     ?...?...?...?...
    1d9e:	3f 00 01 f8 3f 00 01 f8 3f 00 01 f8 3f 00 01 f8     ?...?...?...?...
    1dae:	3e 00 00 78 39 ff fe 18 23 ff ff 88 0f ff ff e0     >..x9...#.......
    1dbe:	07 ff ff c0 01 ff ff 18 00 00 00 78 00 00 01 f8     ...........x....
    1dce:	00 00 01 f8 00 00 01 f8 00 00 01 f8 00 00 01 f8     ................
    1dde:	00 00 01 f8 00 00 01 f8 00 00 01 f8 00 00 01 f8     ................
    1dee:	00 00 01 f8 00 00 01 f8 00 00 01 f8 00 00 01 f8     ................
    1dfe:	00 00 01 f8 00 00 00 f0 00 00 00 60 00 00 00 00     ...........`....
	...
    1e2a:	00 ff fe 00 01 ff ff 00 03 ff ff 80 01 ff ff 00     ................
    1e3a:	0c ff fe 00 1e 00 00 00 3f 00 00 00 3f 00 00 00     ........?...?...
    1e4a:	3f 00 00 00 3f 00 00 00 3f 00 00 00 3f 00 00 00     ?...?...?...?...
    1e5a:	3f 00 00 00 3f 00 00 00 3f 00 00 00 3f 00 00 00     ?...?...?...?...
    1e6a:	3f 00 00 00 3f 00 00 00 3f 00 00 00 3e 00 00 00     ?...?...?...>...
    1e7a:	39 ff fe 00 23 ff ff 80 0f ff ff e0 07 ff ff c0     9...#...........
    1e8a:	01 ff ff 18 00 00 00 78 00 00 01 f8 00 00 01 f8     .......x........
    1e9a:	00 00 01 f8 00 00 01 f8 00 00 01 f8 00 00 01 f8     ................
    1eaa:	00 00 01 f8 00 00 01 f8 00 00 01 f8 00 00 01 f8     ................
    1eba:	00 00 01 f8 00 00 01 f8 00 00 01 f8 00 00 01 f8     ................
    1eca:	00 00 00 f0 00 ff fe 60 01 ff ff 00 03 ff ff 80     .......`........
    1eda:	01 ff ff 00 00 ff fe 00 00 00 00 00 00 00 00 00     ................
	...
    1ef2:	00 ff fe 00 01 ff ff 00 03 ff ff 80 01 ff ff 00     ................
    1f02:	0c ff fe 00 1e 00 00 00 3f 00 00 00 3f 00 00 00     ........?...?...
    1f12:	3f 00 00 00 3f 00 00 00 3f 00 00 00 3f 00 00 00     ?...?...?...?...
    1f22:	3f 00 00 00 3f 00 00 00 3f 00 00 00 3f 00 00 00     ?...?...?...?...
    1f32:	3f 00 00 00 3f 00 00 00 3f 00 00 00 3e 00 00 00     ?...?...?...>...
    1f42:	39 ff fe 00 23 ff ff 80 0f ff ff e0 27 ff ff c0     9...#.......'...
    1f52:	39 ff ff 18 3e 00 00 78 3f 00 01 f8 3f 00 01 f8     9...>..x?...?...
    1f62:	3f 00 01 f8 3f 00 01 f8 3f 00 01 f8 3f 00 01 f8     ?...?...?...?...
    1f72:	3f 00 01 f8 3f 00 01 f8 3f 00 01 f8 3f 00 01 f8     ?...?...?...?...
    1f82:	3f 00 01 f8 3f 00 01 f8 3f 00 01 f8 3f 00 01 f8     ?...?...?...?...
    1f92:	1e 00 00 f0 0c ff fe 60 01 ff ff 00 03 ff ff 80     .......`........
    1fa2:	01 ff ff 00 00 ff fe 00 00 00 00 00 00 00 00 00     ................
	...
    1fba:	00 ff fe 00 01 ff ff 00 03 ff ff 80 01 ff ff 60     ...............`
    1fca:	00 ff fe f0 00 00 01 f8 00 00 01 f8 00 00 01 f8     ................
    1fda:	00 00 01 f8 00 00 01 f8 00 00 01 f8 00 00 01 f8     ................
    1fea:	00 00 01 f8 00 00 01 f8 00 00 01 f8 00 00 01 f8     ................
    1ffa:	00 00 01 f8 00 00 01 f8 00 00 01 f8 00 00 00 78     ...............x
    200a:	00 00 00 18 00 00 00 08 00 00 00 00 00 00 00 00     ................
    201a:	00 00 00 18 00 00 00 78 00 00 01 f8 00 00 01 f8     .......x........
    202a:	00 00 01 f8 00 00 01 f8 00 00 01 f8 00 00 01 f8     ................
    203a:	00 00 01 f8 00 00 01 f8 00 00 01 f8 00 00 01 f8     ................
    204a:	00 00 01 f8 00 00 01 f8 00 00 01 f8 00 00 01 f8     ................
    205a:	00 00 00 f0 00 00 00 60 00 00 00 00 00 00 00 00     .......`........
	...
    2082:	00 ff fe 00 01 ff ff 00 03 ff ff 80 01 ff ff 60     ...............`
    2092:	0c ff fe f0 1e 00 01 f8 3f 00 01 f8 3f 00 01 f8     ........?...?...
    20a2:	3f 00 01 f8 3f 00 01 f8 3f 00 01 f8 3f 00 01 f8     ?...?...?...?...
    20b2:	3f 00 01 f8 3f 00 01 f8 3f 00 01 f8 3f 00 01 f8     ?...?...?...?...
    20c2:	3f 00 01 f8 3f 00 01 f8 3f 00 01 f8 3e 00 00 78     ?...?...?...>..x
    20d2:	39 ff fe 18 23 ff ff 88 0f ff ff e0 27 ff ff c0     9...#.......'...
    20e2:	39 ff ff 18 3e 00 00 78 3f 00 01 f8 3f 00 01 f8     9...>..x?...?...
    20f2:	3f 00 01 f8 3f 00 01 f8 3f 00 01 f8 3f 00 01 f8     ?...?...?...?...
    2102:	3f 00 01 f8 3f 00 01 f8 3f 00 01 f8 3f 00 01 f8     ?...?...?...?...
    2112:	3f 00 01 f8 3f 00 01 f8 3f 00 01 f8 3f 00 01 f8     ?...?...?...?...
    2122:	1e 00 00 f0 0c ff fe 60 01 ff ff 00 03 ff ff 80     .......`........
    2132:	01 ff ff 00 00 ff fe 00 00 00 00 00 00 00 00 00     ................
	...
    214a:	00 ff fe 00 01 ff ff 00 03 ff ff 80 01 ff ff 60     ...............`
    215a:	0c ff fe f0 1e 00 01 f8 3f 00 01 f8 3f 00 01 f8     ........?...?...
    216a:	3f 00 01 f8 3f 00 01 f8 3f 00 01 f8 3f 00 01 f8     ?...?...?...?...
    217a:	3f 00 01 f8 3f 00 01 f8 3f 00 01 f8 3f 00 01 f8     ?...?...?...?...
    218a:	3f 00 01 f8 3f 00 01 f8 3f 00 01 f8 3e 00 00 78     ?...?...?...>..x
    219a:	39 ff fe 18 23 ff ff 88 0f ff ff e0 07 ff ff c0     9...#...........
    21aa:	01 ff ff 18 00 00 00 78 00 00 01 f8 00 00 01 f8     .......x........
    21ba:	00 00 01 f8 00 00 01 f8 00 00 01 f8 00 00 01 f8     ................
    21ca:	00 00 01 f8 00 00 01 f8 00 00 01 f8 00 00 01 f8     ................
    21da:	00 00 01 f8 00 00 01 f8 00 00 01 f8 00 00 01 f8     ................
    21ea:	00 00 00 f0 00 ff fe 60 01 ff ff 00 03 ff ff 80     .......`........
    21fa:	01 ff ff 00 00 ff fe 00 00 00 00 00 00 00 00 00     ................

0000220a <BigFont>:
    220a:	10 10 20 5f 00 00 00 00 00 00 00 00 00 00 00 00     .. _............
	...
    2232:	07 00 0f 80 0f 80 0f 80 0f 80 0f 80 07 00 07 00     ................
    2242:	00 00 00 00 07 00 07 00 07 00 00 00 00 00 0e 38     ...............8
    2252:	0e 38 0e 38 0e 38 06 30 00 00 00 00 00 00 00 00     .8.8.8.0........
	...
    226e:	00 00 0c 30 0c 30 0c 30 7f fe 7f fe 0c 30 0c 30     ...0.0.0.....0.0
    227e:	0c 30 0c 30 7f fe 7f fe 0c 30 0c 30 0c 30 00 00     .0.0.....0.0.0..
    228e:	00 00 02 40 02 40 0f f8 1f f8 1a 40 1a 40 1f f0     ...@.@.....@.@..
    229e:	0f f8 02 58 02 58 1f f8 1f f0 02 40 02 40 00 00     ...X.X.....@.@..
    22ae:	00 00 00 00 00 00 0e 10 0e 30 0e 70 00 e0 01 c0     .........0.p....
    22be:	03 80 07 00 0e 70 0c 70 08 70 00 00 00 00 00 00     .....p.p.p......
    22ce:	00 00 00 00 0f 00 19 80 19 80 19 80 0f 00 0f 08     ................
    22de:	0f 98 19 f8 18 f0 18 e0 19 f0 0f 98 00 00 00 00     ................
    22ee:	00 00 00 00 07 00 07 00 07 00 0e 00 00 00 00 00     ................
	...
    2312:	00 f0 01 c0 03 80 07 00 0e 00 0e 00 0e 00 0e 00     ................
    2322:	07 00 03 80 01 c0 00 f0 00 00 00 00 00 00 00 00     ................
    2332:	0f 00 03 80 01 c0 00 e0 00 70 00 70 00 70 00 70     .........p.p.p.p
    2342:	00 e0 01 c0 03 80 0f 00 00 00 00 00 00 00 00 00     ................
    2352:	01 80 11 88 09 90 07 e0 07 e0 3f fc 3f fc 07 e0     ..........?.?...
    2362:	07 e0 09 90 11 88 01 80 00 00 00 00 00 00 00 00     ................
    2372:	00 00 00 00 01 80 01 80 01 80 0f f0 0f f0 01 80     ................
    2382:	01 80 01 80 00 00 00 00 00 00 00 00 00 00 00 00     ................
	...
    23a2:	00 00 07 00 07 00 07 00 0e 00 00 00 00 00 00 00     ................
	...
    23ba:	00 00 1f f8 1f f8 00 00 00 00 00 00 00 00 00 00     ................
	...
    23e2:	00 00 07 00 07 00 07 00 00 00 00 00 00 00 00 00     ................
    23f2:	00 02 00 06 00 0e 00 1c 00 38 00 70 00 e0 01 c0     .........8.p....
    2402:	03 80 07 00 0e 00 1c 00 00 00 00 00 00 00 00 00     ................
    2412:	0f f0 1c 38 1c 78 1c f8 1c f8 1d b8 1d b8 1f 38     ...8.x.........8
    2422:	1f 38 1e 38 1c 38 0f f0 00 00 00 00 00 00 00 00     .8.8.8..........
    2432:	01 80 01 80 03 80 1f 80 1f 80 03 80 03 80 03 80     ................
    2442:	03 80 03 80 03 80 1f f0 00 00 00 00 00 00 00 00     ................
    2452:	0f e0 1c 70 1c 38 00 38 00 70 00 e0 01 c0 03 80     ...p.8.8.p......
    2462:	07 00 0e 38 1c 38 1f f8 00 00 00 00 00 00 00 00     ...8.8..........
    2472:	0f e0 1c 70 1c 38 00 38 00 70 03 c0 03 c0 00 70     ...p.8.8.p.....p
    2482:	00 38 1c 38 1c 70 0f e0 00 00 00 00 00 00 00 00     .8.8.p..........
    2492:	00 e0 01 e0 03 e0 06 e0 0c e0 18 e0 1f f8 1f f8     ................
    24a2:	00 e0 00 e0 00 e0 03 f8 00 00 00 00 00 00 00 00     ................
    24b2:	1f f8 1c 00 1c 00 1c 00 1c 00 1f e0 1f f0 00 78     ...............x
    24c2:	00 38 1c 38 1c 70 0f e0 00 00 00 00 00 00 00 00     .8.8.p..........
    24d2:	03 e0 07 00 0e 00 1c 00 1c 00 1f f0 1f f8 1c 38     ...............8
    24e2:	1c 38 1c 38 1c 38 0f f0 00 00 00 00 00 00 00 00     .8.8.8..........
    24f2:	1f fc 1c 1c 1c 1c 1c 1c 00 1c 00 38 00 70 00 e0     ...........8.p..
    2502:	01 c0 03 80 03 80 03 80 00 00 00 00 00 00 00 00     ................
    2512:	0f f0 1c 38 1c 38 1c 38 1f 38 07 e0 07 e0 1c f8     ...8.8.8.8......
    2522:	1c 38 1c 38 1c 38 0f f0 00 00 00 00 00 00 00 00     .8.8.8..........
    2532:	0f f0 1c 38 1c 38 1c 38 1c 38 1f f8 0f f8 00 38     ...8.8.8.8.....8
    2542:	00 38 00 70 00 e0 07 c0 00 00 00 00 00 00 00 00     .8.p............
    2552:	00 00 00 00 03 80 03 80 03 80 00 00 00 00 03 80     ................
    2562:	03 80 03 80 00 00 00 00 00 00 00 00 00 00 00 00     ................
    2572:	00 00 00 00 03 80 03 80 03 80 00 00 00 00 03 80     ................
    2582:	03 80 03 80 07 00 00 00 00 00 00 00 00 00 00 70     ...............p
    2592:	00 e0 01 c0 03 80 07 00 0e 00 1c 00 1c 00 0e 00     ................
    25a2:	07 00 03 80 01 c0 00 e0 00 70 00 00 00 00 00 00     .........p......
    25b2:	00 00 00 00 00 00 3f fc 3f fc 00 00 00 00 3f fc     ......?.?.....?.
    25c2:	3f fc 00 00 00 00 00 00 00 00 00 00 00 00 1c 00     ?...............
    25d2:	0e 00 07 00 03 80 01 c0 00 e0 00 70 00 70 00 e0     ...........p.p..
    25e2:	01 c0 03 80 07 00 0e 00 1c 00 00 00 00 00 03 c0     ................
    25f2:	0f f0 1e 78 18 38 00 38 00 70 00 e0 01 c0 01 c0     ...x.8.8.p......
    2602:	00 00 00 00 01 c0 01 c0 01 c0 00 00 00 00 0f f8     ................
    2612:	1c 1c 1c 1c 1c 1c 1c 1c 1c fc 1c fc 1c fc 1c fc     ................
    2622:	1c 00 1c 00 1c 00 1f f0 07 f8 00 00 00 00 00 00     ................
    2632:	03 c0 07 e0 0e 70 1c 38 1c 38 1c 38 1c 38 1f f8     .....p.8.8.8.8..
    2642:	1c 38 1c 38 1c 38 1c 38 00 00 00 00 00 00 00 00     .8.8.8.8........
    2652:	1f f0 0e 38 0e 38 0e 38 0e 38 0f f0 0f f0 0e 38     ...8.8.8.8.....8
    2662:	0e 38 0e 38 0e 38 1f f0 00 00 00 00 00 00 00 00     .8.8.8..........
    2672:	07 f0 0e 38 1c 38 1c 00 1c 00 1c 00 1c 00 1c 00     ...8.8..........
    2682:	1c 00 1c 38 0e 38 07 f0 00 00 00 00 00 00 00 00     ...8.8..........
    2692:	1f e0 0e 70 0e 38 0e 38 0e 38 0e 38 0e 38 0e 38     ...p.8.8.8.8.8.8
    26a2:	0e 38 0e 38 0e 70 1f e0 00 00 00 00 00 00 00 00     .8.8.p..........
    26b2:	1f f8 0e 18 0e 08 0e 00 0e 30 0f f0 0f f0 0e 30     .........0.....0
    26c2:	0e 00 0e 08 0e 18 1f f8 00 00 00 00 00 00 00 00     ................
    26d2:	1f f8 0e 18 0e 08 0e 00 0e 30 0f f0 0f f0 0e 30     .........0.....0
    26e2:	0e 00 0e 00 0e 00 1f 00 00 00 00 00 00 00 00 00     ................
    26f2:	07 f0 0e 38 1c 38 1c 38 1c 00 1c 00 1c 00 1c f8     ...8.8.8........
    2702:	1c 38 1c 38 0e 38 07 f8 00 00 00 00 00 00 00 00     .8.8.8..........
    2712:	1c 70 1c 70 1c 70 1c 70 1c 70 1f f0 1f f0 1c 70     .p.p.p.p.p.....p
    2722:	1c 70 1c 70 1c 70 1c 70 00 00 00 00 00 00 00 00     .p.p.p.p........
    2732:	0f e0 03 80 03 80 03 80 03 80 03 80 03 80 03 80     ................
    2742:	03 80 03 80 03 80 0f e0 00 00 00 00 00 00 00 00     ................
    2752:	01 fc 00 70 00 70 00 70 00 70 00 70 00 70 38 70     ...p.p.p.p.p.p8p
    2762:	38 70 38 70 38 70 0f e0 00 00 00 00 00 00 00 00     8p8p8p..........
    2772:	1e 38 0e 38 0e 70 0e e0 0f c0 0f 80 0f 80 0f c0     .8.8.p..........
    2782:	0e e0 0e 70 0e 38 1e 38 00 00 00 00 00 00 00 00     ...p.8.8........
    2792:	1f 00 0e 00 0e 00 0e 00 0e 00 0e 00 0e 00 0e 00     ................
    27a2:	0e 08 0e 18 0e 38 1f f8 00 00 00 00 00 00 00 00     .....8..........
    27b2:	1c 1c 1e 3c 1f 7c 1f fc 1f fc 1d dc 1c 9c 1c 1c     ...<.|..........
    27c2:	1c 1c 1c 1c 1c 1c 1c 1c 00 00 00 00 00 00 00 00     ................
    27d2:	1c 1c 1c 1c 1e 1c 1f 1c 1f 9c 1d dc 1c fc 1c 7c     ...............|
    27e2:	1c 3c 1c 1c 1c 1c 1c 1c 00 00 00 00 00 00 00 00     .<..............
    27f2:	03 e0 07 f0 0e 38 1c 1c 1c 1c 1c 1c 1c 1c 1c 1c     .....8..........
    2802:	1c 1c 0e 38 07 f0 03 e0 00 00 00 00 00 00 00 00     ...8............
    2812:	1f f0 0e 38 0e 38 0e 38 0e 38 0f f0 0f f0 0e 00     ...8.8.8.8......
    2822:	0e 00 0e 00 0e 00 1f 00 00 00 00 00 00 00 00 00     ................
    2832:	03 e0 0f 78 0e 38 1c 1c 1c 1c 1c 1c 1c 1c 1c 7c     ...x.8.........|
    2842:	1c fc 0f f8 0f f8 00 38 00 fc 00 00 00 00 00 00     .......8........
    2852:	1f f0 0e 38 0e 38 0e 38 0e 38 0f f0 0f f0 0e 70     ...8.8.8.8.....p
    2862:	0e 38 0e 38 0e 38 1e 38 00 00 00 00 00 00 00 00     .8.8.8.8........
    2872:	0f f0 1c 38 1c 38 1c 38 1c 00 0f e0 07 f0 00 38     ...8.8.8.......8
    2882:	1c 38 1c 38 1c 38 0f f0 00 00 00 00 00 00 00 00     .8.8.8..........
    2892:	1f fc 19 cc 11 c4 01 c0 01 c0 01 c0 01 c0 01 c0     ................
    28a2:	01 c0 01 c0 01 c0 07 f0 00 00 00 00 00 00 00 00     ................
    28b2:	1c 70 1c 70 1c 70 1c 70 1c 70 1c 70 1c 70 1c 70     .p.p.p.p.p.p.p.p
    28c2:	1c 70 1c 70 1c 70 0f e0 00 00 00 00 00 00 00 00     .p.p.p..........
    28d2:	1c 70 1c 70 1c 70 1c 70 1c 70 1c 70 1c 70 1c 70     .p.p.p.p.p.p.p.p
    28e2:	1c 70 0e e0 07 c0 03 80 00 00 00 00 00 00 00 00     .p..............
    28f2:	1c 1c 1c 1c 1c 1c 1c 1c 1c 1c 1c 9c 1c 9c 1c 9c     ................
    2902:	0f f8 0f f8 07 70 07 70 00 00 00 00 00 00 00 00     .....p.p........
    2912:	1c 70 1c 70 1c 70 0e e0 07 c0 03 80 03 80 07 c0     .p.p.p..........
    2922:	0e e0 1c 70 1c 70 1c 70 00 00 00 00 00 00 00 00     ...p.p.p........
    2932:	1c 70 1c 70 1c 70 1c 70 1c 70 0e e0 07 c0 03 80     .p.p.p.p.p......
    2942:	03 80 03 80 03 80 0f e0 00 00 00 00 00 00 00 00     ................
    2952:	1f f8 1c 38 18 38 10 70 00 e0 01 c0 03 80 07 00     ...8.8.p........
    2962:	0e 08 1c 18 1c 38 1f f8 00 00 00 00 00 00 00 00     .....8..........
    2972:	07 f0 07 00 07 00 07 00 07 00 07 00 07 00 07 00     ................
    2982:	07 00 07 00 07 00 07 f0 00 00 00 00 00 00 00 00     ................
    2992:	10 00 18 00 1c 00 0e 00 07 00 03 80 01 c0 00 e0     ................
    29a2:	00 70 00 38 00 1c 00 07 00 00 00 00 00 00 00 00     .p.8............
    29b2:	07 f0 00 70 00 70 00 70 00 70 00 70 00 70 00 70     ...p.p.p.p.p.p.p
    29c2:	00 70 00 70 00 70 07 f0 00 00 00 00 00 00 01 80     .p.p.p..........
    29d2:	03 c0 07 e0 0e 70 1c 38 00 00 00 00 00 00 00 00     .....p.8........
	...
    2a0a:	7f ff 7f ff 00 00 00 00 1c 00 1c 00 07 00 07 00     ................
	...
    2a3a:	0f e0 00 70 00 70 0f f0 1c 70 1c 70 1c 70 0f d8     ...p.p...p.p.p..
	...
    2a52:	1e 00 0e 00 0e 00 0e 00 0f f0 0e 38 0e 38 0e 38     ...........8.8.8
    2a62:	0e 38 0e 38 0e 38 1b f0 00 00 00 00 00 00 00 00     .8.8.8..........
	...
    2a7a:	0f e0 1c 70 1c 70 1c 00 1c 00 1c 70 1c 70 0f e0     ...p.p.....p.p..
	...
    2a92:	00 f8 00 70 00 70 00 70 0f f0 1c 70 1c 70 1c 70     ...p.p.p...p.p.p
    2aa2:	1c 70 1c 70 1c 70 0f d8 00 00 00 00 00 00 00 00     .p.p.p..........
	...
    2aba:	0f e0 1c 70 1c 70 1f f0 1c 00 1c 70 1c 70 0f e0     ...p.p.....p.p..
	...
    2ad2:	03 e0 07 70 07 70 07 00 07 00 1f e0 1f e0 07 00     ...p.p..........
    2ae2:	07 00 07 00 07 00 1f c0 00 00 00 00 00 00 00 00     ................
	...
    2afa:	0f d8 1c 70 1c 70 1c 70 1c 70 0f f0 07 f0 00 70     ...p.p.p.p.....p
    2b0a:	1c 70 0f e0 00 00 00 00 1e 00 0e 00 0e 00 0e 00     .p..............
    2b1a:	0e f0 0f 38 0f 38 0e 38 0e 38 0e 38 0e 38 1e 38     ...8.8.8.8.8.8.8
	...
    2b32:	01 c0 01 c0 01 c0 00 00 0f c0 01 c0 01 c0 01 c0     ................
    2b42:	01 c0 01 c0 01 c0 0f f8 00 00 00 00 00 00 00 00     ................
    2b52:	00 70 00 70 00 70 00 00 03 f0 00 70 00 70 00 70     .p.p.p.....p.p.p
    2b62:	00 70 00 70 00 70 1c 70 0c f0 07 e0 00 00 00 00     .p.p.p.p........
    2b72:	1e 00 0e 00 0e 00 0e 00 0e 38 0e 70 0e e0 0f c0     .........8.p....
    2b82:	0e e0 0e 70 0e 38 1e 38 00 00 00 00 00 00 00 00     ...p.8.8........
    2b92:	0f c0 01 c0 01 c0 01 c0 01 c0 01 c0 01 c0 01 c0     ................
    2ba2:	01 c0 01 c0 01 c0 0f f8 00 00 00 00 00 00 00 00     ................
	...
    2bba:	1f f8 1c 9c 1c 9c 1c 9c 1c 9c 1c 9c 1c 9c 1c 9c     ................
	...
    2bda:	1f e0 1c 70 1c 70 1c 70 1c 70 1c 70 1c 70 1c 70     ...p.p.p.p.p.p.p
	...
    2bfa:	0f e0 1c 70 1c 70 1c 70 1c 70 1c 70 1c 70 0f e0     ...p.p.p.p.p.p..
	...
    2c1a:	1b f0 0e 38 0e 38 0e 38 0e 38 0e 38 0f f0 0e 00     ...8.8.8.8.8....
    2c2a:	0e 00 1f 00 00 00 00 00 00 00 00 00 00 00 00 00     ................
    2c3a:	1f b0 38 e0 38 e0 38 e0 38 e0 38 e0 1f e0 00 e0     ..8.8.8.8.8.....
    2c4a:	00 e0 01 f0 00 00 00 00 00 00 00 00 00 00 00 00     ................
    2c5a:	1e f0 0f f8 0f 38 0e 00 0e 00 0e 00 0e 00 1f 00     .....8..........
	...
    2c7a:	0f e0 1c 30 1c 30 0f 80 03 e0 18 70 18 70 0f e0     ...0.0.....p.p..
	...
    2c92:	00 00 01 00 03 00 07 00 1f f0 07 00 07 00 07 00     ................
    2ca2:	07 00 07 70 07 70 03 e0 00 00 00 00 00 00 00 00     ...p.p..........
	...
    2cba:	1c 70 1c 70 1c 70 1c 70 1c 70 1c 70 1c 70 0f d8     .p.p.p.p.p.p.p..
	...
    2cda:	1c 70 1c 70 1c 70 1c 70 1c 70 0e e0 07 c0 03 80     .p.p.p.p.p......
	...
    2cfa:	1c 1c 1c 1c 1c 1c 1c 9c 1c 9c 0f f8 07 70 07 70     .............p.p
	...
    2d1a:	1c e0 1c e0 0f c0 07 80 07 80 0f c0 1c e0 1c e0     ................
	...
    2d3a:	0e 38 0e 38 0e 38 0e 38 0e 38 07 f0 03 e0 00 e0     .8.8.8.8.8......
    2d4a:	01 c0 1f 80 00 00 00 00 00 00 00 00 00 00 00 00     ................
    2d5a:	1f e0 18 e0 11 c0 03 80 07 00 0e 20 1c 60 1f e0     ........... .`..
	...
    2d72:	01 f8 03 80 03 80 03 80 07 00 1c 00 1c 00 07 00     ................
    2d82:	03 80 03 80 03 80 01 f8 00 00 00 00 00 00 01 c0     ................
    2d92:	01 c0 01 c0 01 c0 01 c0 01 c0 01 c0 01 c0 01 c0     ................
    2da2:	01 c0 01 c0 01 c0 01 c0 01 c0 00 00 00 00 00 00     ................
    2db2:	1f 80 01 c0 01 c0 01 c0 00 e0 00 38 00 38 00 e0     ...........8.8..
    2dc2:	01 c0 01 c0 01 c0 1f 80 00 00 00 00 00 00 00 00     ................
    2dd2:	1f 1c 3b 9c 39 dc 38 f8 00 00 00 00 00 00 00 00     ..;.9.8.........
	...

00002dee <SmallFont>:
    2dee:	08 0c 20 5f 00 00 00 00 00 00 00 00 00 00 00 00     .. _............
    2dfe:	00 00 20 20 20 20 20 20 00 20 00 00 00 28 50 50     ..      . ...(PP
	...
    2e16:	00 00 28 28 fc 28 50 fc 50 50 00 00 00 20 78 a8     ..((.(P.PP... x.
    2e26:	a0 60 30 28 a8 f0 20 00 00 00 48 a8 b0 50 28 34     .`0(.. ...H..P(4
    2e36:	54 48 00 00 00 00 20 50 50 78 a8 a8 90 6c 00 00     TH.... PPx...l..
    2e46:	00 40 40 80 00 00 00 00 00 00 00 00 00 04 08 10     .@@.............
    2e56:	10 10 10 10 10 08 04 00 00 40 20 10 10 10 10 10     .........@ .....
    2e66:	10 20 40 00 00 00 00 20 a8 70 70 a8 20 00 00 00     . @.... .pp. ...
    2e76:	00 00 20 20 20 f8 20 20 20 00 00 00 00 00 00 00     ..   .   .......
    2e86:	00 00 00 00 00 40 40 80 00 00 00 00 00 f8 00 00     .....@@.........
	...
    2ea2:	00 40 00 00 00 08 10 10 10 20 20 40 40 40 80 00     .@.......  @@@..
    2eb2:	00 00 70 88 88 88 88 88 88 70 00 00 00 00 20 60     ..p......p.... `
    2ec2:	20 20 20 20 20 70 00 00 00 00 70 88 88 10 20 40          p....p... @
    2ed2:	80 f8 00 00 00 00 70 88 08 30 08 08 88 70 00 00     ......p..0...p..
    2ee2:	00 00 10 30 50 50 90 78 10 18 00 00 00 00 f8 80     ...0PP.x........
    2ef2:	80 f0 08 08 88 70 00 00 00 00 70 90 80 f0 88 88     .....p....p.....
    2f02:	88 70 00 00 00 00 f8 90 10 20 20 20 20 20 00 00     .p.......     ..
    2f12:	00 00 70 88 88 70 88 88 88 70 00 00 00 00 70 88     ..p..p...p....p.
    2f22:	88 88 78 08 48 70 00 00 00 00 00 00 20 00 00 00     ..x.Hp...... ...
    2f32:	00 20 00 00 00 00 00 00 00 20 00 00 00 20 20 00     . ....... ...  .
    2f42:	00 04 08 10 20 40 20 10 08 04 00 00 00 00 00 00     .... @ .........
    2f52:	f8 00 00 f8 00 00 00 00 00 40 20 10 08 04 08 10     .........@ .....
    2f62:	20 40 00 00 00 00 70 88 88 10 20 20 00 20 00 00      @....p...  . ..
    2f72:	00 00 70 88 98 a8 a8 b8 80 78 00 00 00 00 20 20     ..p......x....  
    2f82:	30 50 50 78 48 cc 00 00 00 00 f0 48 48 70 48 48     0PPxH......HHpHH
    2f92:	48 f0 00 00 00 00 78 88 80 80 80 80 88 70 00 00     H.....x......p..
    2fa2:	00 00 f0 48 48 48 48 48 48 f0 00 00 00 00 f8 48     ...HHHHHH......H
    2fb2:	50 70 50 40 48 f8 00 00 00 00 f8 48 50 70 50 40     PpP@H......HPpP@
    2fc2:	40 e0 00 00 00 00 38 48 80 80 9c 88 48 30 00 00     @.....8H....H0..
    2fd2:	00 00 cc 48 48 78 48 48 48 cc 00 00 00 00 f8 20     ...HHxHHH...... 
    2fe2:	20 20 20 20 20 f8 00 00 00 00 7c 10 10 10 10 10          .....|.....
    2ff2:	10 90 e0 00 00 00 ec 48 50 60 50 50 48 ec 00 00     .......HP`PPH...
    3002:	00 00 e0 40 40 40 40 40 44 fc 00 00 00 00 d8 d8     ...@@@@@D.......
    3012:	d8 d8 a8 a8 a8 a8 00 00 00 00 dc 48 68 68 58 58     ...........HhhXX
    3022:	48 e8 00 00 00 00 70 88 88 88 88 88 88 70 00 00     H.....p......p..
    3032:	00 00 f0 48 48 70 40 40 40 e0 00 00 00 00 70 88     ...HHp@@@.....p.
    3042:	88 88 88 e8 98 70 18 00 00 00 f0 48 48 70 50 48     .....p.....HHpPH
    3052:	48 ec 00 00 00 00 78 88 80 60 10 08 88 f0 00 00     H.....x..`......
    3062:	00 00 f8 a8 20 20 20 20 20 70 00 00 00 00 cc 48     ....     p.....H
    3072:	48 48 48 48 48 30 00 00 00 00 cc 48 48 50 50 30     HHHHH0.....HHPP0
    3082:	20 20 00 00 00 00 a8 a8 a8 70 50 50 50 50 00 00       .......pPPPP..
    3092:	00 00 d8 50 50 20 20 50 50 d8 00 00 00 00 d8 50     ...PP  PP......P
    30a2:	50 20 20 20 20 70 00 00 00 00 f8 90 10 20 20 40     P    p.......  @
    30b2:	48 f8 00 00 00 38 20 20 20 20 20 20 20 20 38 00     H....8        8.
    30c2:	00 40 40 40 20 20 10 10 10 08 00 00 00 70 10 10     .@@@  .......p..
    30d2:	10 10 10 10 10 10 70 00 00 20 50 00 00 00 00 00     ......p.. P.....
	...
    30ee:	00 00 00 fc 00 20 00 00 00 00 00 00 00 00 00 00     ..... ..........
    30fe:	00 00 00 00 00 30 48 38 48 3c 00 00 00 00 c0 40     .....0H8H<.....@
    310e:	40 70 48 48 48 70 00 00 00 00 00 00 00 38 48 40     @pHHHp.......8H@
    311e:	40 38 00 00 00 00 18 08 08 38 48 48 48 3c 00 00     @8.......8HHH<..
    312e:	00 00 00 00 00 30 48 78 40 38 00 00 00 00 1c 20     .....0Hx@8..... 
    313e:	20 78 20 20 20 78 00 00 00 00 00 00 00 3c 48 30      x   x.......<H0
    314e:	40 78 44 38 00 00 c0 40 40 70 48 48 48 ec 00 00     @xD8...@@pHHH...
    315e:	00 00 20 00 00 60 20 20 20 70 00 00 00 00 10 00     .. ..`   p......
    316e:	00 30 10 10 10 10 10 e0 00 00 c0 40 40 5c 50 70     .0.........@@\Pp
    317e:	48 ec 00 00 00 00 e0 20 20 20 20 20 20 f8 00 00     H......      ...
    318e:	00 00 00 00 00 f0 a8 a8 a8 a8 00 00 00 00 00 00     ................
    319e:	00 f0 48 48 48 ec 00 00 00 00 00 00 00 30 48 48     ..HHH........0HH
    31ae:	48 30 00 00 00 00 00 00 00 f0 48 48 48 70 40 e0     H0........HHHp@.
    31be:	00 00 00 00 00 38 48 48 48 38 08 1c 00 00 00 00     .....8HHH8......
    31ce:	00 d8 60 40 40 e0 00 00 00 00 00 00 00 78 40 30     ..`@@........x@0
    31de:	08 78 00 00 00 00 00 20 20 70 20 20 20 18 00 00     .x.....  p   ...
    31ee:	00 00 00 00 00 d8 48 48 48 3c 00 00 00 00 00 00     ......HHH<......
    31fe:	00 ec 48 50 30 20 00 00 00 00 00 00 00 a8 a8 70     ..HP0 .........p
    320e:	50 50 00 00 00 00 00 00 00 d8 50 20 50 d8 00 00     PP........P P...
    321e:	00 00 00 00 00 ec 48 50 30 20 20 c0 00 00 00 00     ......HP0  .....
    322e:	00 78 10 20 20 78 00 00 00 18 10 10 10 20 10 10     .x.  x....... ..
    323e:	10 10 18 00 10 10 10 10 10 10 10 10 10 10 10 10     ................
    324e:	00 60 20 20 20 10 20 20 20 20 60 00 40 a4 18 00     .`   .    `.@...
	...

00003266 <__ctors_start>:
    3266:	36 33       	cpi	r19, 0x36	; 54
    3268:	9a 39       	cpi	r25, 0x9A	; 154

0000326a <__ctors_end>:
    326a:	ad 33       	cpi	r26, 0x3D	; 61

0000326c <__dtors_end>:
    326c:	11 24       	eor	r1, r1
    326e:	1f be       	out	0x3f, r1	; 63
    3270:	cf ef       	ldi	r28, 0xFF	; 255
    3272:	d1 e2       	ldi	r29, 0x21	; 33
    3274:	de bf       	out	0x3e, r29	; 62
    3276:	cd bf       	out	0x3d, r28	; 61
    3278:	00 e0       	ldi	r16, 0x00	; 0
    327a:	0c bf       	out	0x3c, r16	; 60

0000327c <__do_copy_data>:
    327c:	15 e0       	ldi	r17, 0x05	; 5
    327e:	a0 e0       	ldi	r26, 0x00	; 0
    3280:	b2 e0       	ldi	r27, 0x02	; 2
    3282:	e6 e7       	ldi	r30, 0x76	; 118
    3284:	f9 eb       	ldi	r31, 0xB9	; 185
    3286:	00 e0       	ldi	r16, 0x00	; 0
    3288:	0b bf       	out	0x3b, r16	; 59
    328a:	02 c0       	rjmp	.+4      	; 0x3290 <__do_copy_data+0x14>
    328c:	07 90       	elpm	r0, Z+
    328e:	0d 92       	st	X+, r0
    3290:	a0 30       	cpi	r26, 0x00	; 0
    3292:	b1 07       	cpc	r27, r17
    3294:	d9 f7       	brne	.-10     	; 0x328c <__do_copy_data+0x10>

00003296 <__do_clear_bss>:
    3296:	2c e0       	ldi	r18, 0x0C	; 12
    3298:	a0 e0       	ldi	r26, 0x00	; 0
    329a:	b5 e0       	ldi	r27, 0x05	; 5
    329c:	01 c0       	rjmp	.+2      	; 0x32a0 <.do_clear_bss_start>

0000329e <.do_clear_bss_loop>:
    329e:	1d 92       	st	X+, r1

000032a0 <.do_clear_bss_start>:
    32a0:	a3 30       	cpi	r26, 0x03	; 3
    32a2:	b2 07       	cpc	r27, r18
    32a4:	e1 f7       	brne	.-8      	; 0x329e <.do_clear_bss_loop>

000032a6 <__do_global_ctors>:
    32a6:	19 e1       	ldi	r17, 0x19	; 25
    32a8:	c5 e3       	ldi	r28, 0x35	; 53
    32aa:	d9 e1       	ldi	r29, 0x19	; 25
    32ac:	00 e0       	ldi	r16, 0x00	; 0
    32ae:	06 c0       	rjmp	.+12     	; 0x32bc <__do_global_ctors+0x16>
    32b0:	21 97       	sbiw	r28, 0x01	; 1
    32b2:	01 09       	sbc	r16, r1
    32b4:	80 2f       	mov	r24, r16
    32b6:	fe 01       	movw	r30, r28
    32b8:	0e 94 13 5a 	call	0xb426	; 0xb426 <__tablejump2__>
    32bc:	c3 33       	cpi	r28, 0x33	; 51
    32be:	d1 07       	cpc	r29, r17
    32c0:	80 e0       	ldi	r24, 0x00	; 0
    32c2:	08 07       	cpc	r16, r24
    32c4:	a9 f7       	brne	.-22     	; 0x32b0 <__do_global_ctors+0xa>
    32c6:	0e 94 c8 39 	call	0x7390	; 0x7390 <main>
    32ca:	0c 94 aa 5c 	jmp	0xb954	; 0xb954 <__do_global_dtors>

000032ce <__bad_interrupt>:
    32ce:	0c 94 00 00 	jmp	0	; 0x0 <__vectors>

000032d2 <recChar>:

void recChar(char c)
{
	static char Temp[100];
	static uint8_t charCounter=0;
	Temp[charCounter++]=c;
    32d2:	e0 91 64 05 	lds	r30, 0x0564	; 0x800564 <charCounter.1686>
    32d6:	91 e0       	ldi	r25, 0x01	; 1
    32d8:	9e 0f       	add	r25, r30
    32da:	90 93 64 05 	sts	0x0564, r25	; 0x800564 <charCounter.1686>
    32de:	f0 e0       	ldi	r31, 0x00	; 0
    32e0:	e0 50       	subi	r30, 0x00	; 0
    32e2:	fb 4f       	sbci	r31, 0xFB	; 251
    32e4:	80 83       	st	Z, r24
	if(c=='\n')
    32e6:	8a 30       	cpi	r24, 0x0A	; 10
    32e8:	89 f4       	brne	.+34     	; 0x330c <recChar+0x3a>
	{
		if(MCallBack!=NULL)
    32ea:	80 91 65 05 	lds	r24, 0x0565	; 0x800565 <MCallBack>
    32ee:	90 91 66 05 	lds	r25, 0x0566	; 0x800566 <MCallBack+0x1>
    32f2:	89 2b       	or	r24, r25
    32f4:	39 f0       	breq	.+14     	; 0x3304 <recChar+0x32>
			MCallBack(Temp);
    32f6:	e0 91 65 05 	lds	r30, 0x0565	; 0x800565 <MCallBack>
    32fa:	f0 91 66 05 	lds	r31, 0x0566	; 0x800566 <MCallBack+0x1>
    32fe:	80 e0       	ldi	r24, 0x00	; 0
    3300:	95 e0       	ldi	r25, 0x05	; 5
    3302:	19 95       	eicall
		Temp[0]='\0';
    3304:	10 92 00 05 	sts	0x0500, r1	; 0x800500 <__data_end>
		charCounter=0;
    3308:	10 92 64 05 	sts	0x0564, r1	; 0x800564 <charCounter.1686>
    330c:	08 95       	ret

0000330e <ESP8266_registerMessageCallback>:
volatile static MessageCallBackFunction MCallBack = NULL;


void ESP8266_registerMessageCallback(MessageCallBackFunction callBack)
{
	MCallBack=callBack;
    330e:	90 93 66 05 	sts	0x0566, r25	; 0x800566 <MCallBack+0x1>
    3312:	80 93 65 05 	sts	0x0565, r24	; 0x800565 <MCallBack>
    3316:	08 95       	ret

00003318 <ESP8266_Init>:
		charCounter=0;
	}
}

void ESP8266_Init()
{
    3318:	ef 92       	push	r14
    331a:	0f 93       	push	r16
	uart1_init_x(BAUD_RATE,1,1,1,1);
    331c:	ee 24       	eor	r14, r14
    331e:	e3 94       	inc	r14
    3320:	01 e0       	ldi	r16, 0x01	; 1
    3322:	21 e0       	ldi	r18, 0x01	; 1
    3324:	41 e0       	ldi	r20, 0x01	; 1
    3326:	60 e0       	ldi	r22, 0x00	; 0
    3328:	7d e2       	ldi	r23, 0x2D	; 45
    332a:	80 e0       	ldi	r24, 0x00	; 0
    332c:	90 e0       	ldi	r25, 0x00	; 0
    332e:	0e 94 32 34 	call	0x6864	; 0x6864 <uart1_init_x>
	uart1_registerCallBack(recChar);
    3332:	89 e6       	ldi	r24, 0x69	; 105
    3334:	99 e1       	ldi	r25, 0x19	; 25
}
    3336:	0f 91       	pop	r16
    3338:	ef 90       	pop	r14
}

void ESP8266_Init()
{
	uart1_init_x(BAUD_RATE,1,1,1,1);
	uart1_registerCallBack(recChar);
    333a:	0c 94 48 34 	jmp	0x6890	; 0x6890 <uart1_registerCallBack>

0000333e <ESP8266_sendMessage>:
}

void ESP8266_sendMessage(char Message[])
{
    333e:	cf 92       	push	r12
    3340:	df 92       	push	r13
    3342:	ef 92       	push	r14
    3344:	ff 92       	push	r15
    3346:	0f 93       	push	r16
    3348:	1f 93       	push	r17
    334a:	cf 93       	push	r28
    334c:	df 93       	push	r29
    334e:	cd b7       	in	r28, 0x3d	; 61
    3350:	de b7       	in	r29, 0x3e	; 62
    3352:	8c 01       	movw	r16, r24
	char temp[strlen(Message)+2];
	strcpy(temp,Message);
	temp[strlen(Message)+1]='<';
	uart1_puts(temp);
}
    3354:	ed b6       	in	r14, 0x3d	; 61
    3356:	fe b6       	in	r15, 0x3e	; 62
	uart1_registerCallBack(recChar);
}

void ESP8266_sendMessage(char Message[])
{
	char temp[strlen(Message)+2];
    3358:	fc 01       	movw	r30, r24
    335a:	01 90       	ld	r0, Z+
    335c:	00 20       	and	r0, r0
    335e:	e9 f7       	brne	.-6      	; 0x335a <ESP8266_sendMessage+0x1c>
    3360:	cf 01       	movw	r24, r30
    3362:	80 1b       	sub	r24, r16
    3364:	91 0b       	sbc	r25, r17
    3366:	01 96       	adiw	r24, 0x01	; 1
    3368:	2d b7       	in	r18, 0x3d	; 61
    336a:	3e b7       	in	r19, 0x3e	; 62
    336c:	28 1b       	sub	r18, r24
    336e:	39 0b       	sbc	r19, r25
    3370:	0f b6       	in	r0, 0x3f	; 63
    3372:	f8 94       	cli
    3374:	3e bf       	out	0x3e, r19	; 62
    3376:	0f be       	out	0x3f, r0	; 63
    3378:	2d bf       	out	0x3d, r18	; 61
    337a:	8d b7       	in	r24, 0x3d	; 61
    337c:	9e b7       	in	r25, 0x3e	; 62
    337e:	01 96       	adiw	r24, 0x01	; 1
    3380:	6c 01       	movw	r12, r24
	strcpy(temp,Message);
    3382:	b8 01       	movw	r22, r16
    3384:	0e 94 59 5c 	call	0xb8b2	; 0xb8b2 <strcpy>
	temp[strlen(Message)+1]='<';
    3388:	f8 01       	movw	r30, r16
    338a:	01 90       	ld	r0, Z+
    338c:	00 20       	and	r0, r0
    338e:	e9 f7       	brne	.-6      	; 0x338a <ESP8266_sendMessage+0x4c>
    3390:	31 97       	sbiw	r30, 0x01	; 1
    3392:	e0 1b       	sub	r30, r16
    3394:	f1 0b       	sbc	r31, r17
    3396:	ec 0d       	add	r30, r12
    3398:	fd 1d       	adc	r31, r13
    339a:	8c e3       	ldi	r24, 0x3C	; 60
    339c:	81 83       	std	Z+1, r24	; 0x01
	uart1_puts(temp);
    339e:	c6 01       	movw	r24, r12
    33a0:	0e 94 58 34 	call	0x68b0	; 0x68b0 <uart1_puts>
}
    33a4:	0f b6       	in	r0, 0x3f	; 63
    33a6:	f8 94       	cli
    33a8:	fe be       	out	0x3e, r15	; 62
    33aa:	0f be       	out	0x3f, r0	; 63
    33ac:	ed be       	out	0x3d, r14	; 61
    33ae:	df 91       	pop	r29
    33b0:	cf 91       	pop	r28
    33b2:	1f 91       	pop	r17
    33b4:	0f 91       	pop	r16
    33b6:	ff 90       	pop	r15
    33b8:	ef 90       	pop	r14
    33ba:	df 90       	pop	r13
    33bc:	cf 90       	pop	r12
    33be:	08 95       	ret

000033c0 <ESP8266_isConnected>:

uint8_t ESP8266_isConnected()
{
	return 1;
    33c0:	81 e0       	ldi	r24, 0x01	; 1
    33c2:	08 95       	ret

000033c4 <_ZN11EEPROMClass3getIiEERT_iS2_.isra.0>:
	Values.LxMax=LxMax;
	Values.LxMin=LxMin;
	Values.LyMax=LyMax;
	Values.LyMin=LyMin;
	return Values;
}
    33c4:	0f 93       	push	r16
    33c6:	1f 93       	push	r17
    33c8:	cf 93       	push	r28
    33ca:	df 93       	push	r29
    33cc:	8c 01       	movw	r16, r24
    33ce:	eb 01       	movw	r28, r22
    33d0:	0e 94 a2 5c 	call	0xb944	; 0xb944 <eeprom_read_byte>
    33d4:	88 83       	st	Y, r24
    33d6:	c8 01       	movw	r24, r16
    33d8:	01 96       	adiw	r24, 0x01	; 1
    33da:	0e 94 a2 5c 	call	0xb944	; 0xb944 <eeprom_read_byte>
    33de:	89 83       	std	Y+1, r24	; 0x01
    33e0:	ce 01       	movw	r24, r28
    33e2:	df 91       	pop	r29
    33e4:	cf 91       	pop	r28
    33e6:	1f 91       	pop	r17
    33e8:	0f 91       	pop	r16
    33ea:	08 95       	ret

000033ec <_ZN8JoystickC1Ei>:
    33ec:	cf 93       	push	r28
    33ee:	df 93       	push	r29
    33f0:	ec 01       	movw	r28, r24
    33f2:	19 82       	std	Y+1, r1	; 0x01
    33f4:	18 82       	st	Y, r1
    33f6:	84 ef       	ldi	r24, 0xF4	; 244
    33f8:	91 e0       	ldi	r25, 0x01	; 1
    33fa:	9b 83       	std	Y+3, r25	; 0x03
    33fc:	8a 83       	std	Y+2, r24	; 0x02
    33fe:	1d 82       	std	Y+5, r1	; 0x05
    3400:	1c 82       	std	Y+4, r1	; 0x04
    3402:	9f 83       	std	Y+7, r25	; 0x07
    3404:	8e 83       	std	Y+6, r24	; 0x06
    3406:	19 86       	std	Y+9, r1	; 0x09
    3408:	18 86       	std	Y+8, r1	; 0x08
    340a:	9b 87       	std	Y+11, r25	; 0x0b
    340c:	8a 87       	std	Y+10, r24	; 0x0a
    340e:	1d 86       	std	Y+13, r1	; 0x0d
    3410:	1c 86       	std	Y+12, r1	; 0x0c
    3412:	9f 87       	std	Y+15, r25	; 0x0f
    3414:	8e 87       	std	Y+14, r24	; 0x0e
    3416:	1d a2       	std	Y+37, r1	; 0x25
    3418:	1c a2       	std	Y+36, r1	; 0x24
    341a:	88 27       	eor	r24, r24
    341c:	99 27       	eor	r25, r25
    341e:	86 1b       	sub	r24, r22
    3420:	97 0b       	sbc	r25, r23
    3422:	99 a3       	std	Y+33, r25	; 0x21
    3424:	88 a3       	std	Y+32, r24	; 0x20
    3426:	7b a3       	std	Y+35, r23	; 0x23
    3428:	6a a3       	std	Y+34, r22	; 0x22
    342a:	60 e0       	ldi	r22, 0x00	; 0
    342c:	86 e3       	ldi	r24, 0x36	; 54
    342e:	0e 94 65 3c 	call	0x78ca	; 0x78ca <pinMode>
    3432:	60 e0       	ldi	r22, 0x00	; 0
    3434:	87 e3       	ldi	r24, 0x37	; 55
    3436:	0e 94 65 3c 	call	0x78ca	; 0x78ca <pinMode>
    343a:	60 e0       	ldi	r22, 0x00	; 0
    343c:	88 e3       	ldi	r24, 0x38	; 56
    343e:	0e 94 65 3c 	call	0x78ca	; 0x78ca <pinMode>
    3442:	60 e0       	ldi	r22, 0x00	; 0
    3444:	89 e3       	ldi	r24, 0x39	; 57
    3446:	0e 94 65 3c 	call	0x78ca	; 0x78ca <pinMode>
    344a:	1d a2       	std	Y+37, r1	; 0x25
    344c:	1c a2       	std	Y+36, r1	; 0x24
    344e:	be 01       	movw	r22, r28
    3450:	6a 5f       	subi	r22, 0xFA	; 250
    3452:	7f 4f       	sbci	r23, 0xFF	; 255
    3454:	80 e0       	ldi	r24, 0x00	; 0
    3456:	90 e0       	ldi	r25, 0x00	; 0
    3458:	b5 df       	rcall	.-150    	; 0x33c4 <_ZN11EEPROMClass3getIiEERT_iS2_.isra.0>
    345a:	8c a1       	ldd	r24, Y+36	; 0x24
    345c:	9d a1       	ldd	r25, Y+37	; 0x25
    345e:	02 96       	adiw	r24, 0x02	; 2
    3460:	9d a3       	std	Y+37, r25	; 0x25
    3462:	8c a3       	std	Y+36, r24	; 0x24
    3464:	be 01       	movw	r22, r28
    3466:	62 5f       	subi	r22, 0xF2	; 242
    3468:	7f 4f       	sbci	r23, 0xFF	; 255
    346a:	ac df       	rcall	.-168    	; 0x33c4 <_ZN11EEPROMClass3getIiEERT_iS2_.isra.0>
    346c:	8c a1       	ldd	r24, Y+36	; 0x24
    346e:	9d a1       	ldd	r25, Y+37	; 0x25
    3470:	02 96       	adiw	r24, 0x02	; 2
    3472:	9d a3       	std	Y+37, r25	; 0x25
    3474:	8c a3       	std	Y+36, r24	; 0x24
    3476:	be 01       	movw	r22, r28
    3478:	6e 5f       	subi	r22, 0xFE	; 254
    347a:	7f 4f       	sbci	r23, 0xFF	; 255
    347c:	a3 df       	rcall	.-186    	; 0x33c4 <_ZN11EEPROMClass3getIiEERT_iS2_.isra.0>
    347e:	8c a1       	ldd	r24, Y+36	; 0x24
    3480:	9d a1       	ldd	r25, Y+37	; 0x25
    3482:	02 96       	adiw	r24, 0x02	; 2
    3484:	9d a3       	std	Y+37, r25	; 0x25
    3486:	8c a3       	std	Y+36, r24	; 0x24
    3488:	be 01       	movw	r22, r28
    348a:	66 5f       	subi	r22, 0xF6	; 246
    348c:	7f 4f       	sbci	r23, 0xFF	; 255
    348e:	9a df       	rcall	.-204    	; 0x33c4 <_ZN11EEPROMClass3getIiEERT_iS2_.isra.0>
    3490:	8c a1       	ldd	r24, Y+36	; 0x24
    3492:	9d a1       	ldd	r25, Y+37	; 0x25
    3494:	02 96       	adiw	r24, 0x02	; 2
    3496:	9d a3       	std	Y+37, r25	; 0x25
    3498:	8c a3       	std	Y+36, r24	; 0x24
    349a:	be 01       	movw	r22, r28
    349c:	6c 5f       	subi	r22, 0xFC	; 252
    349e:	7f 4f       	sbci	r23, 0xFF	; 255
    34a0:	91 df       	rcall	.-222    	; 0x33c4 <_ZN11EEPROMClass3getIiEERT_iS2_.isra.0>
    34a2:	8c a1       	ldd	r24, Y+36	; 0x24
    34a4:	9d a1       	ldd	r25, Y+37	; 0x25
    34a6:	02 96       	adiw	r24, 0x02	; 2
    34a8:	9d a3       	std	Y+37, r25	; 0x25
    34aa:	8c a3       	std	Y+36, r24	; 0x24
    34ac:	be 01       	movw	r22, r28
    34ae:	64 5f       	subi	r22, 0xF4	; 244
    34b0:	7f 4f       	sbci	r23, 0xFF	; 255
    34b2:	88 df       	rcall	.-240    	; 0x33c4 <_ZN11EEPROMClass3getIiEERT_iS2_.isra.0>
    34b4:	8c a1       	ldd	r24, Y+36	; 0x24
    34b6:	9d a1       	ldd	r25, Y+37	; 0x25
    34b8:	02 96       	adiw	r24, 0x02	; 2
    34ba:	9d a3       	std	Y+37, r25	; 0x25
    34bc:	8c a3       	std	Y+36, r24	; 0x24
    34be:	be 01       	movw	r22, r28
    34c0:	81 df       	rcall	.-254    	; 0x33c4 <_ZN11EEPROMClass3getIiEERT_iS2_.isra.0>
    34c2:	8c a1       	ldd	r24, Y+36	; 0x24
    34c4:	9d a1       	ldd	r25, Y+37	; 0x25
    34c6:	02 96       	adiw	r24, 0x02	; 2
    34c8:	9d a3       	std	Y+37, r25	; 0x25
    34ca:	8c a3       	std	Y+36, r24	; 0x24
    34cc:	be 01       	movw	r22, r28
    34ce:	68 5f       	subi	r22, 0xF8	; 248
    34d0:	7f 4f       	sbci	r23, 0xFF	; 255
    34d2:	df 91       	pop	r29
    34d4:	cf 91       	pop	r28
    34d6:	76 cf       	rjmp	.-276    	; 0x33c4 <_ZN11EEPROMClass3getIiEERT_iS2_.isra.0>

000034d8 <_ZN8JoystickD1Ev>:
    34d8:	08 95       	ret

000034da <_ZN8Joystick8CalulateEv>:

RandL Joystick::Calulate()
{
    34da:	4f 92       	push	r4
    34dc:	5f 92       	push	r5
    34de:	6f 92       	push	r6
    34e0:	7f 92       	push	r7
    34e2:	8f 92       	push	r8
    34e4:	9f 92       	push	r9
    34e6:	af 92       	push	r10
    34e8:	bf 92       	push	r11
    34ea:	cf 92       	push	r12
    34ec:	df 92       	push	r13
    34ee:	ef 92       	push	r14
    34f0:	ff 92       	push	r15
    34f2:	0f 93       	push	r16
    34f4:	1f 93       	push	r17
    34f6:	cf 93       	push	r28
    34f8:	df 93       	push	r29
    34fa:	4c 01       	movw	r8, r24
    34fc:	eb 01       	movw	r28, r22
	RandL both;
	Ly=analogRead(A0);
    34fe:	86 e3       	ldi	r24, 0x36	; 54
    3500:	0e 94 ea 3b 	call	0x77d4	; 0x77d4 <analogRead>
    3504:	9d 8b       	std	Y+21, r25	; 0x15
    3506:	8c 8b       	std	Y+20, r24	; 0x14
	Lx=analogRead(A1);
    3508:	87 e3       	ldi	r24, 0x37	; 55
    350a:	0e 94 ea 3b 	call	0x77d4	; 0x77d4 <analogRead>
    350e:	9f 8b       	std	Y+23, r25	; 0x17
    3510:	8e 8b       	std	Y+22, r24	; 0x16
	Ry=analogRead(A2);
    3512:	88 e3       	ldi	r24, 0x38	; 56
    3514:	0e 94 ea 3b 	call	0x77d4	; 0x77d4 <analogRead>
    3518:	99 8b       	std	Y+17, r25	; 0x11
    351a:	88 8b       	std	Y+16, r24	; 0x10
	Rx=analogRead(A3);
    351c:	89 e3       	ldi	r24, 0x39	; 57
    351e:	0e 94 ea 3b 	call	0x77d4	; 0x77d4 <analogRead>
    3522:	9b 8b       	std	Y+19, r25	; 0x13
    3524:	8a 8b       	std	Y+18, r24	; 0x12
	
	Ry1=map(Ry,RyMin,RyMax,100,-100);
    3526:	ec 80       	ldd	r14, Y+4	; 0x04
    3528:	fd 80       	ldd	r15, Y+5	; 0x05
    352a:	0f 2c       	mov	r0, r15
    352c:	00 0c       	add	r0, r0
    352e:	00 0b       	sbc	r16, r16
    3530:	11 0b       	sbc	r17, r17
    3532:	2e 81       	ldd	r18, Y+6	; 0x06
    3534:	3f 81       	ldd	r19, Y+7	; 0x07
    3536:	03 2e       	mov	r0, r19
    3538:	00 0c       	add	r0, r0
    353a:	44 0b       	sbc	r20, r20
    353c:	55 0b       	sbc	r21, r21
    353e:	68 89       	ldd	r22, Y+16	; 0x10
    3540:	79 89       	ldd	r23, Y+17	; 0x11
    3542:	07 2e       	mov	r0, r23
    3544:	00 0c       	add	r0, r0
    3546:	88 0b       	sbc	r24, r24
    3548:	99 0b       	sbc	r25, r25
    354a:	77 24       	eor	r7, r7
    354c:	7a 94       	dec	r7
    354e:	7f 92       	push	r7
    3550:	7f 92       	push	r7
    3552:	7f 92       	push	r7
    3554:	ec e9       	ldi	r30, 0x9C	; 156
    3556:	6e 2e       	mov	r6, r30
    3558:	6f 92       	push	r6
    355a:	f4 e6       	ldi	r31, 0x64	; 100
    355c:	af 2e       	mov	r10, r31
    355e:	b1 2c       	mov	r11, r1
    3560:	c1 2c       	mov	r12, r1
    3562:	d1 2c       	mov	r13, r1
    3564:	0e 94 d0 3c 	call	0x79a0	; 0x79a0 <_Z3maplllll>
    3568:	79 8f       	std	Y+25, r23	; 0x19
    356a:	68 8f       	std	Y+24, r22	; 0x18
	Rx1=map(Rx,RxMin,RxMax,-100,100);
    356c:	e8 80       	ld	r14, Y
    356e:	f9 80       	ldd	r15, Y+1	; 0x01
    3570:	0f 2c       	mov	r0, r15
    3572:	00 0c       	add	r0, r0
    3574:	00 0b       	sbc	r16, r16
    3576:	11 0b       	sbc	r17, r17
    3578:	2a 81       	ldd	r18, Y+2	; 0x02
    357a:	3b 81       	ldd	r19, Y+3	; 0x03
    357c:	03 2e       	mov	r0, r19
    357e:	00 0c       	add	r0, r0
    3580:	44 0b       	sbc	r20, r20
    3582:	55 0b       	sbc	r21, r21
    3584:	6a 89       	ldd	r22, Y+18	; 0x12
    3586:	7b 89       	ldd	r23, Y+19	; 0x13
    3588:	07 2e       	mov	r0, r23
    358a:	00 0c       	add	r0, r0
    358c:	88 0b       	sbc	r24, r24
    358e:	99 0b       	sbc	r25, r25
    3590:	1f 92       	push	r1
    3592:	1f 92       	push	r1
    3594:	1f 92       	push	r1
    3596:	e4 e6       	ldi	r30, 0x64	; 100
    3598:	ef 93       	push	r30
    359a:	ac e9       	ldi	r26, 0x9C	; 156
    359c:	aa 2e       	mov	r10, r26
    359e:	bb 24       	eor	r11, r11
    35a0:	ba 94       	dec	r11
    35a2:	cb 2c       	mov	r12, r11
    35a4:	db 2c       	mov	r13, r11
    35a6:	0e 94 d0 3c 	call	0x79a0	; 0x79a0 <_Z3maplllll>
    35aa:	7b 8f       	std	Y+27, r23	; 0x1b
    35ac:	6a 8f       	std	Y+26, r22	; 0x1a
	Ly1=map(Ly,LyMin,LyMax,100,-100);
    35ae:	ec 84       	ldd	r14, Y+12	; 0x0c
    35b0:	fd 84       	ldd	r15, Y+13	; 0x0d
    35b2:	0f 2c       	mov	r0, r15
    35b4:	00 0c       	add	r0, r0
    35b6:	00 0b       	sbc	r16, r16
    35b8:	11 0b       	sbc	r17, r17
    35ba:	2e 85       	ldd	r18, Y+14	; 0x0e
    35bc:	3f 85       	ldd	r19, Y+15	; 0x0f
    35be:	03 2e       	mov	r0, r19
    35c0:	00 0c       	add	r0, r0
    35c2:	44 0b       	sbc	r20, r20
    35c4:	55 0b       	sbc	r21, r21
    35c6:	6c 89       	ldd	r22, Y+20	; 0x14
    35c8:	7d 89       	ldd	r23, Y+21	; 0x15
    35ca:	07 2e       	mov	r0, r23
    35cc:	00 0c       	add	r0, r0
    35ce:	88 0b       	sbc	r24, r24
    35d0:	99 0b       	sbc	r25, r25
    35d2:	7f 92       	push	r7
    35d4:	7f 92       	push	r7
    35d6:	7f 92       	push	r7
    35d8:	6f 92       	push	r6
    35da:	b4 e6       	ldi	r27, 0x64	; 100
    35dc:	ab 2e       	mov	r10, r27
    35de:	b1 2c       	mov	r11, r1
    35e0:	c1 2c       	mov	r12, r1
    35e2:	d1 2c       	mov	r13, r1
    35e4:	0e 94 d0 3c 	call	0x79a0	; 0x79a0 <_Z3maplllll>
    35e8:	7d 8f       	std	Y+29, r23	; 0x1d
    35ea:	6c 8f       	std	Y+28, r22	; 0x1c
	Lx1=map(Lx,LxMin,LxMax,100,-100);
    35ec:	e8 84       	ldd	r14, Y+8	; 0x08
    35ee:	f9 84       	ldd	r15, Y+9	; 0x09
    35f0:	0f 2c       	mov	r0, r15
    35f2:	00 0c       	add	r0, r0
    35f4:	00 0b       	sbc	r16, r16
    35f6:	11 0b       	sbc	r17, r17
    35f8:	2a 85       	ldd	r18, Y+10	; 0x0a
    35fa:	3b 85       	ldd	r19, Y+11	; 0x0b
    35fc:	03 2e       	mov	r0, r19
    35fe:	00 0c       	add	r0, r0
    3600:	44 0b       	sbc	r20, r20
    3602:	55 0b       	sbc	r21, r21
    3604:	6e 89       	ldd	r22, Y+22	; 0x16
    3606:	7f 89       	ldd	r23, Y+23	; 0x17
    3608:	07 2e       	mov	r0, r23
    360a:	00 0c       	add	r0, r0
    360c:	88 0b       	sbc	r24, r24
    360e:	99 0b       	sbc	r25, r25
    3610:	7f 92       	push	r7
    3612:	7f 92       	push	r7
    3614:	7f 92       	push	r7
    3616:	6f 92       	push	r6
    3618:	0e 94 d0 3c 	call	0x79a0	; 0x79a0 <_Z3maplllll>
    361c:	8b 01       	movw	r16, r22
    361e:	7f 8f       	std	Y+31, r23	; 0x1f
    3620:	6e 8f       	std	Y+30, r22	; 0x1e
	
	if(Ry1<=deadZoneEnd&&Ry1>=deadZoneBegin)
    3622:	28 8d       	ldd	r18, Y+24	; 0x18
    3624:	39 8d       	ldd	r19, Y+25	; 0x19
    3626:	4a a1       	ldd	r20, Y+34	; 0x22
    3628:	5b a1       	ldd	r21, Y+35	; 0x23
    362a:	ed b7       	in	r30, 0x3d	; 61
    362c:	fe b7       	in	r31, 0x3e	; 62
    362e:	70 96       	adiw	r30, 0x10	; 16
    3630:	0f b6       	in	r0, 0x3f	; 63
    3632:	f8 94       	cli
    3634:	fe bf       	out	0x3e, r31	; 62
    3636:	0f be       	out	0x3f, r0	; 63
    3638:	ed bf       	out	0x3d, r30	; 61
    363a:	42 17       	cp	r20, r18
    363c:	53 07       	cpc	r21, r19
    363e:	3c f0       	brlt	.+14     	; 0x364e <_ZN8Joystick8CalulateEv+0x174>
    3640:	e8 a1       	ldd	r30, Y+32	; 0x20
    3642:	f9 a1       	ldd	r31, Y+33	; 0x21
    3644:	2e 17       	cp	r18, r30
    3646:	3f 07       	cpc	r19, r31
    3648:	14 f0       	brlt	.+4      	; 0x364e <_ZN8Joystick8CalulateEv+0x174>
		Ry1=0;
    364a:	19 8e       	std	Y+25, r1	; 0x19
    364c:	18 8e       	std	Y+24, r1	; 0x18
	if(Rx1<=deadZoneEnd&&Rx1>=deadZoneBegin)
    364e:	2a 8d       	ldd	r18, Y+26	; 0x1a
    3650:	3b 8d       	ldd	r19, Y+27	; 0x1b
    3652:	42 17       	cp	r20, r18
    3654:	53 07       	cpc	r21, r19
    3656:	3c f0       	brlt	.+14     	; 0x3666 <_ZN8Joystick8CalulateEv+0x18c>
    3658:	e8 a1       	ldd	r30, Y+32	; 0x20
    365a:	f9 a1       	ldd	r31, Y+33	; 0x21
    365c:	2e 17       	cp	r18, r30
    365e:	3f 07       	cpc	r19, r31
    3660:	14 f0       	brlt	.+4      	; 0x3666 <_ZN8Joystick8CalulateEv+0x18c>
		Rx1=0;
    3662:	1b 8e       	std	Y+27, r1	; 0x1b
    3664:	1a 8e       	std	Y+26, r1	; 0x1a
	if(Ly1<=deadZoneEnd&&Ly1>=deadZoneBegin)
    3666:	2c 8d       	ldd	r18, Y+28	; 0x1c
    3668:	3d 8d       	ldd	r19, Y+29	; 0x1d
    366a:	42 17       	cp	r20, r18
    366c:	53 07       	cpc	r21, r19
    366e:	9c f0       	brlt	.+38     	; 0x3696 <_ZN8Joystick8CalulateEv+0x1bc>
    3670:	e8 a1       	ldd	r30, Y+32	; 0x20
    3672:	f9 a1       	ldd	r31, Y+33	; 0x21
    3674:	2e 17       	cp	r18, r30
    3676:	3f 07       	cpc	r19, r31
    3678:	74 f0       	brlt	.+28     	; 0x3696 <_ZN8Joystick8CalulateEv+0x1bc>
		Ly1=0;
    367a:	1d 8e       	std	Y+29, r1	; 0x1d
    367c:	1c 8e       	std	Y+28, r1	; 0x1c
	if(Lx1<=deadZoneEnd&&Lx1>=deadZoneBegin)
    367e:	40 17       	cp	r20, r16
    3680:	51 07       	cpc	r21, r17
    3682:	0c f4       	brge	.+2      	; 0x3686 <_ZN8Joystick8CalulateEv+0x1ac>
    3684:	e5 c0       	rjmp	.+458    	; 0x3850 <_ZN8Joystick8CalulateEv+0x376>
    3686:	88 a1       	ldd	r24, Y+32	; 0x20
    3688:	99 a1       	ldd	r25, Y+33	; 0x21
    368a:	08 17       	cp	r16, r24
    368c:	19 07       	cpc	r17, r25
    368e:	34 f0       	brlt	.+12     	; 0x369c <_ZN8Joystick8CalulateEv+0x1c2>
		Lx1=0;
    3690:	1f 8e       	std	Y+31, r1	; 0x1f
    3692:	1e 8e       	std	Y+30, r1	; 0x1e
    3694:	03 c0       	rjmp	.+6      	; 0x369c <_ZN8Joystick8CalulateEv+0x1c2>
		Ry1=0;
	if(Rx1<=deadZoneEnd&&Rx1>=deadZoneBegin)
		Rx1=0;
	if(Ly1<=deadZoneEnd&&Ly1>=deadZoneBegin)
		Ly1=0;
	if(Lx1<=deadZoneEnd&&Lx1>=deadZoneBegin)
    3696:	40 17       	cp	r20, r16
    3698:	51 07       	cpc	r21, r17
    369a:	ac f7       	brge	.-22     	; 0x3686 <_ZN8Joystick8CalulateEv+0x1ac>
		Lx1=0;
	//caluclate Left joysick
	both.L.extend=sqrt(Ly1*Ly1+Lx1*Lx1);
    369c:	ec 8c       	ldd	r14, Y+28	; 0x1c
    369e:	fd 8c       	ldd	r15, Y+29	; 0x1d
    36a0:	0e 8d       	ldd	r16, Y+30	; 0x1e
    36a2:	1f 8d       	ldd	r17, Y+31	; 0x1f
    36a4:	ee 9c       	mul	r14, r14
    36a6:	b0 01       	movw	r22, r0
    36a8:	ef 9c       	mul	r14, r15
    36aa:	70 0d       	add	r23, r0
    36ac:	70 0d       	add	r23, r0
    36ae:	11 24       	eor	r1, r1
    36b0:	00 9f       	mul	r16, r16
    36b2:	c0 01       	movw	r24, r0
    36b4:	01 9f       	mul	r16, r17
    36b6:	90 0d       	add	r25, r0
    36b8:	90 0d       	add	r25, r0
    36ba:	11 24       	eor	r1, r1
    36bc:	68 0f       	add	r22, r24
    36be:	79 1f       	adc	r23, r25
    36c0:	07 2e       	mov	r0, r23
    36c2:	00 0c       	add	r0, r0
    36c4:	88 0b       	sbc	r24, r24
    36c6:	99 0b       	sbc	r25, r25
    36c8:	0e 94 e1 35 	call	0x6bc2	; 0x6bc2 <__floatsisf>
    36cc:	0e 94 77 37 	call	0x6eee	; 0x6eee <sqrt>
    36d0:	2b 01       	movw	r4, r22
    36d2:	3c 01       	movw	r6, r24
    36d4:	f4 01       	movw	r30, r8
    36d6:	60 87       	std	Z+8, r22	; 0x08
    36d8:	71 87       	std	Z+9, r23	; 0x09
    36da:	82 87       	std	Z+10, r24	; 0x0a
    36dc:	93 87       	std	Z+11, r25	; 0x0b
	if(Ly1>=0)
    36de:	f7 fc       	sbrc	r15, 7
    36e0:	0d c0       	rjmp	.+26     	; 0x36fc <_ZN8Joystick8CalulateEv+0x222>
		both.L.angle=acos(Lx1/both.L.extend);
    36e2:	b8 01       	movw	r22, r16
    36e4:	11 0f       	add	r17, r17
    36e6:	88 0b       	sbc	r24, r24
    36e8:	99 0b       	sbc	r25, r25
    36ea:	0e 94 e1 35 	call	0x6bc2	; 0x6bc2 <__floatsisf>
    36ee:	a3 01       	movw	r20, r6
    36f0:	92 01       	movw	r18, r4
    36f2:	0e 94 46 35 	call	0x6a8c	; 0x6a8c <__divsf3>
    36f6:	0e 94 cc 34 	call	0x6998	; 0x6998 <acos>
    36fa:	14 c0       	rjmp	.+40     	; 0x3724 <_ZN8Joystick8CalulateEv+0x24a>
	else if(Ly1<0)
		both.L.angle=2*PI-acos(Lx1/both.L.extend);
    36fc:	b8 01       	movw	r22, r16
    36fe:	11 0f       	add	r17, r17
    3700:	88 0b       	sbc	r24, r24
    3702:	99 0b       	sbc	r25, r25
    3704:	0e 94 e1 35 	call	0x6bc2	; 0x6bc2 <__floatsisf>
    3708:	a3 01       	movw	r20, r6
    370a:	92 01       	movw	r18, r4
    370c:	0e 94 46 35 	call	0x6a8c	; 0x6a8c <__divsf3>
    3710:	0e 94 cc 34 	call	0x6998	; 0x6998 <acos>
    3714:	9b 01       	movw	r18, r22
    3716:	ac 01       	movw	r20, r24
    3718:	6b ed       	ldi	r22, 0xDB	; 219
    371a:	7f e0       	ldi	r23, 0x0F	; 15
    371c:	89 ec       	ldi	r24, 0xC9	; 201
    371e:	90 e4       	ldi	r25, 0x40	; 64
    3720:	0e 94 da 34 	call	0x69b4	; 0x69b4 <__subsf3>
    3724:	f4 01       	movw	r30, r8
    3726:	64 87       	std	Z+12, r22	; 0x0c
    3728:	75 87       	std	Z+13, r23	; 0x0d
    372a:	86 87       	std	Z+14, r24	; 0x0e
    372c:	97 87       	std	Z+15, r25	; 0x0f
		
	if(both.L.extend==0)
    372e:	20 e0       	ldi	r18, 0x00	; 0
    3730:	30 e0       	ldi	r19, 0x00	; 0
    3732:	a9 01       	movw	r20, r18
    3734:	c3 01       	movw	r24, r6
    3736:	b2 01       	movw	r22, r4
    3738:	0e 94 3f 35 	call	0x6a7e	; 0x6a7e <__cmpsf2>
    373c:	81 11       	cpse	r24, r1
    373e:	06 c0       	rjmp	.+12     	; 0x374c <_ZN8Joystick8CalulateEv+0x272>
		both.L.angle=0;
    3740:	f4 01       	movw	r30, r8
    3742:	14 86       	std	Z+12, r1	; 0x0c
    3744:	15 86       	std	Z+13, r1	; 0x0d
    3746:	16 86       	std	Z+14, r1	; 0x0e
    3748:	17 86       	std	Z+15, r1	; 0x0f
    374a:	16 c0       	rjmp	.+44     	; 0x3778 <_ZN8Joystick8CalulateEv+0x29e>
	else
		both.L.angle=(both.L.angle * 4068) / 71;
    374c:	20 e0       	ldi	r18, 0x00	; 0
    374e:	30 e4       	ldi	r19, 0x40	; 64
    3750:	4e e7       	ldi	r20, 0x7E	; 126
    3752:	55 e4       	ldi	r21, 0x45	; 69
    3754:	f4 01       	movw	r30, r8
    3756:	64 85       	ldd	r22, Z+12	; 0x0c
    3758:	75 85       	ldd	r23, Z+13	; 0x0d
    375a:	86 85       	ldd	r24, Z+14	; 0x0e
    375c:	97 85       	ldd	r25, Z+15	; 0x0f
    375e:	0e 94 0a 37 	call	0x6e14	; 0x6e14 <__mulsf3>
    3762:	20 e0       	ldi	r18, 0x00	; 0
    3764:	30 e0       	ldi	r19, 0x00	; 0
    3766:	4e e8       	ldi	r20, 0x8E	; 142
    3768:	52 e4       	ldi	r21, 0x42	; 66
    376a:	0e 94 46 35 	call	0x6a8c	; 0x6a8c <__divsf3>
    376e:	f4 01       	movw	r30, r8
    3770:	64 87       	std	Z+12, r22	; 0x0c
    3772:	75 87       	std	Z+13, r23	; 0x0d
    3774:	86 87       	std	Z+14, r24	; 0x0e
    3776:	97 87       	std	Z+15, r25	; 0x0f
		
	//caluclate Right joysick
	both.R.extend=sqrt(Ry1*Ry1+Rx1*Rx1);
    3778:	08 8d       	ldd	r16, Y+24	; 0x18
    377a:	19 8d       	ldd	r17, Y+25	; 0x19
    377c:	0a 8c       	ldd	r0, Y+26	; 0x1a
    377e:	db 8d       	ldd	r29, Y+27	; 0x1b
    3780:	c0 2d       	mov	r28, r0
    3782:	00 9f       	mul	r16, r16
    3784:	b0 01       	movw	r22, r0
    3786:	01 9f       	mul	r16, r17
    3788:	70 0d       	add	r23, r0
    378a:	70 0d       	add	r23, r0
    378c:	11 24       	eor	r1, r1
    378e:	cc 9f       	mul	r28, r28
    3790:	c0 01       	movw	r24, r0
    3792:	cd 9f       	mul	r28, r29
    3794:	90 0d       	add	r25, r0
    3796:	90 0d       	add	r25, r0
    3798:	11 24       	eor	r1, r1
    379a:	68 0f       	add	r22, r24
    379c:	79 1f       	adc	r23, r25
    379e:	07 2e       	mov	r0, r23
    37a0:	00 0c       	add	r0, r0
    37a2:	88 0b       	sbc	r24, r24
    37a4:	99 0b       	sbc	r25, r25
    37a6:	0e 94 e1 35 	call	0x6bc2	; 0x6bc2 <__floatsisf>
    37aa:	0e 94 77 37 	call	0x6eee	; 0x6eee <sqrt>
    37ae:	2b 01       	movw	r4, r22
    37b0:	3c 01       	movw	r6, r24
    37b2:	f4 01       	movw	r30, r8
    37b4:	60 83       	st	Z, r22
    37b6:	71 83       	std	Z+1, r23	; 0x01
    37b8:	82 83       	std	Z+2, r24	; 0x02
    37ba:	93 83       	std	Z+3, r25	; 0x03
    37bc:	be 01       	movw	r22, r28
    37be:	dd 0f       	add	r29, r29
    37c0:	88 0b       	sbc	r24, r24
    37c2:	99 0b       	sbc	r25, r25
	if(Ry1>=0)
    37c4:	17 fd       	sbrc	r17, 7
    37c6:	09 c0       	rjmp	.+18     	; 0x37da <_ZN8Joystick8CalulateEv+0x300>
		both.R.angle=acos(Rx1/both.R.extend);
    37c8:	0e 94 e1 35 	call	0x6bc2	; 0x6bc2 <__floatsisf>
    37cc:	a3 01       	movw	r20, r6
    37ce:	92 01       	movw	r18, r4
    37d0:	0e 94 46 35 	call	0x6a8c	; 0x6a8c <__divsf3>
    37d4:	0e 94 cc 34 	call	0x6998	; 0x6998 <acos>
    37d8:	10 c0       	rjmp	.+32     	; 0x37fa <_ZN8Joystick8CalulateEv+0x320>
	else if(Ry1<0)
		both.R.angle=2*PI-acos(Rx1/both.R.extend);
    37da:	0e 94 e1 35 	call	0x6bc2	; 0x6bc2 <__floatsisf>
    37de:	a3 01       	movw	r20, r6
    37e0:	92 01       	movw	r18, r4
    37e2:	0e 94 46 35 	call	0x6a8c	; 0x6a8c <__divsf3>
    37e6:	0e 94 cc 34 	call	0x6998	; 0x6998 <acos>
    37ea:	9b 01       	movw	r18, r22
    37ec:	ac 01       	movw	r20, r24
    37ee:	6b ed       	ldi	r22, 0xDB	; 219
    37f0:	7f e0       	ldi	r23, 0x0F	; 15
    37f2:	89 ec       	ldi	r24, 0xC9	; 201
    37f4:	90 e4       	ldi	r25, 0x40	; 64
    37f6:	0e 94 da 34 	call	0x69b4	; 0x69b4 <__subsf3>
    37fa:	f4 01       	movw	r30, r8
    37fc:	64 83       	std	Z+4, r22	; 0x04
    37fe:	75 83       	std	Z+5, r23	; 0x05
    3800:	86 83       	std	Z+6, r24	; 0x06
    3802:	97 83       	std	Z+7, r25	; 0x07
	
	if(both.R.extend==0)
    3804:	20 e0       	ldi	r18, 0x00	; 0
    3806:	30 e0       	ldi	r19, 0x00	; 0
    3808:	a9 01       	movw	r20, r18
    380a:	c3 01       	movw	r24, r6
    380c:	b2 01       	movw	r22, r4
    380e:	0e 94 3f 35 	call	0x6a7e	; 0x6a7e <__cmpsf2>
    3812:	81 11       	cpse	r24, r1
    3814:	06 c0       	rjmp	.+12     	; 0x3822 <_ZN8Joystick8CalulateEv+0x348>
		both.R.angle=0;
    3816:	f4 01       	movw	r30, r8
    3818:	14 82       	std	Z+4, r1	; 0x04
    381a:	15 82       	std	Z+5, r1	; 0x05
    381c:	16 82       	std	Z+6, r1	; 0x06
    381e:	17 82       	std	Z+7, r1	; 0x07
    3820:	2d c0       	rjmp	.+90     	; 0x387c <_ZN8Joystick8CalulateEv+0x3a2>
	else
		both.R.angle=(both.R.angle * 4068) / 71;
    3822:	20 e0       	ldi	r18, 0x00	; 0
    3824:	30 e4       	ldi	r19, 0x40	; 64
    3826:	4e e7       	ldi	r20, 0x7E	; 126
    3828:	55 e4       	ldi	r21, 0x45	; 69
    382a:	f4 01       	movw	r30, r8
    382c:	64 81       	ldd	r22, Z+4	; 0x04
    382e:	75 81       	ldd	r23, Z+5	; 0x05
    3830:	86 81       	ldd	r24, Z+6	; 0x06
    3832:	97 81       	ldd	r25, Z+7	; 0x07
    3834:	0e 94 0a 37 	call	0x6e14	; 0x6e14 <__mulsf3>
    3838:	20 e0       	ldi	r18, 0x00	; 0
    383a:	30 e0       	ldi	r19, 0x00	; 0
    383c:	4e e8       	ldi	r20, 0x8E	; 142
    383e:	52 e4       	ldi	r21, 0x42	; 66
    3840:	0e 94 46 35 	call	0x6a8c	; 0x6a8c <__divsf3>
    3844:	f4 01       	movw	r30, r8
    3846:	64 83       	std	Z+4, r22	; 0x04
    3848:	75 83       	std	Z+5, r23	; 0x05
    384a:	86 83       	std	Z+6, r24	; 0x06
    384c:	97 83       	std	Z+7, r25	; 0x07
    384e:	16 c0       	rjmp	.+44     	; 0x387c <_ZN8Joystick8CalulateEv+0x3a2>
	if(Ly1<=deadZoneEnd&&Ly1>=deadZoneBegin)
		Ly1=0;
	if(Lx1<=deadZoneEnd&&Lx1>=deadZoneBegin)
		Lx1=0;
	//caluclate Left joysick
	both.L.extend=sqrt(Ly1*Ly1+Lx1*Lx1);
    3850:	66 9f       	mul	r22, r22
    3852:	90 01       	movw	r18, r0
    3854:	67 9f       	mul	r22, r23
    3856:	30 0d       	add	r19, r0
    3858:	30 0d       	add	r19, r0
    385a:	11 24       	eor	r1, r1
    385c:	b9 01       	movw	r22, r18
    385e:	33 0f       	add	r19, r19
    3860:	88 0b       	sbc	r24, r24
    3862:	99 0b       	sbc	r25, r25
    3864:	0e 94 e1 35 	call	0x6bc2	; 0x6bc2 <__floatsisf>
    3868:	0e 94 77 37 	call	0x6eee	; 0x6eee <sqrt>
    386c:	2b 01       	movw	r4, r22
    386e:	3c 01       	movw	r6, r24
    3870:	f4 01       	movw	r30, r8
    3872:	60 87       	std	Z+8, r22	; 0x08
    3874:	71 87       	std	Z+9, r23	; 0x09
    3876:	82 87       	std	Z+10, r24	; 0x0a
    3878:	93 87       	std	Z+11, r25	; 0x0b
    387a:	33 cf       	rjmp	.-410    	; 0x36e2 <_ZN8Joystick8CalulateEv+0x208>
		both.R.angle=0;
	else
		both.R.angle=(both.R.angle * 4068) / 71;
	
	return both;
}
    387c:	c4 01       	movw	r24, r8
    387e:	df 91       	pop	r29
    3880:	cf 91       	pop	r28
    3882:	1f 91       	pop	r17
    3884:	0f 91       	pop	r16
    3886:	ff 90       	pop	r15
    3888:	ef 90       	pop	r14
    388a:	df 90       	pop	r13
    388c:	cf 90       	pop	r12
    388e:	bf 90       	pop	r11
    3890:	af 90       	pop	r10
    3892:	9f 90       	pop	r9
    3894:	8f 90       	pop	r8
    3896:	7f 90       	pop	r7
    3898:	6f 90       	pop	r6
    389a:	5f 90       	pop	r5
    389c:	4f 90       	pop	r4
    389e:	08 95       	ret

000038a0 <_ZN8Joystick9CalibrateEb>:

int Joystick::Calibrate(bool reset)
{
    38a0:	0f 93       	push	r16
    38a2:	1f 93       	push	r17
    38a4:	cf 93       	push	r28
    38a6:	df 93       	push	r29
    38a8:	1f 92       	push	r1
    38aa:	cd b7       	in	r28, 0x3d	; 61
    38ac:	de b7       	in	r29, 0x3e	; 62
    38ae:	8c 01       	movw	r16, r24
	Ly=analogRead(A0);
    38b0:	86 e3       	ldi	r24, 0x36	; 54
    38b2:	69 83       	std	Y+1, r22	; 0x01
    38b4:	0e 94 ea 3b 	call	0x77d4	; 0x77d4 <analogRead>
    38b8:	f8 01       	movw	r30, r16
    38ba:	95 8b       	std	Z+21, r25	; 0x15
    38bc:	84 8b       	std	Z+20, r24	; 0x14
	Lx=analogRead(A1);
    38be:	87 e3       	ldi	r24, 0x37	; 55
    38c0:	0e 94 ea 3b 	call	0x77d4	; 0x77d4 <analogRead>
    38c4:	f8 01       	movw	r30, r16
    38c6:	97 8b       	std	Z+23, r25	; 0x17
    38c8:	86 8b       	std	Z+22, r24	; 0x16
	Ry=analogRead(A2);
    38ca:	88 e3       	ldi	r24, 0x38	; 56
    38cc:	0e 94 ea 3b 	call	0x77d4	; 0x77d4 <analogRead>
    38d0:	f8 01       	movw	r30, r16
    38d2:	91 8b       	std	Z+17, r25	; 0x11
    38d4:	80 8b       	std	Z+16, r24	; 0x10
	Rx=analogRead(A3);
    38d6:	89 e3       	ldi	r24, 0x39	; 57
    38d8:	0e 94 ea 3b 	call	0x77d4	; 0x77d4 <analogRead>
    38dc:	f8 01       	movw	r30, r16
    38de:	93 8b       	std	Z+19, r25	; 0x13
    38e0:	82 8b       	std	Z+18, r24	; 0x12
	if(reset)
    38e2:	69 81       	ldd	r22, Y+1	; 0x01
    38e4:	66 23       	and	r22, r22
    38e6:	81 f0       	breq	.+32     	; 0x3908 <_ZN8Joystick9CalibrateEb+0x68>
	{
		RxMax=0;
    38e8:	11 82       	std	Z+1, r1	; 0x01
    38ea:	10 82       	st	Z, r1
		RxMin=0;
    38ec:	13 82       	std	Z+3, r1	; 0x03
    38ee:	12 82       	std	Z+2, r1	; 0x02
		RyMax=0;
    38f0:	15 82       	std	Z+5, r1	; 0x05
    38f2:	14 82       	std	Z+4, r1	; 0x04
		RyMin=0;
    38f4:	17 82       	std	Z+7, r1	; 0x07
    38f6:	16 82       	std	Z+6, r1	; 0x06
		LxMax=0;
    38f8:	11 86       	std	Z+9, r1	; 0x09
    38fa:	10 86       	std	Z+8, r1	; 0x08
		LxMin=0;
    38fc:	13 86       	std	Z+11, r1	; 0x0b
    38fe:	12 86       	std	Z+10, r1	; 0x0a
		LyMax=0;
    3900:	15 86       	std	Z+13, r1	; 0x0d
    3902:	14 86       	std	Z+12, r1	; 0x0c
		LyMin=0;
    3904:	17 86       	std	Z+15, r1	; 0x0f
    3906:	16 86       	std	Z+14, r1	; 0x0e
	}
	
	if(RxMax<Rx)
    3908:	f8 01       	movw	r30, r16
    390a:	20 81       	ld	r18, Z
    390c:	31 81       	ldd	r19, Z+1	; 0x01
    390e:	28 17       	cp	r18, r24
    3910:	39 07       	cpc	r19, r25
    3912:	1c f4       	brge	.+6      	; 0x391a <_ZN8Joystick9CalibrateEb+0x7a>
	{
		RxMax=Rx;
    3914:	91 83       	std	Z+1, r25	; 0x01
    3916:	80 83       	st	Z, r24
		return RxMax;
    3918:	47 c0       	rjmp	.+142    	; 0x39a8 <_ZN8Joystick9CalibrateEb+0x108>
	}
	if(RxMin>Rx)
    391a:	f8 01       	movw	r30, r16
    391c:	22 81       	ldd	r18, Z+2	; 0x02
    391e:	33 81       	ldd	r19, Z+3	; 0x03
    3920:	82 17       	cp	r24, r18
    3922:	93 07       	cpc	r25, r19
    3924:	1c f4       	brge	.+6      	; 0x392c <_ZN8Joystick9CalibrateEb+0x8c>
	{
		RxMin=Rx;
    3926:	93 83       	std	Z+3, r25	; 0x03
    3928:	82 83       	std	Z+2, r24	; 0x02
		return RxMin;
    392a:	3e c0       	rjmp	.+124    	; 0x39a8 <_ZN8Joystick9CalibrateEb+0x108>
	}
	if(RyMax<Ry)
    392c:	f8 01       	movw	r30, r16
    392e:	80 89       	ldd	r24, Z+16	; 0x10
    3930:	91 89       	ldd	r25, Z+17	; 0x11
    3932:	24 81       	ldd	r18, Z+4	; 0x04
    3934:	35 81       	ldd	r19, Z+5	; 0x05
    3936:	28 17       	cp	r18, r24
    3938:	39 07       	cpc	r19, r25
    393a:	1c f4       	brge	.+6      	; 0x3942 <_ZN8Joystick9CalibrateEb+0xa2>
	{
		RyMax=Ry;
    393c:	95 83       	std	Z+5, r25	; 0x05
    393e:	84 83       	std	Z+4, r24	; 0x04
		return RyMax;
    3940:	33 c0       	rjmp	.+102    	; 0x39a8 <_ZN8Joystick9CalibrateEb+0x108>
	}
	if(RyMin>Ry)
    3942:	f8 01       	movw	r30, r16
    3944:	26 81       	ldd	r18, Z+6	; 0x06
    3946:	37 81       	ldd	r19, Z+7	; 0x07
    3948:	82 17       	cp	r24, r18
    394a:	93 07       	cpc	r25, r19
    394c:	1c f4       	brge	.+6      	; 0x3954 <_ZN8Joystick9CalibrateEb+0xb4>
	{
		RyMin=Ry;
    394e:	97 83       	std	Z+7, r25	; 0x07
    3950:	86 83       	std	Z+6, r24	; 0x06
		return RyMin;
    3952:	2a c0       	rjmp	.+84     	; 0x39a8 <_ZN8Joystick9CalibrateEb+0x108>
	}
	if(LxMax<Lx)
    3954:	f8 01       	movw	r30, r16
    3956:	86 89       	ldd	r24, Z+22	; 0x16
    3958:	97 89       	ldd	r25, Z+23	; 0x17
    395a:	20 85       	ldd	r18, Z+8	; 0x08
    395c:	31 85       	ldd	r19, Z+9	; 0x09
    395e:	28 17       	cp	r18, r24
    3960:	39 07       	cpc	r19, r25
    3962:	1c f4       	brge	.+6      	; 0x396a <_ZN8Joystick9CalibrateEb+0xca>
	{
		LxMax=Lx;
    3964:	91 87       	std	Z+9, r25	; 0x09
    3966:	80 87       	std	Z+8, r24	; 0x08
		return LxMax;
    3968:	1f c0       	rjmp	.+62     	; 0x39a8 <_ZN8Joystick9CalibrateEb+0x108>
	}
	if(LxMin>Lx)
    396a:	f8 01       	movw	r30, r16
    396c:	22 85       	ldd	r18, Z+10	; 0x0a
    396e:	33 85       	ldd	r19, Z+11	; 0x0b
    3970:	82 17       	cp	r24, r18
    3972:	93 07       	cpc	r25, r19
    3974:	1c f4       	brge	.+6      	; 0x397c <_ZN8Joystick9CalibrateEb+0xdc>
	{
		LxMin=Lx;
    3976:	93 87       	std	Z+11, r25	; 0x0b
    3978:	82 87       	std	Z+10, r24	; 0x0a
		return LxMin;
    397a:	16 c0       	rjmp	.+44     	; 0x39a8 <_ZN8Joystick9CalibrateEb+0x108>
	}
	if(LyMax<Ly)
    397c:	f8 01       	movw	r30, r16
    397e:	84 89       	ldd	r24, Z+20	; 0x14
    3980:	95 89       	ldd	r25, Z+21	; 0x15
    3982:	24 85       	ldd	r18, Z+12	; 0x0c
    3984:	35 85       	ldd	r19, Z+13	; 0x0d
    3986:	28 17       	cp	r18, r24
    3988:	39 07       	cpc	r19, r25
    398a:	1c f4       	brge	.+6      	; 0x3992 <_ZN8Joystick9CalibrateEb+0xf2>
	{
		LyMax=Ly;
    398c:	95 87       	std	Z+13, r25	; 0x0d
    398e:	84 87       	std	Z+12, r24	; 0x0c
		return LyMax;
    3990:	0b c0       	rjmp	.+22     	; 0x39a8 <_ZN8Joystick9CalibrateEb+0x108>
	}
	if(LyMin>Ly)
    3992:	f8 01       	movw	r30, r16
    3994:	26 85       	ldd	r18, Z+14	; 0x0e
    3996:	37 85       	ldd	r19, Z+15	; 0x0f
    3998:	82 17       	cp	r24, r18
    399a:	93 07       	cpc	r25, r19
    399c:	1c f4       	brge	.+6      	; 0x39a4 <_ZN8Joystick9CalibrateEb+0x104>
	{
		LyMin=Ly;
    399e:	97 87       	std	Z+15, r25	; 0x0f
    39a0:	86 87       	std	Z+14, r24	; 0x0e
		return LyMin;
    39a2:	02 c0       	rjmp	.+4      	; 0x39a8 <_ZN8Joystick9CalibrateEb+0x108>
	}
	return -1;
    39a4:	8f ef       	ldi	r24, 0xFF	; 255
    39a6:	9f ef       	ldi	r25, 0xFF	; 255
    39a8:	0f 90       	pop	r0
    39aa:	df 91       	pop	r29
    39ac:	cf 91       	pop	r28
    39ae:	1f 91       	pop	r17
    39b0:	0f 91       	pop	r16
    39b2:	08 95       	ret

000039b4 <_Z6addLog6String>:
		myGLCD.fillRoundRect (175, 0, 145, 20);
	}else if(ActiveScreen==3)
	{
		drawMsgBox();
	}
}
    39b4:	0f 93       	push	r16
    39b6:	1f 93       	push	r17
    39b8:	cf 93       	push	r28
    39ba:	df 93       	push	r29
    39bc:	ec 01       	movw	r28, r24
    39be:	20 91 46 0a 	lds	r18, 0x0A46	; 0x800a46 <LogLength>
    39c2:	2f 30       	cpi	r18, 0x0F	; 15
    39c4:	98 f4       	brcc	.+38     	; 0x39ec <_Z6addLog6String+0x38>
    39c6:	36 e0       	ldi	r19, 0x06	; 6
    39c8:	23 9f       	mul	r18, r19
    39ca:	c0 01       	movw	r24, r0
    39cc:	11 24       	eor	r1, r1
    39ce:	be 01       	movw	r22, r28
    39d0:	89 5b       	subi	r24, 0xB9	; 185
    39d2:	95 4f       	sbci	r25, 0xF5	; 245
    39d4:	0e 94 90 3d 	call	0x7b20	; 0x7b20 <_ZN6StringaSERKS_>
    39d8:	80 91 46 0a 	lds	r24, 0x0A46	; 0x800a46 <LogLength>
    39dc:	8f 5f       	subi	r24, 0xFF	; 255
    39de:	80 93 46 0a 	sts	0x0A46, r24	; 0x800a46 <LogLength>
    39e2:	df 91       	pop	r29
    39e4:	cf 91       	pop	r28
    39e6:	1f 91       	pop	r17
    39e8:	0f 91       	pop	r16
    39ea:	08 95       	ret
    39ec:	87 e4       	ldi	r24, 0x47	; 71
    39ee:	9a e0       	ldi	r25, 0x0A	; 10
    39f0:	8c 01       	movw	r16, r24
    39f2:	0a 5f       	subi	r16, 0xFA	; 250
    39f4:	1f 4f       	sbci	r17, 0xFF	; 255
    39f6:	b8 01       	movw	r22, r16
    39f8:	0e 94 90 3d 	call	0x7b20	; 0x7b20 <_ZN6StringaSERKS_>
    39fc:	c8 01       	movw	r24, r16
    39fe:	0b 59       	subi	r16, 0x9B	; 155
    3a00:	1a 40       	sbci	r17, 0x0A	; 10
    3a02:	b1 f7       	brne	.-20     	; 0x39f0 <_Z6addLog6String+0x3c>
    3a04:	be 01       	movw	r22, r28
    3a06:	8b e9       	ldi	r24, 0x9B	; 155
    3a08:	9a e0       	ldi	r25, 0x0A	; 10
    3a0a:	df 91       	pop	r29
    3a0c:	cf 91       	pop	r28
    3a0e:	1f 91       	pop	r17
    3a10:	0f 91       	pop	r16
    3a12:	0c 94 90 3d 	jmp	0x7b20	; 0x7b20 <_ZN6StringaSERKS_>

00003a16 <_Z12BoolCallBackab>:
    3a16:	1f 93       	push	r17
    3a18:	cf 93       	push	r28
    3a1a:	df 93       	push	r29
    3a1c:	cd b7       	in	r28, 0x3d	; 61
    3a1e:	de b7       	in	r29, 0x3e	; 62
    3a20:	a0 97       	sbiw	r28, 0x20	; 32
    3a22:	0f b6       	in	r0, 0x3f	; 63
    3a24:	f8 94       	cli
    3a26:	de bf       	out	0x3e, r29	; 62
    3a28:	0f be       	out	0x3f, r0	; 63
    3a2a:	cd bf       	out	0x3d, r28	; 61
    3a2c:	18 2f       	mov	r17, r24
    3a2e:	87 e0       	ldi	r24, 0x07	; 7
    3a30:	e7 e0       	ldi	r30, 0x07	; 7
    3a32:	f2 e0       	ldi	r31, 0x02	; 2
    3a34:	de 01       	movw	r26, r28
    3a36:	11 96       	adiw	r26, 0x01	; 1
    3a38:	01 90       	ld	r0, Z+
    3a3a:	0d 92       	st	X+, r0
    3a3c:	8a 95       	dec	r24
    3a3e:	e1 f7       	brne	.-8      	; 0x3a38 <_Z12BoolCallBackab+0x22>
    3a40:	fe 01       	movw	r30, r28
    3a42:	38 96       	adiw	r30, 0x08	; 8
    3a44:	83 e1       	ldi	r24, 0x13	; 19
    3a46:	df 01       	movw	r26, r30
    3a48:	1d 92       	st	X+, r1
    3a4a:	8a 95       	dec	r24
    3a4c:	e9 f7       	brne	.-6      	; 0x3a48 <_Z12BoolCallBackab+0x32>
    3a4e:	80 e3       	ldi	r24, 0x30	; 48
    3a50:	81 0f       	add	r24, r17
    3a52:	8f 83       	std	Y+7, r24	; 0x07
    3a54:	18 86       	std	Y+8, r1	; 0x08
    3a56:	66 23       	and	r22, r22
    3a58:	19 f0       	breq	.+6      	; 0x3a60 <_Z12BoolCallBackab+0x4a>
    3a5a:	61 ec       	ldi	r22, 0xC1	; 193
    3a5c:	72 e0       	ldi	r23, 0x02	; 2
    3a5e:	02 c0       	rjmp	.+4      	; 0x3a64 <_Z12BoolCallBackab+0x4e>
    3a60:	63 ed       	ldi	r22, 0xD3	; 211
    3a62:	72 e0       	ldi	r23, 0x02	; 2
    3a64:	ce 01       	movw	r24, r28
    3a66:	01 96       	adiw	r24, 0x01	; 1
    3a68:	0e 94 4e 5c 	call	0xb89c	; 0xb89c <strcat>
    3a6c:	be 01       	movw	r22, r28
    3a6e:	6f 5f       	subi	r22, 0xFF	; 255
    3a70:	7f 4f       	sbci	r23, 0xFF	; 255
    3a72:	ce 01       	movw	r24, r28
    3a74:	4b 96       	adiw	r24, 0x1b	; 27
    3a76:	0e 94 7c 3d 	call	0x7af8	; 0x7af8 <_ZN6StringC1EPKc>
    3a7a:	ce 01       	movw	r24, r28
    3a7c:	4b 96       	adiw	r24, 0x1b	; 27
    3a7e:	9a df       	rcall	.-204    	; 0x39b4 <_Z6addLog6String>
    3a80:	ce 01       	movw	r24, r28
    3a82:	4b 96       	adiw	r24, 0x1b	; 27
    3a84:	0e 94 11 3d 	call	0x7a22	; 0x7a22 <_ZN6StringD1Ev>
    3a88:	b8 e1       	ldi	r27, 0x18	; 24
    3a8a:	1b 02       	muls	r17, r27
    3a8c:	f0 01       	movw	r30, r0
    3a8e:	11 24       	eor	r1, r1
    3a90:	e4 57       	subi	r30, 0x74	; 116
    3a92:	fa 4f       	sbci	r31, 0xFA	; 250
    3a94:	81 e0       	ldi	r24, 0x01	; 1
    3a96:	82 83       	std	Z+2, r24	; 0x02
    3a98:	a0 96       	adiw	r28, 0x20	; 32
    3a9a:	0f b6       	in	r0, 0x3f	; 63
    3a9c:	f8 94       	cli
    3a9e:	de bf       	out	0x3e, r29	; 62
    3aa0:	0f be       	out	0x3f, r0	; 63
    3aa2:	cd bf       	out	0x3d, r28	; 61
    3aa4:	df 91       	pop	r29
    3aa6:	cf 91       	pop	r28
    3aa8:	1f 91       	pop	r17
    3aaa:	08 95       	ret

00003aac <_Z8printLogv>:
    3aac:	cf 92       	push	r12
    3aae:	df 92       	push	r13
    3ab0:	ef 92       	push	r14
    3ab2:	ff 92       	push	r15
    3ab4:	0f 93       	push	r16
    3ab6:	1f 93       	push	r17
    3ab8:	cf 93       	push	r28
    3aba:	df 93       	push	r29
    3abc:	cd b7       	in	r28, 0x3d	; 61
    3abe:	de b7       	in	r29, 0x3e	; 62
    3ac0:	62 97       	sbiw	r28, 0x12	; 18
    3ac2:	0f b6       	in	r0, 0x3f	; 63
    3ac4:	f8 94       	cli
    3ac6:	de bf       	out	0x3e, r29	; 62
    3ac8:	0f be       	out	0x3f, r0	; 63
    3aca:	cd bf       	out	0x3d, r28	; 61
    3acc:	2f ef       	ldi	r18, 0xFF	; 255
    3ace:	4f ef       	ldi	r20, 0xFF	; 255
    3ad0:	6f ef       	ldi	r22, 0xFF	; 255
    3ad2:	84 e0       	ldi	r24, 0x04	; 4
    3ad4:	9b e0       	ldi	r25, 0x0B	; 11
    3ad6:	0e 94 97 4d 	call	0x9b2e	; 0x9b2e <_ZN4UTFT8setColorEhhh>
    3ada:	6e ee       	ldi	r22, 0xEE	; 238
    3adc:	7d e2       	ldi	r23, 0x2D	; 45
    3ade:	84 e0       	ldi	r24, 0x04	; 4
    3ae0:	9b e0       	ldi	r25, 0x0B	; 11
    3ae2:	0e 94 f1 57 	call	0xafe2	; 0xafe2 <_ZN4UTFT7setFontEPh>
    3ae6:	20 e0       	ldi	r18, 0x00	; 0
    3ae8:	40 e0       	ldi	r20, 0x00	; 0
    3aea:	60 e0       	ldi	r22, 0x00	; 0
    3aec:	84 e0       	ldi	r24, 0x04	; 4
    3aee:	9b e0       	ldi	r25, 0x0B	; 11
    3af0:	0e 94 ab 4d 	call	0x9b56	; 0x9b56 <_ZN4UTFT12setBackColorEhhh>
    3af4:	d1 2c       	mov	r13, r1
    3af6:	36 e0       	ldi	r19, 0x06	; 6
    3af8:	c3 2e       	mov	r12, r19
    3afa:	80 91 46 0a 	lds	r24, 0x0A46	; 0x800a46 <LogLength>
    3afe:	d8 16       	cp	r13, r24
    3b00:	08 f0       	brcs	.+2      	; 0x3b04 <_Z8printLogv+0x58>
    3b02:	5a c0       	rjmp	.+180    	; 0x3bb8 <_Z8printLogv+0x10c>
    3b04:	ed 2c       	mov	r14, r13
    3b06:	f1 2c       	mov	r15, r1
    3b08:	ce 9c       	mul	r12, r14
    3b0a:	b0 01       	movw	r22, r0
    3b0c:	cf 9c       	mul	r12, r15
    3b0e:	70 0d       	add	r23, r0
    3b10:	11 24       	eor	r1, r1
    3b12:	69 5b       	subi	r22, 0xB9	; 185
    3b14:	75 4f       	sbci	r23, 0xF5	; 245
    3b16:	fb 01       	movw	r30, r22
    3b18:	84 81       	ldd	r24, Z+4	; 0x04
    3b1a:	95 81       	ldd	r25, Z+5	; 0x05
    3b1c:	24 e0       	ldi	r18, 0x04	; 4
    3b1e:	ee 0c       	add	r14, r14
    3b20:	ff 1c       	adc	r15, r15
    3b22:	2a 95       	dec	r18
    3b24:	e1 f7       	brne	.-8      	; 0x3b1e <_Z8printLogv+0x72>
    3b26:	89 97       	sbiw	r24, 0x29	; 41
    3b28:	98 f4       	brcc	.+38     	; 0x3b50 <_Z8printLogv+0xa4>
    3b2a:	ce 01       	movw	r24, r28
    3b2c:	01 96       	adiw	r24, 0x01	; 1
    3b2e:	0e 94 a5 3d 	call	0x7b4a	; 0x7b4a <_ZN6StringC1ERKS_>
    3b32:	00 e0       	ldi	r16, 0x00	; 0
    3b34:	10 e0       	ldi	r17, 0x00	; 0
    3b36:	97 01       	movw	r18, r14
    3b38:	40 e0       	ldi	r20, 0x00	; 0
    3b3a:	50 e0       	ldi	r21, 0x00	; 0
    3b3c:	be 01       	movw	r22, r28
    3b3e:	6f 5f       	subi	r22, 0xFF	; 255
    3b40:	7f 4f       	sbci	r23, 0xFF	; 255
    3b42:	84 e0       	ldi	r24, 0x04	; 4
    3b44:	9b e0       	ldi	r25, 0x0B	; 11
    3b46:	0e 94 c3 56 	call	0xad86	; 0xad86 <_ZN4UTFT5printE6Stringiii>
    3b4a:	ce 01       	movw	r24, r28
    3b4c:	01 96       	adiw	r24, 0x01	; 1
    3b4e:	30 c0       	rjmp	.+96     	; 0x3bb0 <_Z8printLogv+0x104>
    3b50:	25 e2       	ldi	r18, 0x25	; 37
    3b52:	30 e0       	ldi	r19, 0x00	; 0
    3b54:	40 e0       	ldi	r20, 0x00	; 0
    3b56:	50 e0       	ldi	r21, 0x00	; 0
    3b58:	ce 01       	movw	r24, r28
    3b5a:	0d 96       	adiw	r24, 0x0d	; 13
    3b5c:	0e 94 7d 3e 	call	0x7cfa	; 0x7cfa <_ZNK6String9substringEjj>
    3b60:	be 01       	movw	r22, r28
    3b62:	63 5f       	subi	r22, 0xF3	; 243
    3b64:	7f 4f       	sbci	r23, 0xFF	; 255
    3b66:	ce 01       	movw	r24, r28
    3b68:	07 96       	adiw	r24, 0x07	; 7
    3b6a:	0e 94 a5 3d 	call	0x7b4a	; 0x7b4a <_ZN6StringC1ERKS_>
    3b6e:	66 ee       	ldi	r22, 0xE6	; 230
    3b70:	72 e0       	ldi	r23, 0x02	; 2
    3b72:	ce 01       	movw	r24, r28
    3b74:	07 96       	adiw	r24, 0x07	; 7
    3b76:	0e 94 19 3e 	call	0x7c32	; 0x7c32 <_ZplRK15StringSumHelperPKc>
    3b7a:	bc 01       	movw	r22, r24
    3b7c:	ce 01       	movw	r24, r28
    3b7e:	01 96       	adiw	r24, 0x01	; 1
    3b80:	0e 94 a5 3d 	call	0x7b4a	; 0x7b4a <_ZN6StringC1ERKS_>
    3b84:	00 e0       	ldi	r16, 0x00	; 0
    3b86:	10 e0       	ldi	r17, 0x00	; 0
    3b88:	97 01       	movw	r18, r14
    3b8a:	40 e0       	ldi	r20, 0x00	; 0
    3b8c:	50 e0       	ldi	r21, 0x00	; 0
    3b8e:	be 01       	movw	r22, r28
    3b90:	6f 5f       	subi	r22, 0xFF	; 255
    3b92:	7f 4f       	sbci	r23, 0xFF	; 255
    3b94:	84 e0       	ldi	r24, 0x04	; 4
    3b96:	9b e0       	ldi	r25, 0x0B	; 11
    3b98:	0e 94 c3 56 	call	0xad86	; 0xad86 <_ZN4UTFT5printE6Stringiii>
    3b9c:	ce 01       	movw	r24, r28
    3b9e:	01 96       	adiw	r24, 0x01	; 1
    3ba0:	0e 94 11 3d 	call	0x7a22	; 0x7a22 <_ZN6StringD1Ev>
    3ba4:	ce 01       	movw	r24, r28
    3ba6:	07 96       	adiw	r24, 0x07	; 7
    3ba8:	0e 94 11 3d 	call	0x7a22	; 0x7a22 <_ZN6StringD1Ev>
    3bac:	ce 01       	movw	r24, r28
    3bae:	0d 96       	adiw	r24, 0x0d	; 13
    3bb0:	0e 94 11 3d 	call	0x7a22	; 0x7a22 <_ZN6StringD1Ev>
    3bb4:	d3 94       	inc	r13
    3bb6:	a1 cf       	rjmp	.-190    	; 0x3afa <_Z8printLogv+0x4e>
    3bb8:	62 96       	adiw	r28, 0x12	; 18
    3bba:	0f b6       	in	r0, 0x3f	; 63
    3bbc:	f8 94       	cli
    3bbe:	de bf       	out	0x3e, r29	; 62
    3bc0:	0f be       	out	0x3f, r0	; 63
    3bc2:	cd bf       	out	0x3d, r28	; 61
    3bc4:	df 91       	pop	r29
    3bc6:	cf 91       	pop	r28
    3bc8:	1f 91       	pop	r17
    3bca:	0f 91       	pop	r16
    3bcc:	ff 90       	pop	r15
    3bce:	ef 90       	pop	r14
    3bd0:	df 90       	pop	r13
    3bd2:	cf 90       	pop	r12
    3bd4:	08 95       	ret

00003bd6 <_Z13DrawMenuEntry6Stringbi>:
    3bd6:	7f 92       	push	r7
    3bd8:	8f 92       	push	r8
    3bda:	9f 92       	push	r9
    3bdc:	af 92       	push	r10
    3bde:	bf 92       	push	r11
    3be0:	cf 92       	push	r12
    3be2:	df 92       	push	r13
    3be4:	ef 92       	push	r14
    3be6:	ff 92       	push	r15
    3be8:	0f 93       	push	r16
    3bea:	1f 93       	push	r17
    3bec:	cf 93       	push	r28
    3bee:	df 93       	push	r29
    3bf0:	00 d0       	rcall	.+0      	; 0x3bf2 <_Z13DrawMenuEntry6Stringbi+0x1c>
    3bf2:	00 d0       	rcall	.+0      	; 0x3bf4 <_Z13DrawMenuEntry6Stringbi+0x1e>
    3bf4:	cd b7       	in	r28, 0x3d	; 61
    3bf6:	de b7       	in	r29, 0x3e	; 62
    3bf8:	4c 01       	movw	r8, r24
    3bfa:	76 2e       	mov	r7, r22
    3bfc:	8a 01       	movw	r16, r20
    3bfe:	20 e0       	ldi	r18, 0x00	; 0
    3c00:	40 e0       	ldi	r20, 0x00	; 0
    3c02:	6f ef       	ldi	r22, 0xFF	; 255
    3c04:	84 e0       	ldi	r24, 0x04	; 4
    3c06:	9b e0       	ldi	r25, 0x0B	; 11
    3c08:	0e 94 97 4d 	call	0x9b2e	; 0x9b2e <_ZN4UTFT8setColorEhhh>
    3c0c:	8f e2       	ldi	r24, 0x2F	; 47
    3c0e:	80 9f       	mul	r24, r16
    3c10:	70 01       	movw	r14, r0
    3c12:	81 9f       	mul	r24, r17
    3c14:	f0 0c       	add	r15, r0
    3c16:	11 24       	eor	r1, r1
    3c18:	a7 01       	movw	r20, r14
    3c1a:	4f 5f       	subi	r20, 0xFF	; 255
    3c1c:	5f 4f       	sbci	r21, 0xFF	; 255
    3c1e:	8a 01       	movw	r16, r20
    3c20:	21 e2       	ldi	r18, 0x21	; 33
    3c22:	31 e0       	ldi	r19, 0x01	; 1
    3c24:	60 e0       	ldi	r22, 0x00	; 0
    3c26:	70 e0       	ldi	r23, 0x00	; 0
    3c28:	84 e0       	ldi	r24, 0x04	; 4
    3c2a:	9b e0       	ldi	r25, 0x0B	; 11
    3c2c:	0e 94 a6 51 	call	0xa34c	; 0xa34c <_ZN4UTFT8drawLineEiiii>
    3c30:	62 e5       	ldi	r22, 0x52	; 82
    3c32:	7e e0       	ldi	r23, 0x0E	; 14
    3c34:	84 e0       	ldi	r24, 0x04	; 4
    3c36:	9b e0       	ldi	r25, 0x0B	; 11
    3c38:	0e 94 f1 57 	call	0xafe2	; 0xafe2 <_ZN4UTFT7setFontEPh>
    3c3c:	20 e4       	ldi	r18, 0x40	; 64
    3c3e:	40 e4       	ldi	r20, 0x40	; 64
    3c40:	60 e4       	ldi	r22, 0x40	; 64
    3c42:	84 e0       	ldi	r24, 0x04	; 4
    3c44:	9b e0       	ldi	r25, 0x0B	; 11
    3c46:	0e 94 97 4d 	call	0x9b2e	; 0x9b2e <_ZN4UTFT8setColorEhhh>
    3c4a:	67 01       	movw	r12, r14
    3c4c:	8f e2       	ldi	r24, 0x2F	; 47
    3c4e:	c8 0e       	add	r12, r24
    3c50:	d1 1c       	adc	r13, r1
    3c52:	a7 01       	movw	r20, r14
    3c54:	4e 5f       	subi	r20, 0xFE	; 254
    3c56:	5f 4f       	sbci	r21, 0xFF	; 255
    3c58:	86 01       	movw	r16, r12
    3c5a:	21 e2       	ldi	r18, 0x21	; 33
    3c5c:	31 e0       	ldi	r19, 0x01	; 1
    3c5e:	60 e0       	ldi	r22, 0x00	; 0
    3c60:	70 e0       	ldi	r23, 0x00	; 0
    3c62:	84 e0       	ldi	r24, 0x04	; 4
    3c64:	9b e0       	ldi	r25, 0x0B	; 11
    3c66:	0e 94 ab 50 	call	0xa156	; 0xa156 <_ZN4UTFT8fillRectEiiii>
    3c6a:	2f ef       	ldi	r18, 0xFF	; 255
    3c6c:	4f ef       	ldi	r20, 0xFF	; 255
    3c6e:	6f ef       	ldi	r22, 0xFF	; 255
    3c70:	84 e0       	ldi	r24, 0x04	; 4
    3c72:	9b e0       	ldi	r25, 0x0B	; 11
    3c74:	0e 94 97 4d 	call	0x9b2e	; 0x9b2e <_ZN4UTFT8setColorEhhh>
    3c78:	20 e4       	ldi	r18, 0x40	; 64
    3c7a:	40 e4       	ldi	r20, 0x40	; 64
    3c7c:	60 e4       	ldi	r22, 0x40	; 64
    3c7e:	84 e0       	ldi	r24, 0x04	; 4
    3c80:	9b e0       	ldi	r25, 0x0B	; 11
    3c82:	0e 94 ab 4d 	call	0x9b56	; 0x9b56 <_ZN4UTFT12setBackColorEhhh>
    3c86:	62 e5       	ldi	r22, 0x52	; 82
    3c88:	7e e0       	ldi	r23, 0x0E	; 14
    3c8a:	84 e0       	ldi	r24, 0x04	; 4
    3c8c:	9b e0       	ldi	r25, 0x0B	; 11
    3c8e:	0e 94 f1 57 	call	0xafe2	; 0xafe2 <_ZN4UTFT7setFontEPh>
    3c92:	57 01       	movw	r10, r14
    3c94:	81 e1       	ldi	r24, 0x11	; 17
    3c96:	a8 0e       	add	r10, r24
    3c98:	b1 1c       	adc	r11, r1
    3c9a:	b4 01       	movw	r22, r8
    3c9c:	ce 01       	movw	r24, r28
    3c9e:	01 96       	adiw	r24, 0x01	; 1
    3ca0:	0e 94 a5 3d 	call	0x7b4a	; 0x7b4a <_ZN6StringC1ERKS_>
    3ca4:	00 e0       	ldi	r16, 0x00	; 0
    3ca6:	10 e0       	ldi	r17, 0x00	; 0
    3ca8:	95 01       	movw	r18, r10
    3caa:	40 e0       	ldi	r20, 0x00	; 0
    3cac:	50 e0       	ldi	r21, 0x00	; 0
    3cae:	be 01       	movw	r22, r28
    3cb0:	6f 5f       	subi	r22, 0xFF	; 255
    3cb2:	7f 4f       	sbci	r23, 0xFF	; 255
    3cb4:	84 e0       	ldi	r24, 0x04	; 4
    3cb6:	9b e0       	ldi	r25, 0x0B	; 11
    3cb8:	0e 94 c3 56 	call	0xad86	; 0xad86 <_ZN4UTFT5printE6Stringiii>
    3cbc:	ce 01       	movw	r24, r28
    3cbe:	01 96       	adiw	r24, 0x01	; 1
    3cc0:	0e 94 11 3d 	call	0x7a22	; 0x7a22 <_ZN6StringD1Ev>
    3cc4:	20 e0       	ldi	r18, 0x00	; 0
    3cc6:	40 e0       	ldi	r20, 0x00	; 0
    3cc8:	6f ef       	ldi	r22, 0xFF	; 255
    3cca:	84 e0       	ldi	r24, 0x04	; 4
    3ccc:	9b e0       	ldi	r25, 0x0B	; 11
    3cce:	0e 94 97 4d 	call	0x9b2e	; 0x9b2e <_ZN4UTFT8setColorEhhh>
    3cd2:	86 01       	movw	r16, r12
    3cd4:	21 e2       	ldi	r18, 0x21	; 33
    3cd6:	31 e0       	ldi	r19, 0x01	; 1
    3cd8:	a6 01       	movw	r20, r12
    3cda:	60 e0       	ldi	r22, 0x00	; 0
    3cdc:	70 e0       	ldi	r23, 0x00	; 0
    3cde:	84 e0       	ldi	r24, 0x04	; 4
    3ce0:	9b e0       	ldi	r25, 0x0B	; 11
    3ce2:	0e 94 a6 51 	call	0xa34c	; 0xa34c <_ZN4UTFT8drawLineEiiii>
    3ce6:	01 52       	subi	r16, 0x21	; 33
    3ce8:	11 09       	sbc	r17, r1
    3cea:	a7 01       	movw	r20, r14
    3cec:	4e 5d       	subi	r20, 0xDE	; 222
    3cee:	5f 4f       	sbci	r21, 0xFF	; 255
    3cf0:	23 e1       	ldi	r18, 0x13	; 19
    3cf2:	31 e0       	ldi	r19, 0x01	; 1
    3cf4:	6f ef       	ldi	r22, 0xFF	; 255
    3cf6:	70 e0       	ldi	r23, 0x00	; 0
    3cf8:	84 e0       	ldi	r24, 0x04	; 4
    3cfa:	9b e0       	ldi	r25, 0x0B	; 11
    3cfc:	0e 94 b5 4f 	call	0x9f6a	; 0x9f6a <_ZN4UTFT8drawRectEiiii>
    3d00:	77 20       	and	r7, r7
    3d02:	21 f0       	breq	.+8      	; 0x3d0c <_Z13DrawMenuEntry6Stringbi+0x136>
    3d04:	20 e0       	ldi	r18, 0x00	; 0
    3d06:	40 e0       	ldi	r20, 0x00	; 0
    3d08:	6f ef       	ldi	r22, 0xFF	; 255
    3d0a:	03 c0       	rjmp	.+6      	; 0x3d12 <_Z13DrawMenuEntry6Stringbi+0x13c>
    3d0c:	20 e4       	ldi	r18, 0x40	; 64
    3d0e:	40 e4       	ldi	r20, 0x40	; 64
    3d10:	60 e4       	ldi	r22, 0x40	; 64
    3d12:	84 e0       	ldi	r24, 0x04	; 4
    3d14:	9b e0       	ldi	r25, 0x0B	; 11
    3d16:	0e 94 97 4d 	call	0x9b2e	; 0x9b2e <_ZN4UTFT8setColorEhhh>
    3d1a:	a7 01       	movw	r20, r14
    3d1c:	41 5e       	subi	r20, 0xE1	; 225
    3d1e:	5f 4f       	sbci	r21, 0xFF	; 255
    3d20:	85 01       	movw	r16, r10
    3d22:	20 e1       	ldi	r18, 0x10	; 16
    3d24:	31 e0       	ldi	r19, 0x01	; 1
    3d26:	62 e0       	ldi	r22, 0x02	; 2
    3d28:	71 e0       	ldi	r23, 0x01	; 1
    3d2a:	84 e0       	ldi	r24, 0x04	; 4
    3d2c:	9b e0       	ldi	r25, 0x0B	; 11
    3d2e:	0e 94 ab 50 	call	0xa156	; 0xa156 <_ZN4UTFT8fillRectEiiii>
    3d32:	26 96       	adiw	r28, 0x06	; 6
    3d34:	0f b6       	in	r0, 0x3f	; 63
    3d36:	f8 94       	cli
    3d38:	de bf       	out	0x3e, r29	; 62
    3d3a:	0f be       	out	0x3f, r0	; 63
    3d3c:	cd bf       	out	0x3d, r28	; 61
    3d3e:	df 91       	pop	r29
    3d40:	cf 91       	pop	r28
    3d42:	1f 91       	pop	r17
    3d44:	0f 91       	pop	r16
    3d46:	ff 90       	pop	r15
    3d48:	ef 90       	pop	r14
    3d4a:	df 90       	pop	r13
    3d4c:	cf 90       	pop	r12
    3d4e:	bf 90       	pop	r11
    3d50:	af 90       	pop	r10
    3d52:	9f 90       	pop	r9
    3d54:	8f 90       	pop	r8
    3d56:	7f 90       	pop	r7
    3d58:	08 95       	ret

00003d5a <_Z22DrawMenuEntryIntNumberi6Stringi>:
    3d5a:	2f 92       	push	r2
    3d5c:	3f 92       	push	r3
    3d5e:	4f 92       	push	r4
    3d60:	5f 92       	push	r5
    3d62:	6f 92       	push	r6
    3d64:	7f 92       	push	r7
    3d66:	8f 92       	push	r8
    3d68:	9f 92       	push	r9
    3d6a:	af 92       	push	r10
    3d6c:	bf 92       	push	r11
    3d6e:	cf 92       	push	r12
    3d70:	df 92       	push	r13
    3d72:	ef 92       	push	r14
    3d74:	ff 92       	push	r15
    3d76:	0f 93       	push	r16
    3d78:	1f 93       	push	r17
    3d7a:	cf 93       	push	r28
    3d7c:	df 93       	push	r29
    3d7e:	00 d0       	rcall	.+0      	; 0x3d80 <_Z22DrawMenuEntryIntNumberi6Stringi+0x26>
    3d80:	00 d0       	rcall	.+0      	; 0x3d82 <_Z22DrawMenuEntryIntNumberi6Stringi+0x28>
    3d82:	cd b7       	in	r28, 0x3d	; 61
    3d84:	de b7       	in	r29, 0x3e	; 62
    3d86:	6c 01       	movw	r12, r24
    3d88:	4b 01       	movw	r8, r22
    3d8a:	8a 01       	movw	r16, r20
    3d8c:	20 e0       	ldi	r18, 0x00	; 0
    3d8e:	40 e0       	ldi	r20, 0x00	; 0
    3d90:	6f ef       	ldi	r22, 0xFF	; 255
    3d92:	84 e0       	ldi	r24, 0x04	; 4
    3d94:	9b e0       	ldi	r25, 0x0B	; 11
    3d96:	0e 94 97 4d 	call	0x9b2e	; 0x9b2e <_ZN4UTFT8setColorEhhh>
    3d9a:	8f e2       	ldi	r24, 0x2F	; 47
    3d9c:	80 9f       	mul	r24, r16
    3d9e:	70 01       	movw	r14, r0
    3da0:	81 9f       	mul	r24, r17
    3da2:	f0 0c       	add	r15, r0
    3da4:	11 24       	eor	r1, r1
    3da6:	a7 01       	movw	r20, r14
    3da8:	4f 5f       	subi	r20, 0xFF	; 255
    3daa:	5f 4f       	sbci	r21, 0xFF	; 255
    3dac:	8a 01       	movw	r16, r20
    3dae:	21 e2       	ldi	r18, 0x21	; 33
    3db0:	31 e0       	ldi	r19, 0x01	; 1
    3db2:	60 e0       	ldi	r22, 0x00	; 0
    3db4:	70 e0       	ldi	r23, 0x00	; 0
    3db6:	84 e0       	ldi	r24, 0x04	; 4
    3db8:	9b e0       	ldi	r25, 0x0B	; 11
    3dba:	0e 94 a6 51 	call	0xa34c	; 0xa34c <_ZN4UTFT8drawLineEiiii>
    3dbe:	62 e5       	ldi	r22, 0x52	; 82
    3dc0:	7e e0       	ldi	r23, 0x0E	; 14
    3dc2:	84 e0       	ldi	r24, 0x04	; 4
    3dc4:	9b e0       	ldi	r25, 0x0B	; 11
    3dc6:	0e 94 f1 57 	call	0xafe2	; 0xafe2 <_ZN4UTFT7setFontEPh>
    3dca:	20 e4       	ldi	r18, 0x40	; 64
    3dcc:	40 e4       	ldi	r20, 0x40	; 64
    3dce:	60 e4       	ldi	r22, 0x40	; 64
    3dd0:	84 e0       	ldi	r24, 0x04	; 4
    3dd2:	9b e0       	ldi	r25, 0x0B	; 11
    3dd4:	0e 94 97 4d 	call	0x9b2e	; 0x9b2e <_ZN4UTFT8setColorEhhh>
    3dd8:	57 01       	movw	r10, r14
    3dda:	8f e2       	ldi	r24, 0x2F	; 47
    3ddc:	a8 0e       	add	r10, r24
    3dde:	b1 1c       	adc	r11, r1
    3de0:	a7 01       	movw	r20, r14
    3de2:	4e 5f       	subi	r20, 0xFE	; 254
    3de4:	5f 4f       	sbci	r21, 0xFF	; 255
    3de6:	85 01       	movw	r16, r10
    3de8:	21 e2       	ldi	r18, 0x21	; 33
    3dea:	31 e0       	ldi	r19, 0x01	; 1
    3dec:	60 e0       	ldi	r22, 0x00	; 0
    3dee:	70 e0       	ldi	r23, 0x00	; 0
    3df0:	84 e0       	ldi	r24, 0x04	; 4
    3df2:	9b e0       	ldi	r25, 0x0B	; 11
    3df4:	0e 94 ab 50 	call	0xa156	; 0xa156 <_ZN4UTFT8fillRectEiiii>
    3df8:	2f ef       	ldi	r18, 0xFF	; 255
    3dfa:	4f ef       	ldi	r20, 0xFF	; 255
    3dfc:	6f ef       	ldi	r22, 0xFF	; 255
    3dfe:	84 e0       	ldi	r24, 0x04	; 4
    3e00:	9b e0       	ldi	r25, 0x0B	; 11
    3e02:	0e 94 97 4d 	call	0x9b2e	; 0x9b2e <_ZN4UTFT8setColorEhhh>
    3e06:	20 e4       	ldi	r18, 0x40	; 64
    3e08:	40 e4       	ldi	r20, 0x40	; 64
    3e0a:	60 e4       	ldi	r22, 0x40	; 64
    3e0c:	84 e0       	ldi	r24, 0x04	; 4
    3e0e:	9b e0       	ldi	r25, 0x0B	; 11
    3e10:	0e 94 ab 4d 	call	0x9b56	; 0x9b56 <_ZN4UTFT12setBackColorEhhh>
    3e14:	62 e5       	ldi	r22, 0x52	; 82
    3e16:	7e e0       	ldi	r23, 0x0E	; 14
    3e18:	84 e0       	ldi	r24, 0x04	; 4
    3e1a:	9b e0       	ldi	r25, 0x0B	; 11
    3e1c:	0e 94 f1 57 	call	0xafe2	; 0xafe2 <_ZN4UTFT7setFontEPh>
    3e20:	b4 01       	movw	r22, r8
    3e22:	ce 01       	movw	r24, r28
    3e24:	01 96       	adiw	r24, 0x01	; 1
    3e26:	0e 94 a5 3d 	call	0x7b4a	; 0x7b4a <_ZN6StringC1ERKS_>
    3e2a:	97 01       	movw	r18, r14
    3e2c:	2f 5e       	subi	r18, 0xEF	; 239
    3e2e:	3f 4f       	sbci	r19, 0xFF	; 255
    3e30:	00 e0       	ldi	r16, 0x00	; 0
    3e32:	10 e0       	ldi	r17, 0x00	; 0
    3e34:	40 e0       	ldi	r20, 0x00	; 0
    3e36:	50 e0       	ldi	r21, 0x00	; 0
    3e38:	be 01       	movw	r22, r28
    3e3a:	6f 5f       	subi	r22, 0xFF	; 255
    3e3c:	7f 4f       	sbci	r23, 0xFF	; 255
    3e3e:	84 e0       	ldi	r24, 0x04	; 4
    3e40:	9b e0       	ldi	r25, 0x0B	; 11
    3e42:	0e 94 c3 56 	call	0xad86	; 0xad86 <_ZN4UTFT5printE6Stringiii>
    3e46:	ce 01       	movw	r24, r28
    3e48:	01 96       	adiw	r24, 0x01	; 1
    3e4a:	0e 94 11 3d 	call	0x7a22	; 0x7a22 <_ZN6StringD1Ev>
    3e4e:	20 e0       	ldi	r18, 0x00	; 0
    3e50:	40 e0       	ldi	r20, 0x00	; 0
    3e52:	6f ef       	ldi	r22, 0xFF	; 255
    3e54:	84 e0       	ldi	r24, 0x04	; 4
    3e56:	9b e0       	ldi	r25, 0x0B	; 11
    3e58:	0e 94 97 4d 	call	0x9b2e	; 0x9b2e <_ZN4UTFT8setColorEhhh>
    3e5c:	85 01       	movw	r16, r10
    3e5e:	21 e2       	ldi	r18, 0x21	; 33
    3e60:	31 e0       	ldi	r19, 0x01	; 1
    3e62:	a5 01       	movw	r20, r10
    3e64:	60 e0       	ldi	r22, 0x00	; 0
    3e66:	70 e0       	ldi	r23, 0x00	; 0
    3e68:	84 e0       	ldi	r24, 0x04	; 4
    3e6a:	9b e0       	ldi	r25, 0x0B	; 11
    3e6c:	0e 94 a6 51 	call	0xa34c	; 0xa34c <_ZN4UTFT8drawLineEiiii>
    3e70:	20 e0       	ldi	r18, 0x00	; 0
    3e72:	40 e0       	ldi	r20, 0x00	; 0
    3e74:	6f ef       	ldi	r22, 0xFF	; 255
    3e76:	84 e0       	ldi	r24, 0x04	; 4
    3e78:	9b e0       	ldi	r25, 0x0B	; 11
    3e7a:	0e 94 97 4d 	call	0x9b2e	; 0x9b2e <_ZN4UTFT8setColorEhhh>
    3e7e:	27 01       	movw	r4, r14
    3e80:	84 e2       	ldi	r24, 0x24	; 36
    3e82:	48 0e       	add	r4, r24
    3e84:	51 1c       	adc	r5, r1
    3e86:	37 01       	movw	r6, r14
    3e88:	8c e0       	ldi	r24, 0x0C	; 12
    3e8a:	68 0e       	add	r6, r24
    3e8c:	71 1c       	adc	r7, r1
    3e8e:	82 01       	movw	r16, r4
    3e90:	28 e1       	ldi	r18, 0x18	; 24
    3e92:	31 e0       	ldi	r19, 0x01	; 1
    3e94:	a3 01       	movw	r20, r6
    3e96:	64 e0       	ldi	r22, 0x04	; 4
    3e98:	71 e0       	ldi	r23, 0x01	; 1
    3e9a:	84 e0       	ldi	r24, 0x04	; 4
    3e9c:	9b e0       	ldi	r25, 0x0B	; 11
    3e9e:	0e 94 46 4e 	call	0x9c8c	; 0x9c8c <_ZN4UTFT13fillRoundRectEiiii>
    3ea2:	20 e0       	ldi	r18, 0x00	; 0
    3ea4:	40 e0       	ldi	r20, 0x00	; 0
    3ea6:	60 e0       	ldi	r22, 0x00	; 0
    3ea8:	84 e0       	ldi	r24, 0x04	; 4
    3eaa:	9b e0       	ldi	r25, 0x0B	; 11
    3eac:	0e 94 97 4d 	call	0x9b2e	; 0x9b2e <_ZN4UTFT8setColorEhhh>
    3eb0:	47 01       	movw	r8, r14
    3eb2:	83 e2       	ldi	r24, 0x23	; 35
    3eb4:	88 0e       	add	r8, r24
    3eb6:	91 1c       	adc	r9, r1
    3eb8:	57 01       	movw	r10, r14
    3eba:	8d e0       	ldi	r24, 0x0D	; 13
    3ebc:	a8 0e       	add	r10, r24
    3ebe:	b1 1c       	adc	r11, r1
    3ec0:	84 01       	movw	r16, r8
    3ec2:	27 e1       	ldi	r18, 0x17	; 23
    3ec4:	31 e0       	ldi	r19, 0x01	; 1
    3ec6:	a5 01       	movw	r20, r10
    3ec8:	65 e0       	ldi	r22, 0x05	; 5
    3eca:	71 e0       	ldi	r23, 0x01	; 1
    3ecc:	84 e0       	ldi	r24, 0x04	; 4
    3ece:	9b e0       	ldi	r25, 0x0B	; 11
    3ed0:	0e 94 46 4e 	call	0x9c8c	; 0x9c8c <_ZN4UTFT13fillRoundRectEiiii>
    3ed4:	2f ef       	ldi	r18, 0xFF	; 255
    3ed6:	4f ef       	ldi	r20, 0xFF	; 255
    3ed8:	6f ef       	ldi	r22, 0xFF	; 255
    3eda:	84 e0       	ldi	r24, 0x04	; 4
    3edc:	9b e0       	ldi	r25, 0x0B	; 11
    3ede:	0e 94 97 4d 	call	0x9b2e	; 0x9b2e <_ZN4UTFT8setColorEhhh>
    3ee2:	20 e0       	ldi	r18, 0x00	; 0
    3ee4:	40 e0       	ldi	r20, 0x00	; 0
    3ee6:	60 e0       	ldi	r22, 0x00	; 0
    3ee8:	84 e0       	ldi	r24, 0x04	; 4
    3eea:	9b e0       	ldi	r25, 0x0B	; 11
    3eec:	0e 94 ab 4d 	call	0x9b56	; 0x9b56 <_ZN4UTFT12setBackColorEhhh>
    3ef0:	62 e5       	ldi	r22, 0x52	; 82
    3ef2:	7e e0       	ldi	r23, 0x0E	; 14
    3ef4:	84 e0       	ldi	r24, 0x04	; 4
    3ef6:	9b e0       	ldi	r25, 0x0B	; 11
    3ef8:	0e 94 f1 57 	call	0xafe2	; 0xafe2 <_ZN4UTFT7setFontEPh>
    3efc:	17 01       	movw	r2, r14
    3efe:	8f e0       	ldi	r24, 0x0F	; 15
    3f00:	28 0e       	add	r2, r24
    3f02:	31 1c       	adc	r3, r1
    3f04:	00 e0       	ldi	r16, 0x00	; 0
    3f06:	10 e0       	ldi	r17, 0x00	; 0
    3f08:	91 01       	movw	r18, r2
    3f0a:	46 e0       	ldi	r20, 0x06	; 6
    3f0c:	51 e0       	ldi	r21, 0x01	; 1
    3f0e:	6a ee       	ldi	r22, 0xEA	; 234
    3f10:	72 e0       	ldi	r23, 0x02	; 2
    3f12:	84 e0       	ldi	r24, 0x04	; 4
    3f14:	9b e0       	ldi	r25, 0x0B	; 11
    3f16:	0e 94 1d 56 	call	0xac3a	; 0xac3a <_ZN4UTFT5printEPciii>
    3f1a:	20 e0       	ldi	r18, 0x00	; 0
    3f1c:	40 e0       	ldi	r20, 0x00	; 0
    3f1e:	6f ef       	ldi	r22, 0xFF	; 255
    3f20:	84 e0       	ldi	r24, 0x04	; 4
    3f22:	9b e0       	ldi	r25, 0x0B	; 11
    3f24:	0e 94 97 4d 	call	0x9b2e	; 0x9b2e <_ZN4UTFT8setColorEhhh>
    3f28:	82 01       	movw	r16, r4
    3f2a:	23 e0       	ldi	r18, 0x03	; 3
    3f2c:	31 e0       	ldi	r19, 0x01	; 1
    3f2e:	a3 01       	movw	r20, r6
    3f30:	66 ee       	ldi	r22, 0xE6	; 230
    3f32:	70 e0       	ldi	r23, 0x00	; 0
    3f34:	84 e0       	ldi	r24, 0x04	; 4
    3f36:	9b e0       	ldi	r25, 0x0B	; 11
    3f38:	0e 94 46 4e 	call	0x9c8c	; 0x9c8c <_ZN4UTFT13fillRoundRectEiiii>
    3f3c:	20 e0       	ldi	r18, 0x00	; 0
    3f3e:	40 e0       	ldi	r20, 0x00	; 0
    3f40:	60 e0       	ldi	r22, 0x00	; 0
    3f42:	84 e0       	ldi	r24, 0x04	; 4
    3f44:	9b e0       	ldi	r25, 0x0B	; 11
    3f46:	0e 94 97 4d 	call	0x9b2e	; 0x9b2e <_ZN4UTFT8setColorEhhh>
    3f4a:	84 01       	movw	r16, r8
    3f4c:	22 e0       	ldi	r18, 0x02	; 2
    3f4e:	31 e0       	ldi	r19, 0x01	; 1
    3f50:	a5 01       	movw	r20, r10
    3f52:	67 ee       	ldi	r22, 0xE7	; 231
    3f54:	70 e0       	ldi	r23, 0x00	; 0
    3f56:	84 e0       	ldi	r24, 0x04	; 4
    3f58:	9b e0       	ldi	r25, 0x0B	; 11
    3f5a:	0e 94 46 4e 	call	0x9c8c	; 0x9c8c <_ZN4UTFT13fillRoundRectEiiii>
    3f5e:	2f ef       	ldi	r18, 0xFF	; 255
    3f60:	4f ef       	ldi	r20, 0xFF	; 255
    3f62:	6f ef       	ldi	r22, 0xFF	; 255
    3f64:	84 e0       	ldi	r24, 0x04	; 4
    3f66:	9b e0       	ldi	r25, 0x0B	; 11
    3f68:	0e 94 97 4d 	call	0x9b2e	; 0x9b2e <_ZN4UTFT8setColorEhhh>
    3f6c:	20 e0       	ldi	r18, 0x00	; 0
    3f6e:	40 e0       	ldi	r20, 0x00	; 0
    3f70:	60 e0       	ldi	r22, 0x00	; 0
    3f72:	84 e0       	ldi	r24, 0x04	; 4
    3f74:	9b e0       	ldi	r25, 0x0B	; 11
    3f76:	0e 94 ab 4d 	call	0x9b56	; 0x9b56 <_ZN4UTFT12setBackColorEhhh>
    3f7a:	6e ee       	ldi	r22, 0xEE	; 238
    3f7c:	7d e2       	ldi	r23, 0x2D	; 45
    3f7e:	84 e0       	ldi	r24, 0x04	; 4
    3f80:	9b e0       	ldi	r25, 0x0B	; 11
    3f82:	0e 94 f1 57 	call	0xafe2	; 0xafe2 <_ZN4UTFT7setFontEPh>
    3f86:	00 51       	subi	r16, 0x10	; 16
    3f88:	11 09       	sbc	r17, r1
    3f8a:	a6 01       	movw	r20, r12
    3f8c:	dd 0c       	add	r13, r13
    3f8e:	66 0b       	sbc	r22, r22
    3f90:	77 0b       	sbc	r23, r23
    3f92:	80 e2       	ldi	r24, 0x20	; 32
    3f94:	c8 2e       	mov	r12, r24
    3f96:	93 e0       	ldi	r25, 0x03	; 3
    3f98:	e9 2e       	mov	r14, r25
    3f9a:	f1 2c       	mov	r15, r1
    3f9c:	29 ee       	ldi	r18, 0xE9	; 233
    3f9e:	30 e0       	ldi	r19, 0x00	; 0
    3fa0:	84 e0       	ldi	r24, 0x04	; 4
    3fa2:	9b e0       	ldi	r25, 0x0B	; 11
    3fa4:	0e 94 09 57 	call	0xae12	; 0xae12 <_ZN4UTFT9printNumIEliiic>
    3fa8:	20 e0       	ldi	r18, 0x00	; 0
    3faa:	40 e0       	ldi	r20, 0x00	; 0
    3fac:	6f ef       	ldi	r22, 0xFF	; 255
    3fae:	84 e0       	ldi	r24, 0x04	; 4
    3fb0:	9b e0       	ldi	r25, 0x0B	; 11
    3fb2:	0e 94 97 4d 	call	0x9b2e	; 0x9b2e <_ZN4UTFT8setColorEhhh>
    3fb6:	82 01       	movw	r16, r4
    3fb8:	25 ee       	ldi	r18, 0xE5	; 229
    3fba:	30 e0       	ldi	r19, 0x00	; 0
    3fbc:	a3 01       	movw	r20, r6
    3fbe:	62 ed       	ldi	r22, 0xD2	; 210
    3fc0:	70 e0       	ldi	r23, 0x00	; 0
    3fc2:	84 e0       	ldi	r24, 0x04	; 4
    3fc4:	9b e0       	ldi	r25, 0x0B	; 11
    3fc6:	0e 94 46 4e 	call	0x9c8c	; 0x9c8c <_ZN4UTFT13fillRoundRectEiiii>
    3fca:	20 e0       	ldi	r18, 0x00	; 0
    3fcc:	40 e0       	ldi	r20, 0x00	; 0
    3fce:	60 e0       	ldi	r22, 0x00	; 0
    3fd0:	84 e0       	ldi	r24, 0x04	; 4
    3fd2:	9b e0       	ldi	r25, 0x0B	; 11
    3fd4:	0e 94 97 4d 	call	0x9b2e	; 0x9b2e <_ZN4UTFT8setColorEhhh>
    3fd8:	84 01       	movw	r16, r8
    3fda:	24 ee       	ldi	r18, 0xE4	; 228
    3fdc:	30 e0       	ldi	r19, 0x00	; 0
    3fde:	a5 01       	movw	r20, r10
    3fe0:	63 ed       	ldi	r22, 0xD3	; 211
    3fe2:	70 e0       	ldi	r23, 0x00	; 0
    3fe4:	84 e0       	ldi	r24, 0x04	; 4
    3fe6:	9b e0       	ldi	r25, 0x0B	; 11
    3fe8:	0e 94 46 4e 	call	0x9c8c	; 0x9c8c <_ZN4UTFT13fillRoundRectEiiii>
    3fec:	2f ef       	ldi	r18, 0xFF	; 255
    3fee:	4f ef       	ldi	r20, 0xFF	; 255
    3ff0:	6f ef       	ldi	r22, 0xFF	; 255
    3ff2:	84 e0       	ldi	r24, 0x04	; 4
    3ff4:	9b e0       	ldi	r25, 0x0B	; 11
    3ff6:	0e 94 97 4d 	call	0x9b2e	; 0x9b2e <_ZN4UTFT8setColorEhhh>
    3ffa:	20 e0       	ldi	r18, 0x00	; 0
    3ffc:	40 e0       	ldi	r20, 0x00	; 0
    3ffe:	60 e0       	ldi	r22, 0x00	; 0
    4000:	84 e0       	ldi	r24, 0x04	; 4
    4002:	9b e0       	ldi	r25, 0x0B	; 11
    4004:	0e 94 ab 4d 	call	0x9b56	; 0x9b56 <_ZN4UTFT12setBackColorEhhh>
    4008:	62 e5       	ldi	r22, 0x52	; 82
    400a:	7e e0       	ldi	r23, 0x0E	; 14
    400c:	84 e0       	ldi	r24, 0x04	; 4
    400e:	9b e0       	ldi	r25, 0x0B	; 11
    4010:	0e 94 f1 57 	call	0xafe2	; 0xafe2 <_ZN4UTFT7setFontEPh>
    4014:	00 e0       	ldi	r16, 0x00	; 0
    4016:	10 e0       	ldi	r17, 0x00	; 0
    4018:	91 01       	movw	r18, r2
    401a:	44 ed       	ldi	r20, 0xD4	; 212
    401c:	50 e0       	ldi	r21, 0x00	; 0
    401e:	6c ee       	ldi	r22, 0xEC	; 236
    4020:	72 e0       	ldi	r23, 0x02	; 2
    4022:	84 e0       	ldi	r24, 0x04	; 4
    4024:	9b e0       	ldi	r25, 0x0B	; 11
    4026:	0e 94 1d 56 	call	0xac3a	; 0xac3a <_ZN4UTFT5printEPciii>
    402a:	26 96       	adiw	r28, 0x06	; 6
    402c:	0f b6       	in	r0, 0x3f	; 63
    402e:	f8 94       	cli
    4030:	de bf       	out	0x3e, r29	; 62
    4032:	0f be       	out	0x3f, r0	; 63
    4034:	cd bf       	out	0x3d, r28	; 61
    4036:	df 91       	pop	r29
    4038:	cf 91       	pop	r28
    403a:	1f 91       	pop	r17
    403c:	0f 91       	pop	r16
    403e:	ff 90       	pop	r15
    4040:	ef 90       	pop	r14
    4042:	df 90       	pop	r13
    4044:	cf 90       	pop	r12
    4046:	bf 90       	pop	r11
    4048:	af 90       	pop	r10
    404a:	9f 90       	pop	r9
    404c:	8f 90       	pop	r8
    404e:	7f 90       	pop	r7
    4050:	6f 90       	pop	r6
    4052:	5f 90       	pop	r5
    4054:	4f 90       	pop	r4
    4056:	3f 90       	pop	r3
    4058:	2f 90       	pop	r2
    405a:	08 95       	ret

0000405c <_Z12addMenuEntry6StringbPFvabE>:
    405c:	0f 93       	push	r16
    405e:	1f 93       	push	r17
    4060:	cf 93       	push	r28
    4062:	df 93       	push	r29
    4064:	d6 2f       	mov	r29, r22
    4066:	8a 01       	movw	r16, r20
    4068:	40 91 44 0a 	lds	r20, 0x0A44	; 0x800a44 <NumberOfMenuEntries>
    406c:	50 91 45 0a 	lds	r21, 0x0A45	; 0x800a45 <NumberOfMenuEntries+0x1>
    4070:	c8 e1       	ldi	r28, 0x18	; 24
    4072:	c4 9f       	mul	r28, r20
    4074:	90 01       	movw	r18, r0
    4076:	c5 9f       	mul	r28, r21
    4078:	30 0d       	add	r19, r0
    407a:	11 24       	eor	r1, r1
    407c:	f9 01       	movw	r30, r18
    407e:	e4 57       	subi	r30, 0x74	; 116
    4080:	fa 4f       	sbci	r31, 0xFA	; 250
    4082:	11 82       	std	Z+1, r1	; 0x01
    4084:	10 82       	st	Z, r1
    4086:	bc 01       	movw	r22, r24
    4088:	c9 01       	movw	r24, r18
    408a:	81 57       	subi	r24, 0x71	; 113
    408c:	9a 4f       	sbci	r25, 0xFA	; 250
    408e:	0e 94 90 3d 	call	0x7b20	; 0x7b20 <_ZN6StringaSERKS_>
    4092:	80 91 44 0a 	lds	r24, 0x0A44	; 0x800a44 <NumberOfMenuEntries>
    4096:	90 91 45 0a 	lds	r25, 0x0A45	; 0x800a45 <NumberOfMenuEntries+0x1>
    409a:	c8 9f       	mul	r28, r24
    409c:	f0 01       	movw	r30, r0
    409e:	c9 9f       	mul	r28, r25
    40a0:	f0 0d       	add	r31, r0
    40a2:	11 24       	eor	r1, r1
    40a4:	e4 57       	subi	r30, 0x74	; 116
    40a6:	fa 4f       	sbci	r31, 0xFA	; 250
    40a8:	d1 87       	std	Z+9, r29	; 0x09
    40aa:	13 87       	std	Z+11, r17	; 0x0b
    40ac:	02 87       	std	Z+10, r16	; 0x0a
    40ae:	01 96       	adiw	r24, 0x01	; 1
    40b0:	90 93 45 0a 	sts	0x0A45, r25	; 0x800a45 <NumberOfMenuEntries+0x1>
    40b4:	80 93 44 0a 	sts	0x0A44, r24	; 0x800a44 <NumberOfMenuEntries>
    40b8:	df 91       	pop	r29
    40ba:	cf 91       	pop	r28
    40bc:	1f 91       	pop	r17
    40be:	0f 91       	pop	r16
    40c0:	08 95       	ret

000040c2 <_Z18addMenuEntryIntNum6StringiiPFvaiE>:
    40c2:	cf 92       	push	r12
    40c4:	df 92       	push	r13
    40c6:	ef 92       	push	r14
    40c8:	ff 92       	push	r15
    40ca:	0f 93       	push	r16
    40cc:	1f 93       	push	r17
    40ce:	cf 93       	push	r28
    40d0:	7b 01       	movw	r14, r22
    40d2:	6a 01       	movw	r12, r20
    40d4:	89 01       	movw	r16, r18
    40d6:	40 91 44 0a 	lds	r20, 0x0A44	; 0x800a44 <NumberOfMenuEntries>
    40da:	50 91 45 0a 	lds	r21, 0x0A45	; 0x800a45 <NumberOfMenuEntries+0x1>
    40de:	c8 e1       	ldi	r28, 0x18	; 24
    40e0:	c4 9f       	mul	r28, r20
    40e2:	90 01       	movw	r18, r0
    40e4:	c5 9f       	mul	r28, r21
    40e6:	30 0d       	add	r19, r0
    40e8:	11 24       	eor	r1, r1
    40ea:	f9 01       	movw	r30, r18
    40ec:	e4 57       	subi	r30, 0x74	; 116
    40ee:	fa 4f       	sbci	r31, 0xFA	; 250
    40f0:	41 e0       	ldi	r20, 0x01	; 1
    40f2:	50 e0       	ldi	r21, 0x00	; 0
    40f4:	51 83       	std	Z+1, r21	; 0x01
    40f6:	40 83       	st	Z, r20
    40f8:	bc 01       	movw	r22, r24
    40fa:	c9 01       	movw	r24, r18
    40fc:	88 56       	subi	r24, 0x68	; 104
    40fe:	9a 4f       	sbci	r25, 0xFA	; 250
    4100:	0e 94 90 3d 	call	0x7b20	; 0x7b20 <_ZN6StringaSERKS_>
    4104:	80 91 44 0a 	lds	r24, 0x0A44	; 0x800a44 <NumberOfMenuEntries>
    4108:	90 91 45 0a 	lds	r25, 0x0A45	; 0x800a45 <NumberOfMenuEntries+0x1>
    410c:	c8 9f       	mul	r28, r24
    410e:	f0 01       	movw	r30, r0
    4110:	c9 9f       	mul	r28, r25
    4112:	f0 0d       	add	r31, r0
    4114:	11 24       	eor	r1, r1
    4116:	e4 57       	subi	r30, 0x74	; 116
    4118:	fa 4f       	sbci	r31, 0xFA	; 250
    411a:	f3 8a       	std	Z+19, r15	; 0x13
    411c:	e2 8a       	std	Z+18, r14	; 0x12
    411e:	d5 8a       	std	Z+21, r13	; 0x15
    4120:	c4 8a       	std	Z+20, r12	; 0x14
    4122:	17 8b       	std	Z+23, r17	; 0x17
    4124:	06 8b       	std	Z+22, r16	; 0x16
    4126:	01 96       	adiw	r24, 0x01	; 1
    4128:	90 93 45 0a 	sts	0x0A45, r25	; 0x800a45 <NumberOfMenuEntries+0x1>
    412c:	80 93 44 0a 	sts	0x0A44, r24	; 0x800a44 <NumberOfMenuEntries>
    4130:	cf 91       	pop	r28
    4132:	1f 91       	pop	r17
    4134:	0f 91       	pop	r16
    4136:	ff 90       	pop	r15
    4138:	ef 90       	pop	r14
    413a:	df 90       	pop	r13
    413c:	cf 90       	pop	r12
    413e:	08 95       	ret

00004140 <_Z13DrawInterfacev>:
    4140:	ef 92       	push	r14
    4142:	ff 92       	push	r15
    4144:	0f 93       	push	r16
    4146:	1f 93       	push	r17
    4148:	cf 93       	push	r28
    414a:	df 93       	push	r29
    414c:	00 d0       	rcall	.+0      	; 0x414e <_Z13DrawInterfacev+0xe>
    414e:	00 d0       	rcall	.+0      	; 0x4150 <_Z13DrawInterfacev+0x10>
    4150:	cd b7       	in	r28, 0x3d	; 61
    4152:	de b7       	in	r29, 0x3e	; 62
    4154:	81 e0       	ldi	r24, 0x01	; 1
    4156:	90 e0       	ldi	r25, 0x00	; 0
    4158:	90 93 41 0a 	sts	0x0A41, r25	; 0x800a41 <ActiveScreen+0x1>
    415c:	80 93 40 0a 	sts	0x0A40, r24	; 0x800a40 <ActiveScreen>
    4160:	00 e0       	ldi	r16, 0x00	; 0
    4162:	10 e0       	ldi	r17, 0x00	; 0
    4164:	88 e1       	ldi	r24, 0x18	; 24
    4166:	f8 2e       	mov	r15, r24
    4168:	80 91 44 0a 	lds	r24, 0x0A44	; 0x800a44 <NumberOfMenuEntries>
    416c:	90 91 45 0a 	lds	r25, 0x0A45	; 0x800a45 <NumberOfMenuEntries+0x1>
    4170:	08 17       	cp	r16, r24
    4172:	19 07       	cpc	r17, r25
    4174:	0c f0       	brlt	.+2      	; 0x4178 <_Z13DrawInterfacev+0x38>
    4176:	4a c0       	rjmp	.+148    	; 0x420c <_Z13DrawInterfacev+0xcc>
    4178:	05 30       	cpi	r16, 0x05	; 5
    417a:	11 05       	cpc	r17, r1
    417c:	0c f0       	brlt	.+2      	; 0x4180 <_Z13DrawInterfacev+0x40>
    417e:	43 c0       	rjmp	.+134    	; 0x4206 <_Z13DrawInterfacev+0xc6>
    4180:	20 91 42 0a 	lds	r18, 0x0A42	; 0x800a42 <ScrollPosition>
    4184:	30 91 43 0a 	lds	r19, 0x0A43	; 0x800a43 <ScrollPosition+0x1>
    4188:	20 0f       	add	r18, r16
    418a:	31 1f       	adc	r19, r17
    418c:	f2 9e       	mul	r15, r18
    418e:	c0 01       	movw	r24, r0
    4190:	f3 9e       	mul	r15, r19
    4192:	90 0d       	add	r25, r0
    4194:	11 24       	eor	r1, r1
    4196:	fc 01       	movw	r30, r24
    4198:	e4 57       	subi	r30, 0x74	; 116
    419a:	fa 4f       	sbci	r31, 0xFA	; 250
    419c:	20 81       	ld	r18, Z
    419e:	31 81       	ldd	r19, Z+1	; 0x01
    41a0:	21 15       	cp	r18, r1
    41a2:	31 05       	cpc	r19, r1
    41a4:	71 f4       	brne	.+28     	; 0x41c2 <_Z13DrawInterfacev+0x82>
    41a6:	e1 84       	ldd	r14, Z+9	; 0x09
    41a8:	bc 01       	movw	r22, r24
    41aa:	61 57       	subi	r22, 0x71	; 113
    41ac:	7a 4f       	sbci	r23, 0xFA	; 250
    41ae:	ce 01       	movw	r24, r28
    41b0:	01 96       	adiw	r24, 0x01	; 1
    41b2:	0e 94 a5 3d 	call	0x7b4a	; 0x7b4a <_ZN6StringC1ERKS_>
    41b6:	a8 01       	movw	r20, r16
    41b8:	6e 2d       	mov	r22, r14
    41ba:	ce 01       	movw	r24, r28
    41bc:	01 96       	adiw	r24, 0x01	; 1
    41be:	0b dd       	rcall	.-1514   	; 0x3bd6 <_Z13DrawMenuEntry6Stringbi>
    41c0:	1e c0       	rjmp	.+60     	; 0x41fe <_Z13DrawInterfacev+0xbe>
    41c2:	21 30       	cpi	r18, 0x01	; 1
    41c4:	31 05       	cpc	r19, r1
    41c6:	f9 f4       	brne	.+62     	; 0x4206 <_Z13DrawInterfacev+0xc6>
    41c8:	bc 01       	movw	r22, r24
    41ca:	68 56       	subi	r22, 0x68	; 104
    41cc:	7a 4f       	sbci	r23, 0xFA	; 250
    41ce:	ce 01       	movw	r24, r28
    41d0:	01 96       	adiw	r24, 0x01	; 1
    41d2:	0e 94 a5 3d 	call	0x7b4a	; 0x7b4a <_ZN6StringC1ERKS_>
    41d6:	80 91 42 0a 	lds	r24, 0x0A42	; 0x800a42 <ScrollPosition>
    41da:	90 91 43 0a 	lds	r25, 0x0A43	; 0x800a43 <ScrollPosition+0x1>
    41de:	80 0f       	add	r24, r16
    41e0:	91 1f       	adc	r25, r17
    41e2:	f8 9e       	mul	r15, r24
    41e4:	f0 01       	movw	r30, r0
    41e6:	f9 9e       	mul	r15, r25
    41e8:	f0 0d       	add	r31, r0
    41ea:	11 24       	eor	r1, r1
    41ec:	e4 57       	subi	r30, 0x74	; 116
    41ee:	fa 4f       	sbci	r31, 0xFA	; 250
    41f0:	a8 01       	movw	r20, r16
    41f2:	be 01       	movw	r22, r28
    41f4:	6f 5f       	subi	r22, 0xFF	; 255
    41f6:	7f 4f       	sbci	r23, 0xFF	; 255
    41f8:	82 89       	ldd	r24, Z+18	; 0x12
    41fa:	93 89       	ldd	r25, Z+19	; 0x13
    41fc:	ae dd       	rcall	.-1188   	; 0x3d5a <_Z22DrawMenuEntryIntNumberi6Stringi>
    41fe:	ce 01       	movw	r24, r28
    4200:	01 96       	adiw	r24, 0x01	; 1
    4202:	0e 94 11 3d 	call	0x7a22	; 0x7a22 <_ZN6StringD1Ev>
    4206:	0f 5f       	subi	r16, 0xFF	; 255
    4208:	1f 4f       	sbci	r17, 0xFF	; 255
    420a:	ae cf       	rjmp	.-164    	; 0x4168 <_Z13DrawInterfacev+0x28>
    420c:	d9 d8       	rcall	.-3662   	; 0x33c0 <ESP8266_isConnected>
    420e:	88 23       	and	r24, r24
    4210:	19 f0       	breq	.+6      	; 0x4218 <_Z13DrawInterfacev+0xd8>
    4212:	20 e0       	ldi	r18, 0x00	; 0
    4214:	4f ef       	ldi	r20, 0xFF	; 255
    4216:	02 c0       	rjmp	.+4      	; 0x421c <_Z13DrawInterfacev+0xdc>
    4218:	2f ef       	ldi	r18, 0xFF	; 255
    421a:	40 e0       	ldi	r20, 0x00	; 0
    421c:	60 e0       	ldi	r22, 0x00	; 0
    421e:	84 e0       	ldi	r24, 0x04	; 4
    4220:	9b e0       	ldi	r25, 0x0B	; 11
    4222:	0e 94 97 4d 	call	0x9b2e	; 0x9b2e <_ZN4UTFT8setColorEhhh>
    4226:	20 e0       	ldi	r18, 0x00	; 0
    4228:	4f ef       	ldi	r20, 0xFF	; 255
    422a:	60 e0       	ldi	r22, 0x00	; 0
    422c:	84 e0       	ldi	r24, 0x04	; 4
    422e:	9b e0       	ldi	r25, 0x0B	; 11
    4230:	0e 94 ab 4d 	call	0x9b56	; 0x9b56 <_ZN4UTFT12setBackColorEhhh>
    4234:	04 e1       	ldi	r16, 0x14	; 20
    4236:	10 e0       	ldi	r17, 0x00	; 0
    4238:	21 e9       	ldi	r18, 0x91	; 145
    423a:	30 e0       	ldi	r19, 0x00	; 0
    423c:	40 e0       	ldi	r20, 0x00	; 0
    423e:	50 e0       	ldi	r21, 0x00	; 0
    4240:	6f ea       	ldi	r22, 0xAF	; 175
    4242:	70 e0       	ldi	r23, 0x00	; 0
    4244:	84 e0       	ldi	r24, 0x04	; 4
    4246:	9b e0       	ldi	r25, 0x0B	; 11
    4248:	0e 94 46 4e 	call	0x9c8c	; 0x9c8c <_ZN4UTFT13fillRoundRectEiiii>
    424c:	01 e0       	ldi	r16, 0x01	; 1
    424e:	10 e0       	ldi	r17, 0x00	; 0
    4250:	21 e9       	ldi	r18, 0x91	; 145
    4252:	30 e0       	ldi	r19, 0x00	; 0
    4254:	40 e0       	ldi	r20, 0x00	; 0
    4256:	50 e0       	ldi	r21, 0x00	; 0
    4258:	6f ea       	ldi	r22, 0xAF	; 175
    425a:	70 e0       	ldi	r23, 0x00	; 0
    425c:	84 e0       	ldi	r24, 0x04	; 4
    425e:	9b e0       	ldi	r25, 0x0B	; 11
    4260:	0e 94 ab 50 	call	0xa156	; 0xa156 <_ZN4UTFT8fillRectEiiii>
    4264:	20 e0       	ldi	r18, 0x00	; 0
    4266:	40 e0       	ldi	r20, 0x00	; 0
    4268:	6f ef       	ldi	r22, 0xFF	; 255
    426a:	84 e0       	ldi	r24, 0x04	; 4
    426c:	9b e0       	ldi	r25, 0x0B	; 11
    426e:	0e 94 97 4d 	call	0x9b2e	; 0x9b2e <_ZN4UTFT8setColorEhhh>
    4272:	07 e7       	ldi	r16, 0x77	; 119
    4274:	10 e0       	ldi	r17, 0x00	; 0
    4276:	2f e3       	ldi	r18, 0x3F	; 63
    4278:	31 e0       	ldi	r19, 0x01	; 1
    427a:	40 e0       	ldi	r20, 0x00	; 0
    427c:	50 e0       	ldi	r21, 0x00	; 0
    427e:	6c e2       	ldi	r22, 0x2C	; 44
    4280:	71 e0       	ldi	r23, 0x01	; 1
    4282:	84 e0       	ldi	r24, 0x04	; 4
    4284:	9b e0       	ldi	r25, 0x0B	; 11
    4286:	0e 94 f9 4f 	call	0x9ff2	; 0x9ff2 <_ZN4UTFT13drawRoundRectEiiii>
    428a:	0f ee       	ldi	r16, 0xEF	; 239
    428c:	10 e0       	ldi	r17, 0x00	; 0
    428e:	2f e3       	ldi	r18, 0x3F	; 63
    4290:	31 e0       	ldi	r19, 0x01	; 1
    4292:	49 e7       	ldi	r20, 0x79	; 121
    4294:	50 e0       	ldi	r21, 0x00	; 0
    4296:	6c e2       	ldi	r22, 0x2C	; 44
    4298:	71 e0       	ldi	r23, 0x01	; 1
    429a:	84 e0       	ldi	r24, 0x04	; 4
    429c:	9b e0       	ldi	r25, 0x0B	; 11
    429e:	0e 94 f9 4f 	call	0x9ff2	; 0x9ff2 <_ZN4UTFT13drawRoundRectEiiii>
    42a2:	20 e0       	ldi	r18, 0x00	; 0
    42a4:	40 e0       	ldi	r20, 0x00	; 0
    42a6:	60 e0       	ldi	r22, 0x00	; 0
    42a8:	84 e0       	ldi	r24, 0x04	; 4
    42aa:	9b e0       	ldi	r25, 0x0B	; 11
    42ac:	0e 94 97 4d 	call	0x9b2e	; 0x9b2e <_ZN4UTFT8setColorEhhh>
    42b0:	6e e6       	ldi	r22, 0x6E	; 110
    42b2:	72 e0       	ldi	r23, 0x02	; 2
    42b4:	84 e0       	ldi	r24, 0x04	; 4
    42b6:	9b e0       	ldi	r25, 0x0B	; 11
    42b8:	0e 94 f1 57 	call	0xafe2	; 0xafe2 <_ZN4UTFT7setFontEPh>
    42bc:	00 e0       	ldi	r16, 0x00	; 0
    42be:	10 e0       	ldi	r17, 0x00	; 0
    42c0:	23 e0       	ldi	r18, 0x03	; 3
    42c2:	30 e0       	ldi	r19, 0x00	; 0
    42c4:	4e e0       	ldi	r20, 0x0E	; 14
    42c6:	57 e2       	ldi	r21, 0x27	; 39
    42c8:	64 eb       	ldi	r22, 0xB4	; 180
    42ca:	73 e0       	ldi	r23, 0x03	; 3
    42cc:	84 e0       	ldi	r24, 0x04	; 4
    42ce:	9b e0       	ldi	r25, 0x0B	; 11
    42d0:	0e 94 1d 56 	call	0xac3a	; 0xac3a <_ZN4UTFT5printEPciii>
    42d4:	2f ef       	ldi	r18, 0xFF	; 255
    42d6:	4f ef       	ldi	r20, 0xFF	; 255
    42d8:	6f ef       	ldi	r22, 0xFF	; 255
    42da:	84 e0       	ldi	r24, 0x04	; 4
    42dc:	9b e0       	ldi	r25, 0x0B	; 11
    42de:	0e 94 97 4d 	call	0x9b2e	; 0x9b2e <_ZN4UTFT8setColorEhhh>
    42e2:	20 e0       	ldi	r18, 0x00	; 0
    42e4:	40 e0       	ldi	r20, 0x00	; 0
    42e6:	60 e0       	ldi	r22, 0x00	; 0
    42e8:	84 e0       	ldi	r24, 0x04	; 4
    42ea:	9b e0       	ldi	r25, 0x0B	; 11
    42ec:	0e 94 ab 4d 	call	0x9b56	; 0x9b56 <_ZN4UTFT12setBackColorEhhh>
    42f0:	6e e6       	ldi	r22, 0x6E	; 110
    42f2:	72 e0       	ldi	r23, 0x02	; 2
    42f4:	84 e0       	ldi	r24, 0x04	; 4
    42f6:	9b e0       	ldi	r25, 0x0B	; 11
    42f8:	0e 94 f1 57 	call	0xafe2	; 0xafe2 <_ZN4UTFT7setFontEPh>
    42fc:	2c e3       	ldi	r18, 0x3C	; 60
    42fe:	30 e0       	ldi	r19, 0x00	; 0
    4300:	4f e2       	ldi	r20, 0x2F	; 47
    4302:	51 e0       	ldi	r21, 0x01	; 1
    4304:	6a ef       	ldi	r22, 0xFA	; 250
    4306:	74 e0       	ldi	r23, 0x04	; 4
    4308:	84 e0       	ldi	r24, 0x04	; 4
    430a:	9b e0       	ldi	r25, 0x0B	; 11
    430c:	0e 94 1d 56 	call	0xac3a	; 0xac3a <_ZN4UTFT5printEPciii>
    4310:	24 eb       	ldi	r18, 0xB4	; 180
    4312:	30 e0       	ldi	r19, 0x00	; 0
    4314:	4f e2       	ldi	r20, 0x2F	; 47
    4316:	51 e0       	ldi	r21, 0x01	; 1
    4318:	6e ee       	ldi	r22, 0xEE	; 238
    431a:	72 e0       	ldi	r23, 0x02	; 2
    431c:	84 e0       	ldi	r24, 0x04	; 4
    431e:	9b e0       	ldi	r25, 0x0B	; 11
    4320:	0e 94 1d 56 	call	0xac3a	; 0xac3a <_ZN4UTFT5printEPciii>
    4324:	20 e0       	ldi	r18, 0x00	; 0
    4326:	40 e0       	ldi	r20, 0x00	; 0
    4328:	6f ef       	ldi	r22, 0xFF	; 255
    432a:	84 e0       	ldi	r24, 0x04	; 4
    432c:	9b e0       	ldi	r25, 0x0B	; 11
    432e:	0e 94 97 4d 	call	0x9b2e	; 0x9b2e <_ZN4UTFT8setColorEhhh>
    4332:	02 ef       	ldi	r16, 0xF2	; 242
    4334:	10 e0       	ldi	r17, 0x00	; 0
    4336:	23 eb       	ldi	r18, 0xB3	; 179
    4338:	30 e0       	ldi	r19, 0x00	; 0
    433a:	42 ed       	ldi	r20, 0xD2	; 210
    433c:	50 e0       	ldi	r21, 0x00	; 0
    433e:	6a e8       	ldi	r22, 0x8A	; 138
    4340:	70 e0       	ldi	r23, 0x00	; 0
    4342:	84 e0       	ldi	r24, 0x04	; 4
    4344:	9b e0       	ldi	r25, 0x0B	; 11
    4346:	0e 94 f9 4f 	call	0x9ff2	; 0x9ff2 <_ZN4UTFT13drawRoundRectEiiii>
    434a:	20 e4       	ldi	r18, 0x40	; 64
    434c:	40 e4       	ldi	r20, 0x40	; 64
    434e:	60 e4       	ldi	r22, 0x40	; 64
    4350:	84 e0       	ldi	r24, 0x04	; 4
    4352:	9b e0       	ldi	r25, 0x0B	; 11
    4354:	0e 94 97 4d 	call	0x9b2e	; 0x9b2e <_ZN4UTFT8setColorEhhh>
    4358:	01 ef       	ldi	r16, 0xF1	; 241
    435a:	10 e0       	ldi	r17, 0x00	; 0
    435c:	22 eb       	ldi	r18, 0xB2	; 178
    435e:	30 e0       	ldi	r19, 0x00	; 0
    4360:	43 ed       	ldi	r20, 0xD3	; 211
    4362:	50 e0       	ldi	r21, 0x00	; 0
    4364:	6b e8       	ldi	r22, 0x8B	; 139
    4366:	70 e0       	ldi	r23, 0x00	; 0
    4368:	84 e0       	ldi	r24, 0x04	; 4
    436a:	9b e0       	ldi	r25, 0x0B	; 11
    436c:	0e 94 46 4e 	call	0x9c8c	; 0x9c8c <_ZN4UTFT13fillRoundRectEiiii>
    4370:	2f ef       	ldi	r18, 0xFF	; 255
    4372:	4f ef       	ldi	r20, 0xFF	; 255
    4374:	6f ef       	ldi	r22, 0xFF	; 255
    4376:	84 e0       	ldi	r24, 0x04	; 4
    4378:	9b e0       	ldi	r25, 0x0B	; 11
    437a:	0e 94 97 4d 	call	0x9b2e	; 0x9b2e <_ZN4UTFT8setColorEhhh>
    437e:	6e ee       	ldi	r22, 0xEE	; 238
    4380:	7d e2       	ldi	r23, 0x2D	; 45
    4382:	84 e0       	ldi	r24, 0x04	; 4
    4384:	9b e0       	ldi	r25, 0x0B	; 11
    4386:	0e 94 f1 57 	call	0xafe2	; 0xafe2 <_ZN4UTFT7setFontEPh>
    438a:	20 e4       	ldi	r18, 0x40	; 64
    438c:	40 e4       	ldi	r20, 0x40	; 64
    438e:	60 e4       	ldi	r22, 0x40	; 64
    4390:	84 e0       	ldi	r24, 0x04	; 4
    4392:	9b e0       	ldi	r25, 0x0B	; 11
    4394:	0e 94 ab 4d 	call	0x9b56	; 0x9b56 <_ZN4UTFT12setBackColorEhhh>
    4398:	00 e0       	ldi	r16, 0x00	; 0
    439a:	10 e0       	ldi	r17, 0x00	; 0
    439c:	20 ee       	ldi	r18, 0xE0	; 224
    439e:	30 e0       	ldi	r19, 0x00	; 0
    43a0:	4e e0       	ldi	r20, 0x0E	; 14
    43a2:	57 e2       	ldi	r21, 0x27	; 39
    43a4:	60 ef       	ldi	r22, 0xF0	; 240
    43a6:	72 e0       	ldi	r23, 0x02	; 2
    43a8:	84 e0       	ldi	r24, 0x04	; 4
    43aa:	9b e0       	ldi	r25, 0x0B	; 11
    43ac:	0e 94 1d 56 	call	0xac3a	; 0xac3a <_ZN4UTFT5printEPciii>
    43b0:	20 e0       	ldi	r18, 0x00	; 0
    43b2:	40 e0       	ldi	r20, 0x00	; 0
    43b4:	6f ef       	ldi	r22, 0xFF	; 255
    43b6:	84 e0       	ldi	r24, 0x04	; 4
    43b8:	9b e0       	ldi	r25, 0x0B	; 11
    43ba:	0e 94 97 4d 	call	0x9b2e	; 0x9b2e <_ZN4UTFT8setColorEhhh>
    43be:	00 ef       	ldi	r16, 0xF0	; 240
    43c0:	10 e0       	ldi	r17, 0x00	; 0
    43c2:	2a e2       	ldi	r18, 0x2A	; 42
    43c4:	31 e0       	ldi	r19, 0x01	; 1
    43c6:	40 e0       	ldi	r20, 0x00	; 0
    43c8:	50 e0       	ldi	r21, 0x00	; 0
    43ca:	62 e2       	ldi	r22, 0x22	; 34
    43cc:	71 e0       	ldi	r23, 0x01	; 1
    43ce:	84 e0       	ldi	r24, 0x04	; 4
    43d0:	9b e0       	ldi	r25, 0x0B	; 11
    43d2:	0e 94 b5 4f 	call	0x9f6a	; 0x9f6a <_ZN4UTFT8drawRectEiiii>
    43d6:	20 e0       	ldi	r18, 0x00	; 0
    43d8:	40 e0       	ldi	r20, 0x00	; 0
    43da:	60 e0       	ldi	r22, 0x00	; 0
    43dc:	84 e0       	ldi	r24, 0x04	; 4
    43de:	9b e0       	ldi	r25, 0x0B	; 11
    43e0:	0e 94 97 4d 	call	0x9b2e	; 0x9b2e <_ZN4UTFT8setColorEhhh>
    43e4:	0f ee       	ldi	r16, 0xEF	; 239
    43e6:	10 e0       	ldi	r17, 0x00	; 0
    43e8:	29 e2       	ldi	r18, 0x29	; 41
    43ea:	31 e0       	ldi	r19, 0x01	; 1
    43ec:	41 e0       	ldi	r20, 0x01	; 1
    43ee:	50 e0       	ldi	r21, 0x00	; 0
    43f0:	63 e2       	ldi	r22, 0x23	; 35
    43f2:	71 e0       	ldi	r23, 0x01	; 1
    43f4:	84 e0       	ldi	r24, 0x04	; 4
    43f6:	9b e0       	ldi	r25, 0x0B	; 11
    43f8:	0e 94 ab 50 	call	0xa156	; 0xa156 <_ZN4UTFT8fillRectEiiii>
    43fc:	80 91 44 0a 	lds	r24, 0x0A44	; 0x800a44 <NumberOfMenuEntries>
    4400:	90 91 45 0a 	lds	r25, 0x0A45	; 0x800a45 <NumberOfMenuEntries+0x1>
    4404:	06 97       	sbiw	r24, 0x06	; 6
    4406:	74 f1       	brlt	.+92     	; 0x4464 <_Z13DrawInterfacev+0x324>
    4408:	28 ec       	ldi	r18, 0xC8	; 200
    440a:	48 ec       	ldi	r20, 0xC8	; 200
    440c:	68 ec       	ldi	r22, 0xC8	; 200
    440e:	84 e0       	ldi	r24, 0x04	; 4
    4410:	9b e0       	ldi	r25, 0x0B	; 11
    4412:	0e 94 97 4d 	call	0x9b2e	; 0x9b2e <_ZN4UTFT8setColorEhhh>
    4416:	60 91 44 0a 	lds	r22, 0x0A44	; 0x800a44 <NumberOfMenuEntries>
    441a:	70 91 45 0a 	lds	r23, 0x0A45	; 0x800a45 <NumberOfMenuEntries+0x1>
    441e:	8e ee       	ldi	r24, 0xEE	; 238
    4420:	90 e0       	ldi	r25, 0x00	; 0
    4422:	0e 94 c2 59 	call	0xb384	; 0xb384 <__divmodhi4>
    4426:	80 91 42 0a 	lds	r24, 0x0A42	; 0x800a42 <ScrollPosition>
    442a:	90 91 43 0a 	lds	r25, 0x0A43	; 0x800a43 <ScrollPosition+0x1>
    442e:	68 9f       	mul	r22, r24
    4430:	a0 01       	movw	r20, r0
    4432:	69 9f       	mul	r22, r25
    4434:	50 0d       	add	r21, r0
    4436:	78 9f       	mul	r23, r24
    4438:	50 0d       	add	r21, r0
    443a:	11 24       	eor	r1, r1
    443c:	85 e0       	ldi	r24, 0x05	; 5
    443e:	86 9f       	mul	r24, r22
    4440:	80 01       	movw	r16, r0
    4442:	87 9f       	mul	r24, r23
    4444:	10 0d       	add	r17, r0
    4446:	11 24       	eor	r1, r1
    4448:	0f 5f       	subi	r16, 0xFF	; 255
    444a:	1f 4f       	sbci	r17, 0xFF	; 255
    444c:	04 0f       	add	r16, r20
    444e:	15 1f       	adc	r17, r21
    4450:	4f 5f       	subi	r20, 0xFF	; 255
    4452:	5f 4f       	sbci	r21, 0xFF	; 255
    4454:	29 e2       	ldi	r18, 0x29	; 41
    4456:	31 e0       	ldi	r19, 0x01	; 1
    4458:	63 e2       	ldi	r22, 0x23	; 35
    445a:	71 e0       	ldi	r23, 0x01	; 1
    445c:	84 e0       	ldi	r24, 0x04	; 4
    445e:	9b e0       	ldi	r25, 0x0B	; 11
    4460:	0e 94 46 4e 	call	0x9c8c	; 0x9c8c <_ZN4UTFT13fillRoundRectEiiii>
    4464:	26 96       	adiw	r28, 0x06	; 6
    4466:	0f b6       	in	r0, 0x3f	; 63
    4468:	f8 94       	cli
    446a:	de bf       	out	0x3e, r29	; 62
    446c:	0f be       	out	0x3f, r0	; 63
    446e:	cd bf       	out	0x3d, r28	; 61
    4470:	df 91       	pop	r29
    4472:	cf 91       	pop	r28
    4474:	1f 91       	pop	r17
    4476:	0f 91       	pop	r16
    4478:	ff 90       	pop	r15
    447a:	ef 90       	pop	r14
    447c:	08 95       	ret

0000447e <_Z7drawLogv>:
    447e:	0f 93       	push	r16
    4480:	1f 93       	push	r17
    4482:	82 e0       	ldi	r24, 0x02	; 2
    4484:	90 e0       	ldi	r25, 0x00	; 0
    4486:	90 93 41 0a 	sts	0x0A41, r25	; 0x800a41 <ActiveScreen+0x1>
    448a:	80 93 40 0a 	sts	0x0A40, r24	; 0x800a40 <ActiveScreen>
    448e:	84 e0       	ldi	r24, 0x04	; 4
    4490:	9b e0       	ldi	r25, 0x0B	; 11
    4492:	0e 94 fd 4c 	call	0x99fa	; 0x99fa <_ZN4UTFT6clrScrEv>
    4496:	0a db       	rcall	.-2540   	; 0x3aac <_Z8printLogv>
    4498:	20 e0       	ldi	r18, 0x00	; 0
    449a:	40 e0       	ldi	r20, 0x00	; 0
    449c:	6f ef       	ldi	r22, 0xFF	; 255
    449e:	84 e0       	ldi	r24, 0x04	; 4
    44a0:	9b e0       	ldi	r25, 0x0B	; 11
    44a2:	0e 94 97 4d 	call	0x9b2e	; 0x9b2e <_ZN4UTFT8setColorEhhh>
    44a6:	02 ef       	ldi	r16, 0xF2	; 242
    44a8:	10 e0       	ldi	r17, 0x00	; 0
    44aa:	2f e3       	ldi	r18, 0x3F	; 63
    44ac:	31 e0       	ldi	r19, 0x01	; 1
    44ae:	42 ed       	ldi	r20, 0xD2	; 210
    44b0:	50 e0       	ldi	r21, 0x00	; 0
    44b2:	68 e1       	ldi	r22, 0x18	; 24
    44b4:	71 e0       	ldi	r23, 0x01	; 1
    44b6:	84 e0       	ldi	r24, 0x04	; 4
    44b8:	9b e0       	ldi	r25, 0x0B	; 11
    44ba:	0e 94 f9 4f 	call	0x9ff2	; 0x9ff2 <_ZN4UTFT13drawRoundRectEiiii>
    44be:	2f e3       	ldi	r18, 0x3F	; 63
    44c0:	31 e0       	ldi	r19, 0x01	; 1
    44c2:	42 ed       	ldi	r20, 0xD2	; 210
    44c4:	50 e0       	ldi	r21, 0x00	; 0
    44c6:	62 e2       	ldi	r22, 0x22	; 34
    44c8:	71 e0       	ldi	r23, 0x01	; 1
    44ca:	84 e0       	ldi	r24, 0x04	; 4
    44cc:	9b e0       	ldi	r25, 0x0B	; 11
    44ce:	0e 94 b5 4f 	call	0x9f6a	; 0x9f6a <_ZN4UTFT8drawRectEiiii>
    44d2:	20 e4       	ldi	r18, 0x40	; 64
    44d4:	40 e4       	ldi	r20, 0x40	; 64
    44d6:	60 e4       	ldi	r22, 0x40	; 64
    44d8:	84 e0       	ldi	r24, 0x04	; 4
    44da:	9b e0       	ldi	r25, 0x0B	; 11
    44dc:	0e 94 97 4d 	call	0x9b2e	; 0x9b2e <_ZN4UTFT8setColorEhhh>
    44e0:	01 ef       	ldi	r16, 0xF1	; 241
    44e2:	10 e0       	ldi	r17, 0x00	; 0
    44e4:	2f e3       	ldi	r18, 0x3F	; 63
    44e6:	31 e0       	ldi	r19, 0x01	; 1
    44e8:	43 ed       	ldi	r20, 0xD3	; 211
    44ea:	50 e0       	ldi	r21, 0x00	; 0
    44ec:	69 e1       	ldi	r22, 0x19	; 25
    44ee:	71 e0       	ldi	r23, 0x01	; 1
    44f0:	84 e0       	ldi	r24, 0x04	; 4
    44f2:	9b e0       	ldi	r25, 0x0B	; 11
    44f4:	0e 94 46 4e 	call	0x9c8c	; 0x9c8c <_ZN4UTFT13fillRoundRectEiiii>
    44f8:	2f e3       	ldi	r18, 0x3F	; 63
    44fa:	31 e0       	ldi	r19, 0x01	; 1
    44fc:	43 ed       	ldi	r20, 0xD3	; 211
    44fe:	50 e0       	ldi	r21, 0x00	; 0
    4500:	6c e2       	ldi	r22, 0x2C	; 44
    4502:	71 e0       	ldi	r23, 0x01	; 1
    4504:	84 e0       	ldi	r24, 0x04	; 4
    4506:	9b e0       	ldi	r25, 0x0B	; 11
    4508:	0e 94 ab 50 	call	0xa156	; 0xa156 <_ZN4UTFT8fillRectEiiii>
    450c:	2f ef       	ldi	r18, 0xFF	; 255
    450e:	4f ef       	ldi	r20, 0xFF	; 255
    4510:	6f ef       	ldi	r22, 0xFF	; 255
    4512:	84 e0       	ldi	r24, 0x04	; 4
    4514:	9b e0       	ldi	r25, 0x0B	; 11
    4516:	0e 94 97 4d 	call	0x9b2e	; 0x9b2e <_ZN4UTFT8setColorEhhh>
    451a:	6e ee       	ldi	r22, 0xEE	; 238
    451c:	7d e2       	ldi	r23, 0x2D	; 45
    451e:	84 e0       	ldi	r24, 0x04	; 4
    4520:	9b e0       	ldi	r25, 0x0B	; 11
    4522:	0e 94 f1 57 	call	0xafe2	; 0xafe2 <_ZN4UTFT7setFontEPh>
    4526:	20 e4       	ldi	r18, 0x40	; 64
    4528:	40 e4       	ldi	r20, 0x40	; 64
    452a:	60 e4       	ldi	r22, 0x40	; 64
    452c:	84 e0       	ldi	r24, 0x04	; 4
    452e:	9b e0       	ldi	r25, 0x0B	; 11
    4530:	0e 94 ab 4d 	call	0x9b56	; 0x9b56 <_ZN4UTFT12setBackColorEhhh>
    4534:	00 e0       	ldi	r16, 0x00	; 0
    4536:	10 e0       	ldi	r17, 0x00	; 0
    4538:	20 ee       	ldi	r18, 0xE0	; 224
    453a:	30 e0       	ldi	r19, 0x00	; 0
    453c:	4f e0       	ldi	r20, 0x0F	; 15
    453e:	57 e2       	ldi	r21, 0x27	; 39
    4540:	64 ef       	ldi	r22, 0xF4	; 244
    4542:	72 e0       	ldi	r23, 0x02	; 2
    4544:	84 e0       	ldi	r24, 0x04	; 4
    4546:	9b e0       	ldi	r25, 0x0B	; 11
    4548:	0e 94 1d 56 	call	0xac3a	; 0xac3a <_ZN4UTFT5printEPciii>
    454c:	1f 91       	pop	r17
    454e:	0f 91       	pop	r16
    4550:	08 95       	ret

00004552 <_Z12recMessFunc1Pc>:
    4552:	0f 93       	push	r16
    4554:	1f 93       	push	r17
    4556:	cf 93       	push	r28
    4558:	df 93       	push	r29
    455a:	cd b7       	in	r28, 0x3d	; 61
    455c:	de b7       	in	r29, 0x3e	; 62
    455e:	68 97       	sbiw	r28, 0x18	; 24
    4560:	0f b6       	in	r0, 0x3f	; 63
    4562:	f8 94       	cli
    4564:	de bf       	out	0x3e, r29	; 62
    4566:	0f be       	out	0x3f, r0	; 63
    4568:	cd bf       	out	0x3d, r28	; 61
    456a:	8c 01       	movw	r16, r24
    456c:	69 ef       	ldi	r22, 0xF9	; 249
    456e:	72 e0       	ldi	r23, 0x02	; 2
    4570:	ce 01       	movw	r24, r28
    4572:	01 96       	adiw	r24, 0x01	; 1
    4574:	0e 94 7c 3d 	call	0x7af8	; 0x7af8 <_ZN6StringC1EPKc>
    4578:	ce 01       	movw	r24, r28
    457a:	01 96       	adiw	r24, 0x01	; 1
    457c:	1b da       	rcall	.-3018   	; 0x39b4 <_Z6addLog6String>
    457e:	ce 01       	movw	r24, r28
    4580:	01 96       	adiw	r24, 0x01	; 1
    4582:	0e 94 11 3d 	call	0x7a22	; 0x7a22 <_ZN6StringD1Ev>
    4586:	f8 01       	movw	r30, r16
    4588:	80 81       	ld	r24, Z
    458a:	81 34       	cpi	r24, 0x41	; 65
    458c:	91 f4       	brne	.+36     	; 0x45b2 <_Z12recMessFunc1Pc+0x60>
    458e:	6b ef       	ldi	r22, 0xFB	; 251
    4590:	72 e0       	ldi	r23, 0x02	; 2
    4592:	ce 01       	movw	r24, r28
    4594:	01 96       	adiw	r24, 0x01	; 1
    4596:	0e 94 7c 3d 	call	0x7af8	; 0x7af8 <_ZN6StringC1EPKc>
    459a:	ce 01       	movw	r24, r28
    459c:	01 96       	adiw	r24, 0x01	; 1
    459e:	0a da       	rcall	.-3052   	; 0x39b4 <_Z6addLog6String>
    45a0:	ce 01       	movw	r24, r28
    45a2:	01 96       	adiw	r24, 0x01	; 1
    45a4:	0e 94 11 3d 	call	0x7a22	; 0x7a22 <_ZN6StringD1Ev>
    45a8:	10 92 87 05 	sts	0x0587, r1	; 0x800587 <waitingForPong>
    45ac:	10 92 88 05 	sts	0x0588, r1	; 0x800588 <Int_count>
    45b0:	e3 c0       	rjmp	.+454    	; 0x4778 <_Z12recMessFunc1Pc+0x226>
    45b2:	b8 01       	movw	r22, r16
    45b4:	ce 01       	movw	r24, r28
    45b6:	43 96       	adiw	r24, 0x13	; 19
    45b8:	0e 94 7c 3d 	call	0x7af8	; 0x7af8 <_ZN6StringC1EPKc>
    45bc:	60 e0       	ldi	r22, 0x00	; 0
    45be:	70 e0       	ldi	r23, 0x00	; 0
    45c0:	ce 01       	movw	r24, r28
    45c2:	43 96       	adiw	r24, 0x13	; 19
    45c4:	0e 94 4d 3e 	call	0x7c9a	; 0x7c9a <_ZNK6String6charAtEj>
    45c8:	81 30       	cpi	r24, 0x01	; 1
    45ca:	09 f0       	breq	.+2      	; 0x45ce <_Z12recMessFunc1Pc+0x7c>
    45cc:	a4 c0       	rjmp	.+328    	; 0x4716 <_Z12recMessFunc1Pc+0x1c4>
    45ce:	6d ef       	ldi	r22, 0xFD	; 253
    45d0:	72 e0       	ldi	r23, 0x02	; 2
    45d2:	ce 01       	movw	r24, r28
    45d4:	01 96       	adiw	r24, 0x01	; 1
    45d6:	0e 94 7c 3d 	call	0x7af8	; 0x7af8 <_ZN6StringC1EPKc>
    45da:	ce 01       	movw	r24, r28
    45dc:	01 96       	adiw	r24, 0x01	; 1
    45de:	ea d9       	rcall	.-3116   	; 0x39b4 <_Z6addLog6String>
    45e0:	ce 01       	movw	r24, r28
    45e2:	01 96       	adiw	r24, 0x01	; 1
    45e4:	0e 94 11 3d 	call	0x7a22	; 0x7a22 <_ZN6StringD1Ev>
    45e8:	61 e0       	ldi	r22, 0x01	; 1
    45ea:	70 e0       	ldi	r23, 0x00	; 0
    45ec:	ce 01       	movw	r24, r28
    45ee:	43 96       	adiw	r24, 0x13	; 19
    45f0:	0e 94 4d 3e 	call	0x7c9a	; 0x7c9a <_ZNK6String6charAtEj>
    45f4:	81 33       	cpi	r24, 0x31	; 49
    45f6:	09 f0       	breq	.+2      	; 0x45fa <_Z12recMessFunc1Pc+0xa8>
    45f8:	58 c0       	rjmp	.+176    	; 0x46aa <_Z12recMessFunc1Pc+0x158>
    45fa:	62 e0       	ldi	r22, 0x02	; 2
    45fc:	70 e0       	ldi	r23, 0x00	; 0
    45fe:	ce 01       	movw	r24, r28
    4600:	43 96       	adiw	r24, 0x13	; 19
    4602:	0e 94 4d 3e 	call	0x7c9a	; 0x7c9a <_ZNK6String6charAtEj>
    4606:	18 2f       	mov	r17, r24
    4608:	63 e0       	ldi	r22, 0x03	; 3
    460a:	70 e0       	ldi	r23, 0x00	; 0
    460c:	ce 01       	movw	r24, r28
    460e:	43 96       	adiw	r24, 0x13	; 19
    4610:	0e 94 4d 3e 	call	0x7c9a	; 0x7c9a <_ZNK6String6charAtEj>
    4614:	21 2f       	mov	r18, r17
    4616:	30 e0       	ldi	r19, 0x00	; 0
    4618:	20 53       	subi	r18, 0x30	; 48
    461a:	31 09       	sbc	r19, r1
    461c:	94 e6       	ldi	r25, 0x64	; 100
    461e:	92 9f       	mul	r25, r18
    4620:	80 01       	movw	r16, r0
    4622:	93 9f       	mul	r25, r19
    4624:	10 0d       	add	r17, r0
    4626:	11 24       	eor	r1, r1
    4628:	90 e0       	ldi	r25, 0x00	; 0
    462a:	c0 97       	sbiw	r24, 0x30	; 48
    462c:	4a e0       	ldi	r20, 0x0A	; 10
    462e:	48 9f       	mul	r20, r24
    4630:	90 01       	movw	r18, r0
    4632:	49 9f       	mul	r20, r25
    4634:	30 0d       	add	r19, r0
    4636:	11 24       	eor	r1, r1
    4638:	02 0f       	add	r16, r18
    463a:	13 1f       	adc	r17, r19
    463c:	64 e0       	ldi	r22, 0x04	; 4
    463e:	70 e0       	ldi	r23, 0x00	; 0
    4640:	ce 01       	movw	r24, r28
    4642:	43 96       	adiw	r24, 0x13	; 19
    4644:	0e 94 4d 3e 	call	0x7c9a	; 0x7c9a <_ZNK6String6charAtEj>
    4648:	90 e0       	ldi	r25, 0x00	; 0
    464a:	c0 97       	sbiw	r24, 0x30	; 48
    464c:	08 0f       	add	r16, r24
    464e:	19 1f       	adc	r17, r25
    4650:	2f 89       	ldd	r18, Y+23	; 0x17
    4652:	38 8d       	ldd	r19, Y+24	; 0x18
    4654:	45 e0       	ldi	r20, 0x05	; 5
    4656:	50 e0       	ldi	r21, 0x00	; 0
    4658:	be 01       	movw	r22, r28
    465a:	6d 5e       	subi	r22, 0xED	; 237
    465c:	7f 4f       	sbci	r23, 0xFF	; 255
    465e:	ce 01       	movw	r24, r28
    4660:	01 96       	adiw	r24, 0x01	; 1
    4662:	0e 94 7d 3e 	call	0x7cfa	; 0x7cfa <_ZNK6String9substringEjj>
    4666:	25 e9       	ldi	r18, 0x95	; 149
    4668:	3a e2       	ldi	r19, 0x2A	; 42
    466a:	41 e0       	ldi	r20, 0x01	; 1
    466c:	50 e0       	ldi	r21, 0x00	; 0
    466e:	b8 01       	movw	r22, r16
    4670:	ce 01       	movw	r24, r28
    4672:	01 96       	adiw	r24, 0x01	; 1
    4674:	26 dd       	rcall	.-1460   	; 0x40c2 <_Z18addMenuEntryIntNum6StringiiPFvaiE>
    4676:	ce 01       	movw	r24, r28
    4678:	01 96       	adiw	r24, 0x01	; 1
    467a:	0e 94 11 3d 	call	0x7a22	; 0x7a22 <_ZN6StringD1Ev>
    467e:	62 e1       	ldi	r22, 0x12	; 18
    4680:	73 e0       	ldi	r23, 0x03	; 3
    4682:	ce 01       	movw	r24, r28
    4684:	01 96       	adiw	r24, 0x01	; 1
    4686:	0e 94 7c 3d 	call	0x7af8	; 0x7af8 <_ZN6StringC1EPKc>
    468a:	ce 01       	movw	r24, r28
    468c:	01 96       	adiw	r24, 0x01	; 1
    468e:	92 d9       	rcall	.-3292   	; 0x39b4 <_Z6addLog6String>
    4690:	ce 01       	movw	r24, r28
    4692:	01 96       	adiw	r24, 0x01	; 1
    4694:	0e 94 11 3d 	call	0x7a22	; 0x7a22 <_ZN6StringD1Ev>
    4698:	80 91 40 0a 	lds	r24, 0x0A40	; 0x800a40 <ActiveScreen>
    469c:	90 91 41 0a 	lds	r25, 0x0A41	; 0x800a41 <ActiveScreen+0x1>
    46a0:	01 97       	sbiw	r24, 0x01	; 1
    46a2:	09 f0       	breq	.+2      	; 0x46a6 <_Z12recMessFunc1Pc+0x154>
    46a4:	65 c0       	rjmp	.+202    	; 0x4770 <_Z12recMessFunc1Pc+0x21e>
    46a6:	4c dd       	rcall	.-1384   	; 0x4140 <_Z13DrawInterfacev>
    46a8:	63 c0       	rjmp	.+198    	; 0x4770 <_Z12recMessFunc1Pc+0x21e>
    46aa:	61 e0       	ldi	r22, 0x01	; 1
    46ac:	70 e0       	ldi	r23, 0x00	; 0
    46ae:	ce 01       	movw	r24, r28
    46b0:	43 96       	adiw	r24, 0x13	; 19
    46b2:	0e 94 4d 3e 	call	0x7c9a	; 0x7c9a <_ZNK6String6charAtEj>
    46b6:	80 33       	cpi	r24, 0x30	; 48
    46b8:	11 f5       	brne	.+68     	; 0x46fe <_Z12recMessFunc1Pc+0x1ac>
    46ba:	62 e0       	ldi	r22, 0x02	; 2
    46bc:	70 e0       	ldi	r23, 0x00	; 0
    46be:	ce 01       	movw	r24, r28
    46c0:	43 96       	adiw	r24, 0x13	; 19
    46c2:	0e 94 4d 3e 	call	0x7c9a	; 0x7c9a <_ZNK6String6charAtEj>
    46c6:	18 2f       	mov	r17, r24
    46c8:	2f 89       	ldd	r18, Y+23	; 0x17
    46ca:	38 8d       	ldd	r19, Y+24	; 0x18
    46cc:	43 e0       	ldi	r20, 0x03	; 3
    46ce:	50 e0       	ldi	r21, 0x00	; 0
    46d0:	be 01       	movw	r22, r28
    46d2:	6d 5e       	subi	r22, 0xED	; 237
    46d4:	7f 4f       	sbci	r23, 0xFF	; 255
    46d6:	ce 01       	movw	r24, r28
    46d8:	01 96       	adiw	r24, 0x01	; 1
    46da:	0e 94 7d 3e 	call	0x7cfa	; 0x7cfa <_ZNK6String9substringEjj>
    46de:	61 e0       	ldi	r22, 0x01	; 1
    46e0:	10 33       	cpi	r17, 0x30	; 48
    46e2:	09 f4       	brne	.+2      	; 0x46e6 <_Z12recMessFunc1Pc+0x194>
    46e4:	60 e0       	ldi	r22, 0x00	; 0
    46e6:	4b e0       	ldi	r20, 0x0B	; 11
    46e8:	5d e1       	ldi	r21, 0x1D	; 29
    46ea:	ce 01       	movw	r24, r28
    46ec:	01 96       	adiw	r24, 0x01	; 1
    46ee:	b6 dc       	rcall	.-1684   	; 0x405c <_Z12addMenuEntry6StringbPFvabE>
    46f0:	ce 01       	movw	r24, r28
    46f2:	01 96       	adiw	r24, 0x01	; 1
    46f4:	0e 94 11 3d 	call	0x7a22	; 0x7a22 <_ZN6StringD1Ev>
    46f8:	6a e2       	ldi	r22, 0x2A	; 42
    46fa:	73 e0       	ldi	r23, 0x03	; 3
    46fc:	c2 cf       	rjmp	.-124    	; 0x4682 <_Z12recMessFunc1Pc+0x130>
    46fe:	6b e3       	ldi	r22, 0x3B	; 59
    4700:	73 e0       	ldi	r23, 0x03	; 3
    4702:	ce 01       	movw	r24, r28
    4704:	01 96       	adiw	r24, 0x01	; 1
    4706:	0e 94 7c 3d 	call	0x7af8	; 0x7af8 <_ZN6StringC1EPKc>
    470a:	ce 01       	movw	r24, r28
    470c:	01 96       	adiw	r24, 0x01	; 1
    470e:	52 d9       	rcall	.-3420   	; 0x39b4 <_Z6addLog6String>
    4710:	ce 01       	movw	r24, r28
    4712:	01 96       	adiw	r24, 0x01	; 1
    4714:	2b c0       	rjmp	.+86     	; 0x476c <_Z12recMessFunc1Pc+0x21a>
    4716:	6a e5       	ldi	r22, 0x5A	; 90
    4718:	73 e0       	ldi	r23, 0x03	; 3
    471a:	ce 01       	movw	r24, r28
    471c:	0d 96       	adiw	r24, 0x0d	; 13
    471e:	0e 94 7c 3d 	call	0x7af8	; 0x7af8 <_ZN6StringC1EPKc>
    4722:	be 01       	movw	r22, r28
    4724:	63 5f       	subi	r22, 0xF3	; 243
    4726:	7f 4f       	sbci	r23, 0xFF	; 255
    4728:	ce 01       	movw	r24, r28
    472a:	07 96       	adiw	r24, 0x07	; 7
    472c:	0e 94 a5 3d 	call	0x7b4a	; 0x7b4a <_ZN6StringC1ERKS_>
    4730:	60 e0       	ldi	r22, 0x00	; 0
    4732:	ce 01       	movw	r24, r28
    4734:	07 96       	adiw	r24, 0x07	; 7
    4736:	0e 94 30 3e 	call	0x7c60	; 0x7c60 <_ZplRK15StringSumHelperh>
    473a:	6c e0       	ldi	r22, 0x0C	; 12
    473c:	74 e0       	ldi	r23, 0x04	; 4
    473e:	0e 94 19 3e 	call	0x7c32	; 0x7c32 <_ZplRK15StringSumHelperPKc>
    4742:	b8 01       	movw	r22, r16
    4744:	0e 94 19 3e 	call	0x7c32	; 0x7c32 <_ZplRK15StringSumHelperPKc>
    4748:	bc 01       	movw	r22, r24
    474a:	ce 01       	movw	r24, r28
    474c:	01 96       	adiw	r24, 0x01	; 1
    474e:	0e 94 a5 3d 	call	0x7b4a	; 0x7b4a <_ZN6StringC1ERKS_>
    4752:	ce 01       	movw	r24, r28
    4754:	01 96       	adiw	r24, 0x01	; 1
    4756:	2e d9       	rcall	.-3492   	; 0x39b4 <_Z6addLog6String>
    4758:	ce 01       	movw	r24, r28
    475a:	01 96       	adiw	r24, 0x01	; 1
    475c:	0e 94 11 3d 	call	0x7a22	; 0x7a22 <_ZN6StringD1Ev>
    4760:	ce 01       	movw	r24, r28
    4762:	07 96       	adiw	r24, 0x07	; 7
    4764:	0e 94 11 3d 	call	0x7a22	; 0x7a22 <_ZN6StringD1Ev>
    4768:	ce 01       	movw	r24, r28
    476a:	0d 96       	adiw	r24, 0x0d	; 13
    476c:	0e 94 11 3d 	call	0x7a22	; 0x7a22 <_ZN6StringD1Ev>
    4770:	ce 01       	movw	r24, r28
    4772:	43 96       	adiw	r24, 0x13	; 19
    4774:	0e 94 11 3d 	call	0x7a22	; 0x7a22 <_ZN6StringD1Ev>
    4778:	80 91 40 0a 	lds	r24, 0x0A40	; 0x800a40 <ActiveScreen>
    477c:	90 91 41 0a 	lds	r25, 0x0A41	; 0x800a41 <ActiveScreen+0x1>
    4780:	02 97       	sbiw	r24, 0x02	; 2
    4782:	09 f4       	brne	.+2      	; 0x4786 <_Z12recMessFunc1Pc+0x234>
    4784:	7c de       	rcall	.-776    	; 0x447e <_Z7drawLogv>
    4786:	68 96       	adiw	r28, 0x18	; 24
    4788:	0f b6       	in	r0, 0x3f	; 63
    478a:	f8 94       	cli
    478c:	de bf       	out	0x3e, r29	; 62
    478e:	0f be       	out	0x3f, r0	; 63
    4790:	cd bf       	out	0x3d, r28	; 61
    4792:	df 91       	pop	r29
    4794:	cf 91       	pop	r28
    4796:	1f 91       	pop	r17
    4798:	0f 91       	pop	r16
    479a:	08 95       	ret

0000479c <_Z10drawButtoniiiiPca>:
    479c:	6f 92       	push	r6
    479e:	7f 92       	push	r7
    47a0:	8f 92       	push	r8
    47a2:	9f 92       	push	r9
    47a4:	af 92       	push	r10
    47a6:	bf 92       	push	r11
    47a8:	cf 92       	push	r12
    47aa:	df 92       	push	r13
    47ac:	ef 92       	push	r14
    47ae:	0f 93       	push	r16
    47b0:	1f 93       	push	r17
    47b2:	cf 93       	push	r28
    47b4:	df 93       	push	r29
    47b6:	6c 01       	movw	r12, r24
    47b8:	eb 01       	movw	r28, r22
    47ba:	3a 01       	movw	r6, r20
    47bc:	59 01       	movw	r10, r18
    47be:	48 01       	movw	r8, r16
    47c0:	20 e0       	ldi	r18, 0x00	; 0
    47c2:	40 e0       	ldi	r20, 0x00	; 0
    47c4:	60 e0       	ldi	r22, 0x00	; 0
    47c6:	84 e0       	ldi	r24, 0x04	; 4
    47c8:	9b e0       	ldi	r25, 0x0B	; 11
    47ca:	0e 94 97 4d 	call	0x9b2e	; 0x9b2e <_ZN4UTFT8setColorEhhh>
    47ce:	85 01       	movw	r16, r10
    47d0:	01 50       	subi	r16, 0x01	; 1
    47d2:	11 09       	sbc	r17, r1
    47d4:	93 01       	movw	r18, r6
    47d6:	21 50       	subi	r18, 0x01	; 1
    47d8:	31 09       	sbc	r19, r1
    47da:	ae 01       	movw	r20, r28
    47dc:	4f 5f       	subi	r20, 0xFF	; 255
    47de:	5f 4f       	sbci	r21, 0xFF	; 255
    47e0:	b6 01       	movw	r22, r12
    47e2:	6f 5f       	subi	r22, 0xFF	; 255
    47e4:	7f 4f       	sbci	r23, 0xFF	; 255
    47e6:	84 e0       	ldi	r24, 0x04	; 4
    47e8:	9b e0       	ldi	r25, 0x0B	; 11
    47ea:	0e 94 46 4e 	call	0x9c8c	; 0x9c8c <_ZN4UTFT13fillRoundRectEiiii>
    47ee:	2f ef       	ldi	r18, 0xFF	; 255
    47f0:	4f ef       	ldi	r20, 0xFF	; 255
    47f2:	6f ef       	ldi	r22, 0xFF	; 255
    47f4:	84 e0       	ldi	r24, 0x04	; 4
    47f6:	9b e0       	ldi	r25, 0x0B	; 11
    47f8:	0e 94 97 4d 	call	0x9b2e	; 0x9b2e <_ZN4UTFT8setColorEhhh>
    47fc:	20 e0       	ldi	r18, 0x00	; 0
    47fe:	40 e0       	ldi	r20, 0x00	; 0
    4800:	60 e0       	ldi	r22, 0x00	; 0
    4802:	84 e0       	ldi	r24, 0x04	; 4
    4804:	9b e0       	ldi	r25, 0x0B	; 11
    4806:	0e 94 ab 4d 	call	0x9b56	; 0x9b56 <_ZN4UTFT12setBackColorEhhh>
    480a:	81 e0       	ldi	r24, 0x01	; 1
    480c:	e8 12       	cpse	r14, r24
    480e:	19 c0       	rjmp	.+50     	; 0x4842 <_Z10drawButtoniiiiPca+0xa6>
    4810:	66 e3       	ldi	r22, 0x36	; 54
    4812:	7a e1       	ldi	r23, 0x1A	; 26
    4814:	84 e0       	ldi	r24, 0x04	; 4
    4816:	9b e0       	ldi	r25, 0x0B	; 11
    4818:	0e 94 f1 57 	call	0xafe2	; 0xafe2 <_ZN4UTFT7setFontEPh>
    481c:	95 01       	movw	r18, r10
    481e:	2c 1b       	sub	r18, r28
    4820:	3d 0b       	sbc	r19, r29
    4822:	37 ff       	sbrs	r19, 7
    4824:	02 c0       	rjmp	.+4      	; 0x482a <_Z10drawButtoniiiiPca+0x8e>
    4826:	2f 5f       	subi	r18, 0xFF	; 255
    4828:	3f 4f       	sbci	r19, 0xFF	; 255
    482a:	35 95       	asr	r19
    482c:	27 95       	ror	r18
    482e:	2c 0f       	add	r18, r28
    4830:	3d 1f       	adc	r19, r29
    4832:	28 51       	subi	r18, 0x18	; 24
    4834:	31 09       	sbc	r19, r1
    4836:	00 e0       	ldi	r16, 0x00	; 0
    4838:	10 e0       	ldi	r17, 0x00	; 0
    483a:	a6 01       	movw	r20, r12
    483c:	4a 5e       	subi	r20, 0xEA	; 234
    483e:	5f 4f       	sbci	r21, 0xFF	; 255
    4840:	36 c0       	rjmp	.+108    	; 0x48ae <_Z10drawButtoniiiiPca+0x112>
    4842:	e1 10       	cpse	r14, r1
    4844:	19 c0       	rjmp	.+50     	; 0x4878 <_Z10drawButtoniiiiPca+0xdc>
    4846:	6a e0       	ldi	r22, 0x0A	; 10
    4848:	72 e2       	ldi	r23, 0x22	; 34
    484a:	84 e0       	ldi	r24, 0x04	; 4
    484c:	9b e0       	ldi	r25, 0x0B	; 11
    484e:	0e 94 f1 57 	call	0xafe2	; 0xafe2 <_ZN4UTFT7setFontEPh>
    4852:	95 01       	movw	r18, r10
    4854:	2c 1b       	sub	r18, r28
    4856:	3d 0b       	sbc	r19, r29
    4858:	37 ff       	sbrs	r19, 7
    485a:	02 c0       	rjmp	.+4      	; 0x4860 <_Z10drawButtoniiiiPca+0xc4>
    485c:	2f 5f       	subi	r18, 0xFF	; 255
    485e:	3f 4f       	sbci	r19, 0xFF	; 255
    4860:	35 95       	asr	r19
    4862:	27 95       	ror	r18
    4864:	2c 0f       	add	r18, r28
    4866:	3d 1f       	adc	r19, r29
    4868:	28 50       	subi	r18, 0x08	; 8
    486a:	31 09       	sbc	r19, r1
    486c:	00 e0       	ldi	r16, 0x00	; 0
    486e:	10 e0       	ldi	r17, 0x00	; 0
    4870:	a6 01       	movw	r20, r12
    4872:	4b 5f       	subi	r20, 0xFB	; 251
    4874:	5f 4f       	sbci	r21, 0xFF	; 255
    4876:	1b c0       	rjmp	.+54     	; 0x48ae <_Z10drawButtoniiiiPca+0x112>
    4878:	82 e0       	ldi	r24, 0x02	; 2
    487a:	e8 12       	cpse	r14, r24
    487c:	1d c0       	rjmp	.+58     	; 0x48b8 <_Z10drawButtoniiiiPca+0x11c>
    487e:	6e ee       	ldi	r22, 0xEE	; 238
    4880:	7d e2       	ldi	r23, 0x2D	; 45
    4882:	84 e0       	ldi	r24, 0x04	; 4
    4884:	9b e0       	ldi	r25, 0x0B	; 11
    4886:	0e 94 f1 57 	call	0xafe2	; 0xafe2 <_ZN4UTFT7setFontEPh>
    488a:	95 01       	movw	r18, r10
    488c:	2c 1b       	sub	r18, r28
    488e:	3d 0b       	sbc	r19, r29
    4890:	37 ff       	sbrs	r19, 7
    4892:	02 c0       	rjmp	.+4      	; 0x4898 <_Z10drawButtoniiiiPca+0xfc>
    4894:	2f 5f       	subi	r18, 0xFF	; 255
    4896:	3f 4f       	sbci	r19, 0xFF	; 255
    4898:	35 95       	asr	r19
    489a:	27 95       	ror	r18
    489c:	2c 0f       	add	r18, r28
    489e:	3d 1f       	adc	r19, r29
    48a0:	25 50       	subi	r18, 0x05	; 5
    48a2:	31 09       	sbc	r19, r1
    48a4:	00 e0       	ldi	r16, 0x00	; 0
    48a6:	10 e0       	ldi	r17, 0x00	; 0
    48a8:	a6 01       	movw	r20, r12
    48aa:	49 5f       	subi	r20, 0xF9	; 249
    48ac:	5f 4f       	sbci	r21, 0xFF	; 255
    48ae:	b4 01       	movw	r22, r8
    48b0:	84 e0       	ldi	r24, 0x04	; 4
    48b2:	9b e0       	ldi	r25, 0x0B	; 11
    48b4:	0e 94 1d 56 	call	0xac3a	; 0xac3a <_ZN4UTFT5printEPciii>
    48b8:	20 e0       	ldi	r18, 0x00	; 0
    48ba:	40 e0       	ldi	r20, 0x00	; 0
    48bc:	6f ef       	ldi	r22, 0xFF	; 255
    48be:	84 e0       	ldi	r24, 0x04	; 4
    48c0:	9b e0       	ldi	r25, 0x0B	; 11
    48c2:	0e 94 97 4d 	call	0x9b2e	; 0x9b2e <_ZN4UTFT8setColorEhhh>
    48c6:	85 01       	movw	r16, r10
    48c8:	93 01       	movw	r18, r6
    48ca:	ae 01       	movw	r20, r28
    48cc:	b6 01       	movw	r22, r12
    48ce:	84 e0       	ldi	r24, 0x04	; 4
    48d0:	9b e0       	ldi	r25, 0x0B	; 11
    48d2:	0e 94 f9 4f 	call	0x9ff2	; 0x9ff2 <_ZN4UTFT13drawRoundRectEiiii>
    48d6:	df 91       	pop	r29
    48d8:	cf 91       	pop	r28
    48da:	1f 91       	pop	r17
    48dc:	0f 91       	pop	r16
    48de:	ef 90       	pop	r14
    48e0:	df 90       	pop	r13
    48e2:	cf 90       	pop	r12
    48e4:	bf 90       	pop	r11
    48e6:	af 90       	pop	r10
    48e8:	9f 90       	pop	r9
    48ea:	8f 90       	pop	r8
    48ec:	7f 90       	pop	r7
    48ee:	6f 90       	pop	r6
    48f0:	08 95       	ret

000048f2 <_Z10drawMsgBoxv>:
    48f2:	ef 92       	push	r14
    48f4:	0f 93       	push	r16
    48f6:	1f 93       	push	r17
    48f8:	83 e0       	ldi	r24, 0x03	; 3
    48fa:	90 e0       	ldi	r25, 0x00	; 0
    48fc:	90 93 41 0a 	sts	0x0A41, r25	; 0x800a41 <ActiveScreen+0x1>
    4900:	80 93 40 0a 	sts	0x0A40, r24	; 0x800a40 <ActiveScreen>
    4904:	84 e0       	ldi	r24, 0x04	; 4
    4906:	9b e0       	ldi	r25, 0x0B	; 11
    4908:	0e 94 fd 4c 	call	0x99fa	; 0x99fa <_ZN4UTFT6clrScrEv>
    490c:	82 e0       	ldi	r24, 0x02	; 2
    490e:	e8 2e       	mov	r14, r24
    4910:	03 e8       	ldi	r16, 0x83	; 131
    4912:	13 e0       	ldi	r17, 0x03	; 3
    4914:	2c e3       	ldi	r18, 0x3C	; 60
    4916:	30 e0       	ldi	r19, 0x00	; 0
    4918:	4c e2       	ldi	r20, 0x2C	; 44
    491a:	51 e0       	ldi	r21, 0x01	; 1
    491c:	64 e1       	ldi	r22, 0x14	; 20
    491e:	70 e0       	ldi	r23, 0x00	; 0
    4920:	84 e1       	ldi	r24, 0x14	; 20
    4922:	90 e0       	ldi	r25, 0x00	; 0
    4924:	3b df       	rcall	.-394    	; 0x479c <_Z10drawButtoniiiiPca>
    4926:	0e e9       	ldi	r16, 0x9E	; 158
    4928:	13 e0       	ldi	r17, 0x03	; 3
    492a:	2e e6       	ldi	r18, 0x6E	; 110
    492c:	30 e0       	ldi	r19, 0x00	; 0
    492e:	4c e2       	ldi	r20, 0x2C	; 44
    4930:	51 e0       	ldi	r21, 0x01	; 1
    4932:	66 e4       	ldi	r22, 0x46	; 70
    4934:	70 e0       	ldi	r23, 0x00	; 0
    4936:	84 e1       	ldi	r24, 0x14	; 20
    4938:	90 e0       	ldi	r25, 0x00	; 0
    493a:	30 df       	rcall	.-416    	; 0x479c <_Z10drawButtoniiiiPca>
    493c:	06 eb       	ldi	r16, 0xB6	; 182
    493e:	13 e0       	ldi	r17, 0x03	; 3
    4940:	20 ea       	ldi	r18, 0xA0	; 160
    4942:	30 e0       	ldi	r19, 0x00	; 0
    4944:	4c e2       	ldi	r20, 0x2C	; 44
    4946:	51 e0       	ldi	r21, 0x01	; 1
    4948:	68 e7       	ldi	r22, 0x78	; 120
    494a:	70 e0       	ldi	r23, 0x00	; 0
    494c:	84 e1       	ldi	r24, 0x14	; 20
    494e:	90 e0       	ldi	r25, 0x00	; 0
    4950:	25 df       	rcall	.-438    	; 0x479c <_Z10drawButtoniiiiPca>
    4952:	01 ed       	ldi	r16, 0xD1	; 209
    4954:	13 e0       	ldi	r17, 0x03	; 3
    4956:	20 ef       	ldi	r18, 0xF0	; 240
    4958:	30 e0       	ldi	r19, 0x00	; 0
    495a:	44 e6       	ldi	r20, 0x64	; 100
    495c:	50 e0       	ldi	r21, 0x00	; 0
    495e:	68 ec       	ldi	r22, 0xC8	; 200
    4960:	70 e0       	ldi	r23, 0x00	; 0
    4962:	81 e0       	ldi	r24, 0x01	; 1
    4964:	90 e0       	ldi	r25, 0x00	; 0
    4966:	1a df       	rcall	.-460    	; 0x479c <_Z10drawButtoniiiiPca>
    4968:	1f 91       	pop	r17
    496a:	0f 91       	pop	r16
    496c:	ef 90       	pop	r14
    496e:	08 95       	ret

00004970 <_Z9waitForItiiii>:
    4970:	af 92       	push	r10
    4972:	bf 92       	push	r11
    4974:	cf 92       	push	r12
    4976:	df 92       	push	r13
    4978:	ef 92       	push	r14
    497a:	ff 92       	push	r15
    497c:	0f 93       	push	r16
    497e:	1f 93       	push	r17
    4980:	cf 93       	push	r28
    4982:	df 93       	push	r29
    4984:	ec 01       	movw	r28, r24
    4986:	7b 01       	movw	r14, r22
    4988:	6a 01       	movw	r12, r20
    498a:	59 01       	movw	r10, r18
    498c:	2f ef       	ldi	r18, 0xFF	; 255
    498e:	40 e0       	ldi	r20, 0x00	; 0
    4990:	60 e0       	ldi	r22, 0x00	; 0
    4992:	84 e0       	ldi	r24, 0x04	; 4
    4994:	9b e0       	ldi	r25, 0x0B	; 11
    4996:	0e 94 97 4d 	call	0x9b2e	; 0x9b2e <_ZN4UTFT8setColorEhhh>
    499a:	85 01       	movw	r16, r10
    499c:	96 01       	movw	r18, r12
    499e:	a7 01       	movw	r20, r14
    49a0:	be 01       	movw	r22, r28
    49a2:	84 e0       	ldi	r24, 0x04	; 4
    49a4:	9b e0       	ldi	r25, 0x0B	; 11
    49a6:	0e 94 f9 4f 	call	0x9ff2	; 0x9ff2 <_ZN4UTFT13drawRoundRectEiiii>
    49aa:	89 ec       	ldi	r24, 0xC9	; 201
    49ac:	9a e0       	ldi	r25, 0x0A	; 10
    49ae:	0e 94 79 41 	call	0x82f2	; 0x82f2 <_ZN7URTouch13dataAvailableEv>
    49b2:	88 23       	and	r24, r24
    49b4:	29 f0       	breq	.+10     	; 0x49c0 <_Z9waitForItiiii+0x50>
    49b6:	89 ec       	ldi	r24, 0xC9	; 201
    49b8:	9a e0       	ldi	r25, 0x0A	; 10
    49ba:	0e 94 d6 3f 	call	0x7fac	; 0x7fac <_ZN7URTouch4readEv>
    49be:	f5 cf       	rjmp	.-22     	; 0x49aa <_Z9waitForItiiii+0x3a>
    49c0:	2f ef       	ldi	r18, 0xFF	; 255
    49c2:	4f ef       	ldi	r20, 0xFF	; 255
    49c4:	6f ef       	ldi	r22, 0xFF	; 255
    49c6:	84 e0       	ldi	r24, 0x04	; 4
    49c8:	9b e0       	ldi	r25, 0x0B	; 11
    49ca:	0e 94 97 4d 	call	0x9b2e	; 0x9b2e <_ZN4UTFT8setColorEhhh>
    49ce:	85 01       	movw	r16, r10
    49d0:	96 01       	movw	r18, r12
    49d2:	a7 01       	movw	r20, r14
    49d4:	be 01       	movw	r22, r28
    49d6:	84 e0       	ldi	r24, 0x04	; 4
    49d8:	9b e0       	ldi	r25, 0x0B	; 11
    49da:	0e 94 f9 4f 	call	0x9ff2	; 0x9ff2 <_ZN4UTFT13drawRoundRectEiiii>
    49de:	df 91       	pop	r29
    49e0:	cf 91       	pop	r28
    49e2:	1f 91       	pop	r17
    49e4:	0f 91       	pop	r16
    49e6:	ff 90       	pop	r15
    49e8:	ef 90       	pop	r14
    49ea:	df 90       	pop	r13
    49ec:	cf 90       	pop	r12
    49ee:	bf 90       	pop	r11
    49f0:	af 90       	pop	r10
    49f2:	08 95       	ret

000049f4 <_Z18drawKeyboardScreeni>:
    49f4:	af 92       	push	r10
    49f6:	bf 92       	push	r11
    49f8:	cf 92       	push	r12
    49fa:	df 92       	push	r13
    49fc:	ef 92       	push	r14
    49fe:	ff 92       	push	r15
    4a00:	0f 93       	push	r16
    4a02:	1f 93       	push	r17
    4a04:	cf 93       	push	r28
    4a06:	df 93       	push	r29
    4a08:	ec 01       	movw	r28, r24
    4a0a:	84 e0       	ldi	r24, 0x04	; 4
    4a0c:	90 e0       	ldi	r25, 0x00	; 0
    4a0e:	90 93 41 0a 	sts	0x0A41, r25	; 0x800a41 <ActiveScreen+0x1>
    4a12:	80 93 40 0a 	sts	0x0A40, r24	; 0x800a40 <ActiveScreen>
    4a16:	20 e0       	ldi	r18, 0x00	; 0
    4a18:	4f ef       	ldi	r20, 0xFF	; 255
    4a1a:	60 e0       	ldi	r22, 0x00	; 0
    4a1c:	84 e0       	ldi	r24, 0x04	; 4
    4a1e:	9b e0       	ldi	r25, 0x0B	; 11
    4a20:	0e 94 97 4d 	call	0x9b2e	; 0x9b2e <_ZN4UTFT8setColorEhhh>
    4a24:	6a e0       	ldi	r22, 0x0A	; 10
    4a26:	72 e2       	ldi	r23, 0x22	; 34
    4a28:	84 e0       	ldi	r24, 0x04	; 4
    4a2a:	9b e0       	ldi	r25, 0x0B	; 11
    4a2c:	0e 94 f1 57 	call	0xafe2	; 0xafe2 <_ZN4UTFT7setFontEPh>
    4a30:	20 e0       	ldi	r18, 0x00	; 0
    4a32:	40 e0       	ldi	r20, 0x00	; 0
    4a34:	60 e0       	ldi	r22, 0x00	; 0
    4a36:	84 e0       	ldi	r24, 0x04	; 4
    4a38:	9b e0       	ldi	r25, 0x0B	; 11
    4a3a:	0e 94 ab 4d 	call	0x9b56	; 0x9b56 <_ZN4UTFT12setBackColorEhhh>
    4a3e:	ae 01       	movw	r20, r28
    4a40:	0d 2e       	mov	r0, r29
    4a42:	00 0c       	add	r0, r0
    4a44:	66 0b       	sbc	r22, r22
    4a46:	77 0b       	sbc	r23, r23
    4a48:	90 e2       	ldi	r25, 0x20	; 32
    4a4a:	c9 2e       	mov	r12, r25
    4a4c:	e1 2c       	mov	r14, r1
    4a4e:	f1 2c       	mov	r15, r1
    4a50:	00 e0       	ldi	r16, 0x00	; 0
    4a52:	10 e0       	ldi	r17, 0x00	; 0
    4a54:	20 e0       	ldi	r18, 0x00	; 0
    4a56:	30 e0       	ldi	r19, 0x00	; 0
    4a58:	84 e0       	ldi	r24, 0x04	; 4
    4a5a:	9b e0       	ldi	r25, 0x0B	; 11
    4a5c:	0e 94 09 57 	call	0xae12	; 0xae12 <_ZN4UTFT9printNumIEliiic>
    4a60:	ee 24       	eor	r14, r14
    4a62:	e3 94       	inc	r14
    4a64:	09 ed       	ldi	r16, 0xD9	; 217
    4a66:	14 e0       	ldi	r17, 0x04	; 4
    4a68:	23 e4       	ldi	r18, 0x43	; 67
    4a6a:	30 e0       	ldi	r19, 0x00	; 0
    4a6c:	4b e4       	ldi	r20, 0x4B	; 75
    4a6e:	50 e0       	ldi	r21, 0x00	; 0
    4a70:	61 e1       	ldi	r22, 0x11	; 17
    4a72:	70 e0       	ldi	r23, 0x00	; 0
    4a74:	80 e0       	ldi	r24, 0x00	; 0
    4a76:	90 e0       	ldi	r25, 0x00	; 0
    4a78:	91 de       	rcall	.-734    	; 0x479c <_Z10drawButtoniiiiPca>
    4a7a:	0a ed       	ldi	r16, 0xDA	; 218
    4a7c:	13 e0       	ldi	r17, 0x03	; 3
    4a7e:	23 e4       	ldi	r18, 0x43	; 67
    4a80:	30 e0       	ldi	r19, 0x00	; 0
    4a82:	4b e9       	ldi	r20, 0x9B	; 155
    4a84:	50 e0       	ldi	r21, 0x00	; 0
    4a86:	61 e1       	ldi	r22, 0x11	; 17
    4a88:	70 e0       	ldi	r23, 0x00	; 0
    4a8a:	80 e5       	ldi	r24, 0x50	; 80
    4a8c:	90 e0       	ldi	r25, 0x00	; 0
    4a8e:	86 de       	rcall	.-756    	; 0x479c <_Z10drawButtoniiiiPca>
    4a90:	0c ed       	ldi	r16, 0xDC	; 220
    4a92:	13 e0       	ldi	r17, 0x03	; 3
    4a94:	23 e4       	ldi	r18, 0x43	; 67
    4a96:	30 e0       	ldi	r19, 0x00	; 0
    4a98:	4b ee       	ldi	r20, 0xEB	; 235
    4a9a:	50 e0       	ldi	r21, 0x00	; 0
    4a9c:	61 e1       	ldi	r22, 0x11	; 17
    4a9e:	70 e0       	ldi	r23, 0x00	; 0
    4aa0:	80 ea       	ldi	r24, 0xA0	; 160
    4aa2:	90 e0       	ldi	r25, 0x00	; 0
    4aa4:	7b de       	rcall	.-778    	; 0x479c <_Z10drawButtoniiiiPca>
    4aa6:	0e ed       	ldi	r16, 0xDE	; 222
    4aa8:	13 e0       	ldi	r17, 0x03	; 3
    4aaa:	23 e4       	ldi	r18, 0x43	; 67
    4aac:	30 e0       	ldi	r19, 0x00	; 0
    4aae:	4b e3       	ldi	r20, 0x3B	; 59
    4ab0:	51 e0       	ldi	r21, 0x01	; 1
    4ab2:	61 e1       	ldi	r22, 0x11	; 17
    4ab4:	70 e0       	ldi	r23, 0x00	; 0
    4ab6:	80 ef       	ldi	r24, 0xF0	; 240
    4ab8:	90 e0       	ldi	r25, 0x00	; 0
    4aba:	70 de       	rcall	.-800    	; 0x479c <_Z10drawButtoniiiiPca>
    4abc:	00 ee       	ldi	r16, 0xE0	; 224
    4abe:	13 e0       	ldi	r17, 0x03	; 3
    4ac0:	2a e7       	ldi	r18, 0x7A	; 122
    4ac2:	30 e0       	ldi	r19, 0x00	; 0
    4ac4:	4b e4       	ldi	r20, 0x4B	; 75
    4ac6:	50 e0       	ldi	r21, 0x00	; 0
    4ac8:	68 e4       	ldi	r22, 0x48	; 72
    4aca:	70 e0       	ldi	r23, 0x00	; 0
    4acc:	80 e0       	ldi	r24, 0x00	; 0
    4ace:	90 e0       	ldi	r25, 0x00	; 0
    4ad0:	65 de       	rcall	.-822    	; 0x479c <_Z10drawButtoniiiiPca>
    4ad2:	02 ee       	ldi	r16, 0xE2	; 226
    4ad4:	13 e0       	ldi	r17, 0x03	; 3
    4ad6:	2a e7       	ldi	r18, 0x7A	; 122
    4ad8:	30 e0       	ldi	r19, 0x00	; 0
    4ada:	4b e9       	ldi	r20, 0x9B	; 155
    4adc:	50 e0       	ldi	r21, 0x00	; 0
    4ade:	68 e4       	ldi	r22, 0x48	; 72
    4ae0:	70 e0       	ldi	r23, 0x00	; 0
    4ae2:	80 e5       	ldi	r24, 0x50	; 80
    4ae4:	90 e0       	ldi	r25, 0x00	; 0
    4ae6:	5a de       	rcall	.-844    	; 0x479c <_Z10drawButtoniiiiPca>
    4ae8:	04 ee       	ldi	r16, 0xE4	; 228
    4aea:	13 e0       	ldi	r17, 0x03	; 3
    4aec:	2a e7       	ldi	r18, 0x7A	; 122
    4aee:	30 e0       	ldi	r19, 0x00	; 0
    4af0:	4b ee       	ldi	r20, 0xEB	; 235
    4af2:	50 e0       	ldi	r21, 0x00	; 0
    4af4:	68 e4       	ldi	r22, 0x48	; 72
    4af6:	70 e0       	ldi	r23, 0x00	; 0
    4af8:	80 ea       	ldi	r24, 0xA0	; 160
    4afa:	90 e0       	ldi	r25, 0x00	; 0
    4afc:	4f de       	rcall	.-866    	; 0x479c <_Z10drawButtoniiiiPca>
    4afe:	06 ee       	ldi	r16, 0xE6	; 230
    4b00:	13 e0       	ldi	r17, 0x03	; 3
    4b02:	2a e7       	ldi	r18, 0x7A	; 122
    4b04:	30 e0       	ldi	r19, 0x00	; 0
    4b06:	4b e3       	ldi	r20, 0x3B	; 59
    4b08:	51 e0       	ldi	r21, 0x01	; 1
    4b0a:	68 e4       	ldi	r22, 0x48	; 72
    4b0c:	70 e0       	ldi	r23, 0x00	; 0
    4b0e:	80 ef       	ldi	r24, 0xF0	; 240
    4b10:	90 e0       	ldi	r25, 0x00	; 0
    4b12:	44 de       	rcall	.-888    	; 0x479c <_Z10drawButtoniiiiPca>
    4b14:	e1 2c       	mov	r14, r1
    4b16:	08 ee       	ldi	r16, 0xE8	; 232
    4b18:	13 e0       	ldi	r17, 0x03	; 3
    4b1a:	21 eb       	ldi	r18, 0xB1	; 177
    4b1c:	30 e0       	ldi	r19, 0x00	; 0
    4b1e:	4b e4       	ldi	r20, 0x4B	; 75
    4b20:	50 e0       	ldi	r21, 0x00	; 0
    4b22:	6f e7       	ldi	r22, 0x7F	; 127
    4b24:	70 e0       	ldi	r23, 0x00	; 0
    4b26:	80 e0       	ldi	r24, 0x00	; 0
    4b28:	90 e0       	ldi	r25, 0x00	; 0
    4b2a:	38 de       	rcall	.-912    	; 0x479c <_Z10drawButtoniiiiPca>
    4b2c:	ee 24       	eor	r14, r14
    4b2e:	e3 94       	inc	r14
    4b30:	0c ee       	ldi	r16, 0xEC	; 236
    4b32:	13 e0       	ldi	r17, 0x03	; 3
    4b34:	21 eb       	ldi	r18, 0xB1	; 177
    4b36:	30 e0       	ldi	r19, 0x00	; 0
    4b38:	4b e9       	ldi	r20, 0x9B	; 155
    4b3a:	50 e0       	ldi	r21, 0x00	; 0
    4b3c:	6f e7       	ldi	r22, 0x7F	; 127
    4b3e:	70 e0       	ldi	r23, 0x00	; 0
    4b40:	80 e5       	ldi	r24, 0x50	; 80
    4b42:	90 e0       	ldi	r25, 0x00	; 0
    4b44:	2b de       	rcall	.-938    	; 0x479c <_Z10drawButtoniiiiPca>
    4b46:	0e ee       	ldi	r16, 0xEE	; 238
    4b48:	13 e0       	ldi	r17, 0x03	; 3
    4b4a:	21 eb       	ldi	r18, 0xB1	; 177
    4b4c:	30 e0       	ldi	r19, 0x00	; 0
    4b4e:	4b ee       	ldi	r20, 0xEB	; 235
    4b50:	50 e0       	ldi	r21, 0x00	; 0
    4b52:	6f e7       	ldi	r22, 0x7F	; 127
    4b54:	70 e0       	ldi	r23, 0x00	; 0
    4b56:	80 ea       	ldi	r24, 0xA0	; 160
    4b58:	90 e0       	ldi	r25, 0x00	; 0
    4b5a:	20 de       	rcall	.-960    	; 0x479c <_Z10drawButtoniiiiPca>
    4b5c:	e1 2c       	mov	r14, r1
    4b5e:	00 ef       	ldi	r16, 0xF0	; 240
    4b60:	13 e0       	ldi	r17, 0x03	; 3
    4b62:	21 eb       	ldi	r18, 0xB1	; 177
    4b64:	30 e0       	ldi	r19, 0x00	; 0
    4b66:	4b e3       	ldi	r20, 0x3B	; 59
    4b68:	51 e0       	ldi	r21, 0x01	; 1
    4b6a:	6f e7       	ldi	r22, 0x7F	; 127
    4b6c:	70 e0       	ldi	r23, 0x00	; 0
    4b6e:	80 ef       	ldi	r24, 0xF0	; 240
    4b70:	90 e0       	ldi	r25, 0x00	; 0
    4b72:	14 de       	rcall	.-984    	; 0x479c <_Z10drawButtoniiiiPca>
    4b74:	04 ef       	ldi	r16, 0xF4	; 244
    4b76:	13 e0       	ldi	r17, 0x03	; 3
    4b78:	28 ee       	ldi	r18, 0xE8	; 232
    4b7a:	30 e0       	ldi	r19, 0x00	; 0
    4b7c:	4b e9       	ldi	r20, 0x9B	; 155
    4b7e:	50 e0       	ldi	r21, 0x00	; 0
    4b80:	66 eb       	ldi	r22, 0xB6	; 182
    4b82:	70 e0       	ldi	r23, 0x00	; 0
    4b84:	80 e0       	ldi	r24, 0x00	; 0
    4b86:	90 e0       	ldi	r25, 0x00	; 0
    4b88:	09 de       	rcall	.-1006   	; 0x479c <_Z10drawButtoniiiiPca>
    4b8a:	0b ef       	ldi	r16, 0xFB	; 251
    4b8c:	13 e0       	ldi	r17, 0x03	; 3
    4b8e:	28 ee       	ldi	r18, 0xE8	; 232
    4b90:	30 e0       	ldi	r19, 0x00	; 0
    4b92:	4f e3       	ldi	r20, 0x3F	; 63
    4b94:	51 e0       	ldi	r21, 0x01	; 1
    4b96:	66 eb       	ldi	r22, 0xB6	; 182
    4b98:	70 e0       	ldi	r23, 0x00	; 0
    4b9a:	80 ea       	ldi	r24, 0xA0	; 160
    4b9c:	90 e0       	ldi	r25, 0x00	; 0
    4b9e:	fe dd       	rcall	.-1028   	; 0x479c <_Z10drawButtoniiiiPca>
    4ba0:	20 e0       	ldi	r18, 0x00	; 0
    4ba2:	40 e0       	ldi	r20, 0x00	; 0
    4ba4:	6f ef       	ldi	r22, 0xFF	; 255
    4ba6:	84 e0       	ldi	r24, 0x04	; 4
    4ba8:	9b e0       	ldi	r25, 0x0B	; 11
    4baa:	0e 94 97 4d 	call	0x9b2e	; 0x9b2e <_ZN4UTFT8setColorEhhh>
    4bae:	2a e0       	ldi	r18, 0x0A	; 10
    4bb0:	a2 2e       	mov	r10, r18
    4bb2:	b1 2c       	mov	r11, r1
    4bb4:	3a e0       	ldi	r19, 0x0A	; 10
    4bb6:	d3 2e       	mov	r13, r19
    4bb8:	89 ec       	ldi	r24, 0xC9	; 201
    4bba:	9a e0       	ldi	r25, 0x0A	; 10
    4bbc:	0e 94 79 41 	call	0x82f2	; 0x82f2 <_ZN7URTouch13dataAvailableEv>
    4bc0:	88 23       	and	r24, r24
    4bc2:	d1 f3       	breq	.-12     	; 0x4bb8 <_Z18drawKeyboardScreeni+0x1c4>
    4bc4:	89 ec       	ldi	r24, 0xC9	; 201
    4bc6:	9a e0       	ldi	r25, 0x0A	; 10
    4bc8:	0e 94 d6 3f 	call	0x7fac	; 0x7fac <_ZN7URTouch4readEv>
    4bcc:	89 ec       	ldi	r24, 0xC9	; 201
    4bce:	9a e0       	ldi	r25, 0x0A	; 10
    4bd0:	0e 94 90 41 	call	0x8320	; 0x8320 <_ZN7URTouch4getXEv>
    4bd4:	90 93 3f 0a 	sts	0x0A3F, r25	; 0x800a3f <x+0x1>
    4bd8:	80 93 3e 0a 	sts	0x0A3E, r24	; 0x800a3e <x>
    4bdc:	89 ec       	ldi	r24, 0xC9	; 201
    4bde:	9a e0       	ldi	r25, 0x0A	; 10
    4be0:	0e 94 57 42 	call	0x84ae	; 0x84ae <_ZN7URTouch4getYEv>
    4be4:	90 93 3d 0a 	sts	0x0A3D, r25	; 0x800a3d <y+0x1>
    4be8:	80 93 3c 0a 	sts	0x0A3C, r24	; 0x800a3c <y>
    4bec:	20 91 3e 0a 	lds	r18, 0x0A3E	; 0x800a3e <x>
    4bf0:	30 91 3f 0a 	lds	r19, 0x0A3F	; 0x800a3f <x+0x1>
    4bf4:	37 fd       	sbrc	r19, 7
    4bf6:	ba c0       	rjmp	.+372    	; 0x4d6c <_Z18drawKeyboardScreeni+0x378>
    4bf8:	81 31       	cpi	r24, 0x11	; 17
    4bfa:	91 05       	cpc	r25, r1
    4bfc:	0c f4       	brge	.+2      	; 0x4c00 <_Z18drawKeyboardScreeni+0x20c>
    4bfe:	99 c0       	rjmp	.+306    	; 0x4d32 <_Z18drawKeyboardScreeni+0x33e>
    4c00:	2c 34       	cpi	r18, 0x4C	; 76
    4c02:	31 05       	cpc	r19, r1
    4c04:	5c f5       	brge	.+86     	; 0x4c5c <_Z18drawKeyboardScreeni+0x268>
    4c06:	84 34       	cpi	r24, 0x44	; 68
    4c08:	91 05       	cpc	r25, r1
    4c0a:	0c f0       	brlt	.+2      	; 0x4c0e <_Z18drawKeyboardScreeni+0x21a>
    4c0c:	96 c0       	rjmp	.+300    	; 0x4d3a <_Z18drawKeyboardScreeni+0x346>
    4c0e:	23 e4       	ldi	r18, 0x43	; 67
    4c10:	30 e0       	ldi	r19, 0x00	; 0
    4c12:	4b e4       	ldi	r20, 0x4B	; 75
    4c14:	50 e0       	ldi	r21, 0x00	; 0
    4c16:	61 e1       	ldi	r22, 0x11	; 17
    4c18:	70 e0       	ldi	r23, 0x00	; 0
    4c1a:	80 e0       	ldi	r24, 0x00	; 0
    4c1c:	90 e0       	ldi	r25, 0x00	; 0
    4c1e:	a8 de       	rcall	.-688    	; 0x4970 <_Z9waitForItiiii>
    4c20:	20 e0       	ldi	r18, 0x00	; 0
    4c22:	40 e0       	ldi	r20, 0x00	; 0
    4c24:	6f ef       	ldi	r22, 0xFF	; 255
    4c26:	84 e0       	ldi	r24, 0x04	; 4
    4c28:	9b e0       	ldi	r25, 0x0B	; 11
    4c2a:	0e 94 97 4d 	call	0x9b2e	; 0x9b2e <_ZN4UTFT8setColorEhhh>
    4c2e:	03 e4       	ldi	r16, 0x43	; 67
    4c30:	10 e0       	ldi	r17, 0x00	; 0
    4c32:	2b e4       	ldi	r18, 0x4B	; 75
    4c34:	30 e0       	ldi	r19, 0x00	; 0
    4c36:	41 e1       	ldi	r20, 0x11	; 17
    4c38:	50 e0       	ldi	r21, 0x00	; 0
    4c3a:	60 e0       	ldi	r22, 0x00	; 0
    4c3c:	70 e0       	ldi	r23, 0x00	; 0
    4c3e:	84 e0       	ldi	r24, 0x04	; 4
    4c40:	9b e0       	ldi	r25, 0x0B	; 11
    4c42:	0e 94 f9 4f 	call	0x9ff2	; 0x9ff2 <_ZN4UTFT13drawRoundRectEiiii>
    4c46:	c4 36       	cpi	r28, 0x64	; 100
    4c48:	d1 05       	cpc	r29, r1
    4c4a:	d4 f5       	brge	.+116    	; 0x4cc0 <_Z18drawKeyboardScreeni+0x2cc>
    4c4c:	dc 9e       	mul	r13, r28
    4c4e:	c0 01       	movw	r24, r0
    4c50:	dd 9e       	mul	r13, r29
    4c52:	90 0d       	add	r25, r0
    4c54:	11 24       	eor	r1, r1
    4c56:	ec 01       	movw	r28, r24
    4c58:	21 96       	adiw	r28, 0x01	; 1
    4c5a:	32 c0       	rjmp	.+100    	; 0x4cc0 <_Z18drawKeyboardScreeni+0x2cc>
    4c5c:	20 35       	cpi	r18, 0x50	; 80
    4c5e:	31 05       	cpc	r19, r1
    4c60:	0c f4       	brge	.+2      	; 0x4c64 <_Z18drawKeyboardScreeni+0x270>
    4c62:	6b c0       	rjmp	.+214    	; 0x4d3a <_Z18drawKeyboardScreeni+0x346>
    4c64:	2c 39       	cpi	r18, 0x9C	; 156
    4c66:	31 05       	cpc	r19, r1
    4c68:	0c f0       	brlt	.+2      	; 0x4c6c <_Z18drawKeyboardScreeni+0x278>
    4c6a:	75 c0       	rjmp	.+234    	; 0x4d56 <_Z18drawKeyboardScreeni+0x362>
    4c6c:	84 34       	cpi	r24, 0x44	; 68
    4c6e:	91 05       	cpc	r25, r1
    4c70:	0c f0       	brlt	.+2      	; 0x4c74 <_Z18drawKeyboardScreeni+0x280>
    4c72:	7c c0       	rjmp	.+248    	; 0x4d6c <_Z18drawKeyboardScreeni+0x378>
    4c74:	23 e4       	ldi	r18, 0x43	; 67
    4c76:	30 e0       	ldi	r19, 0x00	; 0
    4c78:	4b e9       	ldi	r20, 0x9B	; 155
    4c7a:	50 e0       	ldi	r21, 0x00	; 0
    4c7c:	61 e1       	ldi	r22, 0x11	; 17
    4c7e:	70 e0       	ldi	r23, 0x00	; 0
    4c80:	80 e5       	ldi	r24, 0x50	; 80
    4c82:	90 e0       	ldi	r25, 0x00	; 0
    4c84:	75 de       	rcall	.-790    	; 0x4970 <_Z9waitForItiiii>
    4c86:	20 e0       	ldi	r18, 0x00	; 0
    4c88:	40 e0       	ldi	r20, 0x00	; 0
    4c8a:	6f ef       	ldi	r22, 0xFF	; 255
    4c8c:	84 e0       	ldi	r24, 0x04	; 4
    4c8e:	9b e0       	ldi	r25, 0x0B	; 11
    4c90:	0e 94 97 4d 	call	0x9b2e	; 0x9b2e <_ZN4UTFT8setColorEhhh>
    4c94:	03 e4       	ldi	r16, 0x43	; 67
    4c96:	10 e0       	ldi	r17, 0x00	; 0
    4c98:	2b e9       	ldi	r18, 0x9B	; 155
    4c9a:	30 e0       	ldi	r19, 0x00	; 0
    4c9c:	41 e1       	ldi	r20, 0x11	; 17
    4c9e:	50 e0       	ldi	r21, 0x00	; 0
    4ca0:	60 e5       	ldi	r22, 0x50	; 80
    4ca2:	70 e0       	ldi	r23, 0x00	; 0
    4ca4:	84 e0       	ldi	r24, 0x04	; 4
    4ca6:	9b e0       	ldi	r25, 0x0B	; 11
    4ca8:	0e 94 f9 4f 	call	0x9ff2	; 0x9ff2 <_ZN4UTFT13drawRoundRectEiiii>
    4cac:	c4 36       	cpi	r28, 0x64	; 100
    4cae:	d1 05       	cpc	r29, r1
    4cb0:	3c f4       	brge	.+14     	; 0x4cc0 <_Z18drawKeyboardScreeni+0x2cc>
    4cb2:	dc 9e       	mul	r13, r28
    4cb4:	c0 01       	movw	r24, r0
    4cb6:	dd 9e       	mul	r13, r29
    4cb8:	90 0d       	add	r25, r0
    4cba:	11 24       	eor	r1, r1
    4cbc:	ec 01       	movw	r28, r24
    4cbe:	22 96       	adiw	r28, 0x02	; 2
    4cc0:	20 e0       	ldi	r18, 0x00	; 0
    4cc2:	40 e0       	ldi	r20, 0x00	; 0
    4cc4:	60 e0       	ldi	r22, 0x00	; 0
    4cc6:	84 e0       	ldi	r24, 0x04	; 4
    4cc8:	9b e0       	ldi	r25, 0x0B	; 11
    4cca:	0e 94 97 4d 	call	0x9b2e	; 0x9b2e <_ZN4UTFT8setColorEhhh>
    4cce:	00 e1       	ldi	r16, 0x10	; 16
    4cd0:	10 e0       	ldi	r17, 0x00	; 0
    4cd2:	2c e3       	ldi	r18, 0x3C	; 60
    4cd4:	30 e0       	ldi	r19, 0x00	; 0
    4cd6:	40 e0       	ldi	r20, 0x00	; 0
    4cd8:	50 e0       	ldi	r21, 0x00	; 0
    4cda:	60 e0       	ldi	r22, 0x00	; 0
    4cdc:	70 e0       	ldi	r23, 0x00	; 0
    4cde:	84 e0       	ldi	r24, 0x04	; 4
    4ce0:	9b e0       	ldi	r25, 0x0B	; 11
    4ce2:	0e 94 ab 50 	call	0xa156	; 0xa156 <_ZN4UTFT8fillRectEiiii>
    4ce6:	20 e0       	ldi	r18, 0x00	; 0
    4ce8:	4f ef       	ldi	r20, 0xFF	; 255
    4cea:	60 e0       	ldi	r22, 0x00	; 0
    4cec:	84 e0       	ldi	r24, 0x04	; 4
    4cee:	9b e0       	ldi	r25, 0x0B	; 11
    4cf0:	0e 94 97 4d 	call	0x9b2e	; 0x9b2e <_ZN4UTFT8setColorEhhh>
    4cf4:	6a e0       	ldi	r22, 0x0A	; 10
    4cf6:	72 e2       	ldi	r23, 0x22	; 34
    4cf8:	84 e0       	ldi	r24, 0x04	; 4
    4cfa:	9b e0       	ldi	r25, 0x0B	; 11
    4cfc:	0e 94 f1 57 	call	0xafe2	; 0xafe2 <_ZN4UTFT7setFontEPh>
    4d00:	20 e0       	ldi	r18, 0x00	; 0
    4d02:	40 e0       	ldi	r20, 0x00	; 0
    4d04:	60 e0       	ldi	r22, 0x00	; 0
    4d06:	84 e0       	ldi	r24, 0x04	; 4
    4d08:	9b e0       	ldi	r25, 0x0B	; 11
    4d0a:	0e 94 ab 4d 	call	0x9b56	; 0x9b56 <_ZN4UTFT12setBackColorEhhh>
    4d0e:	80 e2       	ldi	r24, 0x20	; 32
    4d10:	c8 2e       	mov	r12, r24
    4d12:	e1 2c       	mov	r14, r1
    4d14:	f1 2c       	mov	r15, r1
    4d16:	00 e0       	ldi	r16, 0x00	; 0
    4d18:	10 e0       	ldi	r17, 0x00	; 0
    4d1a:	20 e0       	ldi	r18, 0x00	; 0
    4d1c:	30 e0       	ldi	r19, 0x00	; 0
    4d1e:	ae 01       	movw	r20, r28
    4d20:	0d 2e       	mov	r0, r29
    4d22:	00 0c       	add	r0, r0
    4d24:	66 0b       	sbc	r22, r22
    4d26:	77 0b       	sbc	r23, r23
    4d28:	84 e0       	ldi	r24, 0x04	; 4
    4d2a:	9b e0       	ldi	r25, 0x0B	; 11
    4d2c:	0e 94 09 57 	call	0xae12	; 0xae12 <_ZN4UTFT9printNumIEliiic>
    4d30:	43 cf       	rjmp	.-378    	; 0x4bb8 <_Z18drawKeyboardScreeni+0x1c4>
    4d32:	20 3a       	cpi	r18, 0xA0	; 160
    4d34:	31 05       	cpc	r19, r1
    4d36:	0c f0       	brlt	.+2      	; 0x4d3a <_Z18drawKeyboardScreeni+0x346>
    4d38:	77 c0       	rjmp	.+238    	; 0x4e28 <_Z18drawKeyboardScreeni+0x434>
    4d3a:	20 3f       	cpi	r18, 0xF0	; 240
    4d3c:	31 05       	cpc	r19, r1
    4d3e:	b4 f0       	brlt	.+44     	; 0x4d6c <_Z18drawKeyboardScreeni+0x378>
    4d40:	81 31       	cpi	r24, 0x11	; 17
    4d42:	91 05       	cpc	r25, r1
    4d44:	ac f0       	brlt	.+42     	; 0x4d70 <_Z18drawKeyboardScreeni+0x37c>
    4d46:	2c 33       	cpi	r18, 0x3C	; 60
    4d48:	41 e0       	ldi	r20, 0x01	; 1
    4d4a:	34 07       	cpc	r19, r20
    4d4c:	8c f4       	brge	.+34     	; 0x4d70 <_Z18drawKeyboardScreeni+0x37c>
    4d4e:	84 34       	cpi	r24, 0x44	; 68
    4d50:	91 05       	cpc	r25, r1
    4d52:	d4 f0       	brlt	.+52     	; 0x4d88 <_Z18drawKeyboardScreeni+0x394>
    4d54:	0b c0       	rjmp	.+22     	; 0x4d6c <_Z18drawKeyboardScreeni+0x378>
    4d56:	20 3a       	cpi	r18, 0xA0	; 160
    4d58:	31 05       	cpc	r19, r1
    4d5a:	44 f0       	brlt	.+16     	; 0x4d6c <_Z18drawKeyboardScreeni+0x378>
    4d5c:	2c 3e       	cpi	r18, 0xEC	; 236
    4d5e:	31 05       	cpc	r19, r1
    4d60:	0c f0       	brlt	.+2      	; 0x4d64 <_Z18drawKeyboardScreeni+0x370>
    4d62:	d0 c1       	rjmp	.+928    	; 0x5104 <_Z18drawKeyboardScreeni+0x710>
    4d64:	84 34       	cpi	r24, 0x44	; 68
    4d66:	91 05       	cpc	r25, r1
    4d68:	0c f4       	brge	.+2      	; 0x4d6c <_Z18drawKeyboardScreeni+0x378>
    4d6a:	a4 c1       	rjmp	.+840    	; 0x50b4 <_Z18drawKeyboardScreeni+0x6c0>
    4d6c:	37 fd       	sbrc	r19, 7
    4d6e:	78 c0       	rjmp	.+240    	; 0x4e60 <_Z18drawKeyboardScreeni+0x46c>
    4d70:	88 34       	cpi	r24, 0x48	; 72
    4d72:	91 05       	cpc	r25, r1
    4d74:	0c f4       	brge	.+2      	; 0x4d78 <_Z18drawKeyboardScreeni+0x384>
    4d76:	58 c0       	rjmp	.+176    	; 0x4e28 <_Z18drawKeyboardScreeni+0x434>
    4d78:	2c 34       	cpi	r18, 0x4C	; 76
    4d7a:	31 05       	cpc	r19, r1
    4d7c:	0c f0       	brlt	.+2      	; 0x4d80 <_Z18drawKeyboardScreeni+0x38c>
    4d7e:	65 c0       	rjmp	.+202    	; 0x4e4a <_Z18drawKeyboardScreeni+0x456>
    4d80:	8b 37       	cpi	r24, 0x7B	; 123
    4d82:	91 05       	cpc	r25, r1
    4d84:	4c f1       	brlt	.+82     	; 0x4dd8 <_Z18drawKeyboardScreeni+0x3e4>
    4d86:	6c c0       	rjmp	.+216    	; 0x4e60 <_Z18drawKeyboardScreeni+0x46c>
    4d88:	23 e4       	ldi	r18, 0x43	; 67
    4d8a:	30 e0       	ldi	r19, 0x00	; 0
    4d8c:	4b e3       	ldi	r20, 0x3B	; 59
    4d8e:	51 e0       	ldi	r21, 0x01	; 1
    4d90:	61 e1       	ldi	r22, 0x11	; 17
    4d92:	70 e0       	ldi	r23, 0x00	; 0
    4d94:	80 ef       	ldi	r24, 0xF0	; 240
    4d96:	90 e0       	ldi	r25, 0x00	; 0
    4d98:	eb dd       	rcall	.-1066   	; 0x4970 <_Z9waitForItiiii>
    4d9a:	20 e0       	ldi	r18, 0x00	; 0
    4d9c:	40 e0       	ldi	r20, 0x00	; 0
    4d9e:	6f ef       	ldi	r22, 0xFF	; 255
    4da0:	84 e0       	ldi	r24, 0x04	; 4
    4da2:	9b e0       	ldi	r25, 0x0B	; 11
    4da4:	0e 94 97 4d 	call	0x9b2e	; 0x9b2e <_ZN4UTFT8setColorEhhh>
    4da8:	03 e4       	ldi	r16, 0x43	; 67
    4daa:	10 e0       	ldi	r17, 0x00	; 0
    4dac:	2b e3       	ldi	r18, 0x3B	; 59
    4dae:	31 e0       	ldi	r19, 0x01	; 1
    4db0:	41 e1       	ldi	r20, 0x11	; 17
    4db2:	50 e0       	ldi	r21, 0x00	; 0
    4db4:	60 ef       	ldi	r22, 0xF0	; 240
    4db6:	70 e0       	ldi	r23, 0x00	; 0
    4db8:	84 e0       	ldi	r24, 0x04	; 4
    4dba:	9b e0       	ldi	r25, 0x0B	; 11
    4dbc:	0e 94 f9 4f 	call	0x9ff2	; 0x9ff2 <_ZN4UTFT13drawRoundRectEiiii>
    4dc0:	c4 36       	cpi	r28, 0x64	; 100
    4dc2:	d1 05       	cpc	r29, r1
    4dc4:	0c f0       	brlt	.+2      	; 0x4dc8 <_Z18drawKeyboardScreeni+0x3d4>
    4dc6:	7c cf       	rjmp	.-264    	; 0x4cc0 <_Z18drawKeyboardScreeni+0x2cc>
    4dc8:	dc 9e       	mul	r13, r28
    4dca:	c0 01       	movw	r24, r0
    4dcc:	dd 9e       	mul	r13, r29
    4dce:	90 0d       	add	r25, r0
    4dd0:	11 24       	eor	r1, r1
    4dd2:	ec 01       	movw	r28, r24
    4dd4:	24 96       	adiw	r28, 0x04	; 4
    4dd6:	74 cf       	rjmp	.-280    	; 0x4cc0 <_Z18drawKeyboardScreeni+0x2cc>
    4dd8:	2a e7       	ldi	r18, 0x7A	; 122
    4dda:	30 e0       	ldi	r19, 0x00	; 0
    4ddc:	4b e4       	ldi	r20, 0x4B	; 75
    4dde:	50 e0       	ldi	r21, 0x00	; 0
    4de0:	68 e4       	ldi	r22, 0x48	; 72
    4de2:	70 e0       	ldi	r23, 0x00	; 0
    4de4:	80 e0       	ldi	r24, 0x00	; 0
    4de6:	90 e0       	ldi	r25, 0x00	; 0
    4de8:	c3 dd       	rcall	.-1146   	; 0x4970 <_Z9waitForItiiii>
    4dea:	20 e0       	ldi	r18, 0x00	; 0
    4dec:	40 e0       	ldi	r20, 0x00	; 0
    4dee:	6f ef       	ldi	r22, 0xFF	; 255
    4df0:	84 e0       	ldi	r24, 0x04	; 4
    4df2:	9b e0       	ldi	r25, 0x0B	; 11
    4df4:	0e 94 97 4d 	call	0x9b2e	; 0x9b2e <_ZN4UTFT8setColorEhhh>
    4df8:	0a e7       	ldi	r16, 0x7A	; 122
    4dfa:	10 e0       	ldi	r17, 0x00	; 0
    4dfc:	2b e4       	ldi	r18, 0x4B	; 75
    4dfe:	30 e0       	ldi	r19, 0x00	; 0
    4e00:	48 e4       	ldi	r20, 0x48	; 72
    4e02:	50 e0       	ldi	r21, 0x00	; 0
    4e04:	60 e0       	ldi	r22, 0x00	; 0
    4e06:	70 e0       	ldi	r23, 0x00	; 0
    4e08:	84 e0       	ldi	r24, 0x04	; 4
    4e0a:	9b e0       	ldi	r25, 0x0B	; 11
    4e0c:	0e 94 f9 4f 	call	0x9ff2	; 0x9ff2 <_ZN4UTFT13drawRoundRectEiiii>
    4e10:	c4 36       	cpi	r28, 0x64	; 100
    4e12:	d1 05       	cpc	r29, r1
    4e14:	0c f0       	brlt	.+2      	; 0x4e18 <_Z18drawKeyboardScreeni+0x424>
    4e16:	54 cf       	rjmp	.-344    	; 0x4cc0 <_Z18drawKeyboardScreeni+0x2cc>
    4e18:	dc 9e       	mul	r13, r28
    4e1a:	c0 01       	movw	r24, r0
    4e1c:	dd 9e       	mul	r13, r29
    4e1e:	90 0d       	add	r25, r0
    4e20:	11 24       	eor	r1, r1
    4e22:	ec 01       	movw	r28, r24
    4e24:	25 96       	adiw	r28, 0x05	; 5
    4e26:	4c cf       	rjmp	.-360    	; 0x4cc0 <_Z18drawKeyboardScreeni+0x2cc>
    4e28:	20 3a       	cpi	r18, 0xA0	; 160
    4e2a:	31 05       	cpc	r19, r1
    4e2c:	cc f0       	brlt	.+50     	; 0x4e60 <_Z18drawKeyboardScreeni+0x46c>
    4e2e:	20 3f       	cpi	r18, 0xF0	; 240
    4e30:	31 05       	cpc	r19, r1
    4e32:	d4 f4       	brge	.+52     	; 0x4e68 <_Z18drawKeyboardScreeni+0x474>
    4e34:	8f 37       	cpi	r24, 0x7F	; 127
    4e36:	91 05       	cpc	r25, r1
    4e38:	0c f4       	brge	.+2      	; 0x4e3c <_Z18drawKeyboardScreeni+0x448>
    4e3a:	4a c0       	rjmp	.+148    	; 0x4ed0 <_Z18drawKeyboardScreeni+0x4dc>
    4e3c:	2c 3e       	cpi	r18, 0xEC	; 236
    4e3e:	31 05       	cpc	r19, r1
    4e40:	bc f4       	brge	.+46     	; 0x4e70 <_Z18drawKeyboardScreeni+0x47c>
    4e42:	82 3b       	cpi	r24, 0xB2	; 178
    4e44:	91 05       	cpc	r25, r1
    4e46:	e4 f0       	brlt	.+56     	; 0x4e80 <_Z18drawKeyboardScreeni+0x48c>
    4e48:	f4 c1       	rjmp	.+1000   	; 0x5232 <_Z18drawKeyboardScreeni+0x83e>
    4e4a:	20 35       	cpi	r18, 0x50	; 80
    4e4c:	31 05       	cpc	r19, r1
    4e4e:	44 f0       	brlt	.+16     	; 0x4e60 <_Z18drawKeyboardScreeni+0x46c>
    4e50:	2c 39       	cpi	r18, 0x9C	; 156
    4e52:	31 05       	cpc	r19, r1
    4e54:	0c f0       	brlt	.+2      	; 0x4e58 <_Z18drawKeyboardScreeni+0x464>
    4e56:	83 c1       	rjmp	.+774    	; 0x515e <_Z18drawKeyboardScreeni+0x76a>
    4e58:	8b 37       	cpi	r24, 0x7B	; 123
    4e5a:	91 05       	cpc	r25, r1
    4e5c:	0c f4       	brge	.+2      	; 0x4e60 <_Z18drawKeyboardScreeni+0x46c>
    4e5e:	57 c1       	rjmp	.+686    	; 0x510e <_Z18drawKeyboardScreeni+0x71a>
    4e60:	20 35       	cpi	r18, 0x50	; 80
    4e62:	31 05       	cpc	r19, r1
    4e64:	0c f4       	brge	.+2      	; 0x4e68 <_Z18drawKeyboardScreeni+0x474>
    4e66:	63 c0       	rjmp	.+198    	; 0x4f2e <_Z18drawKeyboardScreeni+0x53a>
    4e68:	8f 37       	cpi	r24, 0x7F	; 127
    4e6a:	91 05       	cpc	r25, r1
    4e6c:	0c f4       	brge	.+2      	; 0x4e70 <_Z18drawKeyboardScreeni+0x47c>
    4e6e:	6c c0       	rjmp	.+216    	; 0x4f48 <_Z18drawKeyboardScreeni+0x554>
    4e70:	2c 39       	cpi	r18, 0x9C	; 156
    4e72:	31 05       	cpc	r19, r1
    4e74:	0c f0       	brlt	.+2      	; 0x4e78 <_Z18drawKeyboardScreeni+0x484>
    4e76:	57 c0       	rjmp	.+174    	; 0x4f26 <_Z18drawKeyboardScreeni+0x532>
    4e78:	82 3b       	cpi	r24, 0xB2	; 178
    4e7a:	91 05       	cpc	r25, r1
    4e7c:	6c f1       	brlt	.+90     	; 0x4ed8 <_Z18drawKeyboardScreeni+0x4e4>
    4e7e:	57 c0       	rjmp	.+174    	; 0x4f2e <_Z18drawKeyboardScreeni+0x53a>
    4e80:	21 eb       	ldi	r18, 0xB1	; 177
    4e82:	30 e0       	ldi	r19, 0x00	; 0
    4e84:	4b ee       	ldi	r20, 0xEB	; 235
    4e86:	50 e0       	ldi	r21, 0x00	; 0
    4e88:	6f e7       	ldi	r22, 0x7F	; 127
    4e8a:	70 e0       	ldi	r23, 0x00	; 0
    4e8c:	80 ea       	ldi	r24, 0xA0	; 160
    4e8e:	90 e0       	ldi	r25, 0x00	; 0
    4e90:	6f dd       	rcall	.-1314   	; 0x4970 <_Z9waitForItiiii>
    4e92:	20 e0       	ldi	r18, 0x00	; 0
    4e94:	40 e0       	ldi	r20, 0x00	; 0
    4e96:	6f ef       	ldi	r22, 0xFF	; 255
    4e98:	84 e0       	ldi	r24, 0x04	; 4
    4e9a:	9b e0       	ldi	r25, 0x0B	; 11
    4e9c:	0e 94 97 4d 	call	0x9b2e	; 0x9b2e <_ZN4UTFT8setColorEhhh>
    4ea0:	01 eb       	ldi	r16, 0xB1	; 177
    4ea2:	10 e0       	ldi	r17, 0x00	; 0
    4ea4:	2b ee       	ldi	r18, 0xEB	; 235
    4ea6:	30 e0       	ldi	r19, 0x00	; 0
    4ea8:	4f e7       	ldi	r20, 0x7F	; 127
    4eaa:	50 e0       	ldi	r21, 0x00	; 0
    4eac:	60 ea       	ldi	r22, 0xA0	; 160
    4eae:	70 e0       	ldi	r23, 0x00	; 0
    4eb0:	84 e0       	ldi	r24, 0x04	; 4
    4eb2:	9b e0       	ldi	r25, 0x0B	; 11
    4eb4:	0e 94 f9 4f 	call	0x9ff2	; 0x9ff2 <_ZN4UTFT13drawRoundRectEiiii>
    4eb8:	c4 36       	cpi	r28, 0x64	; 100
    4eba:	d1 05       	cpc	r29, r1
    4ebc:	0c f0       	brlt	.+2      	; 0x4ec0 <_Z18drawKeyboardScreeni+0x4cc>
    4ebe:	00 cf       	rjmp	.-512    	; 0x4cc0 <_Z18drawKeyboardScreeni+0x2cc>
    4ec0:	dc 9e       	mul	r13, r28
    4ec2:	c0 01       	movw	r24, r0
    4ec4:	dd 9e       	mul	r13, r29
    4ec6:	90 0d       	add	r25, r0
    4ec8:	11 24       	eor	r1, r1
    4eca:	ec 01       	movw	r28, r24
    4ecc:	29 96       	adiw	r28, 0x09	; 9
    4ece:	f8 ce       	rjmp	.-528    	; 0x4cc0 <_Z18drawKeyboardScreeni+0x2cc>
    4ed0:	20 3f       	cpi	r18, 0xF0	; 240
    4ed2:	31 05       	cpc	r19, r1
    4ed4:	cc f5       	brge	.+114    	; 0x4f48 <_Z18drawKeyboardScreeni+0x554>
    4ed6:	2b c0       	rjmp	.+86     	; 0x4f2e <_Z18drawKeyboardScreeni+0x53a>
    4ed8:	21 eb       	ldi	r18, 0xB1	; 177
    4eda:	30 e0       	ldi	r19, 0x00	; 0
    4edc:	4b e9       	ldi	r20, 0x9B	; 155
    4ede:	50 e0       	ldi	r21, 0x00	; 0
    4ee0:	6f e7       	ldi	r22, 0x7F	; 127
    4ee2:	70 e0       	ldi	r23, 0x00	; 0
    4ee4:	80 e5       	ldi	r24, 0x50	; 80
    4ee6:	90 e0       	ldi	r25, 0x00	; 0
    4ee8:	43 dd       	rcall	.-1402   	; 0x4970 <_Z9waitForItiiii>
    4eea:	20 e0       	ldi	r18, 0x00	; 0
    4eec:	40 e0       	ldi	r20, 0x00	; 0
    4eee:	6f ef       	ldi	r22, 0xFF	; 255
    4ef0:	84 e0       	ldi	r24, 0x04	; 4
    4ef2:	9b e0       	ldi	r25, 0x0B	; 11
    4ef4:	0e 94 97 4d 	call	0x9b2e	; 0x9b2e <_ZN4UTFT8setColorEhhh>
    4ef8:	01 eb       	ldi	r16, 0xB1	; 177
    4efa:	10 e0       	ldi	r17, 0x00	; 0
    4efc:	2b e9       	ldi	r18, 0x9B	; 155
    4efe:	30 e0       	ldi	r19, 0x00	; 0
    4f00:	4f e7       	ldi	r20, 0x7F	; 127
    4f02:	50 e0       	ldi	r21, 0x00	; 0
    4f04:	60 e5       	ldi	r22, 0x50	; 80
    4f06:	70 e0       	ldi	r23, 0x00	; 0
    4f08:	84 e0       	ldi	r24, 0x04	; 4
    4f0a:	9b e0       	ldi	r25, 0x0B	; 11
    4f0c:	0e 94 f9 4f 	call	0x9ff2	; 0x9ff2 <_ZN4UTFT13drawRoundRectEiiii>
    4f10:	c4 36       	cpi	r28, 0x64	; 100
    4f12:	d1 05       	cpc	r29, r1
    4f14:	0c f0       	brlt	.+2      	; 0x4f18 <_Z18drawKeyboardScreeni+0x524>
    4f16:	d4 ce       	rjmp	.-600    	; 0x4cc0 <_Z18drawKeyboardScreeni+0x2cc>
    4f18:	ce 01       	movw	r24, r28
    4f1a:	d8 9e       	mul	r13, r24
    4f1c:	e0 01       	movw	r28, r0
    4f1e:	d9 9e       	mul	r13, r25
    4f20:	d0 0d       	add	r29, r0
    4f22:	11 24       	eor	r1, r1
    4f24:	cd ce       	rjmp	.-614    	; 0x4cc0 <_Z18drawKeyboardScreeni+0x2cc>
    4f26:	20 3f       	cpi	r18, 0xF0	; 240
    4f28:	31 05       	cpc	r19, r1
    4f2a:	0c f0       	brlt	.+2      	; 0x4f2e <_Z18drawKeyboardScreeni+0x53a>
    4f2c:	9d c0       	rjmp	.+314    	; 0x5068 <_Z18drawKeyboardScreeni+0x674>
    4f2e:	37 fd       	sbrc	r19, 7
    4f30:	c7 ce       	rjmp	.-626    	; 0x4cc0 <_Z18drawKeyboardScreeni+0x2cc>
    4f32:	8f 37       	cpi	r24, 0x7F	; 127
    4f34:	91 05       	cpc	r25, r1
    4f36:	0c f4       	brge	.+2      	; 0x4f3a <_Z18drawKeyboardScreeni+0x546>
    4f38:	c3 ce       	rjmp	.-634    	; 0x4cc0 <_Z18drawKeyboardScreeni+0x2cc>
    4f3a:	2c 34       	cpi	r18, 0x4C	; 76
    4f3c:	31 05       	cpc	r19, r1
    4f3e:	34 f4       	brge	.+12     	; 0x4f4c <_Z18drawKeyboardScreeni+0x558>
    4f40:	82 3b       	cpi	r24, 0xB2	; 178
    4f42:	91 05       	cpc	r25, r1
    4f44:	44 f1       	brlt	.+80     	; 0x4f96 <_Z18drawKeyboardScreeni+0x5a2>
    4f46:	02 c0       	rjmp	.+4      	; 0x4f4c <_Z18drawKeyboardScreeni+0x558>
    4f48:	37 fd       	sbrc	r19, 7
    4f4a:	ba ce       	rjmp	.-652    	; 0x4cc0 <_Z18drawKeyboardScreeni+0x2cc>
    4f4c:	86 3b       	cpi	r24, 0xB6	; 182
    4f4e:	91 05       	cpc	r25, r1
    4f50:	0c f4       	brge	.+2      	; 0x4f54 <_Z18drawKeyboardScreeni+0x560>
    4f52:	b6 ce       	rjmp	.-660    	; 0x4cc0 <_Z18drawKeyboardScreeni+0x2cc>
    4f54:	2c 39       	cpi	r18, 0x9C	; 156
    4f56:	31 05       	cpc	r19, r1
    4f58:	0c f0       	brlt	.+2      	; 0x4f5c <_Z18drawKeyboardScreeni+0x568>
    4f5a:	82 c0       	rjmp	.+260    	; 0x5060 <_Z18drawKeyboardScreeni+0x66c>
    4f5c:	89 3e       	cpi	r24, 0xE9	; 233
    4f5e:	91 05       	cpc	r25, r1
    4f60:	0c f0       	brlt	.+2      	; 0x4f64 <_Z18drawKeyboardScreeni+0x570>
    4f62:	ae ce       	rjmp	.-676    	; 0x4cc0 <_Z18drawKeyboardScreeni+0x2cc>
    4f64:	28 ee       	ldi	r18, 0xE8	; 232
    4f66:	30 e0       	ldi	r19, 0x00	; 0
    4f68:	4b e9       	ldi	r20, 0x9B	; 155
    4f6a:	50 e0       	ldi	r21, 0x00	; 0
    4f6c:	66 eb       	ldi	r22, 0xB6	; 182
    4f6e:	70 e0       	ldi	r23, 0x00	; 0
    4f70:	80 e0       	ldi	r24, 0x00	; 0
    4f72:	90 e0       	ldi	r25, 0x00	; 0
    4f74:	fd dc       	rcall	.-1542   	; 0x4970 <_Z9waitForItiiii>
    4f76:	20 e0       	ldi	r18, 0x00	; 0
    4f78:	40 e0       	ldi	r20, 0x00	; 0
    4f7a:	6f ef       	ldi	r22, 0xFF	; 255
    4f7c:	84 e0       	ldi	r24, 0x04	; 4
    4f7e:	9b e0       	ldi	r25, 0x0B	; 11
    4f80:	0e 94 97 4d 	call	0x9b2e	; 0x9b2e <_ZN4UTFT8setColorEhhh>
    4f84:	08 ee       	ldi	r16, 0xE8	; 232
    4f86:	10 e0       	ldi	r17, 0x00	; 0
    4f88:	2b e9       	ldi	r18, 0x9B	; 155
    4f8a:	30 e0       	ldi	r19, 0x00	; 0
    4f8c:	46 eb       	ldi	r20, 0xB6	; 182
    4f8e:	50 e0       	ldi	r21, 0x00	; 0
    4f90:	60 e0       	ldi	r22, 0x00	; 0
    4f92:	70 e0       	ldi	r23, 0x00	; 0
    4f94:	50 c0       	rjmp	.+160    	; 0x5036 <_Z18drawKeyboardScreeni+0x642>
    4f96:	21 eb       	ldi	r18, 0xB1	; 177
    4f98:	30 e0       	ldi	r19, 0x00	; 0
    4f9a:	4b e4       	ldi	r20, 0x4B	; 75
    4f9c:	50 e0       	ldi	r21, 0x00	; 0
    4f9e:	6f e7       	ldi	r22, 0x7F	; 127
    4fa0:	70 e0       	ldi	r23, 0x00	; 0
    4fa2:	80 e0       	ldi	r24, 0x00	; 0
    4fa4:	90 e0       	ldi	r25, 0x00	; 0
    4fa6:	e4 dc       	rcall	.-1592   	; 0x4970 <_Z9waitForItiiii>
    4fa8:	20 e0       	ldi	r18, 0x00	; 0
    4faa:	40 e0       	ldi	r20, 0x00	; 0
    4fac:	6f ef       	ldi	r22, 0xFF	; 255
    4fae:	84 e0       	ldi	r24, 0x04	; 4
    4fb0:	9b e0       	ldi	r25, 0x0B	; 11
    4fb2:	0e 94 97 4d 	call	0x9b2e	; 0x9b2e <_ZN4UTFT8setColorEhhh>
    4fb6:	01 eb       	ldi	r16, 0xB1	; 177
    4fb8:	10 e0       	ldi	r17, 0x00	; 0
    4fba:	2b e4       	ldi	r18, 0x4B	; 75
    4fbc:	30 e0       	ldi	r19, 0x00	; 0
    4fbe:	4f e7       	ldi	r20, 0x7F	; 127
    4fc0:	50 e0       	ldi	r21, 0x00	; 0
    4fc2:	60 e0       	ldi	r22, 0x00	; 0
    4fc4:	70 e0       	ldi	r23, 0x00	; 0
    4fc6:	84 e0       	ldi	r24, 0x04	; 4
    4fc8:	9b e0       	ldi	r25, 0x0B	; 11
    4fca:	0e 94 f9 4f 	call	0x9ff2	; 0x9ff2 <_ZN4UTFT13drawRoundRectEiiii>
    4fce:	1c 16       	cp	r1, r28
    4fd0:	1d 06       	cpc	r1, r29
    4fd2:	0c f0       	brlt	.+2      	; 0x4fd6 <_Z18drawKeyboardScreeni+0x5e2>
    4fd4:	75 ce       	rjmp	.-790    	; 0x4cc0 <_Z18drawKeyboardScreeni+0x2cc>
    4fd6:	ce 01       	movw	r24, r28
    4fd8:	b5 01       	movw	r22, r10
    4fda:	0e 94 c2 59 	call	0xb384	; 0xb384 <__divmodhi4>
    4fde:	eb 01       	movw	r28, r22
    4fe0:	6f ce       	rjmp	.-802    	; 0x4cc0 <_Z18drawKeyboardScreeni+0x2cc>
    4fe2:	37 ff       	sbrs	r19, 7
    4fe4:	aa cf       	rjmp	.-172    	; 0x4f3a <_Z18drawKeyboardScreeni+0x546>
    4fe6:	20 3a       	cpi	r18, 0xA0	; 160
    4fe8:	31 05       	cpc	r19, r1
    4fea:	0c f4       	brge	.+2      	; 0x4fee <_Z18drawKeyboardScreeni+0x5fa>
    4fec:	69 ce       	rjmp	.-814    	; 0x4cc0 <_Z18drawKeyboardScreeni+0x2cc>
    4fee:	86 3b       	cpi	r24, 0xB6	; 182
    4ff0:	91 05       	cpc	r25, r1
    4ff2:	0c f4       	brge	.+2      	; 0x4ff6 <_Z18drawKeyboardScreeni+0x602>
    4ff4:	65 ce       	rjmp	.-822    	; 0x4cc0 <_Z18drawKeyboardScreeni+0x2cc>
    4ff6:	20 34       	cpi	r18, 0x40	; 64
    4ff8:	31 40       	sbci	r19, 0x01	; 1
    4ffa:	0c f0       	brlt	.+2      	; 0x4ffe <_Z18drawKeyboardScreeni+0x60a>
    4ffc:	61 ce       	rjmp	.-830    	; 0x4cc0 <_Z18drawKeyboardScreeni+0x2cc>
    4ffe:	89 3e       	cpi	r24, 0xE9	; 233
    5000:	91 05       	cpc	r25, r1
    5002:	0c f0       	brlt	.+2      	; 0x5006 <_Z18drawKeyboardScreeni+0x612>
    5004:	5d ce       	rjmp	.-838    	; 0x4cc0 <_Z18drawKeyboardScreeni+0x2cc>
    5006:	28 ee       	ldi	r18, 0xE8	; 232
    5008:	30 e0       	ldi	r19, 0x00	; 0
    500a:	4f e3       	ldi	r20, 0x3F	; 63
    500c:	51 e0       	ldi	r21, 0x01	; 1
    500e:	66 eb       	ldi	r22, 0xB6	; 182
    5010:	70 e0       	ldi	r23, 0x00	; 0
    5012:	80 ea       	ldi	r24, 0xA0	; 160
    5014:	90 e0       	ldi	r25, 0x00	; 0
    5016:	ac dc       	rcall	.-1704   	; 0x4970 <_Z9waitForItiiii>
    5018:	20 e0       	ldi	r18, 0x00	; 0
    501a:	40 e0       	ldi	r20, 0x00	; 0
    501c:	6f ef       	ldi	r22, 0xFF	; 255
    501e:	84 e0       	ldi	r24, 0x04	; 4
    5020:	9b e0       	ldi	r25, 0x0B	; 11
    5022:	0e 94 97 4d 	call	0x9b2e	; 0x9b2e <_ZN4UTFT8setColorEhhh>
    5026:	08 ee       	ldi	r16, 0xE8	; 232
    5028:	10 e0       	ldi	r17, 0x00	; 0
    502a:	2f e3       	ldi	r18, 0x3F	; 63
    502c:	31 e0       	ldi	r19, 0x01	; 1
    502e:	46 eb       	ldi	r20, 0xB6	; 182
    5030:	50 e0       	ldi	r21, 0x00	; 0
    5032:	60 ea       	ldi	r22, 0xA0	; 160
    5034:	70 e0       	ldi	r23, 0x00	; 0
    5036:	84 e0       	ldi	r24, 0x04	; 4
    5038:	9b e0       	ldi	r25, 0x0B	; 11
    503a:	0e 94 f9 4f 	call	0x9ff2	; 0x9ff2 <_ZN4UTFT13drawRoundRectEiiii>
    503e:	84 e0       	ldi	r24, 0x04	; 4
    5040:	9b e0       	ldi	r25, 0x0B	; 11
    5042:	0e 94 fd 4c 	call	0x99fa	; 0x99fa <_ZN4UTFT6clrScrEv>
    5046:	7c d8       	rcall	.-3848   	; 0x4140 <_Z13DrawInterfacev>
    5048:	ce 01       	movw	r24, r28
    504a:	df 91       	pop	r29
    504c:	cf 91       	pop	r28
    504e:	1f 91       	pop	r17
    5050:	0f 91       	pop	r16
    5052:	ff 90       	pop	r15
    5054:	ef 90       	pop	r14
    5056:	df 90       	pop	r13
    5058:	cf 90       	pop	r12
    505a:	bf 90       	pop	r11
    505c:	af 90       	pop	r10
    505e:	08 95       	ret
    5060:	20 3a       	cpi	r18, 0xA0	; 160
    5062:	31 05       	cpc	r19, r1
    5064:	44 f6       	brge	.-112    	; 0x4ff6 <_Z18drawKeyboardScreeni+0x602>
    5066:	2c ce       	rjmp	.-936    	; 0x4cc0 <_Z18drawKeyboardScreeni+0x2cc>
    5068:	2c 33       	cpi	r18, 0x3C	; 60
    506a:	41 e0       	ldi	r20, 0x01	; 1
    506c:	34 07       	cpc	r19, r20
    506e:	0c f0       	brlt	.+2      	; 0x5072 <_Z18drawKeyboardScreeni+0x67e>
    5070:	6d cf       	rjmp	.-294    	; 0x4f4c <_Z18drawKeyboardScreeni+0x558>
    5072:	82 3b       	cpi	r24, 0xB2	; 178
    5074:	91 05       	cpc	r25, r1
    5076:	0c f0       	brlt	.+2      	; 0x507a <_Z18drawKeyboardScreeni+0x686>
    5078:	b4 cf       	rjmp	.-152    	; 0x4fe2 <_Z18drawKeyboardScreeni+0x5ee>
    507a:	21 eb       	ldi	r18, 0xB1	; 177
    507c:	30 e0       	ldi	r19, 0x00	; 0
    507e:	4b e3       	ldi	r20, 0x3B	; 59
    5080:	51 e0       	ldi	r21, 0x01	; 1
    5082:	6f e7       	ldi	r22, 0x7F	; 127
    5084:	70 e0       	ldi	r23, 0x00	; 0
    5086:	80 ef       	ldi	r24, 0xF0	; 240
    5088:	90 e0       	ldi	r25, 0x00	; 0
    508a:	72 dc       	rcall	.-1820   	; 0x4970 <_Z9waitForItiiii>
    508c:	20 e0       	ldi	r18, 0x00	; 0
    508e:	40 e0       	ldi	r20, 0x00	; 0
    5090:	6f ef       	ldi	r22, 0xFF	; 255
    5092:	84 e0       	ldi	r24, 0x04	; 4
    5094:	9b e0       	ldi	r25, 0x0B	; 11
    5096:	0e 94 97 4d 	call	0x9b2e	; 0x9b2e <_ZN4UTFT8setColorEhhh>
    509a:	01 eb       	ldi	r16, 0xB1	; 177
    509c:	10 e0       	ldi	r17, 0x00	; 0
    509e:	2b e3       	ldi	r18, 0x3B	; 59
    50a0:	31 e0       	ldi	r19, 0x01	; 1
    50a2:	4f e7       	ldi	r20, 0x7F	; 127
    50a4:	50 e0       	ldi	r21, 0x00	; 0
    50a6:	60 ef       	ldi	r22, 0xF0	; 240
    50a8:	70 e0       	ldi	r23, 0x00	; 0
    50aa:	84 e0       	ldi	r24, 0x04	; 4
    50ac:	9b e0       	ldi	r25, 0x0B	; 11
    50ae:	0e 94 f9 4f 	call	0x9ff2	; 0x9ff2 <_ZN4UTFT13drawRoundRectEiiii>
    50b2:	06 ce       	rjmp	.-1012   	; 0x4cc0 <_Z18drawKeyboardScreeni+0x2cc>
    50b4:	23 e4       	ldi	r18, 0x43	; 67
    50b6:	30 e0       	ldi	r19, 0x00	; 0
    50b8:	4b ee       	ldi	r20, 0xEB	; 235
    50ba:	50 e0       	ldi	r21, 0x00	; 0
    50bc:	61 e1       	ldi	r22, 0x11	; 17
    50be:	70 e0       	ldi	r23, 0x00	; 0
    50c0:	80 ea       	ldi	r24, 0xA0	; 160
    50c2:	90 e0       	ldi	r25, 0x00	; 0
    50c4:	55 dc       	rcall	.-1878   	; 0x4970 <_Z9waitForItiiii>
    50c6:	20 e0       	ldi	r18, 0x00	; 0
    50c8:	40 e0       	ldi	r20, 0x00	; 0
    50ca:	6f ef       	ldi	r22, 0xFF	; 255
    50cc:	84 e0       	ldi	r24, 0x04	; 4
    50ce:	9b e0       	ldi	r25, 0x0B	; 11
    50d0:	0e 94 97 4d 	call	0x9b2e	; 0x9b2e <_ZN4UTFT8setColorEhhh>
    50d4:	03 e4       	ldi	r16, 0x43	; 67
    50d6:	10 e0       	ldi	r17, 0x00	; 0
    50d8:	2b ee       	ldi	r18, 0xEB	; 235
    50da:	30 e0       	ldi	r19, 0x00	; 0
    50dc:	41 e1       	ldi	r20, 0x11	; 17
    50de:	50 e0       	ldi	r21, 0x00	; 0
    50e0:	60 ea       	ldi	r22, 0xA0	; 160
    50e2:	70 e0       	ldi	r23, 0x00	; 0
    50e4:	84 e0       	ldi	r24, 0x04	; 4
    50e6:	9b e0       	ldi	r25, 0x0B	; 11
    50e8:	0e 94 f9 4f 	call	0x9ff2	; 0x9ff2 <_ZN4UTFT13drawRoundRectEiiii>
    50ec:	c4 36       	cpi	r28, 0x64	; 100
    50ee:	d1 05       	cpc	r29, r1
    50f0:	0c f0       	brlt	.+2      	; 0x50f4 <_Z18drawKeyboardScreeni+0x700>
    50f2:	e6 cd       	rjmp	.-1076   	; 0x4cc0 <_Z18drawKeyboardScreeni+0x2cc>
    50f4:	dc 9e       	mul	r13, r28
    50f6:	c0 01       	movw	r24, r0
    50f8:	dd 9e       	mul	r13, r29
    50fa:	90 0d       	add	r25, r0
    50fc:	11 24       	eor	r1, r1
    50fe:	ec 01       	movw	r28, r24
    5100:	23 96       	adiw	r28, 0x03	; 3
    5102:	de cd       	rjmp	.-1092   	; 0x4cc0 <_Z18drawKeyboardScreeni+0x2cc>
    5104:	20 3f       	cpi	r18, 0xF0	; 240
    5106:	31 05       	cpc	r19, r1
    5108:	0c f0       	brlt	.+2      	; 0x510c <_Z18drawKeyboardScreeni+0x718>
    510a:	1d ce       	rjmp	.-966    	; 0x4d46 <_Z18drawKeyboardScreeni+0x352>
    510c:	2f ce       	rjmp	.-930    	; 0x4d6c <_Z18drawKeyboardScreeni+0x378>
    510e:	2a e7       	ldi	r18, 0x7A	; 122
    5110:	30 e0       	ldi	r19, 0x00	; 0
    5112:	4b e9       	ldi	r20, 0x9B	; 155
    5114:	50 e0       	ldi	r21, 0x00	; 0
    5116:	68 e4       	ldi	r22, 0x48	; 72
    5118:	70 e0       	ldi	r23, 0x00	; 0
    511a:	80 e5       	ldi	r24, 0x50	; 80
    511c:	90 e0       	ldi	r25, 0x00	; 0
    511e:	28 dc       	rcall	.-1968   	; 0x4970 <_Z9waitForItiiii>
    5120:	20 e0       	ldi	r18, 0x00	; 0
    5122:	40 e0       	ldi	r20, 0x00	; 0
    5124:	6f ef       	ldi	r22, 0xFF	; 255
    5126:	84 e0       	ldi	r24, 0x04	; 4
    5128:	9b e0       	ldi	r25, 0x0B	; 11
    512a:	0e 94 97 4d 	call	0x9b2e	; 0x9b2e <_ZN4UTFT8setColorEhhh>
    512e:	0a e7       	ldi	r16, 0x7A	; 122
    5130:	10 e0       	ldi	r17, 0x00	; 0
    5132:	2b e9       	ldi	r18, 0x9B	; 155
    5134:	30 e0       	ldi	r19, 0x00	; 0
    5136:	48 e4       	ldi	r20, 0x48	; 72
    5138:	50 e0       	ldi	r21, 0x00	; 0
    513a:	60 e5       	ldi	r22, 0x50	; 80
    513c:	70 e0       	ldi	r23, 0x00	; 0
    513e:	84 e0       	ldi	r24, 0x04	; 4
    5140:	9b e0       	ldi	r25, 0x0B	; 11
    5142:	0e 94 f9 4f 	call	0x9ff2	; 0x9ff2 <_ZN4UTFT13drawRoundRectEiiii>
    5146:	c4 36       	cpi	r28, 0x64	; 100
    5148:	d1 05       	cpc	r29, r1
    514a:	0c f0       	brlt	.+2      	; 0x514e <_Z18drawKeyboardScreeni+0x75a>
    514c:	b9 cd       	rjmp	.-1166   	; 0x4cc0 <_Z18drawKeyboardScreeni+0x2cc>
    514e:	dc 9e       	mul	r13, r28
    5150:	c0 01       	movw	r24, r0
    5152:	dd 9e       	mul	r13, r29
    5154:	90 0d       	add	r25, r0
    5156:	11 24       	eor	r1, r1
    5158:	ec 01       	movw	r28, r24
    515a:	26 96       	adiw	r28, 0x06	; 6
    515c:	b1 cd       	rjmp	.-1182   	; 0x4cc0 <_Z18drawKeyboardScreeni+0x2cc>
    515e:	20 3a       	cpi	r18, 0xA0	; 160
    5160:	31 05       	cpc	r19, r1
    5162:	0c f4       	brge	.+2      	; 0x5166 <_Z18drawKeyboardScreeni+0x772>
    5164:	7d ce       	rjmp	.-774    	; 0x4e60 <_Z18drawKeyboardScreeni+0x46c>
    5166:	2c 3e       	cpi	r18, 0xEC	; 236
    5168:	31 05       	cpc	r19, r1
    516a:	5c f5       	brge	.+86     	; 0x51c2 <_Z18drawKeyboardScreeni+0x7ce>
    516c:	8b 37       	cpi	r24, 0x7B	; 123
    516e:	91 05       	cpc	r25, r1
    5170:	9c f5       	brge	.+102    	; 0x51d8 <_Z18drawKeyboardScreeni+0x7e4>
    5172:	2a e7       	ldi	r18, 0x7A	; 122
    5174:	30 e0       	ldi	r19, 0x00	; 0
    5176:	4b ee       	ldi	r20, 0xEB	; 235
    5178:	50 e0       	ldi	r21, 0x00	; 0
    517a:	68 e4       	ldi	r22, 0x48	; 72
    517c:	70 e0       	ldi	r23, 0x00	; 0
    517e:	80 ea       	ldi	r24, 0xA0	; 160
    5180:	90 e0       	ldi	r25, 0x00	; 0
    5182:	f6 db       	rcall	.-2068   	; 0x4970 <_Z9waitForItiiii>
    5184:	20 e0       	ldi	r18, 0x00	; 0
    5186:	40 e0       	ldi	r20, 0x00	; 0
    5188:	6f ef       	ldi	r22, 0xFF	; 255
    518a:	84 e0       	ldi	r24, 0x04	; 4
    518c:	9b e0       	ldi	r25, 0x0B	; 11
    518e:	0e 94 97 4d 	call	0x9b2e	; 0x9b2e <_ZN4UTFT8setColorEhhh>
    5192:	0a e7       	ldi	r16, 0x7A	; 122
    5194:	10 e0       	ldi	r17, 0x00	; 0
    5196:	2b ee       	ldi	r18, 0xEB	; 235
    5198:	30 e0       	ldi	r19, 0x00	; 0
    519a:	48 e4       	ldi	r20, 0x48	; 72
    519c:	50 e0       	ldi	r21, 0x00	; 0
    519e:	60 ea       	ldi	r22, 0xA0	; 160
    51a0:	70 e0       	ldi	r23, 0x00	; 0
    51a2:	84 e0       	ldi	r24, 0x04	; 4
    51a4:	9b e0       	ldi	r25, 0x0B	; 11
    51a6:	0e 94 f9 4f 	call	0x9ff2	; 0x9ff2 <_ZN4UTFT13drawRoundRectEiiii>
    51aa:	c4 36       	cpi	r28, 0x64	; 100
    51ac:	d1 05       	cpc	r29, r1
    51ae:	0c f0       	brlt	.+2      	; 0x51b2 <_Z18drawKeyboardScreeni+0x7be>
    51b0:	87 cd       	rjmp	.-1266   	; 0x4cc0 <_Z18drawKeyboardScreeni+0x2cc>
    51b2:	dc 9e       	mul	r13, r28
    51b4:	c0 01       	movw	r24, r0
    51b6:	dd 9e       	mul	r13, r29
    51b8:	90 0d       	add	r25, r0
    51ba:	11 24       	eor	r1, r1
    51bc:	ec 01       	movw	r28, r24
    51be:	27 96       	adiw	r28, 0x07	; 7
    51c0:	7f cd       	rjmp	.-1282   	; 0x4cc0 <_Z18drawKeyboardScreeni+0x2cc>
    51c2:	20 3f       	cpi	r18, 0xF0	; 240
    51c4:	31 05       	cpc	r19, r1
    51c6:	44 f0       	brlt	.+16     	; 0x51d8 <_Z18drawKeyboardScreeni+0x7e4>
    51c8:	2c 33       	cpi	r18, 0x3C	; 60
    51ca:	41 e0       	ldi	r20, 0x01	; 1
    51cc:	34 07       	cpc	r19, r20
    51ce:	0c f0       	brlt	.+2      	; 0x51d2 <_Z18drawKeyboardScreeni+0x7de>
    51d0:	31 ce       	rjmp	.-926    	; 0x4e34 <_Z18drawKeyboardScreeni+0x440>
    51d2:	8b 37       	cpi	r24, 0x7B	; 123
    51d4:	91 05       	cpc	r25, r1
    51d6:	2c f0       	brlt	.+10     	; 0x51e2 <_Z18drawKeyboardScreeni+0x7ee>
    51d8:	20 3a       	cpi	r18, 0xA0	; 160
    51da:	31 05       	cpc	r19, r1
    51dc:	0c f4       	brge	.+2      	; 0x51e0 <_Z18drawKeyboardScreeni+0x7ec>
    51de:	40 ce       	rjmp	.-896    	; 0x4e60 <_Z18drawKeyboardScreeni+0x46c>
    51e0:	29 ce       	rjmp	.-942    	; 0x4e34 <_Z18drawKeyboardScreeni+0x440>
    51e2:	2a e7       	ldi	r18, 0x7A	; 122
    51e4:	30 e0       	ldi	r19, 0x00	; 0
    51e6:	4b e3       	ldi	r20, 0x3B	; 59
    51e8:	51 e0       	ldi	r21, 0x01	; 1
    51ea:	68 e4       	ldi	r22, 0x48	; 72
    51ec:	70 e0       	ldi	r23, 0x00	; 0
    51ee:	80 ef       	ldi	r24, 0xF0	; 240
    51f0:	90 e0       	ldi	r25, 0x00	; 0
    51f2:	be db       	rcall	.-2180   	; 0x4970 <_Z9waitForItiiii>
    51f4:	20 e0       	ldi	r18, 0x00	; 0
    51f6:	40 e0       	ldi	r20, 0x00	; 0
    51f8:	6f ef       	ldi	r22, 0xFF	; 255
    51fa:	84 e0       	ldi	r24, 0x04	; 4
    51fc:	9b e0       	ldi	r25, 0x0B	; 11
    51fe:	0e 94 97 4d 	call	0x9b2e	; 0x9b2e <_ZN4UTFT8setColorEhhh>
    5202:	0a e7       	ldi	r16, 0x7A	; 122
    5204:	10 e0       	ldi	r17, 0x00	; 0
    5206:	2b e3       	ldi	r18, 0x3B	; 59
    5208:	31 e0       	ldi	r19, 0x01	; 1
    520a:	48 e4       	ldi	r20, 0x48	; 72
    520c:	50 e0       	ldi	r21, 0x00	; 0
    520e:	60 ef       	ldi	r22, 0xF0	; 240
    5210:	70 e0       	ldi	r23, 0x00	; 0
    5212:	84 e0       	ldi	r24, 0x04	; 4
    5214:	9b e0       	ldi	r25, 0x0B	; 11
    5216:	0e 94 f9 4f 	call	0x9ff2	; 0x9ff2 <_ZN4UTFT13drawRoundRectEiiii>
    521a:	c4 36       	cpi	r28, 0x64	; 100
    521c:	d1 05       	cpc	r29, r1
    521e:	0c f0       	brlt	.+2      	; 0x5222 <_Z18drawKeyboardScreeni+0x82e>
    5220:	4f cd       	rjmp	.-1378   	; 0x4cc0 <_Z18drawKeyboardScreeni+0x2cc>
    5222:	dc 9e       	mul	r13, r28
    5224:	c0 01       	movw	r24, r0
    5226:	dd 9e       	mul	r13, r29
    5228:	90 0d       	add	r25, r0
    522a:	11 24       	eor	r1, r1
    522c:	ec 01       	movw	r28, r24
    522e:	28 96       	adiw	r28, 0x08	; 8
    5230:	47 cd       	rjmp	.-1394   	; 0x4cc0 <_Z18drawKeyboardScreeni+0x2cc>
    5232:	20 35       	cpi	r18, 0x50	; 80
    5234:	31 05       	cpc	r19, r1
    5236:	0c f4       	brge	.+2      	; 0x523a <_Z18drawKeyboardScreeni+0x846>
    5238:	7a ce       	rjmp	.-780    	; 0x4f2e <_Z18drawKeyboardScreeni+0x53a>
    523a:	1a ce       	rjmp	.-972    	; 0x4e70 <_Z18drawKeyboardScreeni+0x47c>

0000523c <_Z14EntryTouchCalch>:
    523c:	cf 92       	push	r12
    523e:	df 92       	push	r13
    5240:	ef 92       	push	r14
    5242:	ff 92       	push	r15
    5244:	0f 93       	push	r16
    5246:	1f 93       	push	r17
    5248:	cf 93       	push	r28
    524a:	df 93       	push	r29
    524c:	00 d0       	rcall	.+0      	; 0x524e <_Z14EntryTouchCalch+0x12>
    524e:	00 d0       	rcall	.+0      	; 0x5250 <_Z14EntryTouchCalch+0x14>
    5250:	cd b7       	in	r28, 0x3d	; 61
    5252:	de b7       	in	r29, 0x3e	; 62
    5254:	08 2f       	mov	r16, r24
    5256:	10 e0       	ldi	r17, 0x00	; 0
    5258:	20 91 44 0a 	lds	r18, 0x0A44	; 0x800a44 <NumberOfMenuEntries>
    525c:	30 91 45 0a 	lds	r19, 0x0A45	; 0x800a45 <NumberOfMenuEntries+0x1>
    5260:	02 17       	cp	r16, r18
    5262:	13 07       	cpc	r17, r19
    5264:	0c f0       	brlt	.+2      	; 0x5268 <_Z14EntryTouchCalch+0x2c>
    5266:	22 c1       	rjmp	.+580    	; 0x54ac <_Z14EntryTouchCalch+0x270>
    5268:	e8 2e       	mov	r14, r24
    526a:	80 91 42 0a 	lds	r24, 0x0A42	; 0x800a42 <ScrollPosition>
    526e:	90 91 43 0a 	lds	r25, 0x0A43	; 0x800a43 <ScrollPosition+0x1>
    5272:	80 0f       	add	r24, r16
    5274:	91 1f       	adc	r25, r17
    5276:	28 e1       	ldi	r18, 0x18	; 24
    5278:	f2 2e       	mov	r15, r18
    527a:	f8 9e       	mul	r15, r24
    527c:	f0 01       	movw	r30, r0
    527e:	f9 9e       	mul	r15, r25
    5280:	f0 0d       	add	r31, r0
    5282:	11 24       	eor	r1, r1
    5284:	e4 57       	subi	r30, 0x74	; 116
    5286:	fa 4f       	sbci	r31, 0xFA	; 250
    5288:	80 81       	ld	r24, Z
    528a:	91 81       	ldd	r25, Z+1	; 0x01
    528c:	81 30       	cpi	r24, 0x01	; 1
    528e:	91 05       	cpc	r25, r1
    5290:	09 f0       	breq	.+2      	; 0x5294 <_Z14EntryTouchCalch+0x58>
    5292:	c4 c0       	rjmp	.+392    	; 0x541c <_Z14EntryTouchCalch+0x1e0>
    5294:	80 91 3e 0a 	lds	r24, 0x0A3E	; 0x800a3e <x>
    5298:	90 91 3f 0a 	lds	r25, 0x0A3F	; 0x800a3f <x+0x1>
    529c:	9c 01       	movw	r18, r24
    529e:	22 5d       	subi	r18, 0xD2	; 210
    52a0:	31 09       	sbc	r19, r1
    52a2:	24 31       	cpi	r18, 0x14	; 20
    52a4:	31 05       	cpc	r19, r1
    52a6:	18 f5       	brcc	.+70     	; 0x52ee <_Z14EntryTouchCalch+0xb2>
    52a8:	2f e2       	ldi	r18, 0x2F	; 47
    52aa:	02 9f       	mul	r16, r18
    52ac:	b0 01       	movw	r22, r0
    52ae:	11 24       	eor	r1, r1
    52b0:	9b 01       	movw	r18, r22
    52b2:	2c 5d       	subi	r18, 0xDC	; 220
    52b4:	3f 4f       	sbci	r19, 0xFF	; 255
    52b6:	64 5f       	subi	r22, 0xF4	; 244
    52b8:	7f 4f       	sbci	r23, 0xFF	; 255
    52ba:	45 ee       	ldi	r20, 0xE5	; 229
    52bc:	50 e0       	ldi	r21, 0x00	; 0
    52be:	82 ed       	ldi	r24, 0xD2	; 210
    52c0:	90 e0       	ldi	r25, 0x00	; 0
    52c2:	56 db       	rcall	.-2388   	; 0x4970 <_Z9waitForItiiii>
    52c4:	80 91 42 0a 	lds	r24, 0x0A42	; 0x800a42 <ScrollPosition>
    52c8:	90 91 43 0a 	lds	r25, 0x0A43	; 0x800a43 <ScrollPosition+0x1>
    52cc:	80 0f       	add	r24, r16
    52ce:	91 1f       	adc	r25, r17
    52d0:	f8 9e       	mul	r15, r24
    52d2:	b0 01       	movw	r22, r0
    52d4:	f9 9e       	mul	r15, r25
    52d6:	70 0d       	add	r23, r0
    52d8:	11 24       	eor	r1, r1
    52da:	fb 01       	movw	r30, r22
    52dc:	e4 57       	subi	r30, 0x74	; 116
    52de:	fa 4f       	sbci	r31, 0xFA	; 250
    52e0:	82 89       	ldd	r24, Z+18	; 0x12
    52e2:	93 89       	ldd	r25, Z+19	; 0x13
    52e4:	24 89       	ldd	r18, Z+20	; 0x14
    52e6:	35 89       	ldd	r19, Z+21	; 0x15
    52e8:	82 1b       	sub	r24, r18
    52ea:	93 0b       	sbc	r25, r19
    52ec:	29 c0       	rjmp	.+82     	; 0x5340 <_Z14EntryTouchCalch+0x104>
    52ee:	9c 01       	movw	r18, r24
    52f0:	24 50       	subi	r18, 0x04	; 4
    52f2:	31 40       	sbci	r19, 0x01	; 1
    52f4:	25 31       	cpi	r18, 0x15	; 21
    52f6:	31 05       	cpc	r19, r1
    52f8:	08 f0       	brcs	.+2      	; 0x52fc <_Z14EntryTouchCalch+0xc0>
    52fa:	58 c0       	rjmp	.+176    	; 0x53ac <_Z14EntryTouchCalch+0x170>
    52fc:	3f e2       	ldi	r19, 0x2F	; 47
    52fe:	03 9f       	mul	r16, r19
    5300:	b0 01       	movw	r22, r0
    5302:	11 24       	eor	r1, r1
    5304:	9b 01       	movw	r18, r22
    5306:	2c 5d       	subi	r18, 0xDC	; 220
    5308:	3f 4f       	sbci	r19, 0xFF	; 255
    530a:	64 5f       	subi	r22, 0xF4	; 244
    530c:	7f 4f       	sbci	r23, 0xFF	; 255
    530e:	48 e1       	ldi	r20, 0x18	; 24
    5310:	51 e0       	ldi	r21, 0x01	; 1
    5312:	84 e0       	ldi	r24, 0x04	; 4
    5314:	91 e0       	ldi	r25, 0x01	; 1
    5316:	2c db       	rcall	.-2472   	; 0x4970 <_Z9waitForItiiii>
    5318:	80 91 42 0a 	lds	r24, 0x0A42	; 0x800a42 <ScrollPosition>
    531c:	90 91 43 0a 	lds	r25, 0x0A43	; 0x800a43 <ScrollPosition+0x1>
    5320:	80 0f       	add	r24, r16
    5322:	91 1f       	adc	r25, r17
    5324:	f8 9e       	mul	r15, r24
    5326:	b0 01       	movw	r22, r0
    5328:	f9 9e       	mul	r15, r25
    532a:	70 0d       	add	r23, r0
    532c:	11 24       	eor	r1, r1
    532e:	fb 01       	movw	r30, r22
    5330:	e4 57       	subi	r30, 0x74	; 116
    5332:	fa 4f       	sbci	r31, 0xFA	; 250
    5334:	22 89       	ldd	r18, Z+18	; 0x12
    5336:	33 89       	ldd	r19, Z+19	; 0x13
    5338:	84 89       	ldd	r24, Z+20	; 0x14
    533a:	95 89       	ldd	r25, Z+21	; 0x15
    533c:	82 0f       	add	r24, r18
    533e:	93 1f       	adc	r25, r19
    5340:	93 8b       	std	Z+19, r25	; 0x13
    5342:	82 8b       	std	Z+18, r24	; 0x12
    5344:	68 56       	subi	r22, 0x68	; 104
    5346:	7a 4f       	sbci	r23, 0xFA	; 250
    5348:	ce 01       	movw	r24, r28
    534a:	01 96       	adiw	r24, 0x01	; 1
    534c:	0e 94 a5 3d 	call	0x7b4a	; 0x7b4a <_ZN6StringC1ERKS_>
    5350:	80 91 42 0a 	lds	r24, 0x0A42	; 0x800a42 <ScrollPosition>
    5354:	90 91 43 0a 	lds	r25, 0x0A43	; 0x800a43 <ScrollPosition+0x1>
    5358:	80 0f       	add	r24, r16
    535a:	91 1f       	adc	r25, r17
    535c:	f8 9e       	mul	r15, r24
    535e:	f0 01       	movw	r30, r0
    5360:	f9 9e       	mul	r15, r25
    5362:	f0 0d       	add	r31, r0
    5364:	11 24       	eor	r1, r1
    5366:	e4 57       	subi	r30, 0x74	; 116
    5368:	fa 4f       	sbci	r31, 0xFA	; 250
    536a:	a8 01       	movw	r20, r16
    536c:	be 01       	movw	r22, r28
    536e:	6f 5f       	subi	r22, 0xFF	; 255
    5370:	7f 4f       	sbci	r23, 0xFF	; 255
    5372:	82 89       	ldd	r24, Z+18	; 0x12
    5374:	93 89       	ldd	r25, Z+19	; 0x13
    5376:	0e 94 ad 1e 	call	0x3d5a	; 0x3d5a <_Z22DrawMenuEntryIntNumberi6Stringi>
    537a:	ce 01       	movw	r24, r28
    537c:	01 96       	adiw	r24, 0x01	; 1
    537e:	0e 94 11 3d 	call	0x7a22	; 0x7a22 <_ZN6StringD1Ev>
    5382:	80 91 42 0a 	lds	r24, 0x0A42	; 0x800a42 <ScrollPosition>
    5386:	90 91 43 0a 	lds	r25, 0x0A43	; 0x800a43 <ScrollPosition+0x1>
    538a:	08 0f       	add	r16, r24
    538c:	19 1f       	adc	r17, r25
    538e:	f0 9e       	mul	r15, r16
    5390:	f0 01       	movw	r30, r0
    5392:	f1 9e       	mul	r15, r17
    5394:	f0 0d       	add	r31, r0
    5396:	11 24       	eor	r1, r1
    5398:	e4 57       	subi	r30, 0x74	; 116
    539a:	fa 4f       	sbci	r31, 0xFA	; 250
    539c:	62 89       	ldd	r22, Z+18	; 0x12
    539e:	73 89       	ldd	r23, Z+19	; 0x13
    53a0:	06 88       	ldd	r0, Z+22	; 0x16
    53a2:	f7 89       	ldd	r31, Z+23	; 0x17
    53a4:	e0 2d       	mov	r30, r0
    53a6:	8e 0d       	add	r24, r14
    53a8:	19 95       	eicall
    53aa:	80 c0       	rjmp	.+256    	; 0x54ac <_Z14EntryTouchCalch+0x270>
    53ac:	86 5e       	subi	r24, 0xE6	; 230
    53ae:	91 09       	sbc	r25, r1
    53b0:	4e 97       	sbiw	r24, 0x1e	; 30
    53b2:	08 f0       	brcs	.+2      	; 0x53b6 <_Z14EntryTouchCalch+0x17a>
    53b4:	7b c0       	rjmp	.+246    	; 0x54ac <_Z14EntryTouchCalch+0x270>
    53b6:	8f e2       	ldi	r24, 0x2F	; 47
    53b8:	08 9f       	mul	r16, r24
    53ba:	b0 01       	movw	r22, r0
    53bc:	11 24       	eor	r1, r1
    53be:	9b 01       	movw	r18, r22
    53c0:	2c 5d       	subi	r18, 0xDC	; 220
    53c2:	3f 4f       	sbci	r19, 0xFF	; 255
    53c4:	64 5f       	subi	r22, 0xF4	; 244
    53c6:	7f 4f       	sbci	r23, 0xFF	; 255
    53c8:	43 e0       	ldi	r20, 0x03	; 3
    53ca:	51 e0       	ldi	r21, 0x01	; 1
    53cc:	86 ee       	ldi	r24, 0xE6	; 230
    53ce:	90 e0       	ldi	r25, 0x00	; 0
    53d0:	cf da       	rcall	.-2658   	; 0x4970 <_Z9waitForItiiii>
    53d2:	84 e0       	ldi	r24, 0x04	; 4
    53d4:	9b e0       	ldi	r25, 0x0B	; 11
    53d6:	0e 94 fd 4c 	call	0x99fa	; 0x99fa <_ZN4UTFT6clrScrEv>
    53da:	20 91 42 0a 	lds	r18, 0x0A42	; 0x800a42 <ScrollPosition>
    53de:	30 91 43 0a 	lds	r19, 0x0A43	; 0x800a43 <ScrollPosition+0x1>
    53e2:	20 0f       	add	r18, r16
    53e4:	31 1f       	adc	r19, r17
    53e6:	f2 9e       	mul	r15, r18
    53e8:	c0 01       	movw	r24, r0
    53ea:	f3 9e       	mul	r15, r19
    53ec:	90 0d       	add	r25, r0
    53ee:	11 24       	eor	r1, r1
    53f0:	fc 01       	movw	r30, r24
    53f2:	e4 57       	subi	r30, 0x74	; 116
    53f4:	fa 4f       	sbci	r31, 0xFA	; 250
    53f6:	6f 01       	movw	r12, r30
    53f8:	82 89       	ldd	r24, Z+18	; 0x12
    53fa:	93 89       	ldd	r25, Z+19	; 0x13
    53fc:	fb da       	rcall	.-2570   	; 0x49f4 <_Z18drawKeyboardScreeni>
    53fe:	f6 01       	movw	r30, r12
    5400:	93 8b       	std	Z+19, r25	; 0x13
    5402:	82 8b       	std	Z+18, r24	; 0x12
    5404:	80 91 42 0a 	lds	r24, 0x0A42	; 0x800a42 <ScrollPosition>
    5408:	90 91 43 0a 	lds	r25, 0x0A43	; 0x800a43 <ScrollPosition+0x1>
    540c:	80 0f       	add	r24, r16
    540e:	91 1f       	adc	r25, r17
    5410:	f8 9e       	mul	r15, r24
    5412:	b0 01       	movw	r22, r0
    5414:	f9 9e       	mul	r15, r25
    5416:	70 0d       	add	r23, r0
    5418:	11 24       	eor	r1, r1
    541a:	94 cf       	rjmp	.-216    	; 0x5344 <_Z14EntryTouchCalch+0x108>
    541c:	89 2b       	or	r24, r25
    541e:	09 f0       	breq	.+2      	; 0x5422 <_Z14EntryTouchCalch+0x1e6>
    5420:	45 c0       	rjmp	.+138    	; 0x54ac <_Z14EntryTouchCalch+0x270>
    5422:	ff e2       	ldi	r31, 0x2F	; 47
    5424:	0f 9f       	mul	r16, r31
    5426:	b0 01       	movw	r22, r0
    5428:	11 24       	eor	r1, r1
    542a:	9b 01       	movw	r18, r22
    542c:	22 5f       	subi	r18, 0xF2	; 242
    542e:	3f 4f       	sbci	r19, 0xFF	; 255
    5430:	6e 5d       	subi	r22, 0xDE	; 222
    5432:	7f 4f       	sbci	r23, 0xFF	; 255
    5434:	43 e1       	ldi	r20, 0x13	; 19
    5436:	51 e0       	ldi	r21, 0x01	; 1
    5438:	8f ef       	ldi	r24, 0xFF	; 255
    543a:	90 e0       	ldi	r25, 0x00	; 0
    543c:	99 da       	rcall	.-2766   	; 0x4970 <_Z9waitForItiiii>
    543e:	80 91 42 0a 	lds	r24, 0x0A42	; 0x800a42 <ScrollPosition>
    5442:	90 91 43 0a 	lds	r25, 0x0A43	; 0x800a43 <ScrollPosition+0x1>
    5446:	80 0f       	add	r24, r16
    5448:	91 1f       	adc	r25, r17
    544a:	f8 9e       	mul	r15, r24
    544c:	b0 01       	movw	r22, r0
    544e:	f9 9e       	mul	r15, r25
    5450:	70 0d       	add	r23, r0
    5452:	11 24       	eor	r1, r1
    5454:	fb 01       	movw	r30, r22
    5456:	e4 57       	subi	r30, 0x74	; 116
    5458:	fa 4f       	sbci	r31, 0xFA	; 250
    545a:	d1 84       	ldd	r13, Z+9	; 0x09
    545c:	81 e0       	ldi	r24, 0x01	; 1
    545e:	d8 26       	eor	r13, r24
    5460:	d1 86       	std	Z+9, r13	; 0x09
    5462:	61 57       	subi	r22, 0x71	; 113
    5464:	7a 4f       	sbci	r23, 0xFA	; 250
    5466:	ce 01       	movw	r24, r28
    5468:	01 96       	adiw	r24, 0x01	; 1
    546a:	0e 94 a5 3d 	call	0x7b4a	; 0x7b4a <_ZN6StringC1ERKS_>
    546e:	a8 01       	movw	r20, r16
    5470:	6d 2d       	mov	r22, r13
    5472:	ce 01       	movw	r24, r28
    5474:	01 96       	adiw	r24, 0x01	; 1
    5476:	0e 94 eb 1d 	call	0x3bd6	; 0x3bd6 <_Z13DrawMenuEntry6Stringbi>
    547a:	ce 01       	movw	r24, r28
    547c:	01 96       	adiw	r24, 0x01	; 1
    547e:	0e 94 11 3d 	call	0x7a22	; 0x7a22 <_ZN6StringD1Ev>
    5482:	80 91 42 0a 	lds	r24, 0x0A42	; 0x800a42 <ScrollPosition>
    5486:	90 91 43 0a 	lds	r25, 0x0A43	; 0x800a43 <ScrollPosition+0x1>
    548a:	08 0f       	add	r16, r24
    548c:	19 1f       	adc	r17, r25
    548e:	f0 9e       	mul	r15, r16
    5490:	d0 01       	movw	r26, r0
    5492:	f1 9e       	mul	r15, r17
    5494:	b0 0d       	add	r27, r0
    5496:	11 24       	eor	r1, r1
    5498:	a4 57       	subi	r26, 0x74	; 116
    549a:	ba 4f       	sbci	r27, 0xFA	; 250
    549c:	1a 96       	adiw	r26, 0x0a	; 10
    549e:	ed 91       	ld	r30, X+
    54a0:	fc 91       	ld	r31, X
    54a2:	1b 97       	sbiw	r26, 0x0b	; 11
    54a4:	19 96       	adiw	r26, 0x09	; 9
    54a6:	6c 91       	ld	r22, X
    54a8:	8e 0d       	add	r24, r14
    54aa:	19 95       	eicall
    54ac:	26 96       	adiw	r28, 0x06	; 6
    54ae:	0f b6       	in	r0, 0x3f	; 63
    54b0:	f8 94       	cli
    54b2:	de bf       	out	0x3e, r29	; 62
    54b4:	0f be       	out	0x3f, r0	; 63
    54b6:	cd bf       	out	0x3d, r28	; 61
    54b8:	df 91       	pop	r29
    54ba:	cf 91       	pop	r28
    54bc:	1f 91       	pop	r17
    54be:	0f 91       	pop	r16
    54c0:	ff 90       	pop	r15
    54c2:	ef 90       	pop	r14
    54c4:	df 90       	pop	r13
    54c6:	cf 90       	pop	r12
    54c8:	08 95       	ret

000054ca <_Z12IntToString_jPc>:
    54ca:	1f 93       	push	r17
    54cc:	cf 93       	push	r28
    54ce:	df 93       	push	r29
    54d0:	ec 01       	movw	r28, r24
    54d2:	fb 01       	movw	r30, r22
    54d4:	60 e1       	ldi	r22, 0x10	; 16
    54d6:	77 e2       	ldi	r23, 0x27	; 39
    54d8:	0e 94 ae 59 	call	0xb35c	; 0xb35c <__udivmodhi4>
    54dc:	46 2f       	mov	r20, r22
    54de:	ce 01       	movw	r24, r28
    54e0:	64 e6       	ldi	r22, 0x64	; 100
    54e2:	70 e0       	ldi	r23, 0x00	; 0
    54e4:	0e 94 ae 59 	call	0xb35c	; 0xb35c <__udivmodhi4>
    54e8:	18 2f       	mov	r17, r24
    54ea:	20 e3       	ldi	r18, 0x30	; 48
    54ec:	26 0f       	add	r18, r22
    54ee:	84 e6       	ldi	r24, 0x64	; 100
    54f0:	48 9f       	mul	r20, r24
    54f2:	20 19       	sub	r18, r0
    54f4:	11 24       	eor	r1, r1
    54f6:	36 ef       	ldi	r19, 0xF6	; 246
    54f8:	ce 01       	movw	r24, r28
    54fa:	68 ee       	ldi	r22, 0xE8	; 232
    54fc:	73 e0       	ldi	r23, 0x03	; 3
    54fe:	0e 94 ae 59 	call	0xb35c	; 0xb35c <__udivmodhi4>
    5502:	34 9f       	mul	r19, r20
    5504:	60 0d       	add	r22, r0
    5506:	11 24       	eor	r1, r1
    5508:	63 9f       	mul	r22, r19
    550a:	20 0d       	add	r18, r0
    550c:	11 24       	eor	r1, r1
    550e:	20 83       	st	Z, r18
    5510:	81 2f       	mov	r24, r17
    5512:	6a e0       	ldi	r22, 0x0A	; 10
    5514:	0e 94 a2 59 	call	0xb344	; 0xb344 <__udivmodqi4>
    5518:	80 5d       	subi	r24, 0xD0	; 208
    551a:	81 83       	std	Z+1, r24	; 0x01
    551c:	90 5d       	subi	r25, 0xD0	; 208
    551e:	92 83       	std	Z+2, r25	; 0x02
    5520:	13 82       	std	Z+3, r1	; 0x03
    5522:	df 91       	pop	r29
    5524:	cf 91       	pop	r28
    5526:	1f 91       	pop	r17
    5528:	08 95       	ret

0000552a <_Z11IntCallBackai>:
    552a:	ef 92       	push	r14
    552c:	ff 92       	push	r15
    552e:	1f 93       	push	r17
    5530:	cf 93       	push	r28
    5532:	df 93       	push	r29
    5534:	cd b7       	in	r28, 0x3d	; 61
    5536:	de b7       	in	r29, 0x3e	; 62
    5538:	a4 97       	sbiw	r28, 0x24	; 36
    553a:	0f b6       	in	r0, 0x3f	; 63
    553c:	f8 94       	cli
    553e:	de bf       	out	0x3e, r29	; 62
    5540:	0f be       	out	0x3f, r0	; 63
    5542:	cd bf       	out	0x3d, r28	; 61
    5544:	18 2f       	mov	r17, r24
    5546:	7b 01       	movw	r14, r22
    5548:	97 e0       	ldi	r25, 0x07	; 7
    554a:	e7 e0       	ldi	r30, 0x07	; 7
    554c:	f2 e0       	ldi	r31, 0x02	; 2
    554e:	de 01       	movw	r26, r28
    5550:	11 96       	adiw	r26, 0x01	; 1
    5552:	01 90       	ld	r0, Z+
    5554:	0d 92       	st	X+, r0
    5556:	9a 95       	dec	r25
    5558:	e1 f7       	brne	.-8      	; 0x5552 <_Z11IntCallBackai+0x28>
    555a:	fe 01       	movw	r30, r28
    555c:	38 96       	adiw	r30, 0x08	; 8
    555e:	83 e1       	ldi	r24, 0x13	; 19
    5560:	df 01       	movw	r26, r30
    5562:	1d 92       	st	X+, r1
    5564:	8a 95       	dec	r24
    5566:	e9 f7       	brne	.-6      	; 0x5562 <_Z11IntCallBackai+0x38>
    5568:	80 e3       	ldi	r24, 0x30	; 48
    556a:	81 0f       	add	r24, r17
    556c:	8f 83       	std	Y+7, r24	; 0x07
    556e:	18 86       	std	Y+8, r1	; 0x08
    5570:	61 e0       	ldi	r22, 0x01	; 1
    5572:	74 e0       	ldi	r23, 0x04	; 4
    5574:	ce 01       	movw	r24, r28
    5576:	01 96       	adiw	r24, 0x01	; 1
    5578:	0e 94 4e 5c 	call	0xb89c	; 0xb89c <strcat>
    557c:	be 01       	movw	r22, r28
    557e:	6f 5d       	subi	r22, 0xDF	; 223
    5580:	7f 4f       	sbci	r23, 0xFF	; 255
    5582:	c7 01       	movw	r24, r14
    5584:	a2 df       	rcall	.-188    	; 0x54ca <_Z12IntToString_jPc>
    5586:	be 01       	movw	r22, r28
    5588:	6f 5d       	subi	r22, 0xDF	; 223
    558a:	7f 4f       	sbci	r23, 0xFF	; 255
    558c:	ce 01       	movw	r24, r28
    558e:	01 96       	adiw	r24, 0x01	; 1
    5590:	0e 94 4e 5c 	call	0xb89c	; 0xb89c <strcat>
    5594:	be 01       	movw	r22, r28
    5596:	6f 5f       	subi	r22, 0xFF	; 255
    5598:	7f 4f       	sbci	r23, 0xFF	; 255
    559a:	ce 01       	movw	r24, r28
    559c:	4b 96       	adiw	r24, 0x1b	; 27
    559e:	0e 94 7c 3d 	call	0x7af8	; 0x7af8 <_ZN6StringC1EPKc>
    55a2:	ce 01       	movw	r24, r28
    55a4:	4b 96       	adiw	r24, 0x1b	; 27
    55a6:	0e 94 da 1c 	call	0x39b4	; 0x39b4 <_Z6addLog6String>
    55aa:	ce 01       	movw	r24, r28
    55ac:	4b 96       	adiw	r24, 0x1b	; 27
    55ae:	0e 94 11 3d 	call	0x7a22	; 0x7a22 <_ZN6StringD1Ev>
    55b2:	b8 e1       	ldi	r27, 0x18	; 24
    55b4:	1b 02       	muls	r17, r27
    55b6:	f0 01       	movw	r30, r0
    55b8:	11 24       	eor	r1, r1
    55ba:	e4 57       	subi	r30, 0x74	; 116
    55bc:	fa 4f       	sbci	r31, 0xFA	; 250
    55be:	81 e0       	ldi	r24, 0x01	; 1
    55c0:	82 83       	std	Z+2, r24	; 0x02
    55c2:	a4 96       	adiw	r28, 0x24	; 36
    55c4:	0f b6       	in	r0, 0x3f	; 63
    55c6:	f8 94       	cli
    55c8:	de bf       	out	0x3e, r29	; 62
    55ca:	0f be       	out	0x3f, r0	; 63
    55cc:	cd bf       	out	0x3d, r28	; 61
    55ce:	df 91       	pop	r29
    55d0:	cf 91       	pop	r28
    55d2:	1f 91       	pop	r17
    55d4:	ff 90       	pop	r15
    55d6:	ef 90       	pop	r14
    55d8:	08 95       	ret

000055da <_Z22drawCalibrateInterfacev>:
    55da:	ef 92       	push	r14
    55dc:	0f 93       	push	r16
    55de:	1f 93       	push	r17
    55e0:	84 e0       	ldi	r24, 0x04	; 4
    55e2:	9b e0       	ldi	r25, 0x0B	; 11
    55e4:	0e 94 fd 4c 	call	0x99fa	; 0x99fa <_ZN4UTFT6clrScrEv>
    55e8:	86 e0       	ldi	r24, 0x06	; 6
    55ea:	90 e0       	ldi	r25, 0x00	; 0
    55ec:	90 93 41 0a 	sts	0x0A41, r25	; 0x800a41 <ActiveScreen+0x1>
    55f0:	80 93 40 0a 	sts	0x0A40, r24	; 0x800a40 <ActiveScreen>
    55f4:	82 e0       	ldi	r24, 0x02	; 2
    55f6:	e8 2e       	mov	r14, r24
    55f8:	01 ed       	ldi	r16, 0xD1	; 209
    55fa:	13 e0       	ldi	r17, 0x03	; 3
    55fc:	20 ef       	ldi	r18, 0xF0	; 240
    55fe:	30 e0       	ldi	r19, 0x00	; 0
    5600:	44 e6       	ldi	r20, 0x64	; 100
    5602:	50 e0       	ldi	r21, 0x00	; 0
    5604:	68 ec       	ldi	r22, 0xC8	; 200
    5606:	70 e0       	ldi	r23, 0x00	; 0
    5608:	81 e0       	ldi	r24, 0x01	; 1
    560a:	90 e0       	ldi	r25, 0x00	; 0
    560c:	c7 d8       	rcall	.-3698   	; 0x479c <_Z10drawButtoniiiiPca>
    560e:	2f ef       	ldi	r18, 0xFF	; 255
    5610:	4f ef       	ldi	r20, 0xFF	; 255
    5612:	6f ef       	ldi	r22, 0xFF	; 255
    5614:	84 e0       	ldi	r24, 0x04	; 4
    5616:	9b e0       	ldi	r25, 0x0B	; 11
    5618:	0e 94 97 4d 	call	0x9b2e	; 0x9b2e <_ZN4UTFT8setColorEhhh>
    561c:	20 e0       	ldi	r18, 0x00	; 0
    561e:	40 e0       	ldi	r20, 0x00	; 0
    5620:	60 e0       	ldi	r22, 0x00	; 0
    5622:	84 e0       	ldi	r24, 0x04	; 4
    5624:	9b e0       	ldi	r25, 0x0B	; 11
    5626:	0e 94 ab 4d 	call	0x9b56	; 0x9b56 <_ZN4UTFT12setBackColorEhhh>
    562a:	6e ee       	ldi	r22, 0xEE	; 238
    562c:	7d e2       	ldi	r23, 0x2D	; 45
    562e:	84 e0       	ldi	r24, 0x04	; 4
    5630:	9b e0       	ldi	r25, 0x0B	; 11
    5632:	0e 94 f1 57 	call	0xafe2	; 0xafe2 <_ZN4UTFT7setFontEPh>
    5636:	00 e0       	ldi	r16, 0x00	; 0
    5638:	10 e0       	ldi	r17, 0x00	; 0
    563a:	21 e0       	ldi	r18, 0x01	; 1
    563c:	30 e0       	ldi	r19, 0x00	; 0
    563e:	4e e0       	ldi	r20, 0x0E	; 14
    5640:	57 e2       	ldi	r21, 0x27	; 39
    5642:	6f e0       	ldi	r22, 0x0F	; 15
    5644:	74 e0       	ldi	r23, 0x04	; 4
    5646:	84 e0       	ldi	r24, 0x04	; 4
    5648:	9b e0       	ldi	r25, 0x0B	; 11
    564a:	0e 94 1d 56 	call	0xac3a	; 0xac3a <_ZN4UTFT5printEPciii>
    564e:	04 e2       	ldi	r16, 0x24	; 36
    5650:	14 e0       	ldi	r17, 0x04	; 4
    5652:	20 ef       	ldi	r18, 0xF0	; 240
    5654:	30 e0       	ldi	r19, 0x00	; 0
    5656:	4f e3       	ldi	r20, 0x3F	; 63
    5658:	51 e0       	ldi	r21, 0x01	; 1
    565a:	68 ec       	ldi	r22, 0xC8	; 200
    565c:	70 e0       	ldi	r23, 0x00	; 0
    565e:	88 e7       	ldi	r24, 0x78	; 120
    5660:	90 e0       	ldi	r25, 0x00	; 0
    5662:	9c d8       	rcall	.-3784   	; 0x479c <_Z10drawButtoniiiiPca>
    5664:	20 e0       	ldi	r18, 0x00	; 0
    5666:	40 e0       	ldi	r20, 0x00	; 0
    5668:	6f ef       	ldi	r22, 0xFF	; 255
    566a:	84 e0       	ldi	r24, 0x04	; 4
    566c:	9b e0       	ldi	r25, 0x0B	; 11
    566e:	0e 94 97 4d 	call	0x9b2e	; 0x9b2e <_ZN4UTFT8setColorEhhh>
    5672:	04 eb       	ldi	r16, 0xB4	; 180
    5674:	10 e0       	ldi	r17, 0x00	; 0
    5676:	22 e8       	ldi	r18, 0x82	; 130
    5678:	30 e0       	ldi	r19, 0x00	; 0
    567a:	4c e3       	ldi	r20, 0x3C	; 60
    567c:	50 e0       	ldi	r21, 0x00	; 0
    567e:	6a e0       	ldi	r22, 0x0A	; 10
    5680:	70 e0       	ldi	r23, 0x00	; 0
    5682:	84 e0       	ldi	r24, 0x04	; 4
    5684:	9b e0       	ldi	r25, 0x0B	; 11
    5686:	0e 94 ab 50 	call	0xa156	; 0xa156 <_ZN4UTFT8fillRectEiiii>
    568a:	26 e3       	ldi	r18, 0x36	; 54
    568c:	31 e0       	ldi	r19, 0x01	; 1
    568e:	4c e3       	ldi	r20, 0x3C	; 60
    5690:	50 e0       	ldi	r21, 0x00	; 0
    5692:	6e eb       	ldi	r22, 0xBE	; 190
    5694:	70 e0       	ldi	r23, 0x00	; 0
    5696:	84 e0       	ldi	r24, 0x04	; 4
    5698:	9b e0       	ldi	r25, 0x0B	; 11
    569a:	0e 94 ab 50 	call	0xa156	; 0xa156 <_ZN4UTFT8fillRectEiiii>
    569e:	1f 91       	pop	r17
    56a0:	0f 91       	pop	r16
    56a2:	ef 90       	pop	r14
    56a4:	08 95       	ret

000056a6 <_Z17drawTestInterfacev>:
    56a6:	ef 92       	push	r14
    56a8:	0f 93       	push	r16
    56aa:	1f 93       	push	r17
    56ac:	84 e0       	ldi	r24, 0x04	; 4
    56ae:	9b e0       	ldi	r25, 0x0B	; 11
    56b0:	0e 94 fd 4c 	call	0x99fa	; 0x99fa <_ZN4UTFT6clrScrEv>
    56b4:	87 e0       	ldi	r24, 0x07	; 7
    56b6:	90 e0       	ldi	r25, 0x00	; 0
    56b8:	90 93 41 0a 	sts	0x0A41, r25	; 0x800a41 <ActiveScreen+0x1>
    56bc:	80 93 40 0a 	sts	0x0A40, r24	; 0x800a40 <ActiveScreen>
    56c0:	82 e0       	ldi	r24, 0x02	; 2
    56c2:	e8 2e       	mov	r14, r24
    56c4:	01 ed       	ldi	r16, 0xD1	; 209
    56c6:	13 e0       	ldi	r17, 0x03	; 3
    56c8:	20 ef       	ldi	r18, 0xF0	; 240
    56ca:	30 e0       	ldi	r19, 0x00	; 0
    56cc:	44 e6       	ldi	r20, 0x64	; 100
    56ce:	50 e0       	ldi	r21, 0x00	; 0
    56d0:	68 ec       	ldi	r22, 0xC8	; 200
    56d2:	70 e0       	ldi	r23, 0x00	; 0
    56d4:	81 e0       	ldi	r24, 0x01	; 1
    56d6:	90 e0       	ldi	r25, 0x00	; 0
    56d8:	61 d8       	rcall	.-3902   	; 0x479c <_Z10drawButtoniiiiPca>
    56da:	2f ef       	ldi	r18, 0xFF	; 255
    56dc:	4f ef       	ldi	r20, 0xFF	; 255
    56de:	6f ef       	ldi	r22, 0xFF	; 255
    56e0:	84 e0       	ldi	r24, 0x04	; 4
    56e2:	9b e0       	ldi	r25, 0x0B	; 11
    56e4:	0e 94 97 4d 	call	0x9b2e	; 0x9b2e <_ZN4UTFT8setColorEhhh>
    56e8:	20 e0       	ldi	r18, 0x00	; 0
    56ea:	40 e0       	ldi	r20, 0x00	; 0
    56ec:	60 e0       	ldi	r22, 0x00	; 0
    56ee:	84 e0       	ldi	r24, 0x04	; 4
    56f0:	9b e0       	ldi	r25, 0x0B	; 11
    56f2:	0e 94 ab 4d 	call	0x9b56	; 0x9b56 <_ZN4UTFT12setBackColorEhhh>
    56f6:	6e ee       	ldi	r22, 0xEE	; 238
    56f8:	7d e2       	ldi	r23, 0x2D	; 45
    56fa:	84 e0       	ldi	r24, 0x04	; 4
    56fc:	9b e0       	ldi	r25, 0x0B	; 11
    56fe:	0e 94 f1 57 	call	0xafe2	; 0xafe2 <_ZN4UTFT7setFontEPh>
    5702:	00 e0       	ldi	r16, 0x00	; 0
    5704:	10 e0       	ldi	r17, 0x00	; 0
    5706:	21 e0       	ldi	r18, 0x01	; 1
    5708:	30 e0       	ldi	r19, 0x00	; 0
    570a:	4e e0       	ldi	r20, 0x0E	; 14
    570c:	57 e2       	ldi	r21, 0x27	; 39
    570e:	68 ea       	ldi	r22, 0xA8	; 168
    5710:	73 e0       	ldi	r23, 0x03	; 3
    5712:	84 e0       	ldi	r24, 0x04	; 4
    5714:	9b e0       	ldi	r25, 0x0B	; 11
    5716:	0e 94 1d 56 	call	0xac3a	; 0xac3a <_ZN4UTFT5printEPciii>
    571a:	2c e3       	ldi	r18, 0x3C	; 60
    571c:	30 e0       	ldi	r19, 0x00	; 0
    571e:	48 e7       	ldi	r20, 0x78	; 120
    5720:	50 e0       	ldi	r21, 0x00	; 0
    5722:	66 e4       	ldi	r22, 0x46	; 70
    5724:	70 e0       	ldi	r23, 0x00	; 0
    5726:	84 e0       	ldi	r24, 0x04	; 4
    5728:	9b e0       	ldi	r25, 0x0B	; 11
    572a:	0e 94 f2 4e 	call	0x9de4	; 0x9de4 <_ZN4UTFT10fillCircleEiii>
    572e:	20 e0       	ldi	r18, 0x00	; 0
    5730:	40 e0       	ldi	r20, 0x00	; 0
    5732:	6f ef       	ldi	r22, 0xFF	; 255
    5734:	84 e0       	ldi	r24, 0x04	; 4
    5736:	9b e0       	ldi	r25, 0x0B	; 11
    5738:	0e 94 97 4d 	call	0x9b2e	; 0x9b2e <_ZN4UTFT8setColorEhhh>
    573c:	04 eb       	ldi	r16, 0xB4	; 180
    573e:	10 e0       	ldi	r17, 0x00	; 0
    5740:	22 e8       	ldi	r18, 0x82	; 130
    5742:	30 e0       	ldi	r19, 0x00	; 0
    5744:	4c e3       	ldi	r20, 0x3C	; 60
    5746:	50 e0       	ldi	r21, 0x00	; 0
    5748:	6a e0       	ldi	r22, 0x0A	; 10
    574a:	70 e0       	ldi	r23, 0x00	; 0
    574c:	84 e0       	ldi	r24, 0x04	; 4
    574e:	9b e0       	ldi	r25, 0x0B	; 11
    5750:	0e 94 ab 50 	call	0xa156	; 0xa156 <_ZN4UTFT8fillRectEiiii>
    5754:	26 e3       	ldi	r18, 0x36	; 54
    5756:	31 e0       	ldi	r19, 0x01	; 1
    5758:	4c e3       	ldi	r20, 0x3C	; 60
    575a:	50 e0       	ldi	r21, 0x00	; 0
    575c:	6e eb       	ldi	r22, 0xBE	; 190
    575e:	70 e0       	ldi	r23, 0x00	; 0
    5760:	84 e0       	ldi	r24, 0x04	; 4
    5762:	9b e0       	ldi	r25, 0x0B	; 11
    5764:	0e 94 ab 50 	call	0xa156	; 0xa156 <_ZN4UTFT8fillRectEiiii>
    5768:	1f 91       	pop	r17
    576a:	0f 91       	pop	r16
    576c:	ef 90       	pop	r14
    576e:	08 95       	ret

00005770 <_Z11LockDisplayb>:
    5770:	0f 93       	push	r16
    5772:	1f 93       	push	r17
    5774:	88 23       	and	r24, r24
    5776:	81 f0       	breq	.+32     	; 0x5798 <_Z11LockDisplayb+0x28>
    5778:	10 92 8b 05 	sts	0x058B, r1	; 0x80058b <DisplayLocked>
    577c:	81 e0       	ldi	r24, 0x01	; 1
    577e:	90 e0       	ldi	r25, 0x00	; 0
    5780:	90 93 41 0a 	sts	0x0A41, r25	; 0x800a41 <ActiveScreen+0x1>
    5784:	80 93 40 0a 	sts	0x0A40, r24	; 0x800a40 <ActiveScreen>
    5788:	84 e0       	ldi	r24, 0x04	; 4
    578a:	9b e0       	ldi	r25, 0x0B	; 11
    578c:	0e 94 fd 4c 	call	0x99fa	; 0x99fa <_ZN4UTFT6clrScrEv>
    5790:	1f 91       	pop	r17
    5792:	0f 91       	pop	r16
    5794:	0c 94 a0 20 	jmp	0x4140	; 0x4140 <_Z13DrawInterfacev>
    5798:	81 e0       	ldi	r24, 0x01	; 1
    579a:	80 93 8b 05 	sts	0x058B, r24	; 0x80058b <DisplayLocked>
    579e:	85 e0       	ldi	r24, 0x05	; 5
    57a0:	90 e0       	ldi	r25, 0x00	; 0
    57a2:	90 93 41 0a 	sts	0x0A41, r25	; 0x800a41 <ActiveScreen+0x1>
    57a6:	80 93 40 0a 	sts	0x0A40, r24	; 0x800a40 <ActiveScreen>
    57aa:	84 e0       	ldi	r24, 0x04	; 4
    57ac:	9b e0       	ldi	r25, 0x0B	; 11
    57ae:	0e 94 fd 4c 	call	0x99fa	; 0x99fa <_ZN4UTFT6clrScrEv>
    57b2:	2f ef       	ldi	r18, 0xFF	; 255
    57b4:	4f ef       	ldi	r20, 0xFF	; 255
    57b6:	6f ef       	ldi	r22, 0xFF	; 255
    57b8:	84 e0       	ldi	r24, 0x04	; 4
    57ba:	9b e0       	ldi	r25, 0x0B	; 11
    57bc:	0e 94 97 4d 	call	0x9b2e	; 0x9b2e <_ZN4UTFT8setColorEhhh>
    57c0:	20 e0       	ldi	r18, 0x00	; 0
    57c2:	40 e0       	ldi	r20, 0x00	; 0
    57c4:	60 e0       	ldi	r22, 0x00	; 0
    57c6:	84 e0       	ldi	r24, 0x04	; 4
    57c8:	9b e0       	ldi	r25, 0x0B	; 11
    57ca:	0e 94 ab 4d 	call	0x9b56	; 0x9b56 <_ZN4UTFT12setBackColorEhhh>
    57ce:	6a e0       	ldi	r22, 0x0A	; 10
    57d0:	72 e2       	ldi	r23, 0x22	; 34
    57d2:	84 e0       	ldi	r24, 0x04	; 4
    57d4:	9b e0       	ldi	r25, 0x0B	; 11
    57d6:	0e 94 f1 57 	call	0xafe2	; 0xafe2 <_ZN4UTFT7setFontEPh>
    57da:	00 e0       	ldi	r16, 0x00	; 0
    57dc:	10 e0       	ldi	r17, 0x00	; 0
    57de:	26 e9       	ldi	r18, 0x96	; 150
    57e0:	30 e0       	ldi	r19, 0x00	; 0
    57e2:	4e e0       	ldi	r20, 0x0E	; 14
    57e4:	57 e2       	ldi	r21, 0x27	; 39
    57e6:	69 e3       	ldi	r22, 0x39	; 57
    57e8:	74 e0       	ldi	r23, 0x04	; 4
    57ea:	84 e0       	ldi	r24, 0x04	; 4
    57ec:	9b e0       	ldi	r25, 0x0B	; 11
    57ee:	0e 94 1d 56 	call	0xac3a	; 0xac3a <_ZN4UTFT5printEPciii>
    57f2:	1f 91       	pop	r17
    57f4:	0f 91       	pop	r16
    57f6:	08 95       	ret

000057f8 <_Z20TouchEventManagementv>:
    57f8:	4f 92       	push	r4
    57fa:	5f 92       	push	r5
    57fc:	6f 92       	push	r6
    57fe:	7f 92       	push	r7
    5800:	8f 92       	push	r8
    5802:	9f 92       	push	r9
    5804:	af 92       	push	r10
    5806:	bf 92       	push	r11
    5808:	cf 92       	push	r12
    580a:	df 92       	push	r13
    580c:	ef 92       	push	r14
    580e:	ff 92       	push	r15
    5810:	0f 93       	push	r16
    5812:	1f 93       	push	r17
    5814:	cf 93       	push	r28
    5816:	df 93       	push	r29
    5818:	00 d0       	rcall	.+0      	; 0x581a <_Z20TouchEventManagementv+0x22>
    581a:	00 d0       	rcall	.+0      	; 0x581c <_Z20TouchEventManagementv+0x24>
    581c:	cd b7       	in	r28, 0x3d	; 61
    581e:	de b7       	in	r29, 0x3e	; 62
    5820:	89 ec       	ldi	r24, 0xC9	; 201
    5822:	9a e0       	ldi	r25, 0x0A	; 10
    5824:	0e 94 79 41 	call	0x82f2	; 0x82f2 <_ZN7URTouch13dataAvailableEv>
    5828:	88 23       	and	r24, r24
    582a:	09 f4       	brne	.+2      	; 0x582e <_Z20TouchEventManagementv+0x36>
    582c:	2d c4       	rjmp	.+2138   	; 0x6088 <_Z20TouchEventManagementv+0x890>
    582e:	89 ec       	ldi	r24, 0xC9	; 201
    5830:	9a e0       	ldi	r25, 0x0A	; 10
    5832:	0e 94 d6 3f 	call	0x7fac	; 0x7fac <_ZN7URTouch4readEv>
    5836:	89 ec       	ldi	r24, 0xC9	; 201
    5838:	9a e0       	ldi	r25, 0x0A	; 10
    583a:	0e 94 90 41 	call	0x8320	; 0x8320 <_ZN7URTouch4getXEv>
    583e:	90 93 3f 0a 	sts	0x0A3F, r25	; 0x800a3f <x+0x1>
    5842:	80 93 3e 0a 	sts	0x0A3E, r24	; 0x800a3e <x>
    5846:	89 ec       	ldi	r24, 0xC9	; 201
    5848:	9a e0       	ldi	r25, 0x0A	; 10
    584a:	0e 94 57 42 	call	0x84ae	; 0x84ae <_ZN7URTouch4getYEv>
    584e:	90 93 3d 0a 	sts	0x0A3D, r25	; 0x800a3d <y+0x1>
    5852:	80 93 3c 0a 	sts	0x0A3C, r24	; 0x800a3c <y>
    5856:	20 91 40 0a 	lds	r18, 0x0A40	; 0x800a40 <ActiveScreen>
    585a:	30 91 41 0a 	lds	r19, 0x0A41	; 0x800a41 <ActiveScreen+0x1>
    585e:	21 15       	cp	r18, r1
    5860:	31 05       	cpc	r19, r1
    5862:	09 f4       	brne	.+2      	; 0x5866 <_Z20TouchEventManagementv+0x6e>
    5864:	33 c2       	rjmp	.+1126   	; 0x5ccc <_Z20TouchEventManagementv+0x4d4>
    5866:	21 30       	cpi	r18, 0x01	; 1
    5868:	31 05       	cpc	r19, r1
    586a:	09 f0       	breq	.+2      	; 0x586e <_Z20TouchEventManagementv+0x76>
    586c:	4f c1       	rjmp	.+670    	; 0x5b0c <_Z20TouchEventManagementv+0x314>
    586e:	20 91 3e 0a 	lds	r18, 0x0A3E	; 0x800a3e <x>
    5872:	30 91 3f 0a 	lds	r19, 0x0A3F	; 0x800a3f <x+0x1>
    5876:	a9 01       	movw	r20, r18
    5878:	42 52       	subi	r20, 0x22	; 34
    587a:	51 40       	sbci	r21, 0x01	; 1
    587c:	4f 31       	cpi	r20, 0x1F	; 31
    587e:	51 05       	cpc	r21, r1
    5880:	08 f0       	brcs	.+2      	; 0x5884 <_Z20TouchEventManagementv+0x8c>
    5882:	75 c0       	rjmp	.+234    	; 0x596e <_Z20TouchEventManagementv+0x176>
    5884:	88 37       	cpi	r24, 0x78	; 120
    5886:	91 05       	cpc	r25, r1
    5888:	c8 f5       	brcc	.+114    	; 0x58fc <_Z20TouchEventManagementv+0x104>
    588a:	27 e7       	ldi	r18, 0x77	; 119
    588c:	30 e0       	ldi	r19, 0x00	; 0
    588e:	4f e3       	ldi	r20, 0x3F	; 63
    5890:	51 e0       	ldi	r21, 0x01	; 1
    5892:	60 e0       	ldi	r22, 0x00	; 0
    5894:	70 e0       	ldi	r23, 0x00	; 0
    5896:	8c e2       	ldi	r24, 0x2C	; 44
    5898:	91 e0       	ldi	r25, 0x01	; 1
    589a:	6a d8       	rcall	.-3884   	; 0x4970 <_Z9waitForItiiii>
    589c:	80 91 42 0a 	lds	r24, 0x0A42	; 0x800a42 <ScrollPosition>
    58a0:	90 91 43 0a 	lds	r25, 0x0A43	; 0x800a43 <ScrollPosition+0x1>
    58a4:	18 16       	cp	r1, r24
    58a6:	19 06       	cpc	r1, r25
    58a8:	44 f4       	brge	.+16     	; 0x58ba <_Z20TouchEventManagementv+0xc2>
    58aa:	01 97       	sbiw	r24, 0x01	; 1
    58ac:	90 93 43 0a 	sts	0x0A43, r25	; 0x800a43 <ScrollPosition+0x1>
    58b0:	80 93 42 0a 	sts	0x0A42, r24	; 0x800a42 <ScrollPosition>
    58b4:	0e 94 a0 20 	call	0x4140	; 0x4140 <_Z13DrawInterfacev>
    58b8:	13 c0       	rjmp	.+38     	; 0x58e0 <_Z20TouchEventManagementv+0xe8>
    58ba:	20 e0       	ldi	r18, 0x00	; 0
    58bc:	40 e0       	ldi	r20, 0x00	; 0
    58be:	6f ef       	ldi	r22, 0xFF	; 255
    58c0:	84 e0       	ldi	r24, 0x04	; 4
    58c2:	9b e0       	ldi	r25, 0x0B	; 11
    58c4:	0e 94 97 4d 	call	0x9b2e	; 0x9b2e <_ZN4UTFT8setColorEhhh>
    58c8:	0f ee       	ldi	r16, 0xEF	; 239
    58ca:	10 e0       	ldi	r17, 0x00	; 0
    58cc:	2f e3       	ldi	r18, 0x3F	; 63
    58ce:	31 e0       	ldi	r19, 0x01	; 1
    58d0:	49 e7       	ldi	r20, 0x79	; 121
    58d2:	50 e0       	ldi	r21, 0x00	; 0
    58d4:	6c e2       	ldi	r22, 0x2C	; 44
    58d6:	71 e0       	ldi	r23, 0x01	; 1
    58d8:	84 e0       	ldi	r24, 0x04	; 4
    58da:	9b e0       	ldi	r25, 0x0B	; 11
    58dc:	0e 94 f9 4f 	call	0x9ff2	; 0x9ff2 <_ZN4UTFT13drawRoundRectEiiii>
    58e0:	20 e0       	ldi	r18, 0x00	; 0
    58e2:	40 e0       	ldi	r20, 0x00	; 0
    58e4:	6f ef       	ldi	r22, 0xFF	; 255
    58e6:	84 e0       	ldi	r24, 0x04	; 4
    58e8:	9b e0       	ldi	r25, 0x0B	; 11
    58ea:	0e 94 97 4d 	call	0x9b2e	; 0x9b2e <_ZN4UTFT8setColorEhhh>
    58ee:	07 e7       	ldi	r16, 0x77	; 119
    58f0:	10 e0       	ldi	r17, 0x00	; 0
    58f2:	2f e3       	ldi	r18, 0x3F	; 63
    58f4:	31 e0       	ldi	r19, 0x01	; 1
    58f6:	40 e0       	ldi	r20, 0x00	; 0
    58f8:	50 e0       	ldi	r21, 0x00	; 0
    58fa:	32 c0       	rjmp	.+100    	; 0x5960 <_Z20TouchEventManagementv+0x168>
    58fc:	ac 01       	movw	r20, r24
    58fe:	49 57       	subi	r20, 0x79	; 121
    5900:	51 09       	sbc	r21, r1
    5902:	48 37       	cpi	r20, 0x78	; 120
    5904:	51 05       	cpc	r21, r1
    5906:	98 f5       	brcc	.+102    	; 0x596e <_Z20TouchEventManagementv+0x176>
    5908:	2f ee       	ldi	r18, 0xEF	; 239
    590a:	30 e0       	ldi	r19, 0x00	; 0
    590c:	4f e3       	ldi	r20, 0x3F	; 63
    590e:	51 e0       	ldi	r21, 0x01	; 1
    5910:	69 e7       	ldi	r22, 0x79	; 121
    5912:	70 e0       	ldi	r23, 0x00	; 0
    5914:	8c e2       	ldi	r24, 0x2C	; 44
    5916:	91 e0       	ldi	r25, 0x01	; 1
    5918:	2b d8       	rcall	.-4010   	; 0x4970 <_Z9waitForItiiii>
    591a:	80 91 42 0a 	lds	r24, 0x0A42	; 0x800a42 <ScrollPosition>
    591e:	90 91 43 0a 	lds	r25, 0x0A43	; 0x800a43 <ScrollPosition+0x1>
    5922:	ac 01       	movw	r20, r24
    5924:	4b 5f       	subi	r20, 0xFB	; 251
    5926:	5f 4f       	sbci	r21, 0xFF	; 255
    5928:	20 91 44 0a 	lds	r18, 0x0A44	; 0x800a44 <NumberOfMenuEntries>
    592c:	30 91 45 0a 	lds	r19, 0x0A45	; 0x800a45 <NumberOfMenuEntries+0x1>
    5930:	42 17       	cp	r20, r18
    5932:	53 07       	cpc	r21, r19
    5934:	44 f4       	brge	.+16     	; 0x5946 <_Z20TouchEventManagementv+0x14e>
    5936:	01 96       	adiw	r24, 0x01	; 1
    5938:	90 93 43 0a 	sts	0x0A43, r25	; 0x800a43 <ScrollPosition+0x1>
    593c:	80 93 42 0a 	sts	0x0A42, r24	; 0x800a42 <ScrollPosition>
    5940:	0e 94 a0 20 	call	0x4140	; 0x4140 <_Z13DrawInterfacev>
    5944:	a1 c3       	rjmp	.+1858   	; 0x6088 <_Z20TouchEventManagementv+0x890>
    5946:	20 e0       	ldi	r18, 0x00	; 0
    5948:	40 e0       	ldi	r20, 0x00	; 0
    594a:	6f ef       	ldi	r22, 0xFF	; 255
    594c:	84 e0       	ldi	r24, 0x04	; 4
    594e:	9b e0       	ldi	r25, 0x0B	; 11
    5950:	0e 94 97 4d 	call	0x9b2e	; 0x9b2e <_ZN4UTFT8setColorEhhh>
    5954:	0f ee       	ldi	r16, 0xEF	; 239
    5956:	10 e0       	ldi	r17, 0x00	; 0
    5958:	2f e3       	ldi	r18, 0x3F	; 63
    595a:	31 e0       	ldi	r19, 0x01	; 1
    595c:	49 e7       	ldi	r20, 0x79	; 121
    595e:	50 e0       	ldi	r21, 0x00	; 0
    5960:	6c e2       	ldi	r22, 0x2C	; 44
    5962:	71 e0       	ldi	r23, 0x01	; 1
    5964:	84 e0       	ldi	r24, 0x04	; 4
    5966:	9b e0       	ldi	r25, 0x0B	; 11
    5968:	0e 94 f9 4f 	call	0x9ff2	; 0x9ff2 <_ZN4UTFT13drawRoundRectEiiii>
    596c:	8d c3       	rjmp	.+1818   	; 0x6088 <_Z20TouchEventManagementv+0x890>
    596e:	a9 01       	movw	r20, r18
    5970:	4e 56       	subi	r20, 0x6E	; 110
    5972:	51 09       	sbc	r21, r1
    5974:	41 35       	cpi	r20, 0x51	; 81
    5976:	51 05       	cpc	r21, r1
    5978:	98 f4       	brcc	.+38     	; 0x59a0 <_Z20TouchEventManagementv+0x1a8>
    597a:	ac 01       	movw	r20, r24
    597c:	48 5c       	subi	r20, 0xC8	; 200
    597e:	51 09       	sbc	r21, r1
    5980:	4b 32       	cpi	r20, 0x2B	; 43
    5982:	51 05       	cpc	r21, r1
    5984:	68 f4       	brcc	.+26     	; 0x59a0 <_Z20TouchEventManagementv+0x1a8>
    5986:	22 ef       	ldi	r18, 0xF2	; 242
    5988:	30 e0       	ldi	r19, 0x00	; 0
    598a:	43 eb       	ldi	r20, 0xB3	; 179
    598c:	50 e0       	ldi	r21, 0x00	; 0
    598e:	62 ed       	ldi	r22, 0xD2	; 210
    5990:	70 e0       	ldi	r23, 0x00	; 0
    5992:	8a e8       	ldi	r24, 0x8A	; 138
    5994:	90 e0       	ldi	r25, 0x00	; 0
    5996:	0e 94 b8 24 	call	0x4970	; 0x4970 <_Z9waitForItiiii>
    599a:	0e 94 3f 22 	call	0x447e	; 0x447e <_Z7drawLogv>
    599e:	74 c3       	rjmp	.+1768   	; 0x6088 <_Z20TouchEventManagementv+0x890>
    59a0:	22 58       	subi	r18, 0x82	; 130
    59a2:	31 09       	sbc	r19, r1
    59a4:	23 33       	cpi	r18, 0x33	; 51
    59a6:	31 05       	cpc	r19, r1
    59a8:	70 f4       	brcc	.+28     	; 0x59c6 <_Z20TouchEventManagementv+0x1ce>
    59aa:	89 32       	cpi	r24, 0x29	; 41
    59ac:	91 05       	cpc	r25, r1
    59ae:	58 f4       	brcc	.+22     	; 0x59c6 <_Z20TouchEventManagementv+0x1ce>
    59b0:	24 e1       	ldi	r18, 0x14	; 20
    59b2:	30 e0       	ldi	r19, 0x00	; 0
    59b4:	41 e9       	ldi	r20, 0x91	; 145
    59b6:	50 e0       	ldi	r21, 0x00	; 0
    59b8:	60 e0       	ldi	r22, 0x00	; 0
    59ba:	70 e0       	ldi	r23, 0x00	; 0
    59bc:	8f ea       	ldi	r24, 0xAF	; 175
    59be:	90 e0       	ldi	r25, 0x00	; 0
    59c0:	0e 94 b8 24 	call	0x4970	; 0x4970 <_Z9waitForItiiii>
    59c4:	d4 c1       	rjmp	.+936    	; 0x5d6e <_Z20TouchEventManagementv+0x576>
    59c6:	8f 32       	cpi	r24, 0x2F	; 47
    59c8:	91 05       	cpc	r25, r1
    59ca:	c8 f5       	brcc	.+114    	; 0x5a3e <_Z20TouchEventManagementv+0x246>
    59cc:	80 e0       	ldi	r24, 0x00	; 0
    59ce:	36 dc       	rcall	.-1940   	; 0x523c <_Z14EntryTouchCalch>
    59d0:	0e 94 e0 19 	call	0x33c0	; 0x33c0 <ESP8266_isConnected>
    59d4:	88 23       	and	r24, r24
    59d6:	19 f0       	breq	.+6      	; 0x59de <_Z20TouchEventManagementv+0x1e6>
    59d8:	20 e0       	ldi	r18, 0x00	; 0
    59da:	4f ef       	ldi	r20, 0xFF	; 255
    59dc:	02 c0       	rjmp	.+4      	; 0x59e2 <_Z20TouchEventManagementv+0x1ea>
    59de:	2f ef       	ldi	r18, 0xFF	; 255
    59e0:	40 e0       	ldi	r20, 0x00	; 0
    59e2:	60 e0       	ldi	r22, 0x00	; 0
    59e4:	84 e0       	ldi	r24, 0x04	; 4
    59e6:	9b e0       	ldi	r25, 0x0B	; 11
    59e8:	0e 94 97 4d 	call	0x9b2e	; 0x9b2e <_ZN4UTFT8setColorEhhh>
    59ec:	20 e0       	ldi	r18, 0x00	; 0
    59ee:	4f ef       	ldi	r20, 0xFF	; 255
    59f0:	60 e0       	ldi	r22, 0x00	; 0
    59f2:	84 e0       	ldi	r24, 0x04	; 4
    59f4:	9b e0       	ldi	r25, 0x0B	; 11
    59f6:	0e 94 ab 4d 	call	0x9b56	; 0x9b56 <_ZN4UTFT12setBackColorEhhh>
    59fa:	04 e1       	ldi	r16, 0x14	; 20
    59fc:	10 e0       	ldi	r17, 0x00	; 0
    59fe:	21 e9       	ldi	r18, 0x91	; 145
    5a00:	30 e0       	ldi	r19, 0x00	; 0
    5a02:	40 e0       	ldi	r20, 0x00	; 0
    5a04:	50 e0       	ldi	r21, 0x00	; 0
    5a06:	6f ea       	ldi	r22, 0xAF	; 175
    5a08:	70 e0       	ldi	r23, 0x00	; 0
    5a0a:	84 e0       	ldi	r24, 0x04	; 4
    5a0c:	9b e0       	ldi	r25, 0x0B	; 11
    5a0e:	0e 94 46 4e 	call	0x9c8c	; 0x9c8c <_ZN4UTFT13fillRoundRectEiiii>
    5a12:	20 e0       	ldi	r18, 0x00	; 0
    5a14:	40 e0       	ldi	r20, 0x00	; 0
    5a16:	60 e0       	ldi	r22, 0x00	; 0
    5a18:	84 e0       	ldi	r24, 0x04	; 4
    5a1a:	9b e0       	ldi	r25, 0x0B	; 11
    5a1c:	0e 94 97 4d 	call	0x9b2e	; 0x9b2e <_ZN4UTFT8setColorEhhh>
    5a20:	6e e6       	ldi	r22, 0x6E	; 110
    5a22:	72 e0       	ldi	r23, 0x02	; 2
    5a24:	84 e0       	ldi	r24, 0x04	; 4
    5a26:	9b e0       	ldi	r25, 0x0B	; 11
    5a28:	0e 94 f1 57 	call	0xafe2	; 0xafe2 <_ZN4UTFT7setFontEPh>
    5a2c:	00 e0       	ldi	r16, 0x00	; 0
    5a2e:	10 e0       	ldi	r17, 0x00	; 0
    5a30:	23 e0       	ldi	r18, 0x03	; 3
    5a32:	30 e0       	ldi	r19, 0x00	; 0
    5a34:	4e e0       	ldi	r20, 0x0E	; 14
    5a36:	57 e2       	ldi	r21, 0x27	; 39
    5a38:	64 eb       	ldi	r22, 0xB4	; 180
    5a3a:	73 e0       	ldi	r23, 0x03	; 3
    5a3c:	62 c0       	rjmp	.+196    	; 0x5b02 <_Z20TouchEventManagementv+0x30a>
    5a3e:	9c 01       	movw	r18, r24
    5a40:	2d 52       	subi	r18, 0x2D	; 45
    5a42:	31 09       	sbc	r19, r1
    5a44:	2f 32       	cpi	r18, 0x2F	; 47
    5a46:	31 05       	cpc	r19, r1
    5a48:	10 f4       	brcc	.+4      	; 0x5a4e <_Z20TouchEventManagementv+0x256>
    5a4a:	81 e0       	ldi	r24, 0x01	; 1
    5a4c:	07 c0       	rjmp	.+14     	; 0x5a5c <_Z20TouchEventManagementv+0x264>
    5a4e:	9c 01       	movw	r18, r24
    5a50:	2a 55       	subi	r18, 0x5A	; 90
    5a52:	31 09       	sbc	r19, r1
    5a54:	2f 32       	cpi	r18, 0x2F	; 47
    5a56:	31 05       	cpc	r19, r1
    5a58:	18 f4       	brcc	.+6      	; 0x5a60 <_Z20TouchEventManagementv+0x268>
    5a5a:	82 e0       	ldi	r24, 0x02	; 2
    5a5c:	ef db       	rcall	.-2082   	; 0x523c <_Z14EntryTouchCalch>
    5a5e:	14 c3       	rjmp	.+1576   	; 0x6088 <_Z20TouchEventManagementv+0x890>
    5a60:	9c 01       	movw	r18, r24
    5a62:	27 58       	subi	r18, 0x87	; 135
    5a64:	31 09       	sbc	r19, r1
    5a66:	2f 32       	cpi	r18, 0x2F	; 47
    5a68:	31 05       	cpc	r19, r1
    5a6a:	10 f4       	brcc	.+4      	; 0x5a70 <_Z20TouchEventManagementv+0x278>
    5a6c:	83 e0       	ldi	r24, 0x03	; 3
    5a6e:	f6 cf       	rjmp	.-20     	; 0x5a5c <_Z20TouchEventManagementv+0x264>
    5a70:	84 5b       	subi	r24, 0xB4	; 180
    5a72:	91 09       	sbc	r25, r1
    5a74:	8f 97       	sbiw	r24, 0x2f	; 47
    5a76:	08 f0       	brcs	.+2      	; 0x5a7a <_Z20TouchEventManagementv+0x282>
    5a78:	07 c3       	rjmp	.+1550   	; 0x6088 <_Z20TouchEventManagementv+0x890>
    5a7a:	84 e0       	ldi	r24, 0x04	; 4
    5a7c:	df db       	rcall	.-2114   	; 0x523c <_Z14EntryTouchCalch>
    5a7e:	20 e0       	ldi	r18, 0x00	; 0
    5a80:	40 e0       	ldi	r20, 0x00	; 0
    5a82:	6f ef       	ldi	r22, 0xFF	; 255
    5a84:	84 e0       	ldi	r24, 0x04	; 4
    5a86:	9b e0       	ldi	r25, 0x0B	; 11
    5a88:	0e 94 97 4d 	call	0x9b2e	; 0x9b2e <_ZN4UTFT8setColorEhhh>
    5a8c:	02 ef       	ldi	r16, 0xF2	; 242
    5a8e:	10 e0       	ldi	r17, 0x00	; 0
    5a90:	23 eb       	ldi	r18, 0xB3	; 179
    5a92:	30 e0       	ldi	r19, 0x00	; 0
    5a94:	42 ed       	ldi	r20, 0xD2	; 210
    5a96:	50 e0       	ldi	r21, 0x00	; 0
    5a98:	6a e8       	ldi	r22, 0x8A	; 138
    5a9a:	70 e0       	ldi	r23, 0x00	; 0
    5a9c:	84 e0       	ldi	r24, 0x04	; 4
    5a9e:	9b e0       	ldi	r25, 0x0B	; 11
    5aa0:	0e 94 f9 4f 	call	0x9ff2	; 0x9ff2 <_ZN4UTFT13drawRoundRectEiiii>
    5aa4:	20 e4       	ldi	r18, 0x40	; 64
    5aa6:	40 e4       	ldi	r20, 0x40	; 64
    5aa8:	60 e4       	ldi	r22, 0x40	; 64
    5aaa:	84 e0       	ldi	r24, 0x04	; 4
    5aac:	9b e0       	ldi	r25, 0x0B	; 11
    5aae:	0e 94 97 4d 	call	0x9b2e	; 0x9b2e <_ZN4UTFT8setColorEhhh>
    5ab2:	01 ef       	ldi	r16, 0xF1	; 241
    5ab4:	10 e0       	ldi	r17, 0x00	; 0
    5ab6:	22 eb       	ldi	r18, 0xB2	; 178
    5ab8:	30 e0       	ldi	r19, 0x00	; 0
    5aba:	43 ed       	ldi	r20, 0xD3	; 211
    5abc:	50 e0       	ldi	r21, 0x00	; 0
    5abe:	6b e8       	ldi	r22, 0x8B	; 139
    5ac0:	70 e0       	ldi	r23, 0x00	; 0
    5ac2:	84 e0       	ldi	r24, 0x04	; 4
    5ac4:	9b e0       	ldi	r25, 0x0B	; 11
    5ac6:	0e 94 46 4e 	call	0x9c8c	; 0x9c8c <_ZN4UTFT13fillRoundRectEiiii>
    5aca:	2f ef       	ldi	r18, 0xFF	; 255
    5acc:	4f ef       	ldi	r20, 0xFF	; 255
    5ace:	6f ef       	ldi	r22, 0xFF	; 255
    5ad0:	84 e0       	ldi	r24, 0x04	; 4
    5ad2:	9b e0       	ldi	r25, 0x0B	; 11
    5ad4:	0e 94 97 4d 	call	0x9b2e	; 0x9b2e <_ZN4UTFT8setColorEhhh>
    5ad8:	6e ee       	ldi	r22, 0xEE	; 238
    5ada:	7d e2       	ldi	r23, 0x2D	; 45
    5adc:	84 e0       	ldi	r24, 0x04	; 4
    5ade:	9b e0       	ldi	r25, 0x0B	; 11
    5ae0:	0e 94 f1 57 	call	0xafe2	; 0xafe2 <_ZN4UTFT7setFontEPh>
    5ae4:	20 e4       	ldi	r18, 0x40	; 64
    5ae6:	40 e4       	ldi	r20, 0x40	; 64
    5ae8:	60 e4       	ldi	r22, 0x40	; 64
    5aea:	84 e0       	ldi	r24, 0x04	; 4
    5aec:	9b e0       	ldi	r25, 0x0B	; 11
    5aee:	0e 94 ab 4d 	call	0x9b56	; 0x9b56 <_ZN4UTFT12setBackColorEhhh>
    5af2:	00 e0       	ldi	r16, 0x00	; 0
    5af4:	10 e0       	ldi	r17, 0x00	; 0
    5af6:	20 ee       	ldi	r18, 0xE0	; 224
    5af8:	30 e0       	ldi	r19, 0x00	; 0
    5afa:	4e e0       	ldi	r20, 0x0E	; 14
    5afc:	57 e2       	ldi	r21, 0x27	; 39
    5afe:	60 ef       	ldi	r22, 0xF0	; 240
    5b00:	72 e0       	ldi	r23, 0x02	; 2
    5b02:	84 e0       	ldi	r24, 0x04	; 4
    5b04:	9b e0       	ldi	r25, 0x0B	; 11
    5b06:	0e 94 1d 56 	call	0xac3a	; 0xac3a <_ZN4UTFT5printEPciii>
    5b0a:	be c2       	rjmp	.+1404   	; 0x6088 <_Z20TouchEventManagementv+0x890>
    5b0c:	22 30       	cpi	r18, 0x02	; 2
    5b0e:	31 05       	cpc	r19, r1
    5b10:	c1 f4       	brne	.+48     	; 0x5b42 <_Z20TouchEventManagementv+0x34a>
    5b12:	20 91 3e 0a 	lds	r18, 0x0A3E	; 0x800a3e <x>
    5b16:	30 91 3f 0a 	lds	r19, 0x0A3F	; 0x800a3f <x+0x1>
    5b1a:	28 51       	subi	r18, 0x18	; 24
    5b1c:	31 40       	sbci	r19, 0x01	; 1
    5b1e:	28 32       	cpi	r18, 0x28	; 40
    5b20:	31 05       	cpc	r19, r1
    5b22:	08 f0       	brcs	.+2      	; 0x5b26 <_Z20TouchEventManagementv+0x32e>
    5b24:	b1 c2       	rjmp	.+1378   	; 0x6088 <_Z20TouchEventManagementv+0x890>
    5b26:	82 5d       	subi	r24, 0xD2	; 210
    5b28:	91 09       	sbc	r25, r1
    5b2a:	81 97       	sbiw	r24, 0x21	; 33
    5b2c:	08 f0       	brcs	.+2      	; 0x5b30 <_Z20TouchEventManagementv+0x338>
    5b2e:	ac c2       	rjmp	.+1368   	; 0x6088 <_Z20TouchEventManagementv+0x890>
    5b30:	22 ef       	ldi	r18, 0xF2	; 242
    5b32:	30 e0       	ldi	r19, 0x00	; 0
    5b34:	4f e3       	ldi	r20, 0x3F	; 63
    5b36:	51 e0       	ldi	r21, 0x01	; 1
    5b38:	62 ed       	ldi	r22, 0xD2	; 210
    5b3a:	70 e0       	ldi	r23, 0x00	; 0
    5b3c:	88 e1       	ldi	r24, 0x18	; 24
    5b3e:	91 e0       	ldi	r25, 0x01	; 1
    5b40:	1c c0       	rjmp	.+56     	; 0x5b7a <_Z20TouchEventManagementv+0x382>
    5b42:	23 30       	cpi	r18, 0x03	; 3
    5b44:	31 05       	cpc	r19, r1
    5b46:	09 f0       	breq	.+2      	; 0x5b4a <_Z20TouchEventManagementv+0x352>
    5b48:	57 c0       	rjmp	.+174    	; 0x5bf8 <_Z20TouchEventManagementv+0x400>
    5b4a:	20 91 3e 0a 	lds	r18, 0x0A3E	; 0x800a3e <x>
    5b4e:	30 91 3f 0a 	lds	r19, 0x0A3F	; 0x800a3f <x+0x1>
    5b52:	a9 01       	movw	r20, r18
    5b54:	41 50       	subi	r20, 0x01	; 1
    5b56:	51 09       	sbc	r21, r1
    5b58:	44 36       	cpi	r20, 0x64	; 100
    5b5a:	51 05       	cpc	r21, r1
    5b5c:	88 f4       	brcc	.+34     	; 0x5b80 <_Z20TouchEventManagementv+0x388>
    5b5e:	ac 01       	movw	r20, r24
    5b60:	48 5c       	subi	r20, 0xC8	; 200
    5b62:	51 09       	sbc	r21, r1
    5b64:	49 32       	cpi	r20, 0x29	; 41
    5b66:	51 05       	cpc	r21, r1
    5b68:	58 f4       	brcc	.+22     	; 0x5b80 <_Z20TouchEventManagementv+0x388>
    5b6a:	20 ef       	ldi	r18, 0xF0	; 240
    5b6c:	30 e0       	ldi	r19, 0x00	; 0
    5b6e:	44 e6       	ldi	r20, 0x64	; 100
    5b70:	50 e0       	ldi	r21, 0x00	; 0
    5b72:	68 ec       	ldi	r22, 0xC8	; 200
    5b74:	70 e0       	ldi	r23, 0x00	; 0
    5b76:	81 e0       	ldi	r24, 0x01	; 1
    5b78:	90 e0       	ldi	r25, 0x00	; 0
    5b7a:	0e 94 b8 24 	call	0x4970	; 0x4970 <_Z9waitForItiiii>
    5b7e:	ac c0       	rjmp	.+344    	; 0x5cd8 <_Z20TouchEventManagementv+0x4e0>
    5b80:	24 51       	subi	r18, 0x14	; 20
    5b82:	31 09       	sbc	r19, r1
    5b84:	29 31       	cpi	r18, 0x19	; 25
    5b86:	31 40       	sbci	r19, 0x01	; 1
    5b88:	08 f0       	brcs	.+2      	; 0x5b8c <_Z20TouchEventManagementv+0x394>
    5b8a:	7e c2       	rjmp	.+1276   	; 0x6088 <_Z20TouchEventManagementv+0x890>
    5b8c:	9c 01       	movw	r18, r24
    5b8e:	24 51       	subi	r18, 0x14	; 20
    5b90:	31 09       	sbc	r19, r1
    5b92:	29 32       	cpi	r18, 0x29	; 41
    5b94:	31 05       	cpc	r19, r1
    5b96:	60 f4       	brcc	.+24     	; 0x5bb0 <_Z20TouchEventManagementv+0x3b8>
    5b98:	2c e3       	ldi	r18, 0x3C	; 60
    5b9a:	30 e0       	ldi	r19, 0x00	; 0
    5b9c:	4c e2       	ldi	r20, 0x2C	; 44
    5b9e:	51 e0       	ldi	r21, 0x01	; 1
    5ba0:	64 e1       	ldi	r22, 0x14	; 20
    5ba2:	70 e0       	ldi	r23, 0x00	; 0
    5ba4:	84 e1       	ldi	r24, 0x14	; 20
    5ba6:	90 e0       	ldi	r25, 0x00	; 0
    5ba8:	0e 94 b8 24 	call	0x4970	; 0x4970 <_Z9waitForItiiii>
    5bac:	16 dd       	rcall	.-1492   	; 0x55da <_Z22drawCalibrateInterfacev>
    5bae:	6c c2       	rjmp	.+1240   	; 0x6088 <_Z20TouchEventManagementv+0x890>
    5bb0:	9c 01       	movw	r18, r24
    5bb2:	26 54       	subi	r18, 0x46	; 70
    5bb4:	31 09       	sbc	r19, r1
    5bb6:	29 32       	cpi	r18, 0x29	; 41
    5bb8:	31 05       	cpc	r19, r1
    5bba:	60 f4       	brcc	.+24     	; 0x5bd4 <_Z20TouchEventManagementv+0x3dc>
    5bbc:	2e e6       	ldi	r18, 0x6E	; 110
    5bbe:	30 e0       	ldi	r19, 0x00	; 0
    5bc0:	4c e2       	ldi	r20, 0x2C	; 44
    5bc2:	51 e0       	ldi	r21, 0x01	; 1
    5bc4:	66 e4       	ldi	r22, 0x46	; 70
    5bc6:	70 e0       	ldi	r23, 0x00	; 0
    5bc8:	84 e1       	ldi	r24, 0x14	; 20
    5bca:	90 e0       	ldi	r25, 0x00	; 0
    5bcc:	0e 94 b8 24 	call	0x4970	; 0x4970 <_Z9waitForItiiii>
    5bd0:	6a dd       	rcall	.-1324   	; 0x56a6 <_Z17drawTestInterfacev>
    5bd2:	5a c2       	rjmp	.+1204   	; 0x6088 <_Z20TouchEventManagementv+0x890>
    5bd4:	88 57       	subi	r24, 0x78	; 120
    5bd6:	91 09       	sbc	r25, r1
    5bd8:	89 97       	sbiw	r24, 0x29	; 41
    5bda:	08 f0       	brcs	.+2      	; 0x5bde <_Z20TouchEventManagementv+0x3e6>
    5bdc:	55 c2       	rjmp	.+1194   	; 0x6088 <_Z20TouchEventManagementv+0x890>
    5bde:	20 ea       	ldi	r18, 0xA0	; 160
    5be0:	30 e0       	ldi	r19, 0x00	; 0
    5be2:	4c e2       	ldi	r20, 0x2C	; 44
    5be4:	51 e0       	ldi	r21, 0x01	; 1
    5be6:	68 e7       	ldi	r22, 0x78	; 120
    5be8:	70 e0       	ldi	r23, 0x00	; 0
    5bea:	84 e1       	ldi	r24, 0x14	; 20
    5bec:	90 e0       	ldi	r25, 0x00	; 0
    5bee:	0e 94 b8 24 	call	0x4970	; 0x4970 <_Z9waitForItiiii>
    5bf2:	80 e0       	ldi	r24, 0x00	; 0
    5bf4:	bd dd       	rcall	.-1158   	; 0x5770 <_Z11LockDisplayb>
    5bf6:	48 c2       	rjmp	.+1168   	; 0x6088 <_Z20TouchEventManagementv+0x890>
    5bf8:	24 30       	cpi	r18, 0x04	; 4
    5bfa:	31 05       	cpc	r19, r1
    5bfc:	09 f4       	brne	.+2      	; 0x5c00 <_Z20TouchEventManagementv+0x408>
    5bfe:	6c c0       	rjmp	.+216    	; 0x5cd8 <_Z20TouchEventManagementv+0x4e0>
    5c00:	25 30       	cpi	r18, 0x05	; 5
    5c02:	31 05       	cpc	r19, r1
    5c04:	09 f0       	breq	.+2      	; 0x5c08 <_Z20TouchEventManagementv+0x410>
    5c06:	91 c0       	rjmp	.+290    	; 0x5d2a <_Z20TouchEventManagementv+0x532>
    5c08:	0e 94 1d 3b 	call	0x763a	; 0x763a <millis>
    5c0c:	d8 d7       	rcall	.+4016   	; 0x6bbe <__floatunsisf>
    5c0e:	4b 01       	movw	r8, r22
    5c10:	5c 01       	movw	r10, r24
    5c12:	28 e7       	ldi	r18, 0x78	; 120
    5c14:	48 e7       	ldi	r20, 0x78	; 120
    5c16:	68 e7       	ldi	r22, 0x78	; 120
    5c18:	84 e0       	ldi	r24, 0x04	; 4
    5c1a:	9b e0       	ldi	r25, 0x0B	; 11
    5c1c:	0e 94 97 4d 	call	0x9b2e	; 0x9b2e <_ZN4UTFT8setColorEhhh>
    5c20:	00 e0       	ldi	r16, 0x00	; 0
    5c22:	10 e0       	ldi	r17, 0x00	; 0
    5c24:	89 ec       	ldi	r24, 0xC9	; 201
    5c26:	9a e0       	ldi	r25, 0x0A	; 10
    5c28:	0e 94 79 41 	call	0x82f2	; 0x82f2 <_ZN7URTouch13dataAvailableEv>
    5c2c:	88 23       	and	r24, r24
    5c2e:	a9 f1       	breq	.+106    	; 0x5c9a <_Z20TouchEventManagementv+0x4a2>
    5c30:	89 ec       	ldi	r24, 0xC9	; 201
    5c32:	9a e0       	ldi	r25, 0x0A	; 10
    5c34:	0e 94 d6 3f 	call	0x7fac	; 0x7fac <_ZN7URTouch4readEv>
    5c38:	0e 94 1d 3b 	call	0x763a	; 0x763a <millis>
    5c3c:	2b 01       	movw	r4, r22
    5c3e:	3c 01       	movw	r6, r24
    5c40:	20 e0       	ldi	r18, 0x00	; 0
    5c42:	30 e0       	ldi	r19, 0x00	; 0
    5c44:	4a e7       	ldi	r20, 0x7A	; 122
    5c46:	53 e4       	ldi	r21, 0x43	; 67
    5c48:	c5 01       	movw	r24, r10
    5c4a:	b4 01       	movw	r22, r8
    5c4c:	b4 d6       	rcall	.+3432   	; 0x69b6 <__addsf3>
    5c4e:	6b 01       	movw	r12, r22
    5c50:	7c 01       	movw	r14, r24
    5c52:	c3 01       	movw	r24, r6
    5c54:	b2 01       	movw	r22, r4
    5c56:	b3 d7       	rcall	.+3942   	; 0x6bbe <__floatunsisf>
    5c58:	9b 01       	movw	r18, r22
    5c5a:	ac 01       	movw	r20, r24
    5c5c:	c7 01       	movw	r24, r14
    5c5e:	b6 01       	movw	r22, r12
    5c60:	0e d7       	rcall	.+3612   	; 0x6a7e <__cmpsf2>
    5c62:	18 16       	cp	r1, r24
    5c64:	0c f4       	brge	.+2      	; 0x5c68 <_Z20TouchEventManagementv+0x470>
    5c66:	c3 c0       	rjmp	.+390    	; 0x5dee <_Z20TouchEventManagementv+0x5f6>
    5c68:	01 15       	cp	r16, r1
    5c6a:	11 05       	cpc	r17, r1
    5c6c:	09 f0       	breq	.+2      	; 0x5c70 <_Z20TouchEventManagementv+0x478>
    5c6e:	bf c0       	rjmp	.+382    	; 0x5dee <_Z20TouchEventManagementv+0x5f6>
    5c70:	88 e7       	ldi	r24, 0x78	; 120
    5c72:	c8 2e       	mov	r12, r24
    5c74:	d1 2c       	mov	r13, r1
    5c76:	90 ea       	ldi	r25, 0xA0	; 160
    5c78:	e9 2e       	mov	r14, r25
    5c7a:	f1 2c       	mov	r15, r1
    5c7c:	00 e0       	ldi	r16, 0x00	; 0
    5c7e:	10 e0       	ldi	r17, 0x00	; 0
    5c80:	20 e4       	ldi	r18, 0x40	; 64
    5c82:	31 e0       	ldi	r19, 0x01	; 1
    5c84:	40 e0       	ldi	r20, 0x00	; 0
    5c86:	50 e0       	ldi	r21, 0x00	; 0
    5c88:	60 ea       	ldi	r22, 0xA0	; 160
    5c8a:	70 e0       	ldi	r23, 0x00	; 0
    5c8c:	87 ec       	ldi	r24, 0xC7	; 199
    5c8e:	9a e0       	ldi	r25, 0x0A	; 10
    5c90:	0e 94 10 58 	call	0xb020	; 0xb020 <_ZN13UTFT_Geometry12fillTriangleEiiiiii>
    5c94:	01 e0       	ldi	r16, 0x01	; 1
    5c96:	10 e0       	ldi	r17, 0x00	; 0
    5c98:	c5 cf       	rjmp	.-118    	; 0x5c24 <_Z20TouchEventManagementv+0x42c>
    5c9a:	0e 94 1d 3b 	call	0x763a	; 0x763a <millis>
    5c9e:	2b 01       	movw	r4, r22
    5ca0:	3c 01       	movw	r6, r24
    5ca2:	20 e0       	ldi	r18, 0x00	; 0
    5ca4:	30 e0       	ldi	r19, 0x00	; 0
    5ca6:	4a ef       	ldi	r20, 0xFA	; 250
    5ca8:	54 e4       	ldi	r21, 0x44	; 68
    5caa:	c5 01       	movw	r24, r10
    5cac:	b4 01       	movw	r22, r8
    5cae:	83 d6       	rcall	.+3334   	; 0x69b6 <__addsf3>
    5cb0:	6b 01       	movw	r12, r22
    5cb2:	7c 01       	movw	r14, r24
    5cb4:	c3 01       	movw	r24, r6
    5cb6:	b2 01       	movw	r22, r4
    5cb8:	82 d7       	rcall	.+3844   	; 0x6bbe <__floatunsisf>
    5cba:	9b 01       	movw	r18, r22
    5cbc:	ac 01       	movw	r20, r24
    5cbe:	c7 01       	movw	r24, r14
    5cc0:	b6 01       	movw	r22, r12
    5cc2:	dd d6       	rcall	.+3514   	; 0x6a7e <__cmpsf2>
    5cc4:	18 16       	cp	r1, r24
    5cc6:	6c f0       	brlt	.+26     	; 0x5ce2 <_Z20TouchEventManagementv+0x4ea>
    5cc8:	10 92 8b 05 	sts	0x058B, r1	; 0x80058b <DisplayLocked>
    5ccc:	81 e0       	ldi	r24, 0x01	; 1
    5cce:	90 e0       	ldi	r25, 0x00	; 0
    5cd0:	90 93 41 0a 	sts	0x0A41, r25	; 0x800a41 <ActiveScreen+0x1>
    5cd4:	80 93 40 0a 	sts	0x0A40, r24	; 0x800a40 <ActiveScreen>
    5cd8:	84 e0       	ldi	r24, 0x04	; 4
    5cda:	9b e0       	ldi	r25, 0x0B	; 11
    5cdc:	0e 94 fd 4c 	call	0x99fa	; 0x99fa <_ZN4UTFT6clrScrEv>
    5ce0:	2f ce       	rjmp	.-930    	; 0x5940 <_Z20TouchEventManagementv+0x148>
    5ce2:	01 2b       	or	r16, r17
    5ce4:	09 f4       	brne	.+2      	; 0x5ce8 <_Z20TouchEventManagementv+0x4f0>
    5ce6:	d0 c1       	rjmp	.+928    	; 0x6088 <_Z20TouchEventManagementv+0x890>
    5ce8:	84 e0       	ldi	r24, 0x04	; 4
    5cea:	9b e0       	ldi	r25, 0x0B	; 11
    5cec:	0e 94 fd 4c 	call	0x99fa	; 0x99fa <_ZN4UTFT6clrScrEv>
    5cf0:	2f ef       	ldi	r18, 0xFF	; 255
    5cf2:	4f ef       	ldi	r20, 0xFF	; 255
    5cf4:	6f ef       	ldi	r22, 0xFF	; 255
    5cf6:	84 e0       	ldi	r24, 0x04	; 4
    5cf8:	9b e0       	ldi	r25, 0x0B	; 11
    5cfa:	0e 94 97 4d 	call	0x9b2e	; 0x9b2e <_ZN4UTFT8setColorEhhh>
    5cfe:	20 e0       	ldi	r18, 0x00	; 0
    5d00:	40 e0       	ldi	r20, 0x00	; 0
    5d02:	60 e0       	ldi	r22, 0x00	; 0
    5d04:	84 e0       	ldi	r24, 0x04	; 4
    5d06:	9b e0       	ldi	r25, 0x0B	; 11
    5d08:	0e 94 ab 4d 	call	0x9b56	; 0x9b56 <_ZN4UTFT12setBackColorEhhh>
    5d0c:	6a e0       	ldi	r22, 0x0A	; 10
    5d0e:	72 e2       	ldi	r23, 0x22	; 34
    5d10:	84 e0       	ldi	r24, 0x04	; 4
    5d12:	9b e0       	ldi	r25, 0x0B	; 11
    5d14:	0e 94 f1 57 	call	0xafe2	; 0xafe2 <_ZN4UTFT7setFontEPh>
    5d18:	00 e0       	ldi	r16, 0x00	; 0
    5d1a:	10 e0       	ldi	r17, 0x00	; 0
    5d1c:	26 e9       	ldi	r18, 0x96	; 150
    5d1e:	30 e0       	ldi	r19, 0x00	; 0
    5d20:	4e e0       	ldi	r20, 0x0E	; 14
    5d22:	57 e2       	ldi	r21, 0x27	; 39
    5d24:	69 e3       	ldi	r22, 0x39	; 57
    5d26:	74 e0       	ldi	r23, 0x04	; 4
    5d28:	ec ce       	rjmp	.-552    	; 0x5b02 <_Z20TouchEventManagementv+0x30a>
    5d2a:	26 30       	cpi	r18, 0x06	; 6
    5d2c:	31 05       	cpc	r19, r1
    5d2e:	09 f0       	breq	.+2      	; 0x5d32 <_Z20TouchEventManagementv+0x53a>
    5d30:	4a c0       	rjmp	.+148    	; 0x5dc6 <_Z20TouchEventManagementv+0x5ce>
    5d32:	20 91 3e 0a 	lds	r18, 0x0A3E	; 0x800a3e <x>
    5d36:	30 91 3f 0a 	lds	r19, 0x0A3F	; 0x800a3f <x+0x1>
    5d3a:	a9 01       	movw	r20, r18
    5d3c:	41 50       	subi	r20, 0x01	; 1
    5d3e:	51 09       	sbc	r21, r1
    5d40:	44 36       	cpi	r20, 0x64	; 100
    5d42:	51 05       	cpc	r21, r1
    5d44:	b8 f4       	brcc	.+46     	; 0x5d74 <_Z20TouchEventManagementv+0x57c>
    5d46:	ac 01       	movw	r20, r24
    5d48:	48 5c       	subi	r20, 0xC8	; 200
    5d4a:	51 09       	sbc	r21, r1
    5d4c:	49 32       	cpi	r20, 0x29	; 41
    5d4e:	51 05       	cpc	r21, r1
    5d50:	88 f4       	brcc	.+34     	; 0x5d74 <_Z20TouchEventManagementv+0x57c>
    5d52:	20 ef       	ldi	r18, 0xF0	; 240
    5d54:	30 e0       	ldi	r19, 0x00	; 0
    5d56:	44 e6       	ldi	r20, 0x64	; 100
    5d58:	50 e0       	ldi	r21, 0x00	; 0
    5d5a:	68 ec       	ldi	r22, 0xC8	; 200
    5d5c:	70 e0       	ldi	r23, 0x00	; 0
    5d5e:	81 e0       	ldi	r24, 0x01	; 1
    5d60:	90 e0       	ldi	r25, 0x00	; 0
    5d62:	0e 94 b8 24 	call	0x4970	; 0x4970 <_Z9waitForItiiii>
    5d66:	84 e0       	ldi	r24, 0x04	; 4
    5d68:	9b e0       	ldi	r25, 0x0B	; 11
    5d6a:	0e 94 fd 4c 	call	0x99fa	; 0x99fa <_ZN4UTFT6clrScrEv>
    5d6e:	0e 94 79 24 	call	0x48f2	; 0x48f2 <_Z10drawMsgBoxv>
    5d72:	8a c1       	rjmp	.+788    	; 0x6088 <_Z20TouchEventManagementv+0x890>
    5d74:	28 57       	subi	r18, 0x78	; 120
    5d76:	31 09       	sbc	r19, r1
    5d78:	28 3c       	cpi	r18, 0xC8	; 200
    5d7a:	31 05       	cpc	r19, r1
    5d7c:	08 f0       	brcs	.+2      	; 0x5d80 <_Z20TouchEventManagementv+0x588>
    5d7e:	84 c1       	rjmp	.+776    	; 0x6088 <_Z20TouchEventManagementv+0x890>
    5d80:	88 5c       	subi	r24, 0xC8	; 200
    5d82:	91 09       	sbc	r25, r1
    5d84:	89 97       	sbiw	r24, 0x29	; 41
    5d86:	08 f0       	brcs	.+2      	; 0x5d8a <_Z20TouchEventManagementv+0x592>
    5d88:	7f c1       	rjmp	.+766    	; 0x6088 <_Z20TouchEventManagementv+0x890>
    5d8a:	20 ef       	ldi	r18, 0xF0	; 240
    5d8c:	30 e0       	ldi	r19, 0x00	; 0
    5d8e:	4f e3       	ldi	r20, 0x3F	; 63
    5d90:	51 e0       	ldi	r21, 0x01	; 1
    5d92:	68 ec       	ldi	r22, 0xC8	; 200
    5d94:	70 e0       	ldi	r23, 0x00	; 0
    5d96:	88 e7       	ldi	r24, 0x78	; 120
    5d98:	90 e0       	ldi	r25, 0x00	; 0
    5d9a:	0e 94 b8 24 	call	0x4970	; 0x4970 <_Z9waitForItiiii>
    5d9e:	61 e0       	ldi	r22, 0x01	; 1
    5da0:	81 ea       	ldi	r24, 0xA1	; 161
    5da2:	9a e0       	ldi	r25, 0x0A	; 10
    5da4:	0e 94 50 1c 	call	0x38a0	; 0x38a0 <_ZN8Joystick9CalibrateEb>
    5da8:	6b e4       	ldi	r22, 0x4B	; 75
    5daa:	74 e0       	ldi	r23, 0x04	; 4
    5dac:	ce 01       	movw	r24, r28
    5dae:	01 96       	adiw	r24, 0x01	; 1
    5db0:	0e 94 7c 3d 	call	0x7af8	; 0x7af8 <_ZN6StringC1EPKc>
    5db4:	ce 01       	movw	r24, r28
    5db6:	01 96       	adiw	r24, 0x01	; 1
    5db8:	0e 94 da 1c 	call	0x39b4	; 0x39b4 <_Z6addLog6String>
    5dbc:	ce 01       	movw	r24, r28
    5dbe:	01 96       	adiw	r24, 0x01	; 1
    5dc0:	0e 94 11 3d 	call	0x7a22	; 0x7a22 <_ZN6StringD1Ev>
    5dc4:	61 c1       	rjmp	.+706    	; 0x6088 <_Z20TouchEventManagementv+0x890>
    5dc6:	27 30       	cpi	r18, 0x07	; 7
    5dc8:	31 05       	cpc	r19, r1
    5dca:	09 f0       	breq	.+2      	; 0x5dce <_Z20TouchEventManagementv+0x5d6>
    5dcc:	5d c1       	rjmp	.+698    	; 0x6088 <_Z20TouchEventManagementv+0x890>
    5dce:	20 91 3e 0a 	lds	r18, 0x0A3E	; 0x800a3e <x>
    5dd2:	30 91 3f 0a 	lds	r19, 0x0A3F	; 0x800a3f <x+0x1>
    5dd6:	21 50       	subi	r18, 0x01	; 1
    5dd8:	31 09       	sbc	r19, r1
    5dda:	24 36       	cpi	r18, 0x64	; 100
    5ddc:	31 05       	cpc	r19, r1
    5dde:	08 f0       	brcs	.+2      	; 0x5de2 <_Z20TouchEventManagementv+0x5ea>
    5de0:	53 c1       	rjmp	.+678    	; 0x6088 <_Z20TouchEventManagementv+0x890>
    5de2:	88 5c       	subi	r24, 0xC8	; 200
    5de4:	91 09       	sbc	r25, r1
    5de6:	89 97       	sbiw	r24, 0x29	; 41
    5de8:	08 f4       	brcc	.+2      	; 0x5dec <_Z20TouchEventManagementv+0x5f4>
    5dea:	b3 cf       	rjmp	.-154    	; 0x5d52 <_Z20TouchEventManagementv+0x55a>
    5dec:	4d c1       	rjmp	.+666    	; 0x6088 <_Z20TouchEventManagementv+0x890>
    5dee:	0e 94 1d 3b 	call	0x763a	; 0x763a <millis>
    5df2:	2b 01       	movw	r4, r22
    5df4:	3c 01       	movw	r6, r24
    5df6:	20 e0       	ldi	r18, 0x00	; 0
    5df8:	30 e0       	ldi	r19, 0x00	; 0
    5dfa:	4a ef       	ldi	r20, 0xFA	; 250
    5dfc:	53 e4       	ldi	r21, 0x43	; 67
    5dfe:	c5 01       	movw	r24, r10
    5e00:	b4 01       	movw	r22, r8
    5e02:	d9 d5       	rcall	.+2994   	; 0x69b6 <__addsf3>
    5e04:	6b 01       	movw	r12, r22
    5e06:	7c 01       	movw	r14, r24
    5e08:	c3 01       	movw	r24, r6
    5e0a:	b2 01       	movw	r22, r4
    5e0c:	d8 d6       	rcall	.+3504   	; 0x6bbe <__floatunsisf>
    5e0e:	9b 01       	movw	r18, r22
    5e10:	ac 01       	movw	r20, r24
    5e12:	c7 01       	movw	r24, r14
    5e14:	b6 01       	movw	r22, r12
    5e16:	33 d6       	rcall	.+3174   	; 0x6a7e <__cmpsf2>
    5e18:	18 16       	cp	r1, r24
    5e1a:	cc f0       	brlt	.+50     	; 0x5e4e <_Z20TouchEventManagementv+0x656>
    5e1c:	01 30       	cpi	r16, 0x01	; 1
    5e1e:	11 05       	cpc	r17, r1
    5e20:	b1 f4       	brne	.+44     	; 0x5e4e <_Z20TouchEventManagementv+0x656>
    5e22:	18 e7       	ldi	r17, 0x78	; 120
    5e24:	c1 2e       	mov	r12, r17
    5e26:	d1 2c       	mov	r13, r1
    5e28:	0f e3       	ldi	r16, 0x3F	; 63
    5e2a:	e0 2e       	mov	r14, r16
    5e2c:	ff 24       	eor	r15, r15
    5e2e:	f3 94       	inc	r15
    5e30:	01 e0       	ldi	r16, 0x01	; 1
    5e32:	10 e0       	ldi	r17, 0x00	; 0
    5e34:	2f e3       	ldi	r18, 0x3F	; 63
    5e36:	31 e0       	ldi	r19, 0x01	; 1
    5e38:	48 e7       	ldi	r20, 0x78	; 120
    5e3a:	50 e0       	ldi	r21, 0x00	; 0
    5e3c:	60 ea       	ldi	r22, 0xA0	; 160
    5e3e:	70 e0       	ldi	r23, 0x00	; 0
    5e40:	87 ec       	ldi	r24, 0xC7	; 199
    5e42:	9a e0       	ldi	r25, 0x0A	; 10
    5e44:	0e 94 10 58 	call	0xb020	; 0xb020 <_ZN13UTFT_Geometry12fillTriangleEiiiiii>
    5e48:	02 e0       	ldi	r16, 0x02	; 2
    5e4a:	10 e0       	ldi	r17, 0x00	; 0
    5e4c:	eb ce       	rjmp	.-554    	; 0x5c24 <_Z20TouchEventManagementv+0x42c>
    5e4e:	0e 94 1d 3b 	call	0x763a	; 0x763a <millis>
    5e52:	2b 01       	movw	r4, r22
    5e54:	3c 01       	movw	r6, r24
    5e56:	20 e0       	ldi	r18, 0x00	; 0
    5e58:	30 e8       	ldi	r19, 0x80	; 128
    5e5a:	4b e3       	ldi	r20, 0x3B	; 59
    5e5c:	54 e4       	ldi	r21, 0x44	; 68
    5e5e:	c5 01       	movw	r24, r10
    5e60:	b4 01       	movw	r22, r8
    5e62:	a9 d5       	rcall	.+2898   	; 0x69b6 <__addsf3>
    5e64:	6b 01       	movw	r12, r22
    5e66:	7c 01       	movw	r14, r24
    5e68:	c3 01       	movw	r24, r6
    5e6a:	b2 01       	movw	r22, r4
    5e6c:	a8 d6       	rcall	.+3408   	; 0x6bbe <__floatunsisf>
    5e6e:	9b 01       	movw	r18, r22
    5e70:	ac 01       	movw	r20, r24
    5e72:	c7 01       	movw	r24, r14
    5e74:	b6 01       	movw	r22, r12
    5e76:	03 d6       	rcall	.+3078   	; 0x6a7e <__cmpsf2>
    5e78:	18 16       	cp	r1, r24
    5e7a:	cc f0       	brlt	.+50     	; 0x5eae <_Z20TouchEventManagementv+0x6b6>
    5e7c:	02 30       	cpi	r16, 0x02	; 2
    5e7e:	11 05       	cpc	r17, r1
    5e80:	b1 f4       	brne	.+44     	; 0x5eae <_Z20TouchEventManagementv+0x6b6>
    5e82:	a8 e7       	ldi	r26, 0x78	; 120
    5e84:	ca 2e       	mov	r12, r26
    5e86:	d1 2c       	mov	r13, r1
    5e88:	bf e3       	ldi	r27, 0x3F	; 63
    5e8a:	eb 2e       	mov	r14, r27
    5e8c:	ff 24       	eor	r15, r15
    5e8e:	f3 94       	inc	r15
    5e90:	0f ee       	ldi	r16, 0xEF	; 239
    5e92:	10 e0       	ldi	r17, 0x00	; 0
    5e94:	2f e3       	ldi	r18, 0x3F	; 63
    5e96:	31 e0       	ldi	r19, 0x01	; 1
    5e98:	48 e7       	ldi	r20, 0x78	; 120
    5e9a:	50 e0       	ldi	r21, 0x00	; 0
    5e9c:	60 ea       	ldi	r22, 0xA0	; 160
    5e9e:	70 e0       	ldi	r23, 0x00	; 0
    5ea0:	87 ec       	ldi	r24, 0xC7	; 199
    5ea2:	9a e0       	ldi	r25, 0x0A	; 10
    5ea4:	0e 94 10 58 	call	0xb020	; 0xb020 <_ZN13UTFT_Geometry12fillTriangleEiiiiii>
    5ea8:	03 e0       	ldi	r16, 0x03	; 3
    5eaa:	10 e0       	ldi	r17, 0x00	; 0
    5eac:	bb ce       	rjmp	.-650    	; 0x5c24 <_Z20TouchEventManagementv+0x42c>
    5eae:	0e 94 1d 3b 	call	0x763a	; 0x763a <millis>
    5eb2:	2b 01       	movw	r4, r22
    5eb4:	3c 01       	movw	r6, r24
    5eb6:	20 e0       	ldi	r18, 0x00	; 0
    5eb8:	30 e0       	ldi	r19, 0x00	; 0
    5eba:	4a e7       	ldi	r20, 0x7A	; 122
    5ebc:	54 e4       	ldi	r21, 0x44	; 68
    5ebe:	c5 01       	movw	r24, r10
    5ec0:	b4 01       	movw	r22, r8
    5ec2:	79 d5       	rcall	.+2802   	; 0x69b6 <__addsf3>
    5ec4:	6b 01       	movw	r12, r22
    5ec6:	7c 01       	movw	r14, r24
    5ec8:	c3 01       	movw	r24, r6
    5eca:	b2 01       	movw	r22, r4
    5ecc:	78 d6       	rcall	.+3312   	; 0x6bbe <__floatunsisf>
    5ece:	9b 01       	movw	r18, r22
    5ed0:	ac 01       	movw	r20, r24
    5ed2:	c7 01       	movw	r24, r14
    5ed4:	b6 01       	movw	r22, r12
    5ed6:	d3 d5       	rcall	.+2982   	; 0x6a7e <__cmpsf2>
    5ed8:	18 16       	cp	r1, r24
    5eda:	c4 f0       	brlt	.+48     	; 0x5f0c <_Z20TouchEventManagementv+0x714>
    5edc:	03 30       	cpi	r16, 0x03	; 3
    5ede:	11 05       	cpc	r17, r1
    5ee0:	a9 f4       	brne	.+42     	; 0x5f0c <_Z20TouchEventManagementv+0x714>
    5ee2:	ef ee       	ldi	r30, 0xEF	; 239
    5ee4:	ce 2e       	mov	r12, r30
    5ee6:	d1 2c       	mov	r13, r1
    5ee8:	f0 ea       	ldi	r31, 0xA0	; 160
    5eea:	ef 2e       	mov	r14, r31
    5eec:	f1 2c       	mov	r15, r1
    5eee:	0f ee       	ldi	r16, 0xEF	; 239
    5ef0:	10 e0       	ldi	r17, 0x00	; 0
    5ef2:	2f e3       	ldi	r18, 0x3F	; 63
    5ef4:	31 e0       	ldi	r19, 0x01	; 1
    5ef6:	48 e7       	ldi	r20, 0x78	; 120
    5ef8:	50 e0       	ldi	r21, 0x00	; 0
    5efa:	60 ea       	ldi	r22, 0xA0	; 160
    5efc:	70 e0       	ldi	r23, 0x00	; 0
    5efe:	87 ec       	ldi	r24, 0xC7	; 199
    5f00:	9a e0       	ldi	r25, 0x0A	; 10
    5f02:	0e 94 10 58 	call	0xb020	; 0xb020 <_ZN13UTFT_Geometry12fillTriangleEiiiiii>
    5f06:	04 e0       	ldi	r16, 0x04	; 4
    5f08:	10 e0       	ldi	r17, 0x00	; 0
    5f0a:	8c ce       	rjmp	.-744    	; 0x5c24 <_Z20TouchEventManagementv+0x42c>
    5f0c:	0e 94 1d 3b 	call	0x763a	; 0x763a <millis>
    5f10:	2b 01       	movw	r4, r22
    5f12:	3c 01       	movw	r6, r24
    5f14:	20 e0       	ldi	r18, 0x00	; 0
    5f16:	30 e4       	ldi	r19, 0x40	; 64
    5f18:	4c e9       	ldi	r20, 0x9C	; 156
    5f1a:	54 e4       	ldi	r21, 0x44	; 68
    5f1c:	c5 01       	movw	r24, r10
    5f1e:	b4 01       	movw	r22, r8
    5f20:	4a d5       	rcall	.+2708   	; 0x69b6 <__addsf3>
    5f22:	6b 01       	movw	r12, r22
    5f24:	7c 01       	movw	r14, r24
    5f26:	c3 01       	movw	r24, r6
    5f28:	b2 01       	movw	r22, r4
    5f2a:	49 d6       	rcall	.+3218   	; 0x6bbe <__floatunsisf>
    5f2c:	9b 01       	movw	r18, r22
    5f2e:	ac 01       	movw	r20, r24
    5f30:	c7 01       	movw	r24, r14
    5f32:	b6 01       	movw	r22, r12
    5f34:	a4 d5       	rcall	.+2888   	; 0x6a7e <__cmpsf2>
    5f36:	18 16       	cp	r1, r24
    5f38:	1c f0       	brlt	.+6      	; 0x5f40 <_Z20TouchEventManagementv+0x748>
    5f3a:	04 30       	cpi	r16, 0x04	; 4
    5f3c:	11 05       	cpc	r17, r1
    5f3e:	79 f1       	breq	.+94     	; 0x5f9e <_Z20TouchEventManagementv+0x7a6>
    5f40:	0e 94 1d 3b 	call	0x763a	; 0x763a <millis>
    5f44:	2b 01       	movw	r4, r22
    5f46:	3c 01       	movw	r6, r24
    5f48:	20 e0       	ldi	r18, 0x00	; 0
    5f4a:	30 e8       	ldi	r19, 0x80	; 128
    5f4c:	4b eb       	ldi	r20, 0xBB	; 187
    5f4e:	54 e4       	ldi	r21, 0x44	; 68
    5f50:	c5 01       	movw	r24, r10
    5f52:	b4 01       	movw	r22, r8
    5f54:	30 d5       	rcall	.+2656   	; 0x69b6 <__addsf3>
    5f56:	6b 01       	movw	r12, r22
    5f58:	7c 01       	movw	r14, r24
    5f5a:	c3 01       	movw	r24, r6
    5f5c:	b2 01       	movw	r22, r4
    5f5e:	2f d6       	rcall	.+3166   	; 0x6bbe <__floatunsisf>
    5f60:	9b 01       	movw	r18, r22
    5f62:	ac 01       	movw	r20, r24
    5f64:	c7 01       	movw	r24, r14
    5f66:	b6 01       	movw	r22, r12
    5f68:	8a d5       	rcall	.+2836   	; 0x6a7e <__cmpsf2>
    5f6a:	18 16       	cp	r1, r24
    5f6c:	6c f1       	brlt	.+90     	; 0x5fc8 <_Z20TouchEventManagementv+0x7d0>
    5f6e:	05 30       	cpi	r16, 0x05	; 5
    5f70:	11 05       	cpc	r17, r1
    5f72:	51 f5       	brne	.+84     	; 0x5fc8 <_Z20TouchEventManagementv+0x7d0>
    5f74:	48 e7       	ldi	r20, 0x78	; 120
    5f76:	c4 2e       	mov	r12, r20
    5f78:	d1 2c       	mov	r13, r1
    5f7a:	ee 24       	eor	r14, r14
    5f7c:	e3 94       	inc	r14
    5f7e:	f1 2c       	mov	r15, r1
    5f80:	0f ee       	ldi	r16, 0xEF	; 239
    5f82:	10 e0       	ldi	r17, 0x00	; 0
    5f84:	21 e0       	ldi	r18, 0x01	; 1
    5f86:	30 e0       	ldi	r19, 0x00	; 0
    5f88:	48 e7       	ldi	r20, 0x78	; 120
    5f8a:	50 e0       	ldi	r21, 0x00	; 0
    5f8c:	60 ea       	ldi	r22, 0xA0	; 160
    5f8e:	70 e0       	ldi	r23, 0x00	; 0
    5f90:	87 ec       	ldi	r24, 0xC7	; 199
    5f92:	9a e0       	ldi	r25, 0x0A	; 10
    5f94:	0e 94 10 58 	call	0xb020	; 0xb020 <_ZN13UTFT_Geometry12fillTriangleEiiiiii>
    5f98:	06 e0       	ldi	r16, 0x06	; 6
    5f9a:	10 e0       	ldi	r17, 0x00	; 0
    5f9c:	43 ce       	rjmp	.-890    	; 0x5c24 <_Z20TouchEventManagementv+0x42c>
    5f9e:	6f ee       	ldi	r22, 0xEF	; 239
    5fa0:	c6 2e       	mov	r12, r22
    5fa2:	d1 2c       	mov	r13, r1
    5fa4:	70 ea       	ldi	r23, 0xA0	; 160
    5fa6:	e7 2e       	mov	r14, r23
    5fa8:	f1 2c       	mov	r15, r1
    5faa:	0f ee       	ldi	r16, 0xEF	; 239
    5fac:	10 e0       	ldi	r17, 0x00	; 0
    5fae:	21 e0       	ldi	r18, 0x01	; 1
    5fb0:	30 e0       	ldi	r19, 0x00	; 0
    5fb2:	48 e7       	ldi	r20, 0x78	; 120
    5fb4:	50 e0       	ldi	r21, 0x00	; 0
    5fb6:	60 ea       	ldi	r22, 0xA0	; 160
    5fb8:	70 e0       	ldi	r23, 0x00	; 0
    5fba:	87 ec       	ldi	r24, 0xC7	; 199
    5fbc:	9a e0       	ldi	r25, 0x0A	; 10
    5fbe:	0e 94 10 58 	call	0xb020	; 0xb020 <_ZN13UTFT_Geometry12fillTriangleEiiiiii>
    5fc2:	05 e0       	ldi	r16, 0x05	; 5
    5fc4:	10 e0       	ldi	r17, 0x00	; 0
    5fc6:	2e ce       	rjmp	.-932    	; 0x5c24 <_Z20TouchEventManagementv+0x42c>
    5fc8:	0e 94 1d 3b 	call	0x763a	; 0x763a <millis>
    5fcc:	2b 01       	movw	r4, r22
    5fce:	3c 01       	movw	r6, r24
    5fd0:	20 e0       	ldi	r18, 0x00	; 0
    5fd2:	30 ec       	ldi	r19, 0xC0	; 192
    5fd4:	4a ed       	ldi	r20, 0xDA	; 218
    5fd6:	54 e4       	ldi	r21, 0x44	; 68
    5fd8:	c5 01       	movw	r24, r10
    5fda:	b4 01       	movw	r22, r8
    5fdc:	ec d4       	rcall	.+2520   	; 0x69b6 <__addsf3>
    5fde:	6b 01       	movw	r12, r22
    5fe0:	7c 01       	movw	r14, r24
    5fe2:	c3 01       	movw	r24, r6
    5fe4:	b2 01       	movw	r22, r4
    5fe6:	eb d5       	rcall	.+3030   	; 0x6bbe <__floatunsisf>
    5fe8:	9b 01       	movw	r18, r22
    5fea:	ac 01       	movw	r20, r24
    5fec:	c7 01       	movw	r24, r14
    5fee:	b6 01       	movw	r22, r12
    5ff0:	46 d5       	rcall	.+2700   	; 0x6a7e <__cmpsf2>
    5ff2:	18 16       	cp	r1, r24
    5ff4:	c4 f0       	brlt	.+48     	; 0x6026 <_Z20TouchEventManagementv+0x82e>
    5ff6:	06 30       	cpi	r16, 0x06	; 6
    5ff8:	11 05       	cpc	r17, r1
    5ffa:	a9 f4       	brne	.+42     	; 0x6026 <_Z20TouchEventManagementv+0x82e>
    5ffc:	28 e7       	ldi	r18, 0x78	; 120
    5ffe:	c2 2e       	mov	r12, r18
    6000:	d1 2c       	mov	r13, r1
    6002:	ee 24       	eor	r14, r14
    6004:	e3 94       	inc	r14
    6006:	f1 2c       	mov	r15, r1
    6008:	01 e0       	ldi	r16, 0x01	; 1
    600a:	10 e0       	ldi	r17, 0x00	; 0
    600c:	21 e0       	ldi	r18, 0x01	; 1
    600e:	30 e0       	ldi	r19, 0x00	; 0
    6010:	48 e7       	ldi	r20, 0x78	; 120
    6012:	50 e0       	ldi	r21, 0x00	; 0
    6014:	60 ea       	ldi	r22, 0xA0	; 160
    6016:	70 e0       	ldi	r23, 0x00	; 0
    6018:	87 ec       	ldi	r24, 0xC7	; 199
    601a:	9a e0       	ldi	r25, 0x0A	; 10
    601c:	0e 94 10 58 	call	0xb020	; 0xb020 <_ZN13UTFT_Geometry12fillTriangleEiiiiii>
    6020:	07 e0       	ldi	r16, 0x07	; 7
    6022:	10 e0       	ldi	r17, 0x00	; 0
    6024:	ff cd       	rjmp	.-1026   	; 0x5c24 <_Z20TouchEventManagementv+0x42c>
    6026:	0e 94 1d 3b 	call	0x763a	; 0x763a <millis>
    602a:	2b 01       	movw	r4, r22
    602c:	3c 01       	movw	r6, r24
    602e:	20 e0       	ldi	r18, 0x00	; 0
    6030:	30 e0       	ldi	r19, 0x00	; 0
    6032:	4a ef       	ldi	r20, 0xFA	; 250
    6034:	54 e4       	ldi	r21, 0x44	; 68
    6036:	c5 01       	movw	r24, r10
    6038:	b4 01       	movw	r22, r8
    603a:	bd d4       	rcall	.+2426   	; 0x69b6 <__addsf3>
    603c:	6b 01       	movw	r12, r22
    603e:	7c 01       	movw	r14, r24
    6040:	c3 01       	movw	r24, r6
    6042:	b2 01       	movw	r22, r4
    6044:	bc d5       	rcall	.+2936   	; 0x6bbe <__floatunsisf>
    6046:	9b 01       	movw	r18, r22
    6048:	ac 01       	movw	r20, r24
    604a:	c7 01       	movw	r24, r14
    604c:	b6 01       	movw	r22, r12
    604e:	17 d5       	rcall	.+2606   	; 0x6a7e <__cmpsf2>
    6050:	18 16       	cp	r1, r24
    6052:	0c f4       	brge	.+2      	; 0x6056 <_Z20TouchEventManagementv+0x85e>
    6054:	e7 cd       	rjmp	.-1074   	; 0x5c24 <_Z20TouchEventManagementv+0x42c>
    6056:	07 30       	cpi	r16, 0x07	; 7
    6058:	11 05       	cpc	r17, r1
    605a:	09 f0       	breq	.+2      	; 0x605e <_Z20TouchEventManagementv+0x866>
    605c:	e3 cd       	rjmp	.-1082   	; 0x5c24 <_Z20TouchEventManagementv+0x42c>
    605e:	cc 24       	eor	r12, r12
    6060:	c3 94       	inc	r12
    6062:	d1 2c       	mov	r13, r1
    6064:	90 ea       	ldi	r25, 0xA0	; 160
    6066:	e9 2e       	mov	r14, r25
    6068:	f1 2c       	mov	r15, r1
    606a:	01 e0       	ldi	r16, 0x01	; 1
    606c:	10 e0       	ldi	r17, 0x00	; 0
    606e:	21 e0       	ldi	r18, 0x01	; 1
    6070:	30 e0       	ldi	r19, 0x00	; 0
    6072:	48 e7       	ldi	r20, 0x78	; 120
    6074:	50 e0       	ldi	r21, 0x00	; 0
    6076:	60 ea       	ldi	r22, 0xA0	; 160
    6078:	70 e0       	ldi	r23, 0x00	; 0
    607a:	87 ec       	ldi	r24, 0xC7	; 199
    607c:	9a e0       	ldi	r25, 0x0A	; 10
    607e:	0e 94 10 58 	call	0xb020	; 0xb020 <_ZN13UTFT_Geometry12fillTriangleEiiiiii>
    6082:	08 e0       	ldi	r16, 0x08	; 8
    6084:	10 e0       	ldi	r17, 0x00	; 0
    6086:	ce cd       	rjmp	.-1124   	; 0x5c24 <_Z20TouchEventManagementv+0x42c>
    6088:	26 96       	adiw	r28, 0x06	; 6
    608a:	0f b6       	in	r0, 0x3f	; 63
    608c:	f8 94       	cli
    608e:	de bf       	out	0x3e, r29	; 62
    6090:	0f be       	out	0x3f, r0	; 63
    6092:	cd bf       	out	0x3d, r28	; 61
    6094:	df 91       	pop	r29
    6096:	cf 91       	pop	r28
    6098:	1f 91       	pop	r17
    609a:	0f 91       	pop	r16
    609c:	ff 90       	pop	r15
    609e:	ef 90       	pop	r14
    60a0:	df 90       	pop	r13
    60a2:	cf 90       	pop	r12
    60a4:	bf 90       	pop	r11
    60a6:	af 90       	pop	r10
    60a8:	9f 90       	pop	r9
    60aa:	8f 90       	pop	r8
    60ac:	7f 90       	pop	r7
    60ae:	6f 90       	pop	r6
    60b0:	5f 90       	pop	r5
    60b2:	4f 90       	pop	r4
    60b4:	08 95       	ret

000060b6 <setup>:
	if(ActiveScreen==2)
		drawLog();
}

void setup()
{
    60b6:	0f 93       	push	r16
    60b8:	1f 93       	push	r17
    60ba:	cf 93       	push	r28
    60bc:	df 93       	push	r29
    60be:	cd b7       	in	r28, 0x3d	; 61
    60c0:	de b7       	in	r29, 0x3e	; 62
    60c2:	2c 97       	sbiw	r28, 0x0c	; 12
    60c4:	0f b6       	in	r0, 0x3f	; 63
    60c6:	f8 94       	cli
    60c8:	de bf       	out	0x3e, r29	; 62
    60ca:	0f be       	out	0x3f, r0	; 63
    60cc:	cd bf       	out	0x3d, r28	; 61
	
	myTouch.InitTouch();
    60ce:	61 e0       	ldi	r22, 0x01	; 1
    60d0:	89 ec       	ldi	r24, 0xC9	; 201
    60d2:	9a e0       	ldi	r25, 0x0A	; 10
    60d4:	0e 94 0e 3f 	call	0x7e1c	; 0x7e1c <_ZN7URTouch9InitTouchEh>
	myTouch.setPrecision(PREC_MEDIUM);
    60d8:	62 e0       	ldi	r22, 0x02	; 2
    60da:	89 ec       	ldi	r24, 0xC9	; 201
    60dc:	9a e0       	ldi	r25, 0x0A	; 10
    60de:	0e 94 1c 43 	call	0x8638	; 0x8638 <_ZN7URTouch12setPrecisionEh>
	// Setup the LCD
	myGLCD.InitLCD();
    60e2:	61 e0       	ldi	r22, 0x01	; 1
    60e4:	84 e0       	ldi	r24, 0x04	; 4
    60e6:	9b e0       	ldi	r25, 0x0B	; 11
    60e8:	0e 94 3d 4a 	call	0x947a	; 0x947a <_ZN4UTFT7InitLCDEh>
	
	myGLCD.setFont(BigFont);
    60ec:	6a e0       	ldi	r22, 0x0A	; 10
    60ee:	72 e2       	ldi	r23, 0x22	; 34
    60f0:	84 e0       	ldi	r24, 0x04	; 4
    60f2:	9b e0       	ldi	r25, 0x0B	; 11
    60f4:	0e 94 f1 57 	call	0xafe2	; 0xafe2 <_ZN4UTFT7setFontEPh>
	int x, x2;
	int y, y2;
	int r;*/

	// Clear the screen and draw the frame
	myGLCD.clrScr();
    60f8:	84 e0       	ldi	r24, 0x04	; 4
    60fa:	9b e0       	ldi	r25, 0x0B	; 11
    60fc:	0e 94 fd 4c 	call	0x99fa	; 0x99fa <_ZN4UTFT6clrScrEv>
	myGLCD.setColor(WHITE);
    6100:	2f ef       	ldi	r18, 0xFF	; 255
    6102:	4f ef       	ldi	r20, 0xFF	; 255
    6104:	6f ef       	ldi	r22, 0xFF	; 255
    6106:	84 e0       	ldi	r24, 0x04	; 4
    6108:	9b e0       	ldi	r25, 0x0B	; 11
    610a:	0e 94 97 4d 	call	0x9b2e	; 0x9b2e <_ZN4UTFT8setColorEhhh>
	myGLCD.setBackColor(WHITE);
    610e:	2f ef       	ldi	r18, 0xFF	; 255
    6110:	4f ef       	ldi	r20, 0xFF	; 255
    6112:	6f ef       	ldi	r22, 0xFF	; 255
    6114:	84 e0       	ldi	r24, 0x04	; 4
    6116:	9b e0       	ldi	r25, 0x0B	; 11
    6118:	0e 94 ab 4d 	call	0x9b56	; 0x9b56 <_ZN4UTFT12setBackColorEhhh>
	myGLCD.fillRect(0,0,319,239);
    611c:	0f ee       	ldi	r16, 0xEF	; 239
    611e:	10 e0       	ldi	r17, 0x00	; 0
    6120:	2f e3       	ldi	r18, 0x3F	; 63
    6122:	31 e0       	ldi	r19, 0x01	; 1
    6124:	40 e0       	ldi	r20, 0x00	; 0
    6126:	50 e0       	ldi	r21, 0x00	; 0
    6128:	60 e0       	ldi	r22, 0x00	; 0
    612a:	70 e0       	ldi	r23, 0x00	; 0
    612c:	84 e0       	ldi	r24, 0x04	; 4
    612e:	9b e0       	ldi	r25, 0x0B	; 11
    6130:	0e 94 ab 50 	call	0xa156	; 0xa156 <_ZN4UTFT8fillRectEiiii>
	
	#ifdef USE_GRAPHICS
		myGLCD.drawBitmap (110, 47, 100,146, BB8);
	#endif

	myGLCD.setColor(BLACK);
    6134:	20 e0       	ldi	r18, 0x00	; 0
    6136:	40 e0       	ldi	r20, 0x00	; 0
    6138:	60 e0       	ldi	r22, 0x00	; 0
    613a:	84 e0       	ldi	r24, 0x04	; 4
    613c:	9b e0       	ldi	r25, 0x0B	; 11
    613e:	0e 94 97 4d 	call	0x9b2e	; 0x9b2e <_ZN4UTFT8setColorEhhh>
	myGLCD.setFont(SmallFont);
    6142:	6e ee       	ldi	r22, 0xEE	; 238
    6144:	7d e2       	ldi	r23, 0x2D	; 45
    6146:	84 e0       	ldi	r24, 0x04	; 4
    6148:	9b e0       	ldi	r25, 0x0B	; 11
    614a:	0e 94 f1 57 	call	0xafe2	; 0xafe2 <_ZN4UTFT7setFontEPh>
	myGLCD.print("Universal Remote", CENTER, 0);
    614e:	00 e0       	ldi	r16, 0x00	; 0
    6150:	10 e0       	ldi	r17, 0x00	; 0
    6152:	20 e0       	ldi	r18, 0x00	; 0
    6154:	30 e0       	ldi	r19, 0x00	; 0
    6156:	4e e0       	ldi	r20, 0x0E	; 14
    6158:	57 e2       	ldi	r21, 0x27	; 39
    615a:	67 ea       	ldi	r22, 0xA7	; 167
    615c:	74 e0       	ldi	r23, 0x04	; 4
    615e:	84 e0       	ldi	r24, 0x04	; 4
    6160:	9b e0       	ldi	r25, 0x0B	; 11
    6162:	0e 94 1d 56 	call	0xac3a	; 0xac3a <_ZN4UTFT5printEPciii>
	myGLCD.print("(c)2016 Florian Laschober", CENTER, 227);
    6166:	23 ee       	ldi	r18, 0xE3	; 227
    6168:	30 e0       	ldi	r19, 0x00	; 0
    616a:	4e e0       	ldi	r20, 0x0E	; 14
    616c:	57 e2       	ldi	r21, 0x27	; 39
    616e:	68 eb       	ldi	r22, 0xB8	; 184
    6170:	74 e0       	ldi	r23, 0x04	; 4
    6172:	84 e0       	ldi	r24, 0x04	; 4
    6174:	9b e0       	ldi	r25, 0x0B	; 11
    6176:	0e 94 1d 56 	call	0xac3a	; 0xac3a <_ZN4UTFT5printEPciii>
	addLog("LOG:");
    617a:	62 ed       	ldi	r22, 0xD2	; 210
    617c:	74 e0       	ldi	r23, 0x04	; 4
    617e:	ce 01       	movw	r24, r28
    6180:	01 96       	adiw	r24, 0x01	; 1
    6182:	0e 94 7c 3d 	call	0x7af8	; 0x7af8 <_ZN6StringC1EPKc>
    6186:	ce 01       	movw	r24, r28
    6188:	01 96       	adiw	r24, 0x01	; 1
    618a:	0e 94 da 1c 	call	0x39b4	; 0x39b4 <_Z6addLog6String>
    618e:	ce 01       	movw	r24, r28
    6190:	01 96       	adiw	r24, 0x01	; 1
    6192:	0e 94 11 3d 	call	0x7a22	; 0x7a22 <_ZN6StringD1Ev>
	
	String test="PT1";
    6196:	67 ed       	ldi	r22, 0xD7	; 215
    6198:	74 e0       	ldi	r23, 0x04	; 4
    619a:	ce 01       	movw	r24, r28
    619c:	07 96       	adiw	r24, 0x07	; 7
    619e:	0e 94 7c 3d 	call	0x7af8	; 0x7af8 <_ZN6StringC1EPKc>
	addMenuEntryIntNum(test, 0, 1,IntCallBack);			//control Char; type; init value max 3 digits ended with ';'; label ending with ';'
    61a2:	be 01       	movw	r22, r28
    61a4:	69 5f       	subi	r22, 0xF9	; 249
    61a6:	7f 4f       	sbci	r23, 0xFF	; 255
    61a8:	ce 01       	movw	r24, r28
    61aa:	01 96       	adiw	r24, 0x01	; 1
    61ac:	0e 94 a5 3d 	call	0x7b4a	; 0x7b4a <_ZN6StringC1ERKS_>
    61b0:	25 e9       	ldi	r18, 0x95	; 149
    61b2:	3a e2       	ldi	r19, 0x2A	; 42
    61b4:	41 e0       	ldi	r20, 0x01	; 1
    61b6:	50 e0       	ldi	r21, 0x00	; 0
    61b8:	60 e0       	ldi	r22, 0x00	; 0
    61ba:	70 e0       	ldi	r23, 0x00	; 0
    61bc:	ce 01       	movw	r24, r28
    61be:	01 96       	adiw	r24, 0x01	; 1
    61c0:	0e 94 61 20 	call	0x40c2	; 0x40c2 <_Z18addMenuEntryIntNum6StringiiPFvaiE>
    61c4:	ce 01       	movw	r24, r28
    61c6:	01 96       	adiw	r24, 0x01	; 1
    61c8:	0e 94 11 3d 	call	0x7a22	; 0x7a22 <_ZN6StringD1Ev>

	ESP8266_registerMessageCallback(&recMessFunc1);
    61cc:	89 ea       	ldi	r24, 0xA9	; 169
    61ce:	92 e2       	ldi	r25, 0x22	; 34
    61d0:	0e 94 87 19 	call	0x330e	; 0x330e <ESP8266_registerMessageCallback>

	InitSucsessfull=0;
    61d4:	10 92 8a 05 	sts	0x058A, r1	; 0x80058a <InitSucsessfull>
	ESP8266_Init();
    61d8:	0e 94 8c 19 	call	0x3318	; 0x3318 <ESP8266_Init>
  public:
    inline HardwareSerial(
      volatile uint8_t *ubrrh, volatile uint8_t *ubrrl,
      volatile uint8_t *ucsra, volatile uint8_t *ucsrb,
      volatile uint8_t *ucsrc, volatile uint8_t *udr);
    void begin(unsigned long baud) { begin(baud, SERIAL_8N1); }
    61dc:	26 e0       	ldi	r18, 0x06	; 6
    61de:	40 e8       	ldi	r20, 0x80	; 128
    61e0:	55 e2       	ldi	r21, 0x25	; 37
    61e2:	60 e0       	ldi	r22, 0x00	; 0
    61e4:	70 e0       	ldi	r23, 0x00	; 0
    61e6:	89 e5       	ldi	r24, 0x59	; 89
    61e8:	9b e0       	ldi	r25, 0x0B	; 11
    61ea:	d7 d7       	rcall	.+4014   	; 0x719a <_ZN14HardwareSerial5beginEmh>
	TIMSK1 |= (1<<OCIE1A);

	OCR1A = 3124;//12.4ms
	
	sei();*/
	Serial.begin(9600);
    61ec:	ce 01       	movw	r24, r28
    61ee:	07 96       	adiw	r24, 0x07	; 7
    61f0:	0e 94 11 3d 	call	0x7a22	; 0x7a22 <_ZN6StringD1Ev>
}
    61f4:	2c 96       	adiw	r28, 0x0c	; 12
    61f6:	0f b6       	in	r0, 0x3f	; 63
    61f8:	f8 94       	cli
    61fa:	de bf       	out	0x3e, r29	; 62
    61fc:	0f be       	out	0x3f, r0	; 63
    61fe:	cd bf       	out	0x3d, r28	; 61
    6200:	df 91       	pop	r29
    6202:	cf 91       	pop	r28
    6204:	1f 91       	pop	r17
    6206:	0f 91       	pop	r16
    6208:	08 95       	ret

0000620a <_Z13drawLinePolariiii>:

void drawLinePolar(int x, int y, int r, int p)
{
    620a:	2f 92       	push	r2
    620c:	3f 92       	push	r3
    620e:	4f 92       	push	r4
    6210:	5f 92       	push	r5
    6212:	6f 92       	push	r6
    6214:	7f 92       	push	r7
    6216:	8f 92       	push	r8
    6218:	9f 92       	push	r9
    621a:	af 92       	push	r10
    621c:	bf 92       	push	r11
    621e:	cf 92       	push	r12
    6220:	df 92       	push	r13
    6222:	ef 92       	push	r14
    6224:	ff 92       	push	r15
    6226:	0f 93       	push	r16
    6228:	1f 93       	push	r17
    622a:	cf 93       	push	r28
    622c:	df 93       	push	r29
    622e:	00 d0       	rcall	.+0      	; 0x6230 <_Z13drawLinePolariiii+0x26>
    6230:	1f 92       	push	r1
    6232:	cd b7       	in	r28, 0x3d	; 61
    6234:	de b7       	in	r29, 0x3e	; 62
    6236:	7c 01       	movw	r14, r24
    6238:	6b 01       	movw	r12, r22
    623a:	b9 01       	movw	r22, r18
    623c:	03 2e       	mov	r0, r19
    623e:	00 0c       	add	r0, r0
    6240:	88 0b       	sbc	r24, r24
    6242:	99 0b       	sbc	r25, r25
    6244:	2a 01       	movw	r4, r20
    6246:	55 0f       	add	r21, r21
    6248:	66 08       	sbc	r6, r6
    624a:	77 08       	sbc	r7, r7
	int x1,y1;
	
	if(p<=180)
    624c:	25 3b       	cpi	r18, 0xB5	; 181
    624e:	31 05       	cpc	r19, r1
    6250:	64 f5       	brge	.+88     	; 0x62aa <_Z13drawLinePolariiii+0xa0>
	{
		p=((2*PI)/360)*p;
    6252:	b7 d4       	rcall	.+2414   	; 0x6bc2 <__floatsisf>
    6254:	25 e3       	ldi	r18, 0x35	; 53
    6256:	3a ef       	ldi	r19, 0xFA	; 250
    6258:	4e e8       	ldi	r20, 0x8E	; 142
    625a:	5c e3       	ldi	r21, 0x3C	; 60
    625c:	db d5       	rcall	.+2998   	; 0x6e14 <__mulsf3>
    625e:	69 83       	std	Y+1, r22	; 0x01
    6260:	7a 83       	std	Y+2, r23	; 0x02
    6262:	8b 83       	std	Y+3, r24	; 0x03
    6264:	9c 83       	std	Y+4, r25	; 0x04
		x1=r*cos(p);
    6266:	c3 01       	movw	r24, r6
    6268:	b2 01       	movw	r22, r4
    626a:	ab d4       	rcall	.+2390   	; 0x6bc2 <__floatsisf>
    626c:	4b 01       	movw	r8, r22
    626e:	5c 01       	movw	r10, r24
{
	int x1,y1;
	
	if(p<=180)
	{
		p=((2*PI)/360)*p;
    6270:	69 81       	ldd	r22, Y+1	; 0x01
    6272:	7a 81       	ldd	r23, Y+2	; 0x02
    6274:	8b 81       	ldd	r24, Y+3	; 0x03
    6276:	9c 81       	ldd	r25, Y+4	; 0x04
    6278:	71 d4       	rcall	.+2274   	; 0x6b5c <__fixsfsi>
		x1=r*cos(p);
    627a:	07 2e       	mov	r0, r23
    627c:	00 0c       	add	r0, r0
    627e:	88 0b       	sbc	r24, r24
    6280:	99 0b       	sbc	r25, r25
    6282:	9f d4       	rcall	.+2366   	; 0x6bc2 <__floatsisf>
    6284:	2b 01       	movw	r4, r22
    6286:	3c 01       	movw	r6, r24
    6288:	fe d3       	rcall	.+2044   	; 0x6a86 <cos>
    628a:	9b 01       	movw	r18, r22
    628c:	ac 01       	movw	r20, r24
    628e:	c5 01       	movw	r24, r10
    6290:	b4 01       	movw	r22, r8
    6292:	c0 d5       	rcall	.+2944   	; 0x6e14 <__mulsf3>
    6294:	63 d4       	rcall	.+2246   	; 0x6b5c <__fixsfsi>
    6296:	1b 01       	movw	r2, r22
		y1=r*sin(p);
    6298:	c3 01       	movw	r24, r6
    629a:	b2 01       	movw	r22, r4
    629c:	1e d6       	rcall	.+3132   	; 0x6eda <sin>
    629e:	9b 01       	movw	r18, r22
    62a0:	ac 01       	movw	r20, r24
    62a2:	c5 01       	movw	r24, r10
    62a4:	b4 01       	movw	r22, r8
    62a6:	b6 d5       	rcall	.+2924   	; 0x6e14 <__mulsf3>
    62a8:	2b c0       	rjmp	.+86     	; 0x6300 <_Z13drawLinePolariiii+0xf6>
	}
	else
	{
		p=((2*PI)/360)*p;
    62aa:	8b d4       	rcall	.+2326   	; 0x6bc2 <__floatsisf>
    62ac:	25 e3       	ldi	r18, 0x35	; 53
    62ae:	3a ef       	ldi	r19, 0xFA	; 250
    62b0:	4e e8       	ldi	r20, 0x8E	; 142
    62b2:	5c e3       	ldi	r21, 0x3C	; 60
    62b4:	af d5       	rcall	.+2910   	; 0x6e14 <__mulsf3>
    62b6:	52 d4       	rcall	.+2212   	; 0x6b5c <__fixsfsi>
    62b8:	4b 01       	movw	r8, r22
    62ba:	5c 01       	movw	r10, r24
		x1=r*cos(p);
    62bc:	c3 01       	movw	r24, r6
    62be:	b2 01       	movw	r22, r4
    62c0:	80 d4       	rcall	.+2304   	; 0x6bc2 <__floatsisf>
    62c2:	2b 01       	movw	r4, r22
    62c4:	3c 01       	movw	r6, r24
    62c6:	b4 01       	movw	r22, r8
    62c8:	09 2c       	mov	r0, r9
    62ca:	00 0c       	add	r0, r0
    62cc:	88 0b       	sbc	r24, r24
    62ce:	99 0b       	sbc	r25, r25
    62d0:	78 d4       	rcall	.+2288   	; 0x6bc2 <__floatsisf>
    62d2:	d9 d3       	rcall	.+1970   	; 0x6a86 <cos>
    62d4:	9b 01       	movw	r18, r22
    62d6:	ac 01       	movw	r20, r24
    62d8:	c3 01       	movw	r24, r6
    62da:	b2 01       	movw	r22, r4
    62dc:	9b d5       	rcall	.+2870   	; 0x6e14 <__mulsf3>
    62de:	3e d4       	rcall	.+2172   	; 0x6b5c <__fixsfsi>
    62e0:	1b 01       	movw	r2, r22
		p-=180;
    62e2:	b4 01       	movw	r22, r8
    62e4:	64 5b       	subi	r22, 0xB4	; 180
    62e6:	71 09       	sbc	r23, r1
		y1=r*sin(p)*-1;
    62e8:	07 2e       	mov	r0, r23
    62ea:	00 0c       	add	r0, r0
    62ec:	88 0b       	sbc	r24, r24
    62ee:	99 0b       	sbc	r25, r25
    62f0:	68 d4       	rcall	.+2256   	; 0x6bc2 <__floatsisf>
    62f2:	f3 d5       	rcall	.+3046   	; 0x6eda <sin>
    62f4:	9b 01       	movw	r18, r22
    62f6:	ac 01       	movw	r20, r24
    62f8:	c3 01       	movw	r24, r6
    62fa:	b2 01       	movw	r22, r4
    62fc:	8b d5       	rcall	.+2838   	; 0x6e14 <__mulsf3>
    62fe:	90 58       	subi	r25, 0x80	; 128
    6300:	2d d4       	rcall	.+2138   	; 0x6b5c <__fixsfsi>
    6302:	8b 01       	movw	r16, r22
	}
	Serial.print(x1);
    6304:	4a e0       	ldi	r20, 0x0A	; 10
    6306:	50 e0       	ldi	r21, 0x00	; 0
    6308:	b1 01       	movw	r22, r2
    630a:	89 e5       	ldi	r24, 0x59	; 89
    630c:	9b e0       	ldi	r25, 0x0B	; 11
    630e:	0e 94 b8 3a 	call	0x7570	; 0x7570 <_ZN5Print5printEii>
	Serial.print(",");
    6312:	62 ef       	ldi	r22, 0xF2	; 242
    6314:	73 e0       	ldi	r23, 0x03	; 3
    6316:	89 e5       	ldi	r24, 0x59	; 89
    6318:	9b e0       	ldi	r25, 0x0B	; 11
    631a:	0e 94 13 3a 	call	0x7426	; 0x7426 <_ZN5Print5printEPKc>
	Serial.println(y1);
    631e:	4a e0       	ldi	r20, 0x0A	; 10
    6320:	50 e0       	ldi	r21, 0x00	; 0
    6322:	b8 01       	movw	r22, r16
    6324:	89 e5       	ldi	r24, 0x59	; 89
    6326:	9b e0       	ldi	r25, 0x0B	; 11
    6328:	0e 94 be 3a 	call	0x757c	; 0x757c <_ZN5Print7printlnEii>
	myGLCD.drawLine(x,y,x+x1,y+y1);
    632c:	0c 0d       	add	r16, r12
    632e:	1d 1d       	adc	r17, r13
    6330:	97 01       	movw	r18, r14
    6332:	22 0d       	add	r18, r2
    6334:	33 1d       	adc	r19, r3
    6336:	a6 01       	movw	r20, r12
    6338:	b7 01       	movw	r22, r14
    633a:	84 e0       	ldi	r24, 0x04	; 4
    633c:	9b e0       	ldi	r25, 0x0B	; 11
    633e:	0e 94 a6 51 	call	0xa34c	; 0xa34c <_ZN4UTFT8drawLineEiiii>
}
    6342:	0f 90       	pop	r0
    6344:	0f 90       	pop	r0
    6346:	0f 90       	pop	r0
    6348:	0f 90       	pop	r0
    634a:	df 91       	pop	r29
    634c:	cf 91       	pop	r28
    634e:	1f 91       	pop	r17
    6350:	0f 91       	pop	r16
    6352:	ff 90       	pop	r15
    6354:	ef 90       	pop	r14
    6356:	df 90       	pop	r13
    6358:	cf 90       	pop	r12
    635a:	bf 90       	pop	r11
    635c:	af 90       	pop	r10
    635e:	9f 90       	pop	r9
    6360:	8f 90       	pop	r8
    6362:	7f 90       	pop	r7
    6364:	6f 90       	pop	r6
    6366:	5f 90       	pop	r5
    6368:	4f 90       	pop	r4
    636a:	3f 90       	pop	r3
    636c:	2f 90       	pop	r2
    636e:	08 95       	ret

00006370 <_Z16drawJoystickTestv>:

void drawJoystickTest()
{
    6370:	cf 93       	push	r28
    6372:	df 93       	push	r29
    6374:	cd b7       	in	r28, 0x3d	; 61
    6376:	de b7       	in	r29, 0x3e	; 62
    6378:	64 97       	sbiw	r28, 0x14	; 20
    637a:	0f b6       	in	r0, 0x3f	; 63
    637c:	f8 94       	cli
    637e:	de bf       	out	0x3e, r29	; 62
    6380:	0f be       	out	0x3f, r0	; 63
    6382:	cd bf       	out	0x3d, r28	; 61
	static RandL values,oldValues;
	values=myJoystick.Calulate();
    6384:	61 ea       	ldi	r22, 0xA1	; 161
    6386:	7a e0       	ldi	r23, 0x0A	; 10
    6388:	ce 01       	movw	r24, r28
    638a:	01 96       	adiw	r24, 0x01	; 1
    638c:	0e 94 6d 1a 	call	0x34da	; 0x34da <_ZN8Joystick8CalulateEv>
    6390:	80 e1       	ldi	r24, 0x10	; 16
    6392:	fe 01       	movw	r30, r28
    6394:	31 96       	adiw	r30, 0x01	; 1
    6396:	a7 e7       	ldi	r26, 0x77	; 119
    6398:	b5 e0       	ldi	r27, 0x05	; 5
    639a:	01 90       	ld	r0, Z+
    639c:	0d 92       	st	X+, r0
    639e:	8a 95       	dec	r24
    63a0:	e1 f7       	brne	.-8      	; 0x639a <_Z16drawJoystickTestv+0x2a>
	
	if(values.L.extend!=oldValues.L.extend||values.L.angle!=oldValues.L.angle)
    63a2:	20 91 6f 05 	lds	r18, 0x056F	; 0x80056f <_ZZ16drawJoystickTestvE9oldValues+0x8>
    63a6:	30 91 70 05 	lds	r19, 0x0570	; 0x800570 <_ZZ16drawJoystickTestvE9oldValues+0x9>
    63aa:	40 91 71 05 	lds	r20, 0x0571	; 0x800571 <_ZZ16drawJoystickTestvE9oldValues+0xa>
    63ae:	50 91 72 05 	lds	r21, 0x0572	; 0x800572 <_ZZ16drawJoystickTestvE9oldValues+0xb>
    63b2:	60 91 7f 05 	lds	r22, 0x057F	; 0x80057f <_ZZ16drawJoystickTestvE6values+0x8>
    63b6:	70 91 80 05 	lds	r23, 0x0580	; 0x800580 <_ZZ16drawJoystickTestvE6values+0x9>
    63ba:	80 91 81 05 	lds	r24, 0x0581	; 0x800581 <_ZZ16drawJoystickTestvE6values+0xa>
    63be:	90 91 82 05 	lds	r25, 0x0582	; 0x800582 <_ZZ16drawJoystickTestvE6values+0xb>
    63c2:	5d d3       	rcall	.+1722   	; 0x6a7e <__cmpsf2>
    63c4:	81 11       	cpse	r24, r1
    63c6:	14 c0       	rjmp	.+40     	; 0x63f0 <_Z16drawJoystickTestv+0x80>
    63c8:	20 91 73 05 	lds	r18, 0x0573	; 0x800573 <_ZZ16drawJoystickTestvE9oldValues+0xc>
    63cc:	30 91 74 05 	lds	r19, 0x0574	; 0x800574 <_ZZ16drawJoystickTestvE9oldValues+0xd>
    63d0:	40 91 75 05 	lds	r20, 0x0575	; 0x800575 <_ZZ16drawJoystickTestvE9oldValues+0xe>
    63d4:	50 91 76 05 	lds	r21, 0x0576	; 0x800576 <_ZZ16drawJoystickTestvE9oldValues+0xf>
    63d8:	60 91 83 05 	lds	r22, 0x0583	; 0x800583 <_ZZ16drawJoystickTestvE6values+0xc>
    63dc:	70 91 84 05 	lds	r23, 0x0584	; 0x800584 <_ZZ16drawJoystickTestvE6values+0xd>
    63e0:	80 91 85 05 	lds	r24, 0x0585	; 0x800585 <_ZZ16drawJoystickTestvE6values+0xe>
    63e4:	90 91 86 05 	lds	r25, 0x0586	; 0x800586 <_ZZ16drawJoystickTestvE6values+0xf>
    63e8:	4a d3       	rcall	.+1684   	; 0x6a7e <__cmpsf2>
    63ea:	88 23       	and	r24, r24
    63ec:	09 f4       	brne	.+2      	; 0x63f0 <_Z16drawJoystickTestv+0x80>
    63ee:	4b c0       	rjmp	.+150    	; 0x6486 <_Z16drawJoystickTestv+0x116>
	{
		myGLCD.setColor(RED);
    63f0:	2f ef       	ldi	r18, 0xFF	; 255
    63f2:	40 e0       	ldi	r20, 0x00	; 0
    63f4:	60 e0       	ldi	r22, 0x00	; 0
    63f6:	84 e0       	ldi	r24, 0x04	; 4
    63f8:	9b e0       	ldi	r25, 0x0B	; 11
    63fa:	0e 94 97 4d 	call	0x9b2e	; 0x9b2e <_ZN4UTFT8setColorEhhh>
		myGLCD.fillCircle(70,120,60);
    63fe:	2c e3       	ldi	r18, 0x3C	; 60
    6400:	30 e0       	ldi	r19, 0x00	; 0
    6402:	48 e7       	ldi	r20, 0x78	; 120
    6404:	50 e0       	ldi	r21, 0x00	; 0
    6406:	66 e4       	ldi	r22, 0x46	; 70
    6408:	70 e0       	ldi	r23, 0x00	; 0
    640a:	84 e0       	ldi	r24, 0x04	; 4
    640c:	9b e0       	ldi	r25, 0x0B	; 11
    640e:	0e 94 f2 4e 	call	0x9de4	; 0x9de4 <_ZN4UTFT10fillCircleEiii>
		myGLCD.setColor(GREEN);
    6412:	20 e0       	ldi	r18, 0x00	; 0
    6414:	4f ef       	ldi	r20, 0xFF	; 255
    6416:	60 e0       	ldi	r22, 0x00	; 0
    6418:	84 e0       	ldi	r24, 0x04	; 4
    641a:	9b e0       	ldi	r25, 0x0B	; 11
    641c:	0e 94 97 4d 	call	0x9b2e	; 0x9b2e <_ZN4UTFT8setColorEhhh>
		myGLCD.drawCircle(70,120,60);
    6420:	2c e3       	ldi	r18, 0x3C	; 60
    6422:	30 e0       	ldi	r19, 0x00	; 0
    6424:	48 e7       	ldi	r20, 0x78	; 120
    6426:	50 e0       	ldi	r21, 0x00	; 0
    6428:	66 e4       	ldi	r22, 0x46	; 70
    642a:	70 e0       	ldi	r23, 0x00	; 0
    642c:	84 e0       	ldi	r24, 0x04	; 4
    642e:	9b e0       	ldi	r25, 0x0B	; 11
    6430:	0e 94 b0 4b 	call	0x9760	; 0x9760 <_ZN4UTFT10drawCircleEiii>
		drawLinePolar(70,120,values.L.extend,values.L.angle);
    6434:	60 91 83 05 	lds	r22, 0x0583	; 0x800583 <_ZZ16drawJoystickTestvE6values+0xc>
    6438:	70 91 84 05 	lds	r23, 0x0584	; 0x800584 <_ZZ16drawJoystickTestvE6values+0xd>
    643c:	80 91 85 05 	lds	r24, 0x0585	; 0x800585 <_ZZ16drawJoystickTestvE6values+0xe>
    6440:	90 91 86 05 	lds	r25, 0x0586	; 0x800586 <_ZZ16drawJoystickTestvE6values+0xf>
    6444:	8b d3       	rcall	.+1814   	; 0x6b5c <__fixsfsi>
    6446:	9b 01       	movw	r18, r22
    6448:	ac 01       	movw	r20, r24
    644a:	60 91 7f 05 	lds	r22, 0x057F	; 0x80057f <_ZZ16drawJoystickTestvE6values+0x8>
    644e:	70 91 80 05 	lds	r23, 0x0580	; 0x800580 <_ZZ16drawJoystickTestvE6values+0x9>
    6452:	80 91 81 05 	lds	r24, 0x0581	; 0x800581 <_ZZ16drawJoystickTestvE6values+0xa>
    6456:	90 91 82 05 	lds	r25, 0x0582	; 0x800582 <_ZZ16drawJoystickTestvE6values+0xb>
    645a:	29 8b       	std	Y+17, r18	; 0x11
    645c:	3a 8b       	std	Y+18, r19	; 0x12
    645e:	4b 8b       	std	Y+19, r20	; 0x13
    6460:	5c 8b       	std	Y+20, r21	; 0x14
    6462:	7c d3       	rcall	.+1784   	; 0x6b5c <__fixsfsi>
    6464:	29 89       	ldd	r18, Y+17	; 0x11
    6466:	3a 89       	ldd	r19, Y+18	; 0x12
    6468:	ab 01       	movw	r20, r22
    646a:	68 e7       	ldi	r22, 0x78	; 120
    646c:	70 e0       	ldi	r23, 0x00	; 0
    646e:	86 e4       	ldi	r24, 0x46	; 70
    6470:	90 e0       	ldi	r25, 0x00	; 0
    6472:	cb de       	rcall	.-618    	; 0x620a <_Z13drawLinePolariiii>
		/*myGLCD.setColor(BLUE);
		myGLCD.fillRect(60,1,180,120);*/
		oldValues=values;
    6474:	80 e1       	ldi	r24, 0x10	; 16
    6476:	e7 e7       	ldi	r30, 0x77	; 119
    6478:	f5 e0       	ldi	r31, 0x05	; 5
    647a:	a7 e6       	ldi	r26, 0x67	; 103
    647c:	b5 e0       	ldi	r27, 0x05	; 5
    647e:	01 90       	ld	r0, Z+
    6480:	0d 92       	st	X+, r0
    6482:	8a 95       	dec	r24
    6484:	e1 f7       	brne	.-8      	; 0x647e <_Z16drawJoystickTestv+0x10e>
	}if(values.R.extend!=oldValues.R.extend||values.R.angle!=oldValues.R.angle)
    6486:	20 91 67 05 	lds	r18, 0x0567	; 0x800567 <_ZZ16drawJoystickTestvE9oldValues>
    648a:	30 91 68 05 	lds	r19, 0x0568	; 0x800568 <_ZZ16drawJoystickTestvE9oldValues+0x1>
    648e:	40 91 69 05 	lds	r20, 0x0569	; 0x800569 <_ZZ16drawJoystickTestvE9oldValues+0x2>
    6492:	50 91 6a 05 	lds	r21, 0x056A	; 0x80056a <_ZZ16drawJoystickTestvE9oldValues+0x3>
    6496:	60 91 77 05 	lds	r22, 0x0577	; 0x800577 <_ZZ16drawJoystickTestvE6values>
    649a:	70 91 78 05 	lds	r23, 0x0578	; 0x800578 <_ZZ16drawJoystickTestvE6values+0x1>
    649e:	80 91 79 05 	lds	r24, 0x0579	; 0x800579 <_ZZ16drawJoystickTestvE6values+0x2>
    64a2:	90 91 7a 05 	lds	r25, 0x057A	; 0x80057a <_ZZ16drawJoystickTestvE6values+0x3>
    64a6:	eb d2       	rcall	.+1494   	; 0x6a7e <__cmpsf2>
    64a8:	81 11       	cpse	r24, r1
    64aa:	13 c0       	rjmp	.+38     	; 0x64d2 <_Z16drawJoystickTestv+0x162>
    64ac:	20 91 6b 05 	lds	r18, 0x056B	; 0x80056b <_ZZ16drawJoystickTestvE9oldValues+0x4>
    64b0:	30 91 6c 05 	lds	r19, 0x056C	; 0x80056c <_ZZ16drawJoystickTestvE9oldValues+0x5>
    64b4:	40 91 6d 05 	lds	r20, 0x056D	; 0x80056d <_ZZ16drawJoystickTestvE9oldValues+0x6>
    64b8:	50 91 6e 05 	lds	r21, 0x056E	; 0x80056e <_ZZ16drawJoystickTestvE9oldValues+0x7>
    64bc:	60 91 7b 05 	lds	r22, 0x057B	; 0x80057b <_ZZ16drawJoystickTestvE6values+0x4>
    64c0:	70 91 7c 05 	lds	r23, 0x057C	; 0x80057c <_ZZ16drawJoystickTestvE6values+0x5>
    64c4:	80 91 7d 05 	lds	r24, 0x057D	; 0x80057d <_ZZ16drawJoystickTestvE6values+0x6>
    64c8:	90 91 7e 05 	lds	r25, 0x057E	; 0x80057e <_ZZ16drawJoystickTestvE6values+0x7>
    64cc:	d8 d2       	rcall	.+1456   	; 0x6a7e <__cmpsf2>
    64ce:	88 23       	and	r24, r24
    64d0:	59 f1       	breq	.+86     	; 0x6528 <_Z16drawJoystickTestv+0x1b8>
	{		
		myGLCD.setColor(RED);
    64d2:	2f ef       	ldi	r18, 0xFF	; 255
    64d4:	40 e0       	ldi	r20, 0x00	; 0
    64d6:	60 e0       	ldi	r22, 0x00	; 0
    64d8:	84 e0       	ldi	r24, 0x04	; 4
    64da:	9b e0       	ldi	r25, 0x0B	; 11
    64dc:	0e 94 97 4d 	call	0x9b2e	; 0x9b2e <_ZN4UTFT8setColorEhhh>
		myGLCD.fillCircle(250,120,60);
    64e0:	2c e3       	ldi	r18, 0x3C	; 60
    64e2:	30 e0       	ldi	r19, 0x00	; 0
    64e4:	48 e7       	ldi	r20, 0x78	; 120
    64e6:	50 e0       	ldi	r21, 0x00	; 0
    64e8:	6a ef       	ldi	r22, 0xFA	; 250
    64ea:	70 e0       	ldi	r23, 0x00	; 0
    64ec:	84 e0       	ldi	r24, 0x04	; 4
    64ee:	9b e0       	ldi	r25, 0x0B	; 11
    64f0:	0e 94 f2 4e 	call	0x9de4	; 0x9de4 <_ZN4UTFT10fillCircleEiii>
		myGLCD.setColor(GREEN);
    64f4:	20 e0       	ldi	r18, 0x00	; 0
    64f6:	4f ef       	ldi	r20, 0xFF	; 255
    64f8:	60 e0       	ldi	r22, 0x00	; 0
    64fa:	84 e0       	ldi	r24, 0x04	; 4
    64fc:	9b e0       	ldi	r25, 0x0B	; 11
    64fe:	0e 94 97 4d 	call	0x9b2e	; 0x9b2e <_ZN4UTFT8setColorEhhh>
		myGLCD.drawCircle(250,120,60);
    6502:	2c e3       	ldi	r18, 0x3C	; 60
    6504:	30 e0       	ldi	r19, 0x00	; 0
    6506:	48 e7       	ldi	r20, 0x78	; 120
    6508:	50 e0       	ldi	r21, 0x00	; 0
    650a:	6a ef       	ldi	r22, 0xFA	; 250
    650c:	70 e0       	ldi	r23, 0x00	; 0
    650e:	84 e0       	ldi	r24, 0x04	; 4
    6510:	9b e0       	ldi	r25, 0x0B	; 11
    6512:	0e 94 b0 4b 	call	0x9760	; 0x9760 <_ZN4UTFT10drawCircleEiii>
		
		oldValues=values;
    6516:	80 e1       	ldi	r24, 0x10	; 16
    6518:	e7 e7       	ldi	r30, 0x77	; 119
    651a:	f5 e0       	ldi	r31, 0x05	; 5
    651c:	a7 e6       	ldi	r26, 0x67	; 103
    651e:	b5 e0       	ldi	r27, 0x05	; 5
    6520:	01 90       	ld	r0, Z+
    6522:	0d 92       	st	X+, r0
    6524:	8a 95       	dec	r24
    6526:	e1 f7       	brne	.-8      	; 0x6520 <_Z16drawJoystickTestv+0x1b0>
	}
}
    6528:	64 96       	adiw	r28, 0x14	; 20
    652a:	0f b6       	in	r0, 0x3f	; 63
    652c:	f8 94       	cli
    652e:	de bf       	out	0x3e, r29	; 62
    6530:	0f be       	out	0x3f, r0	; 63
    6532:	cd bf       	out	0x3d, r28	; 61
    6534:	df 91       	pop	r29
    6536:	cf 91       	pop	r28
    6538:	08 95       	ret

0000653a <loop>:

void loop()
{
    653a:	cf 93       	push	r28
    653c:	df 93       	push	r29
    653e:	cd b7       	in	r28, 0x3d	; 61
    6540:	de b7       	in	r29, 0x3e	; 62
    6542:	60 97       	sbiw	r28, 0x10	; 16
    6544:	0f b6       	in	r0, 0x3f	; 63
    6546:	f8 94       	cli
    6548:	de bf       	out	0x3e, r29	; 62
    654a:	0f be       	out	0x3f, r0	; 63
    654c:	cd bf       	out	0x3d, r28	; 61
  	TouchEventManagement();
    654e:	54 d9       	rcall	.-3416   	; 0x57f8 <_Z20TouchEventManagementv>
	  
	if(ActiveScreen==6)//calibration
    6550:	80 91 40 0a 	lds	r24, 0x0A40	; 0x800a40 <ActiveScreen>
    6554:	90 91 41 0a 	lds	r25, 0x0A41	; 0x800a41 <ActiveScreen+0x1>
    6558:	86 30       	cpi	r24, 0x06	; 6
    655a:	91 05       	cpc	r25, r1
    655c:	31 f4       	brne	.+12     	; 0x656a <loop+0x30>
	{
		myJoystick.Calibrate(false);
    655e:	60 e0       	ldi	r22, 0x00	; 0
    6560:	81 ea       	ldi	r24, 0xA1	; 161
    6562:	9a e0       	ldi	r25, 0x0A	; 10
    6564:	0e 94 50 1c 	call	0x38a0	; 0x38a0 <_ZN8Joystick9CalibrateEb>
    6568:	02 c0       	rjmp	.+4      	; 0x656e <loop+0x34>
		drawJoystickTest();
	}else if(ActiveScreen==7)//test
    656a:	07 97       	sbiw	r24, 0x07	; 7
    656c:	09 f4       	brne	.+2      	; 0x6570 <loop+0x36>
	{
		drawJoystickTest();
    656e:	00 df       	rcall	.-512    	; 0x6370 <_Z16drawJoystickTestv>
	}
	  
	  
	  
	RandL joystick;
	if(DisplayLocked==true)
    6570:	80 91 8b 05 	lds	r24, 0x058B	; 0x80058b <DisplayLocked>
    6574:	88 23       	and	r24, r24
    6576:	31 f0       	breq	.+12     	; 0x6584 <loop+0x4a>
	{
		joystick=myJoystick.Calulate();
    6578:	61 ea       	ldi	r22, 0xA1	; 161
    657a:	7a e0       	ldi	r23, 0x0A	; 10
    657c:	ce 01       	movw	r24, r28
    657e:	01 96       	adiw	r24, 0x01	; 1
    6580:	0e 94 6d 1a 	call	0x34da	; 0x34da <_ZN8Joystick8CalulateEv>

		Serial.print(", ");

		Serial.println(joystick.R.angle);*/
	}
}
    6584:	60 96       	adiw	r28, 0x10	; 16
    6586:	0f b6       	in	r0, 0x3f	; 63
    6588:	f8 94       	cli
    658a:	de bf       	out	0x3e, r29	; 62
    658c:	0f be       	out	0x3f, r0	; 63
    658e:	cd bf       	out	0x3d, r28	; 61
    6590:	df 91       	pop	r29
    6592:	cf 91       	pop	r28
    6594:	08 95       	ret

00006596 <__vector_17>:


ISR(TIMER1_COMPA_vect)
{
    6596:	1f 92       	push	r1
    6598:	0f 92       	push	r0
    659a:	0f b6       	in	r0, 0x3f	; 63
    659c:	0f 92       	push	r0
    659e:	11 24       	eor	r1, r1
    65a0:	0b b6       	in	r0, 0x3b	; 59
    65a2:	0f 92       	push	r0
    65a4:	2f 93       	push	r18
    65a6:	3f 93       	push	r19
    65a8:	4f 93       	push	r20
    65aa:	5f 93       	push	r21
    65ac:	6f 93       	push	r22
    65ae:	7f 93       	push	r23
    65b0:	8f 93       	push	r24
    65b2:	9f 93       	push	r25
    65b4:	af 93       	push	r26
    65b6:	bf 93       	push	r27
    65b8:	ef 93       	push	r30
    65ba:	ff 93       	push	r31
    65bc:	cf 93       	push	r28
    65be:	df 93       	push	r29
    65c0:	00 d0       	rcall	.+0      	; 0x65c2 <__vector_17+0x2c>
    65c2:	00 d0       	rcall	.+0      	; 0x65c4 <__vector_17+0x2e>
    65c4:	cd b7       	in	r28, 0x3d	; 61
    65c6:	de b7       	in	r29, 0x3e	; 62
	
	//ESP8266_sendMessage(0,"")
	if(timeoutDetectionRunning==true)
    65c8:	80 91 89 05 	lds	r24, 0x0589	; 0x800589 <timeoutDetectionRunning>
    65cc:	88 23       	and	r24, r24
    65ce:	99 f1       	breq	.+102    	; 0x6636 <__vector_17+0xa0>
	{
		Int_count++;
    65d0:	80 91 88 05 	lds	r24, 0x0588	; 0x800588 <Int_count>
    65d4:	8f 5f       	subi	r24, 0xFF	; 255
    65d6:	80 93 88 05 	sts	0x0588, r24	; 0x800588 <Int_count>
		if(Int_count>40)
    65da:	89 32       	cpi	r24, 0x29	; 41
    65dc:	60 f1       	brcs	.+88     	; 0x6636 <__vector_17+0xa0>
		{
			if(waitingForPong==false)
    65de:	90 91 87 05 	lds	r25, 0x0587	; 0x800587 <waitingForPong>
    65e2:	91 11       	cpse	r25, r1
    65e4:	16 c0       	rjmp	.+44     	; 0x6612 <__vector_17+0x7c>
			{
				ESP8266_sendMessage("p");//sending ping
    65e6:	8b ed       	ldi	r24, 0xDB	; 219
    65e8:	94 e0       	ldi	r25, 0x04	; 4
    65ea:	0e 94 9f 19 	call	0x333e	; 0x333e <ESP8266_sendMessage>
				addLog("P");
    65ee:	6d ed       	ldi	r22, 0xDD	; 221
    65f0:	74 e0       	ldi	r23, 0x04	; 4
    65f2:	ce 01       	movw	r24, r28
    65f4:	01 96       	adiw	r24, 0x01	; 1
    65f6:	0e 94 7c 3d 	call	0x7af8	; 0x7af8 <_ZN6StringC1EPKc>
    65fa:	ce 01       	movw	r24, r28
    65fc:	01 96       	adiw	r24, 0x01	; 1
    65fe:	0e 94 da 1c 	call	0x39b4	; 0x39b4 <_Z6addLog6String>
    6602:	ce 01       	movw	r24, r28
    6604:	01 96       	adiw	r24, 0x01	; 1
    6606:	0e 94 11 3d 	call	0x7a22	; 0x7a22 <_ZN6StringD1Ev>
				waitingForPong=true;
    660a:	81 e0       	ldi	r24, 0x01	; 1
    660c:	80 93 87 05 	sts	0x0587, r24	; 0x800587 <waitingForPong>
    6610:	10 c0       	rjmp	.+32     	; 0x6632 <__vector_17+0x9c>
				Int_count=0;
			}else{
				if(Int_count>45)
    6612:	8e 32       	cpi	r24, 0x2E	; 46
    6614:	80 f0       	brcs	.+32     	; 0x6636 <__vector_17+0xa0>
				{
					//connection errored
					addLog("T");
    6616:	6f ed       	ldi	r22, 0xDF	; 223
    6618:	74 e0       	ldi	r23, 0x04	; 4
    661a:	ce 01       	movw	r24, r28
    661c:	01 96       	adiw	r24, 0x01	; 1
    661e:	0e 94 7c 3d 	call	0x7af8	; 0x7af8 <_ZN6StringC1EPKc>
    6622:	ce 01       	movw	r24, r28
    6624:	01 96       	adiw	r24, 0x01	; 1
    6626:	0e 94 da 1c 	call	0x39b4	; 0x39b4 <_Z6addLog6String>
    662a:	ce 01       	movw	r24, r28
    662c:	01 96       	adiw	r24, 0x01	; 1
    662e:	0e 94 11 3d 	call	0x7a22	; 0x7a22 <_ZN6StringD1Ev>
					Int_count=0;
    6632:	10 92 88 05 	sts	0x0588, r1	; 0x800588 <Int_count>
				}
			}
		}
	}
    6636:	26 96       	adiw	r28, 0x06	; 6
    6638:	0f b6       	in	r0, 0x3f	; 63
    663a:	f8 94       	cli
    663c:	de bf       	out	0x3e, r29	; 62
    663e:	0f be       	out	0x3f, r0	; 63
    6640:	cd bf       	out	0x3d, r28	; 61
    6642:	df 91       	pop	r29
    6644:	cf 91       	pop	r28
    6646:	ff 91       	pop	r31
    6648:	ef 91       	pop	r30
    664a:	bf 91       	pop	r27
    664c:	af 91       	pop	r26
    664e:	9f 91       	pop	r25
    6650:	8f 91       	pop	r24
    6652:	7f 91       	pop	r23
    6654:	6f 91       	pop	r22
    6656:	5f 91       	pop	r21
    6658:	4f 91       	pop	r20
    665a:	3f 91       	pop	r19
    665c:	2f 91       	pop	r18
    665e:	0f 90       	pop	r0
    6660:	0b be       	out	0x3b, r0	; 59
    6662:	0f 90       	pop	r0
    6664:	0f be       	out	0x3f, r0	; 63
    6666:	0f 90       	pop	r0
    6668:	1f 90       	pop	r1
    666a:	18 95       	reti

0000666c <_GLOBAL__sub_I_myGLCD>:
    666c:	cf 92       	push	r12
    666e:	df 92       	push	r13
    6670:	ef 92       	push	r14
    6672:	ff 92       	push	r15
    6674:	0f 93       	push	r16
    6676:	1f 93       	push	r17
    6678:	cf 93       	push	r28
    667a:	df 93       	push	r29
#endif



//constructors
UTFT myGLCD(ILI9341_16, 38, 39, 40, 41);
    667c:	c1 2c       	mov	r12, r1
    667e:	d1 2c       	mov	r13, r1
    6680:	99 e2       	ldi	r25, 0x29	; 41
    6682:	e9 2e       	mov	r14, r25
    6684:	f1 2c       	mov	r15, r1
    6686:	08 e2       	ldi	r16, 0x28	; 40
    6688:	10 e0       	ldi	r17, 0x00	; 0
    668a:	27 e2       	ldi	r18, 0x27	; 39
    668c:	30 e0       	ldi	r19, 0x00	; 0
    668e:	46 e2       	ldi	r20, 0x26	; 38
    6690:	50 e0       	ldi	r21, 0x00	; 0
    6692:	61 e1       	ldi	r22, 0x11	; 17
    6694:	84 e0       	ldi	r24, 0x04	; 4
    6696:	9b e0       	ldi	r25, 0x0B	; 11
    6698:	0e 94 12 48 	call	0x9024	; 0x9024 <_ZN4UTFTC1Ehiiiii>
URTouch  myTouch( 6, 5, 4, 3, 2);
    669c:	22 e0       	ldi	r18, 0x02	; 2
    669e:	e2 2e       	mov	r14, r18
    66a0:	03 e0       	ldi	r16, 0x03	; 3
    66a2:	24 e0       	ldi	r18, 0x04	; 4
    66a4:	45 e0       	ldi	r20, 0x05	; 5
    66a6:	66 e0       	ldi	r22, 0x06	; 6
    66a8:	89 ec       	ldi	r24, 0xC9	; 201
    66aa:	9a e0       	ldi	r25, 0x0A	; 10
    66ac:	0e 94 03 3f 	call	0x7e06	; 0x7e06 <_ZN7URTouchC1Ehhhhh>
UTFT_Geometry geo(&myGLCD);
    66b0:	64 e0       	ldi	r22, 0x04	; 4
    66b2:	7b e0       	ldi	r23, 0x0B	; 11
    66b4:	87 ec       	ldi	r24, 0xC7	; 199
    66b6:	9a e0       	ldi	r25, 0x0A	; 10
    66b8:	0e 94 0c 58 	call	0xb018	; 0xb018 <_ZN13UTFT_GeometryC1EP4UTFT>
Joystick myJoystick(10);
    66bc:	6a e0       	ldi	r22, 0x0A	; 10
    66be:	70 e0       	ldi	r23, 0x00	; 0
    66c0:	81 ea       	ldi	r24, 0xA1	; 161
    66c2:	9a e0       	ldi	r25, 0x0A	; 10
    66c4:	0e 94 f6 19 	call	0x33ec	; 0x33ec <_ZN8JoystickC1Ei>
    66c8:	c7 e4       	ldi	r28, 0x47	; 71
    66ca:	da e0       	ldi	r29, 0x0A	; 10
	MenuEntry menuEntry;
	MenuEntryIntNumber menuEntryIntNumber;
};

//variable definitions
String Log[15];
    66cc:	63 ef       	ldi	r22, 0xF3	; 243
    66ce:	74 e0       	ldi	r23, 0x04	; 4
    66d0:	ce 01       	movw	r24, r28
    66d2:	0e 94 7c 3d 	call	0x7af8	; 0x7af8 <_ZN6StringC1EPKc>
    66d6:	26 96       	adiw	r28, 0x06	; 6
    66d8:	8a e0       	ldi	r24, 0x0A	; 10
    66da:	c1 3a       	cpi	r28, 0xA1	; 161
    66dc:	d8 07       	cpc	r29, r24
    66de:	b1 f7       	brne	.-20     	; 0x66cc <_GLOBAL__sub_I_myGLCD+0x60>
int ScrollPosition = 0;
int ActiveScreen = 0; //0-->splash Screen;1-->main Screen;2-->log screen;3-->msg box
bool Connected = true;
int x = 0;
int y = 0;
Entry allEntries[MAXIMUM_MENU_ENTRYS] = {0};
    66e0:	88 e1       	ldi	r24, 0x18	; 24
    66e2:	ec e8       	ldi	r30, 0x8C	; 140
    66e4:	f5 e0       	ldi	r31, 0x05	; 5
    66e6:	df 01       	movw	r26, r30
    66e8:	1d 92       	st	X+, r1
    66ea:	8a 95       	dec	r24
    66ec:	e9 f7       	brne	.-6      	; 0x66e8 <_GLOBAL__sub_I_myGLCD+0x7c>
    66ee:	63 ef       	ldi	r22, 0xF3	; 243
    66f0:	74 e0       	ldi	r23, 0x04	; 4
    66f2:	8f e8       	ldi	r24, 0x8F	; 143
    66f4:	95 e0       	ldi	r25, 0x05	; 5
    66f6:	0e 94 7c 3d 	call	0x7af8	; 0x7af8 <_ZN6StringC1EPKc>
    66fa:	63 ef       	ldi	r22, 0xF3	; 243
    66fc:	74 e0       	ldi	r23, 0x04	; 4
    66fe:	88 e9       	ldi	r24, 0x98	; 152
    6700:	95 e0       	ldi	r25, 0x05	; 5
    6702:	0e 94 7c 3d 	call	0x7af8	; 0x7af8 <_ZN6StringC1EPKc>
    6706:	c0 e0       	ldi	r28, 0x00	; 0
    6708:	d0 e0       	ldi	r29, 0x00	; 0
    670a:	88 e1       	ldi	r24, 0x18	; 24
    670c:	f8 2e       	mov	r15, r24
    670e:	8e 01       	movw	r16, r28
    6710:	08 5e       	subi	r16, 0xE8	; 232
    6712:	1f 4f       	sbci	r17, 0xFF	; 255
    6714:	f8 01       	movw	r30, r16
    6716:	e4 57       	subi	r30, 0x74	; 116
    6718:	fa 4f       	sbci	r31, 0xFA	; 250
    671a:	df 01       	movw	r26, r30
    671c:	8f 2d       	mov	r24, r15
    671e:	1d 92       	st	X+, r1
    6720:	8a 95       	dec	r24
    6722:	e9 f7       	brne	.-6      	; 0x671e <_GLOBAL__sub_I_myGLCD+0xb2>
    6724:	63 ef       	ldi	r22, 0xF3	; 243
    6726:	74 e0       	ldi	r23, 0x04	; 4
    6728:	ce 01       	movw	r24, r28
    672a:	89 55       	subi	r24, 0x59	; 89
    672c:	9a 4f       	sbci	r25, 0xFA	; 250
    672e:	0e 94 7c 3d 	call	0x7af8	; 0x7af8 <_ZN6StringC1EPKc>
    6732:	63 ef       	ldi	r22, 0xF3	; 243
    6734:	74 e0       	ldi	r23, 0x04	; 4
    6736:	ce 01       	movw	r24, r28
    6738:	80 55       	subi	r24, 0x50	; 80
    673a:	9a 4f       	sbci	r25, 0xFA	; 250
    673c:	0e 94 7c 3d 	call	0x7af8	; 0x7af8 <_ZN6StringC1EPKc>
    6740:	e8 01       	movw	r28, r16
    6742:	08 39       	cpi	r16, 0x98	; 152
    6744:	14 40       	sbci	r17, 0x04	; 4
    6746:	19 f7       	brne	.-58     	; 0x670e <_GLOBAL__sub_I_myGLCD+0xa2>
					Int_count=0;
				}
			}
		}
	}
    6748:	df 91       	pop	r29
    674a:	cf 91       	pop	r28
    674c:	1f 91       	pop	r17
    674e:	0f 91       	pop	r16
    6750:	ff 90       	pop	r15
    6752:	ef 90       	pop	r14
    6754:	df 90       	pop	r13
    6756:	cf 90       	pop	r12
    6758:	08 95       	ret

0000675a <_GLOBAL__sub_D_myGLCD>:
    675a:	cf 93       	push	r28
    675c:	df 93       	push	r29
int ScrollPosition = 0;
int ActiveScreen = 0; //0-->splash Screen;1-->main Screen;2-->log screen;3-->msg box
bool Connected = true;
int x = 0;
int y = 0;
Entry allEntries[MAXIMUM_MENU_ENTRYS] = {0};
    675e:	cc e3       	ldi	r28, 0x3C	; 60
    6760:	da e0       	ldi	r29, 0x0A	; 10
    6762:	68 97       	sbiw	r28, 0x18	; 24
	String Text;
	bool State;
	BoolCallBackFunc CallBack;
};

struct MenuEntryIntNumber {
    6764:	ce 01       	movw	r24, r28
    6766:	0c 96       	adiw	r24, 0x0c	; 12
    6768:	0e 94 11 3d 	call	0x7a22	; 0x7a22 <_ZN6StringD1Ev>

typedef void (*BoolCallBackFunc)(int8_t ID, bool state);
typedef void (*IntCallBackFunc)(int8_t ID, int Number);

//structures
struct MenuEntry {
    676c:	ce 01       	movw	r24, r28
    676e:	03 96       	adiw	r24, 0x03	; 3
    6770:	0e 94 11 3d 	call	0x7a22	; 0x7a22 <_ZN6StringD1Ev>
int ScrollPosition = 0;
int ActiveScreen = 0; //0-->splash Screen;1-->main Screen;2-->log screen;3-->msg box
bool Connected = true;
int x = 0;
int y = 0;
Entry allEntries[MAXIMUM_MENU_ENTRYS] = {0};
    6774:	85 e0       	ldi	r24, 0x05	; 5
    6776:	cc 38       	cpi	r28, 0x8C	; 140
    6778:	d8 07       	cpc	r29, r24
    677a:	99 f7       	brne	.-26     	; 0x6762 <_GLOBAL__sub_D_myGLCD+0x8>
	MenuEntry menuEntry;
	MenuEntryIntNumber menuEntryIntNumber;
};

//variable definitions
String Log[15];
    677c:	c1 ea       	ldi	r28, 0xA1	; 161
    677e:	da e0       	ldi	r29, 0x0A	; 10
    6780:	26 97       	sbiw	r28, 0x06	; 6
    6782:	ce 01       	movw	r24, r28
    6784:	0e 94 11 3d 	call	0x7a22	; 0x7a22 <_ZN6StringD1Ev>
    6788:	8a e0       	ldi	r24, 0x0A	; 10
    678a:	c7 34       	cpi	r28, 0x47	; 71
    678c:	d8 07       	cpc	r29, r24
    678e:	c1 f7       	brne	.-16     	; 0x6780 <_GLOBAL__sub_D_myGLCD+0x26>

//constructors
UTFT myGLCD(ILI9341_16, 38, 39, 40, 41);
URTouch  myTouch( 6, 5, 4, 3, 2);
UTFT_Geometry geo(&myGLCD);
Joystick myJoystick(10);
    6790:	81 ea       	ldi	r24, 0xA1	; 161
    6792:	9a e0       	ldi	r25, 0x0A	; 10
					Int_count=0;
				}
			}
		}
	}
    6794:	df 91       	pop	r29
    6796:	cf 91       	pop	r28

//constructors
UTFT myGLCD(ILI9341_16, 38, 39, 40, 41);
URTouch  myTouch( 6, 5, 4, 3, 2);
UTFT_Geometry geo(&myGLCD);
Joystick myJoystick(10);
    6798:	0c 94 6c 1a 	jmp	0x34d8	; 0x34d8 <_ZN8JoystickD1Ev>

0000679c <uart1_init>:
}

uint8_t uart1_readyToSend_int()
{
	return sendReady;
}
    679c:	cf 92       	push	r12
    679e:	df 92       	push	r13
    67a0:	ef 92       	push	r14
    67a2:	ff 92       	push	r15
    67a4:	cf 93       	push	r28
    67a6:	df 93       	push	r29
    67a8:	6b 01       	movw	r12, r22
    67aa:	7c 01       	movw	r14, r24
    67ac:	d4 2f       	mov	r29, r20
    67ae:	c2 2f       	mov	r28, r18
    67b0:	60 e4       	ldi	r22, 0x40	; 64
    67b2:	72 e4       	ldi	r23, 0x42	; 66
    67b4:	8f e0       	ldi	r24, 0x0F	; 15
    67b6:	90 e0       	ldi	r25, 0x00	; 0
    67b8:	a7 01       	movw	r20, r14
    67ba:	96 01       	movw	r18, r12
    67bc:	0e 94 d5 59 	call	0xb3aa	; 0xb3aa <__udivmodsi4>
    67c0:	69 01       	movw	r12, r18
    67c2:	7a 01       	movw	r14, r20
    67c4:	81 e0       	ldi	r24, 0x01	; 1
    67c6:	c8 1a       	sub	r12, r24
    67c8:	d1 08       	sbc	r13, r1
    67ca:	e1 08       	sbc	r14, r1
    67cc:	f1 08       	sbc	r15, r1
    67ce:	c6 01       	movw	r24, r12
    67d0:	0d 2c       	mov	r0, r13
    67d2:	00 0c       	add	r0, r0
    67d4:	aa 0b       	sbc	r26, r26
    67d6:	bb 0b       	sbc	r27, r27
    67d8:	a7 01       	movw	r20, r14
    67da:	96 01       	movw	r18, r12
    67dc:	28 1b       	sub	r18, r24
    67de:	39 0b       	sbc	r19, r25
    67e0:	4a 0b       	sbc	r20, r26
    67e2:	5b 0b       	sbc	r21, r27
    67e4:	aa e0       	ldi	r26, 0x0A	; 10
    67e6:	b0 e0       	ldi	r27, 0x00	; 0
    67e8:	0e 94 1b 5a 	call	0xb436	; 0xb436 <__muluhisi3>
    67ec:	21 e0       	ldi	r18, 0x01	; 1
    67ee:	30 e0       	ldi	r19, 0x00	; 0
    67f0:	65 30       	cpi	r22, 0x05	; 5
    67f2:	71 05       	cpc	r23, r1
    67f4:	81 05       	cpc	r24, r1
    67f6:	91 05       	cpc	r25, r1
    67f8:	10 f4       	brcc	.+4      	; 0x67fe <uart1_init+0x62>
    67fa:	20 e0       	ldi	r18, 0x00	; 0
    67fc:	30 e0       	ldi	r19, 0x00	; 0
    67fe:	c2 0e       	add	r12, r18
    6800:	d3 1e       	adc	r13, r19
    6802:	d0 92 cd 00 	sts	0x00CD, r13	; 0x8000cd <__TEXT_REGION_LENGTH__+0x7000cd>
    6806:	c0 92 cc 00 	sts	0x00CC, r12	; 0x8000cc <__TEXT_REGION_LENGTH__+0x7000cc>
    680a:	dd 23       	and	r29, r29
    680c:	29 f0       	breq	.+10     	; 0x6818 <uart1_init+0x7c>
    680e:	80 91 c9 00 	lds	r24, 0x00C9	; 0x8000c9 <__TEXT_REGION_LENGTH__+0x7000c9>
    6812:	88 60       	ori	r24, 0x08	; 8
    6814:	80 93 c9 00 	sts	0x00C9, r24	; 0x8000c9 <__TEXT_REGION_LENGTH__+0x7000c9>
    6818:	cc 23       	and	r28, r28
    681a:	29 f0       	breq	.+10     	; 0x6826 <uart1_init+0x8a>
    681c:	80 91 c9 00 	lds	r24, 0x00C9	; 0x8000c9 <__TEXT_REGION_LENGTH__+0x7000c9>
    6820:	80 61       	ori	r24, 0x10	; 16
    6822:	80 93 c9 00 	sts	0x00C9, r24	; 0x8000c9 <__TEXT_REGION_LENGTH__+0x7000c9>
    6826:	80 91 ca 00 	lds	r24, 0x00CA	; 0x8000ca <__TEXT_REGION_LENGTH__+0x7000ca>
    682a:	87 7c       	andi	r24, 0xC7	; 199
    682c:	80 93 ca 00 	sts	0x00CA, r24	; 0x8000ca <__TEXT_REGION_LENGTH__+0x7000ca>
    6830:	80 91 c9 00 	lds	r24, 0x00C9	; 0x8000c9 <__TEXT_REGION_LENGTH__+0x7000c9>
    6834:	8b 7f       	andi	r24, 0xFB	; 251
    6836:	80 93 c9 00 	sts	0x00C9, r24	; 0x8000c9 <__TEXT_REGION_LENGTH__+0x7000c9>
    683a:	80 91 ca 00 	lds	r24, 0x00CA	; 0x8000ca <__TEXT_REGION_LENGTH__+0x7000ca>
    683e:	86 60       	ori	r24, 0x06	; 6
    6840:	80 93 ca 00 	sts	0x00CA, r24	; 0x8000ca <__TEXT_REGION_LENGTH__+0x7000ca>
    6844:	10 92 37 0b 	sts	0x0B37, r1	; 0x800b37 <receveReady>
    6848:	10 92 3a 0b 	sts	0x0B3A, r1	; 0x800b3a <sendIndex>
    684c:	10 92 3b 0b 	sts	0x0B3B, r1	; 0x800b3b <sendBuffer>
    6850:	81 e0       	ldi	r24, 0x01	; 1
    6852:	80 93 39 0b 	sts	0x0B39, r24	; 0x800b39 <sendReady>
    6856:	df 91       	pop	r29
    6858:	cf 91       	pop	r28
    685a:	ff 90       	pop	r15
    685c:	ef 90       	pop	r14
    685e:	df 90       	pop	r13
    6860:	cf 90       	pop	r12
    6862:	08 95       	ret

00006864 <uart1_init_x>:
    6864:	ef 92       	push	r14
    6866:	0f 93       	push	r16
    6868:	99 df       	rcall	.-206    	; 0x679c <uart1_init>
    686a:	00 23       	and	r16, r16
    686c:	31 f0       	breq	.+12     	; 0x687a <uart1_init_x+0x16>
    686e:	80 91 c9 00 	lds	r24, 0x00C9	; 0x8000c9 <__TEXT_REGION_LENGTH__+0x7000c9>
    6872:	80 64       	ori	r24, 0x40	; 64
    6874:	80 93 c9 00 	sts	0x00C9, r24	; 0x8000c9 <__TEXT_REGION_LENGTH__+0x7000c9>
    6878:	78 94       	sei
    687a:	ee 20       	and	r14, r14
    687c:	31 f0       	breq	.+12     	; 0x688a <uart1_init_x+0x26>
    687e:	80 91 c9 00 	lds	r24, 0x00C9	; 0x8000c9 <__TEXT_REGION_LENGTH__+0x7000c9>
    6882:	80 68       	ori	r24, 0x80	; 128
    6884:	80 93 c9 00 	sts	0x00C9, r24	; 0x8000c9 <__TEXT_REGION_LENGTH__+0x7000c9>
    6888:	78 94       	sei
    688a:	0f 91       	pop	r16
    688c:	ef 90       	pop	r14
    688e:	08 95       	ret

00006890 <uart1_registerCallBack>:
    6890:	90 93 36 0b 	sts	0x0B36, r25	; 0x800b36 <callBack+0x1>
    6894:	80 93 35 0b 	sts	0x0B35, r24	; 0x800b35 <callBack>
    6898:	08 95       	ret

0000689a <uart1_putc>:
    689a:	90 91 c8 00 	lds	r25, 0x00C8	; 0x8000c8 <__TEXT_REGION_LENGTH__+0x7000c8>
    689e:	95 ff       	sbrs	r25, 5
    68a0:	fc cf       	rjmp	.-8      	; 0x689a <uart1_putc>
    68a2:	80 93 ce 00 	sts	0x00CE, r24	; 0x8000ce <__TEXT_REGION_LENGTH__+0x7000ce>
    68a6:	08 95       	ret

000068a8 <uart1_newline>:
    68a8:	8a e0       	ldi	r24, 0x0A	; 10
    68aa:	f7 df       	rcall	.-18     	; 0x689a <uart1_putc>
    68ac:	8d e0       	ldi	r24, 0x0D	; 13
    68ae:	f5 cf       	rjmp	.-22     	; 0x689a <uart1_putc>

000068b0 <uart1_puts>:
    68b0:	cf 93       	push	r28
    68b2:	df 93       	push	r29
    68b4:	ec 01       	movw	r28, r24
    68b6:	88 81       	ld	r24, Y
    68b8:	88 23       	and	r24, r24
    68ba:	49 f0       	breq	.+18     	; 0x68ce <uart1_puts+0x1e>
    68bc:	88 81       	ld	r24, Y
    68be:	8a 30       	cpi	r24, 0x0A	; 10
    68c0:	11 f4       	brne	.+4      	; 0x68c6 <uart1_puts+0x16>
    68c2:	f2 df       	rcall	.-28     	; 0x68a8 <uart1_newline>
    68c4:	02 c0       	rjmp	.+4      	; 0x68ca <uart1_puts+0x1a>
    68c6:	88 81       	ld	r24, Y
    68c8:	e8 df       	rcall	.-48     	; 0x689a <uart1_putc>
    68ca:	21 96       	adiw	r28, 0x01	; 1
    68cc:	f4 cf       	rjmp	.-24     	; 0x68b6 <uart1_puts+0x6>
    68ce:	df 91       	pop	r29
    68d0:	cf 91       	pop	r28
    68d2:	08 95       	ret

000068d4 <__vector_38>:

ISR(USART1_TX_vect)
{
    68d4:	1f 92       	push	r1
    68d6:	0f 92       	push	r0
    68d8:	0f b6       	in	r0, 0x3f	; 63
    68da:	0f 92       	push	r0
    68dc:	11 24       	eor	r1, r1
    68de:	0b b6       	in	r0, 0x3b	; 59
    68e0:	0f 92       	push	r0
    68e2:	8f 93       	push	r24
    68e4:	ef 93       	push	r30
    68e6:	ff 93       	push	r31
	if(sendBuffer[sendIndex] != '\0')
    68e8:	e0 91 3a 0b 	lds	r30, 0x0B3A	; 0x800b3a <sendIndex>
    68ec:	f0 e0       	ldi	r31, 0x00	; 0
    68ee:	e5 5c       	subi	r30, 0xC5	; 197
    68f0:	f4 4f       	sbci	r31, 0xF4	; 244
    68f2:	80 81       	ld	r24, Z
    68f4:	88 23       	and	r24, r24
    68f6:	69 f0       	breq	.+26     	; 0x6912 <__vector_38+0x3e>
		UDR1 =sendBuffer[sendIndex++];
    68f8:	e0 91 3a 0b 	lds	r30, 0x0B3A	; 0x800b3a <sendIndex>
    68fc:	81 e0       	ldi	r24, 0x01	; 1
    68fe:	8e 0f       	add	r24, r30
    6900:	80 93 3a 0b 	sts	0x0B3A, r24	; 0x800b3a <sendIndex>
    6904:	f0 e0       	ldi	r31, 0x00	; 0
    6906:	e5 5c       	subi	r30, 0xC5	; 197
    6908:	f4 4f       	sbci	r31, 0xF4	; 244
    690a:	80 81       	ld	r24, Z
    690c:	80 93 ce 00 	sts	0x00CE, r24	; 0x8000ce <__TEXT_REGION_LENGTH__+0x7000ce>
    6910:	03 c0       	rjmp	.+6      	; 0x6918 <__vector_38+0x44>
	else
		sendReady = 1;
    6912:	81 e0       	ldi	r24, 0x01	; 1
    6914:	80 93 39 0b 	sts	0x0B39, r24	; 0x800b39 <sendReady>
}
    6918:	ff 91       	pop	r31
    691a:	ef 91       	pop	r30
    691c:	8f 91       	pop	r24
    691e:	0f 90       	pop	r0
    6920:	0b be       	out	0x3b, r0	; 59
    6922:	0f 90       	pop	r0
    6924:	0f be       	out	0x3f, r0	; 63
    6926:	0f 90       	pop	r0
    6928:	1f 90       	pop	r1
    692a:	18 95       	reti

0000692c <__vector_36>:

ISR(USART1_RX_vect)
{
    692c:	1f 92       	push	r1
    692e:	0f 92       	push	r0
    6930:	0f b6       	in	r0, 0x3f	; 63
    6932:	0f 92       	push	r0
    6934:	11 24       	eor	r1, r1
    6936:	0b b6       	in	r0, 0x3b	; 59
    6938:	0f 92       	push	r0
    693a:	2f 93       	push	r18
    693c:	3f 93       	push	r19
    693e:	4f 93       	push	r20
    6940:	5f 93       	push	r21
    6942:	6f 93       	push	r22
    6944:	7f 93       	push	r23
    6946:	8f 93       	push	r24
    6948:	9f 93       	push	r25
    694a:	af 93       	push	r26
    694c:	bf 93       	push	r27
    694e:	ef 93       	push	r30
    6950:	ff 93       	push	r31
	receveData = UDR1;
    6952:	80 91 ce 00 	lds	r24, 0x00CE	; 0x8000ce <__TEXT_REGION_LENGTH__+0x7000ce>
    6956:	80 93 38 0b 	sts	0x0B38, r24	; 0x800b38 <receveData>
	if(callBack!=NULL)
    695a:	e0 91 35 0b 	lds	r30, 0x0B35	; 0x800b35 <callBack>
    695e:	f0 91 36 0b 	lds	r31, 0x0B36	; 0x800b36 <callBack+0x1>
    6962:	30 97       	sbiw	r30, 0x00	; 0
    6964:	19 f0       	breq	.+6      	; 0x696c <__vector_36+0x40>
		callBack(receveData);
    6966:	80 91 38 0b 	lds	r24, 0x0B38	; 0x800b38 <receveData>
    696a:	19 95       	eicall
	receveReady = 1;
    696c:	81 e0       	ldi	r24, 0x01	; 1
    696e:	80 93 37 0b 	sts	0x0B37, r24	; 0x800b37 <receveReady>
    6972:	ff 91       	pop	r31
    6974:	ef 91       	pop	r30
    6976:	bf 91       	pop	r27
    6978:	af 91       	pop	r26
    697a:	9f 91       	pop	r25
    697c:	8f 91       	pop	r24
    697e:	7f 91       	pop	r23
    6980:	6f 91       	pop	r22
    6982:	5f 91       	pop	r21
    6984:	4f 91       	pop	r20
    6986:	3f 91       	pop	r19
    6988:	2f 91       	pop	r18
    698a:	0f 90       	pop	r0
    698c:	0b be       	out	0x3b, r0	; 59
    698e:	0f 90       	pop	r0
    6990:	0f be       	out	0x3f, r0	; 63
    6992:	0f 90       	pop	r0
    6994:	1f 90       	pop	r1
    6996:	18 95       	reti

00006998 <acos>:
    6998:	9f 93       	push	r25
    699a:	9f 77       	andi	r25, 0x7F	; 127
    699c:	4d d1       	rcall	.+666    	; 0x6c38 <__fp_arccos>
    699e:	0f 90       	pop	r0
    69a0:	00 20       	and	r0, r0
    69a2:	3a f4       	brpl	.+14     	; 0x69b2 <acos+0x1a>
    69a4:	90 58       	subi	r25, 0x80	; 128
    69a6:	a2 ea       	ldi	r26, 0xA2	; 162
    69a8:	2a ed       	ldi	r18, 0xDA	; 218
    69aa:	3f e0       	ldi	r19, 0x0F	; 15
    69ac:	49 e4       	ldi	r20, 0x49	; 73
    69ae:	50 e4       	ldi	r21, 0x40	; 64
    69b0:	13 d0       	rcall	.+38     	; 0x69d8 <__addsf3x>
    69b2:	e5 c1       	rjmp	.+970    	; 0x6d7e <__fp_round>

000069b4 <__subsf3>:
    69b4:	50 58       	subi	r21, 0x80	; 128

000069b6 <__addsf3>:
    69b6:	bb 27       	eor	r27, r27
    69b8:	aa 27       	eor	r26, r26
    69ba:	0e d0       	rcall	.+28     	; 0x69d8 <__addsf3x>
    69bc:	e0 c1       	rjmp	.+960    	; 0x6d7e <__fp_round>
    69be:	a9 d1       	rcall	.+850    	; 0x6d12 <__fp_pscA>
    69c0:	30 f0       	brcs	.+12     	; 0x69ce <__addsf3+0x18>
    69c2:	ae d1       	rcall	.+860    	; 0x6d20 <__fp_pscB>
    69c4:	20 f0       	brcs	.+8      	; 0x69ce <__addsf3+0x18>
    69c6:	31 f4       	brne	.+12     	; 0x69d4 <__addsf3+0x1e>
    69c8:	9f 3f       	cpi	r25, 0xFF	; 255
    69ca:	11 f4       	brne	.+4      	; 0x69d0 <__addsf3+0x1a>
    69cc:	1e f4       	brtc	.+6      	; 0x69d4 <__addsf3+0x1e>
    69ce:	79 c1       	rjmp	.+754    	; 0x6cc2 <__fp_nan>
    69d0:	0e f4       	brtc	.+2      	; 0x69d4 <__addsf3+0x1e>
    69d2:	e0 95       	com	r30
    69d4:	e7 fb       	bst	r30, 7
    69d6:	6f c1       	rjmp	.+734    	; 0x6cb6 <__fp_inf>

000069d8 <__addsf3x>:
    69d8:	e9 2f       	mov	r30, r25
    69da:	f3 d1       	rcall	.+998    	; 0x6dc2 <__fp_split3>
    69dc:	80 f3       	brcs	.-32     	; 0x69be <__addsf3+0x8>
    69de:	ba 17       	cp	r27, r26
    69e0:	62 07       	cpc	r22, r18
    69e2:	73 07       	cpc	r23, r19
    69e4:	84 07       	cpc	r24, r20
    69e6:	95 07       	cpc	r25, r21
    69e8:	18 f0       	brcs	.+6      	; 0x69f0 <__addsf3x+0x18>
    69ea:	71 f4       	brne	.+28     	; 0x6a08 <__addsf3x+0x30>
    69ec:	9e f5       	brtc	.+102    	; 0x6a54 <__addsf3x+0x7c>
    69ee:	0b c2       	rjmp	.+1046   	; 0x6e06 <__fp_zero>
    69f0:	0e f4       	brtc	.+2      	; 0x69f4 <__addsf3x+0x1c>
    69f2:	e0 95       	com	r30
    69f4:	0b 2e       	mov	r0, r27
    69f6:	ba 2f       	mov	r27, r26
    69f8:	a0 2d       	mov	r26, r0
    69fa:	0b 01       	movw	r0, r22
    69fc:	b9 01       	movw	r22, r18
    69fe:	90 01       	movw	r18, r0
    6a00:	0c 01       	movw	r0, r24
    6a02:	ca 01       	movw	r24, r20
    6a04:	a0 01       	movw	r20, r0
    6a06:	11 24       	eor	r1, r1
    6a08:	ff 27       	eor	r31, r31
    6a0a:	59 1b       	sub	r21, r25
    6a0c:	99 f0       	breq	.+38     	; 0x6a34 <__addsf3x+0x5c>
    6a0e:	59 3f       	cpi	r21, 0xF9	; 249
    6a10:	50 f4       	brcc	.+20     	; 0x6a26 <__addsf3x+0x4e>
    6a12:	50 3e       	cpi	r21, 0xE0	; 224
    6a14:	68 f1       	brcs	.+90     	; 0x6a70 <__addsf3x+0x98>
    6a16:	1a 16       	cp	r1, r26
    6a18:	f0 40       	sbci	r31, 0x00	; 0
    6a1a:	a2 2f       	mov	r26, r18
    6a1c:	23 2f       	mov	r18, r19
    6a1e:	34 2f       	mov	r19, r20
    6a20:	44 27       	eor	r20, r20
    6a22:	58 5f       	subi	r21, 0xF8	; 248
    6a24:	f3 cf       	rjmp	.-26     	; 0x6a0c <__addsf3x+0x34>
    6a26:	46 95       	lsr	r20
    6a28:	37 95       	ror	r19
    6a2a:	27 95       	ror	r18
    6a2c:	a7 95       	ror	r26
    6a2e:	f0 40       	sbci	r31, 0x00	; 0
    6a30:	53 95       	inc	r21
    6a32:	c9 f7       	brne	.-14     	; 0x6a26 <__addsf3x+0x4e>
    6a34:	7e f4       	brtc	.+30     	; 0x6a54 <__addsf3x+0x7c>
    6a36:	1f 16       	cp	r1, r31
    6a38:	ba 0b       	sbc	r27, r26
    6a3a:	62 0b       	sbc	r22, r18
    6a3c:	73 0b       	sbc	r23, r19
    6a3e:	84 0b       	sbc	r24, r20
    6a40:	ba f0       	brmi	.+46     	; 0x6a70 <__addsf3x+0x98>
    6a42:	91 50       	subi	r25, 0x01	; 1
    6a44:	a1 f0       	breq	.+40     	; 0x6a6e <__addsf3x+0x96>
    6a46:	ff 0f       	add	r31, r31
    6a48:	bb 1f       	adc	r27, r27
    6a4a:	66 1f       	adc	r22, r22
    6a4c:	77 1f       	adc	r23, r23
    6a4e:	88 1f       	adc	r24, r24
    6a50:	c2 f7       	brpl	.-16     	; 0x6a42 <__addsf3x+0x6a>
    6a52:	0e c0       	rjmp	.+28     	; 0x6a70 <__addsf3x+0x98>
    6a54:	ba 0f       	add	r27, r26
    6a56:	62 1f       	adc	r22, r18
    6a58:	73 1f       	adc	r23, r19
    6a5a:	84 1f       	adc	r24, r20
    6a5c:	48 f4       	brcc	.+18     	; 0x6a70 <__addsf3x+0x98>
    6a5e:	87 95       	ror	r24
    6a60:	77 95       	ror	r23
    6a62:	67 95       	ror	r22
    6a64:	b7 95       	ror	r27
    6a66:	f7 95       	ror	r31
    6a68:	9e 3f       	cpi	r25, 0xFE	; 254
    6a6a:	08 f0       	brcs	.+2      	; 0x6a6e <__addsf3x+0x96>
    6a6c:	b3 cf       	rjmp	.-154    	; 0x69d4 <__addsf3+0x1e>
    6a6e:	93 95       	inc	r25
    6a70:	88 0f       	add	r24, r24
    6a72:	08 f0       	brcs	.+2      	; 0x6a76 <__addsf3x+0x9e>
    6a74:	99 27       	eor	r25, r25
    6a76:	ee 0f       	add	r30, r30
    6a78:	97 95       	ror	r25
    6a7a:	87 95       	ror	r24
    6a7c:	08 95       	ret

00006a7e <__cmpsf2>:
    6a7e:	f7 d0       	rcall	.+494    	; 0x6c6e <__fp_cmp>
    6a80:	08 f4       	brcc	.+2      	; 0x6a84 <__cmpsf2+0x6>
    6a82:	81 e0       	ldi	r24, 0x01	; 1
    6a84:	08 95       	ret

00006a86 <cos>:
    6a86:	54 d1       	rcall	.+680    	; 0x6d30 <__fp_rempio2>
    6a88:	e3 95       	inc	r30
    6a8a:	8a c1       	rjmp	.+788    	; 0x6da0 <__fp_sinus>

00006a8c <__divsf3>:
    6a8c:	0c d0       	rcall	.+24     	; 0x6aa6 <__divsf3x>
    6a8e:	77 c1       	rjmp	.+750    	; 0x6d7e <__fp_round>
    6a90:	47 d1       	rcall	.+654    	; 0x6d20 <__fp_pscB>
    6a92:	40 f0       	brcs	.+16     	; 0x6aa4 <__divsf3+0x18>
    6a94:	3e d1       	rcall	.+636    	; 0x6d12 <__fp_pscA>
    6a96:	30 f0       	brcs	.+12     	; 0x6aa4 <__divsf3+0x18>
    6a98:	21 f4       	brne	.+8      	; 0x6aa2 <__divsf3+0x16>
    6a9a:	5f 3f       	cpi	r21, 0xFF	; 255
    6a9c:	19 f0       	breq	.+6      	; 0x6aa4 <__divsf3+0x18>
    6a9e:	0b c1       	rjmp	.+534    	; 0x6cb6 <__fp_inf>
    6aa0:	51 11       	cpse	r21, r1
    6aa2:	b2 c1       	rjmp	.+868    	; 0x6e08 <__fp_szero>
    6aa4:	0e c1       	rjmp	.+540    	; 0x6cc2 <__fp_nan>

00006aa6 <__divsf3x>:
    6aa6:	8d d1       	rcall	.+794    	; 0x6dc2 <__fp_split3>
    6aa8:	98 f3       	brcs	.-26     	; 0x6a90 <__divsf3+0x4>

00006aaa <__divsf3_pse>:
    6aaa:	99 23       	and	r25, r25
    6aac:	c9 f3       	breq	.-14     	; 0x6aa0 <__divsf3+0x14>
    6aae:	55 23       	and	r21, r21
    6ab0:	b1 f3       	breq	.-20     	; 0x6a9e <__divsf3+0x12>
    6ab2:	95 1b       	sub	r25, r21
    6ab4:	55 0b       	sbc	r21, r21
    6ab6:	bb 27       	eor	r27, r27
    6ab8:	aa 27       	eor	r26, r26
    6aba:	62 17       	cp	r22, r18
    6abc:	73 07       	cpc	r23, r19
    6abe:	84 07       	cpc	r24, r20
    6ac0:	38 f0       	brcs	.+14     	; 0x6ad0 <__divsf3_pse+0x26>
    6ac2:	9f 5f       	subi	r25, 0xFF	; 255
    6ac4:	5f 4f       	sbci	r21, 0xFF	; 255
    6ac6:	22 0f       	add	r18, r18
    6ac8:	33 1f       	adc	r19, r19
    6aca:	44 1f       	adc	r20, r20
    6acc:	aa 1f       	adc	r26, r26
    6ace:	a9 f3       	breq	.-22     	; 0x6aba <__divsf3_pse+0x10>
    6ad0:	33 d0       	rcall	.+102    	; 0x6b38 <__divsf3_pse+0x8e>
    6ad2:	0e 2e       	mov	r0, r30
    6ad4:	3a f0       	brmi	.+14     	; 0x6ae4 <__divsf3_pse+0x3a>
    6ad6:	e0 e8       	ldi	r30, 0x80	; 128
    6ad8:	30 d0       	rcall	.+96     	; 0x6b3a <__divsf3_pse+0x90>
    6ada:	91 50       	subi	r25, 0x01	; 1
    6adc:	50 40       	sbci	r21, 0x00	; 0
    6ade:	e6 95       	lsr	r30
    6ae0:	00 1c       	adc	r0, r0
    6ae2:	ca f7       	brpl	.-14     	; 0x6ad6 <__divsf3_pse+0x2c>
    6ae4:	29 d0       	rcall	.+82     	; 0x6b38 <__divsf3_pse+0x8e>
    6ae6:	fe 2f       	mov	r31, r30
    6ae8:	27 d0       	rcall	.+78     	; 0x6b38 <__divsf3_pse+0x8e>
    6aea:	66 0f       	add	r22, r22
    6aec:	77 1f       	adc	r23, r23
    6aee:	88 1f       	adc	r24, r24
    6af0:	bb 1f       	adc	r27, r27
    6af2:	26 17       	cp	r18, r22
    6af4:	37 07       	cpc	r19, r23
    6af6:	48 07       	cpc	r20, r24
    6af8:	ab 07       	cpc	r26, r27
    6afa:	b0 e8       	ldi	r27, 0x80	; 128
    6afc:	09 f0       	breq	.+2      	; 0x6b00 <__divsf3_pse+0x56>
    6afe:	bb 0b       	sbc	r27, r27
    6b00:	80 2d       	mov	r24, r0
    6b02:	bf 01       	movw	r22, r30
    6b04:	ff 27       	eor	r31, r31
    6b06:	93 58       	subi	r25, 0x83	; 131
    6b08:	5f 4f       	sbci	r21, 0xFF	; 255
    6b0a:	2a f0       	brmi	.+10     	; 0x6b16 <__divsf3_pse+0x6c>
    6b0c:	9e 3f       	cpi	r25, 0xFE	; 254
    6b0e:	51 05       	cpc	r21, r1
    6b10:	68 f0       	brcs	.+26     	; 0x6b2c <__divsf3_pse+0x82>
    6b12:	d1 c0       	rjmp	.+418    	; 0x6cb6 <__fp_inf>
    6b14:	79 c1       	rjmp	.+754    	; 0x6e08 <__fp_szero>
    6b16:	5f 3f       	cpi	r21, 0xFF	; 255
    6b18:	ec f3       	brlt	.-6      	; 0x6b14 <__divsf3_pse+0x6a>
    6b1a:	98 3e       	cpi	r25, 0xE8	; 232
    6b1c:	dc f3       	brlt	.-10     	; 0x6b14 <__divsf3_pse+0x6a>
    6b1e:	86 95       	lsr	r24
    6b20:	77 95       	ror	r23
    6b22:	67 95       	ror	r22
    6b24:	b7 95       	ror	r27
    6b26:	f7 95       	ror	r31
    6b28:	9f 5f       	subi	r25, 0xFF	; 255
    6b2a:	c9 f7       	brne	.-14     	; 0x6b1e <__divsf3_pse+0x74>
    6b2c:	88 0f       	add	r24, r24
    6b2e:	91 1d       	adc	r25, r1
    6b30:	96 95       	lsr	r25
    6b32:	87 95       	ror	r24
    6b34:	97 f9       	bld	r25, 7
    6b36:	08 95       	ret
    6b38:	e1 e0       	ldi	r30, 0x01	; 1
    6b3a:	66 0f       	add	r22, r22
    6b3c:	77 1f       	adc	r23, r23
    6b3e:	88 1f       	adc	r24, r24
    6b40:	bb 1f       	adc	r27, r27
    6b42:	62 17       	cp	r22, r18
    6b44:	73 07       	cpc	r23, r19
    6b46:	84 07       	cpc	r24, r20
    6b48:	ba 07       	cpc	r27, r26
    6b4a:	20 f0       	brcs	.+8      	; 0x6b54 <__divsf3_pse+0xaa>
    6b4c:	62 1b       	sub	r22, r18
    6b4e:	73 0b       	sbc	r23, r19
    6b50:	84 0b       	sbc	r24, r20
    6b52:	ba 0b       	sbc	r27, r26
    6b54:	ee 1f       	adc	r30, r30
    6b56:	88 f7       	brcc	.-30     	; 0x6b3a <__divsf3_pse+0x90>
    6b58:	e0 95       	com	r30
    6b5a:	08 95       	ret

00006b5c <__fixsfsi>:
    6b5c:	04 d0       	rcall	.+8      	; 0x6b66 <__fixunssfsi>
    6b5e:	68 94       	set
    6b60:	b1 11       	cpse	r27, r1
    6b62:	52 c1       	rjmp	.+676    	; 0x6e08 <__fp_szero>
    6b64:	08 95       	ret

00006b66 <__fixunssfsi>:
    6b66:	35 d1       	rcall	.+618    	; 0x6dd2 <__fp_splitA>
    6b68:	88 f0       	brcs	.+34     	; 0x6b8c <__fixunssfsi+0x26>
    6b6a:	9f 57       	subi	r25, 0x7F	; 127
    6b6c:	90 f0       	brcs	.+36     	; 0x6b92 <__fixunssfsi+0x2c>
    6b6e:	b9 2f       	mov	r27, r25
    6b70:	99 27       	eor	r25, r25
    6b72:	b7 51       	subi	r27, 0x17	; 23
    6b74:	a0 f0       	brcs	.+40     	; 0x6b9e <__fixunssfsi+0x38>
    6b76:	d1 f0       	breq	.+52     	; 0x6bac <__fixunssfsi+0x46>
    6b78:	66 0f       	add	r22, r22
    6b7a:	77 1f       	adc	r23, r23
    6b7c:	88 1f       	adc	r24, r24
    6b7e:	99 1f       	adc	r25, r25
    6b80:	1a f0       	brmi	.+6      	; 0x6b88 <__fixunssfsi+0x22>
    6b82:	ba 95       	dec	r27
    6b84:	c9 f7       	brne	.-14     	; 0x6b78 <__fixunssfsi+0x12>
    6b86:	12 c0       	rjmp	.+36     	; 0x6bac <__fixunssfsi+0x46>
    6b88:	b1 30       	cpi	r27, 0x01	; 1
    6b8a:	81 f0       	breq	.+32     	; 0x6bac <__fixunssfsi+0x46>
    6b8c:	3c d1       	rcall	.+632    	; 0x6e06 <__fp_zero>
    6b8e:	b1 e0       	ldi	r27, 0x01	; 1
    6b90:	08 95       	ret
    6b92:	39 c1       	rjmp	.+626    	; 0x6e06 <__fp_zero>
    6b94:	67 2f       	mov	r22, r23
    6b96:	78 2f       	mov	r23, r24
    6b98:	88 27       	eor	r24, r24
    6b9a:	b8 5f       	subi	r27, 0xF8	; 248
    6b9c:	39 f0       	breq	.+14     	; 0x6bac <__fixunssfsi+0x46>
    6b9e:	b9 3f       	cpi	r27, 0xF9	; 249
    6ba0:	cc f3       	brlt	.-14     	; 0x6b94 <__fixunssfsi+0x2e>
    6ba2:	86 95       	lsr	r24
    6ba4:	77 95       	ror	r23
    6ba6:	67 95       	ror	r22
    6ba8:	b3 95       	inc	r27
    6baa:	d9 f7       	brne	.-10     	; 0x6ba2 <__fixunssfsi+0x3c>
    6bac:	3e f4       	brtc	.+14     	; 0x6bbc <__fixunssfsi+0x56>
    6bae:	90 95       	com	r25
    6bb0:	80 95       	com	r24
    6bb2:	70 95       	com	r23
    6bb4:	61 95       	neg	r22
    6bb6:	7f 4f       	sbci	r23, 0xFF	; 255
    6bb8:	8f 4f       	sbci	r24, 0xFF	; 255
    6bba:	9f 4f       	sbci	r25, 0xFF	; 255
    6bbc:	08 95       	ret

00006bbe <__floatunsisf>:
    6bbe:	e8 94       	clt
    6bc0:	09 c0       	rjmp	.+18     	; 0x6bd4 <__floatsisf+0x12>

00006bc2 <__floatsisf>:
    6bc2:	97 fb       	bst	r25, 7
    6bc4:	3e f4       	brtc	.+14     	; 0x6bd4 <__floatsisf+0x12>
    6bc6:	90 95       	com	r25
    6bc8:	80 95       	com	r24
    6bca:	70 95       	com	r23
    6bcc:	61 95       	neg	r22
    6bce:	7f 4f       	sbci	r23, 0xFF	; 255
    6bd0:	8f 4f       	sbci	r24, 0xFF	; 255
    6bd2:	9f 4f       	sbci	r25, 0xFF	; 255
    6bd4:	99 23       	and	r25, r25
    6bd6:	a9 f0       	breq	.+42     	; 0x6c02 <__floatsisf+0x40>
    6bd8:	f9 2f       	mov	r31, r25
    6bda:	96 e9       	ldi	r25, 0x96	; 150
    6bdc:	bb 27       	eor	r27, r27
    6bde:	93 95       	inc	r25
    6be0:	f6 95       	lsr	r31
    6be2:	87 95       	ror	r24
    6be4:	77 95       	ror	r23
    6be6:	67 95       	ror	r22
    6be8:	b7 95       	ror	r27
    6bea:	f1 11       	cpse	r31, r1
    6bec:	f8 cf       	rjmp	.-16     	; 0x6bde <__floatsisf+0x1c>
    6bee:	fa f4       	brpl	.+62     	; 0x6c2e <__floatsisf+0x6c>
    6bf0:	bb 0f       	add	r27, r27
    6bf2:	11 f4       	brne	.+4      	; 0x6bf8 <__floatsisf+0x36>
    6bf4:	60 ff       	sbrs	r22, 0
    6bf6:	1b c0       	rjmp	.+54     	; 0x6c2e <__floatsisf+0x6c>
    6bf8:	6f 5f       	subi	r22, 0xFF	; 255
    6bfa:	7f 4f       	sbci	r23, 0xFF	; 255
    6bfc:	8f 4f       	sbci	r24, 0xFF	; 255
    6bfe:	9f 4f       	sbci	r25, 0xFF	; 255
    6c00:	16 c0       	rjmp	.+44     	; 0x6c2e <__floatsisf+0x6c>
    6c02:	88 23       	and	r24, r24
    6c04:	11 f0       	breq	.+4      	; 0x6c0a <__floatsisf+0x48>
    6c06:	96 e9       	ldi	r25, 0x96	; 150
    6c08:	11 c0       	rjmp	.+34     	; 0x6c2c <__floatsisf+0x6a>
    6c0a:	77 23       	and	r23, r23
    6c0c:	21 f0       	breq	.+8      	; 0x6c16 <__floatsisf+0x54>
    6c0e:	9e e8       	ldi	r25, 0x8E	; 142
    6c10:	87 2f       	mov	r24, r23
    6c12:	76 2f       	mov	r23, r22
    6c14:	05 c0       	rjmp	.+10     	; 0x6c20 <__floatsisf+0x5e>
    6c16:	66 23       	and	r22, r22
    6c18:	71 f0       	breq	.+28     	; 0x6c36 <__floatsisf+0x74>
    6c1a:	96 e8       	ldi	r25, 0x86	; 134
    6c1c:	86 2f       	mov	r24, r22
    6c1e:	70 e0       	ldi	r23, 0x00	; 0
    6c20:	60 e0       	ldi	r22, 0x00	; 0
    6c22:	2a f0       	brmi	.+10     	; 0x6c2e <__floatsisf+0x6c>
    6c24:	9a 95       	dec	r25
    6c26:	66 0f       	add	r22, r22
    6c28:	77 1f       	adc	r23, r23
    6c2a:	88 1f       	adc	r24, r24
    6c2c:	da f7       	brpl	.-10     	; 0x6c24 <__floatsisf+0x62>
    6c2e:	88 0f       	add	r24, r24
    6c30:	96 95       	lsr	r25
    6c32:	87 95       	ror	r24
    6c34:	97 f9       	bld	r25, 7
    6c36:	08 95       	ret

00006c38 <__fp_arccos>:
    6c38:	df 93       	push	r29
    6c3a:	cf 93       	push	r28
    6c3c:	1f 93       	push	r17
    6c3e:	0f 93       	push	r16
    6c40:	8b 01       	movw	r16, r22
    6c42:	ec 01       	movw	r28, r24
    6c44:	e4 ee       	ldi	r30, 0xE4	; 228
    6c46:	f0 e0       	ldi	r31, 0x00	; 0
    6c48:	3f d0       	rcall	.+126    	; 0x6cc8 <__fp_powser>
    6c4a:	99 d0       	rcall	.+306    	; 0x6d7e <__fp_round>
    6c4c:	98 01       	movw	r18, r16
    6c4e:	ae 01       	movw	r20, r28
    6c50:	8b 01       	movw	r16, r22
    6c52:	ec 01       	movw	r28, r24
    6c54:	60 e0       	ldi	r22, 0x00	; 0
    6c56:	70 e0       	ldi	r23, 0x00	; 0
    6c58:	80 e8       	ldi	r24, 0x80	; 128
    6c5a:	9f e3       	ldi	r25, 0x3F	; 63
    6c5c:	ab de       	rcall	.-682    	; 0x69b4 <__subsf3>
    6c5e:	47 d1       	rcall	.+654    	; 0x6eee <sqrt>
    6c60:	98 01       	movw	r18, r16
    6c62:	ae 01       	movw	r20, r28
    6c64:	0f 91       	pop	r16
    6c66:	1f 91       	pop	r17
    6c68:	cf 91       	pop	r28
    6c6a:	df 91       	pop	r29
    6c6c:	df c0       	rjmp	.+446    	; 0x6e2c <__mulsf3x>

00006c6e <__fp_cmp>:
    6c6e:	99 0f       	add	r25, r25
    6c70:	00 08       	sbc	r0, r0
    6c72:	55 0f       	add	r21, r21
    6c74:	aa 0b       	sbc	r26, r26
    6c76:	e0 e8       	ldi	r30, 0x80	; 128
    6c78:	fe ef       	ldi	r31, 0xFE	; 254
    6c7a:	16 16       	cp	r1, r22
    6c7c:	17 06       	cpc	r1, r23
    6c7e:	e8 07       	cpc	r30, r24
    6c80:	f9 07       	cpc	r31, r25
    6c82:	c0 f0       	brcs	.+48     	; 0x6cb4 <__fp_cmp+0x46>
    6c84:	12 16       	cp	r1, r18
    6c86:	13 06       	cpc	r1, r19
    6c88:	e4 07       	cpc	r30, r20
    6c8a:	f5 07       	cpc	r31, r21
    6c8c:	98 f0       	brcs	.+38     	; 0x6cb4 <__fp_cmp+0x46>
    6c8e:	62 1b       	sub	r22, r18
    6c90:	73 0b       	sbc	r23, r19
    6c92:	84 0b       	sbc	r24, r20
    6c94:	95 0b       	sbc	r25, r21
    6c96:	39 f4       	brne	.+14     	; 0x6ca6 <__fp_cmp+0x38>
    6c98:	0a 26       	eor	r0, r26
    6c9a:	61 f0       	breq	.+24     	; 0x6cb4 <__fp_cmp+0x46>
    6c9c:	23 2b       	or	r18, r19
    6c9e:	24 2b       	or	r18, r20
    6ca0:	25 2b       	or	r18, r21
    6ca2:	21 f4       	brne	.+8      	; 0x6cac <__fp_cmp+0x3e>
    6ca4:	08 95       	ret
    6ca6:	0a 26       	eor	r0, r26
    6ca8:	09 f4       	brne	.+2      	; 0x6cac <__fp_cmp+0x3e>
    6caa:	a1 40       	sbci	r26, 0x01	; 1
    6cac:	a6 95       	lsr	r26
    6cae:	8f ef       	ldi	r24, 0xFF	; 255
    6cb0:	81 1d       	adc	r24, r1
    6cb2:	81 1d       	adc	r24, r1
    6cb4:	08 95       	ret

00006cb6 <__fp_inf>:
    6cb6:	97 f9       	bld	r25, 7
    6cb8:	9f 67       	ori	r25, 0x7F	; 127
    6cba:	80 e8       	ldi	r24, 0x80	; 128
    6cbc:	70 e0       	ldi	r23, 0x00	; 0
    6cbe:	60 e0       	ldi	r22, 0x00	; 0
    6cc0:	08 95       	ret

00006cc2 <__fp_nan>:
    6cc2:	9f ef       	ldi	r25, 0xFF	; 255
    6cc4:	80 ec       	ldi	r24, 0xC0	; 192
    6cc6:	08 95       	ret

00006cc8 <__fp_powser>:
    6cc8:	df 93       	push	r29
    6cca:	cf 93       	push	r28
    6ccc:	1f 93       	push	r17
    6cce:	0f 93       	push	r16
    6cd0:	ff 92       	push	r15
    6cd2:	ef 92       	push	r14
    6cd4:	df 92       	push	r13
    6cd6:	7b 01       	movw	r14, r22
    6cd8:	8c 01       	movw	r16, r24
    6cda:	68 94       	set
    6cdc:	05 c0       	rjmp	.+10     	; 0x6ce8 <__fp_powser+0x20>
    6cde:	da 2e       	mov	r13, r26
    6ce0:	ef 01       	movw	r28, r30
    6ce2:	a4 d0       	rcall	.+328    	; 0x6e2c <__mulsf3x>
    6ce4:	fe 01       	movw	r30, r28
    6ce6:	e8 94       	clt
    6ce8:	a5 91       	lpm	r26, Z+
    6cea:	25 91       	lpm	r18, Z+
    6cec:	35 91       	lpm	r19, Z+
    6cee:	45 91       	lpm	r20, Z+
    6cf0:	55 91       	lpm	r21, Z+
    6cf2:	ae f3       	brts	.-22     	; 0x6cde <__fp_powser+0x16>
    6cf4:	ef 01       	movw	r28, r30
    6cf6:	70 de       	rcall	.-800    	; 0x69d8 <__addsf3x>
    6cf8:	fe 01       	movw	r30, r28
    6cfa:	97 01       	movw	r18, r14
    6cfc:	a8 01       	movw	r20, r16
    6cfe:	da 94       	dec	r13
    6d00:	79 f7       	brne	.-34     	; 0x6ce0 <__fp_powser+0x18>
    6d02:	df 90       	pop	r13
    6d04:	ef 90       	pop	r14
    6d06:	ff 90       	pop	r15
    6d08:	0f 91       	pop	r16
    6d0a:	1f 91       	pop	r17
    6d0c:	cf 91       	pop	r28
    6d0e:	df 91       	pop	r29
    6d10:	08 95       	ret

00006d12 <__fp_pscA>:
    6d12:	00 24       	eor	r0, r0
    6d14:	0a 94       	dec	r0
    6d16:	16 16       	cp	r1, r22
    6d18:	17 06       	cpc	r1, r23
    6d1a:	18 06       	cpc	r1, r24
    6d1c:	09 06       	cpc	r0, r25
    6d1e:	08 95       	ret

00006d20 <__fp_pscB>:
    6d20:	00 24       	eor	r0, r0
    6d22:	0a 94       	dec	r0
    6d24:	12 16       	cp	r1, r18
    6d26:	13 06       	cpc	r1, r19
    6d28:	14 06       	cpc	r1, r20
    6d2a:	05 06       	cpc	r0, r21
    6d2c:	08 95       	ret
    6d2e:	c9 cf       	rjmp	.-110    	; 0x6cc2 <__fp_nan>

00006d30 <__fp_rempio2>:
    6d30:	50 d0       	rcall	.+160    	; 0x6dd2 <__fp_splitA>
    6d32:	e8 f3       	brcs	.-6      	; 0x6d2e <__fp_pscB+0xe>
    6d34:	e8 94       	clt
    6d36:	e0 e0       	ldi	r30, 0x00	; 0
    6d38:	bb 27       	eor	r27, r27
    6d3a:	9f 57       	subi	r25, 0x7F	; 127
    6d3c:	f0 f0       	brcs	.+60     	; 0x6d7a <__fp_rempio2+0x4a>
    6d3e:	2a ed       	ldi	r18, 0xDA	; 218
    6d40:	3f e0       	ldi	r19, 0x0F	; 15
    6d42:	49 ec       	ldi	r20, 0xC9	; 201
    6d44:	06 c0       	rjmp	.+12     	; 0x6d52 <__fp_rempio2+0x22>
    6d46:	ee 0f       	add	r30, r30
    6d48:	bb 0f       	add	r27, r27
    6d4a:	66 1f       	adc	r22, r22
    6d4c:	77 1f       	adc	r23, r23
    6d4e:	88 1f       	adc	r24, r24
    6d50:	28 f0       	brcs	.+10     	; 0x6d5c <__fp_rempio2+0x2c>
    6d52:	b2 3a       	cpi	r27, 0xA2	; 162
    6d54:	62 07       	cpc	r22, r18
    6d56:	73 07       	cpc	r23, r19
    6d58:	84 07       	cpc	r24, r20
    6d5a:	28 f0       	brcs	.+10     	; 0x6d66 <__fp_rempio2+0x36>
    6d5c:	b2 5a       	subi	r27, 0xA2	; 162
    6d5e:	62 0b       	sbc	r22, r18
    6d60:	73 0b       	sbc	r23, r19
    6d62:	84 0b       	sbc	r24, r20
    6d64:	e3 95       	inc	r30
    6d66:	9a 95       	dec	r25
    6d68:	72 f7       	brpl	.-36     	; 0x6d46 <__fp_rempio2+0x16>
    6d6a:	80 38       	cpi	r24, 0x80	; 128
    6d6c:	30 f4       	brcc	.+12     	; 0x6d7a <__fp_rempio2+0x4a>
    6d6e:	9a 95       	dec	r25
    6d70:	bb 0f       	add	r27, r27
    6d72:	66 1f       	adc	r22, r22
    6d74:	77 1f       	adc	r23, r23
    6d76:	88 1f       	adc	r24, r24
    6d78:	d2 f7       	brpl	.-12     	; 0x6d6e <__fp_rempio2+0x3e>
    6d7a:	90 48       	sbci	r25, 0x80	; 128
    6d7c:	f8 c0       	rjmp	.+496    	; 0x6f6e <__fp_mpack_finite>

00006d7e <__fp_round>:
    6d7e:	09 2e       	mov	r0, r25
    6d80:	03 94       	inc	r0
    6d82:	00 0c       	add	r0, r0
    6d84:	11 f4       	brne	.+4      	; 0x6d8a <__fp_round+0xc>
    6d86:	88 23       	and	r24, r24
    6d88:	52 f0       	brmi	.+20     	; 0x6d9e <__fp_round+0x20>
    6d8a:	bb 0f       	add	r27, r27
    6d8c:	40 f4       	brcc	.+16     	; 0x6d9e <__fp_round+0x20>
    6d8e:	bf 2b       	or	r27, r31
    6d90:	11 f4       	brne	.+4      	; 0x6d96 <__fp_round+0x18>
    6d92:	60 ff       	sbrs	r22, 0
    6d94:	04 c0       	rjmp	.+8      	; 0x6d9e <__fp_round+0x20>
    6d96:	6f 5f       	subi	r22, 0xFF	; 255
    6d98:	7f 4f       	sbci	r23, 0xFF	; 255
    6d9a:	8f 4f       	sbci	r24, 0xFF	; 255
    6d9c:	9f 4f       	sbci	r25, 0xFF	; 255
    6d9e:	08 95       	ret

00006da0 <__fp_sinus>:
    6da0:	ef 93       	push	r30
    6da2:	e0 ff       	sbrs	r30, 0
    6da4:	06 c0       	rjmp	.+12     	; 0x6db2 <__fp_sinus+0x12>
    6da6:	a2 ea       	ldi	r26, 0xA2	; 162
    6da8:	2a ed       	ldi	r18, 0xDA	; 218
    6daa:	3f e0       	ldi	r19, 0x0F	; 15
    6dac:	49 ec       	ldi	r20, 0xC9	; 201
    6dae:	5f eb       	ldi	r21, 0xBF	; 191
    6db0:	13 de       	rcall	.-986    	; 0x69d8 <__addsf3x>
    6db2:	e5 df       	rcall	.-54     	; 0x6d7e <__fp_round>
    6db4:	0f 90       	pop	r0
    6db6:	03 94       	inc	r0
    6db8:	01 fc       	sbrc	r0, 1
    6dba:	90 58       	subi	r25, 0x80	; 128
    6dbc:	ec e0       	ldi	r30, 0x0C	; 12
    6dbe:	f1 e0       	ldi	r31, 0x01	; 1
    6dc0:	e9 c0       	rjmp	.+466    	; 0x6f94 <__fp_powsodd>

00006dc2 <__fp_split3>:
    6dc2:	57 fd       	sbrc	r21, 7
    6dc4:	90 58       	subi	r25, 0x80	; 128
    6dc6:	44 0f       	add	r20, r20
    6dc8:	55 1f       	adc	r21, r21
    6dca:	59 f0       	breq	.+22     	; 0x6de2 <__fp_splitA+0x10>
    6dcc:	5f 3f       	cpi	r21, 0xFF	; 255
    6dce:	71 f0       	breq	.+28     	; 0x6dec <__fp_splitA+0x1a>
    6dd0:	47 95       	ror	r20

00006dd2 <__fp_splitA>:
    6dd2:	88 0f       	add	r24, r24
    6dd4:	97 fb       	bst	r25, 7
    6dd6:	99 1f       	adc	r25, r25
    6dd8:	61 f0       	breq	.+24     	; 0x6df2 <__fp_splitA+0x20>
    6dda:	9f 3f       	cpi	r25, 0xFF	; 255
    6ddc:	79 f0       	breq	.+30     	; 0x6dfc <__fp_splitA+0x2a>
    6dde:	87 95       	ror	r24
    6de0:	08 95       	ret
    6de2:	12 16       	cp	r1, r18
    6de4:	13 06       	cpc	r1, r19
    6de6:	14 06       	cpc	r1, r20
    6de8:	55 1f       	adc	r21, r21
    6dea:	f2 cf       	rjmp	.-28     	; 0x6dd0 <__fp_split3+0xe>
    6dec:	46 95       	lsr	r20
    6dee:	f1 df       	rcall	.-30     	; 0x6dd2 <__fp_splitA>
    6df0:	08 c0       	rjmp	.+16     	; 0x6e02 <__fp_splitA+0x30>
    6df2:	16 16       	cp	r1, r22
    6df4:	17 06       	cpc	r1, r23
    6df6:	18 06       	cpc	r1, r24
    6df8:	99 1f       	adc	r25, r25
    6dfa:	f1 cf       	rjmp	.-30     	; 0x6dde <__fp_splitA+0xc>
    6dfc:	86 95       	lsr	r24
    6dfe:	71 05       	cpc	r23, r1
    6e00:	61 05       	cpc	r22, r1
    6e02:	08 94       	sec
    6e04:	08 95       	ret

00006e06 <__fp_zero>:
    6e06:	e8 94       	clt

00006e08 <__fp_szero>:
    6e08:	bb 27       	eor	r27, r27
    6e0a:	66 27       	eor	r22, r22
    6e0c:	77 27       	eor	r23, r23
    6e0e:	cb 01       	movw	r24, r22
    6e10:	97 f9       	bld	r25, 7
    6e12:	08 95       	ret

00006e14 <__mulsf3>:
    6e14:	0b d0       	rcall	.+22     	; 0x6e2c <__mulsf3x>
    6e16:	b3 cf       	rjmp	.-154    	; 0x6d7e <__fp_round>
    6e18:	7c df       	rcall	.-264    	; 0x6d12 <__fp_pscA>
    6e1a:	28 f0       	brcs	.+10     	; 0x6e26 <__mulsf3+0x12>
    6e1c:	81 df       	rcall	.-254    	; 0x6d20 <__fp_pscB>
    6e1e:	18 f0       	brcs	.+6      	; 0x6e26 <__mulsf3+0x12>
    6e20:	95 23       	and	r25, r21
    6e22:	09 f0       	breq	.+2      	; 0x6e26 <__mulsf3+0x12>
    6e24:	48 cf       	rjmp	.-368    	; 0x6cb6 <__fp_inf>
    6e26:	4d cf       	rjmp	.-358    	; 0x6cc2 <__fp_nan>
    6e28:	11 24       	eor	r1, r1
    6e2a:	ee cf       	rjmp	.-36     	; 0x6e08 <__fp_szero>

00006e2c <__mulsf3x>:
    6e2c:	ca df       	rcall	.-108    	; 0x6dc2 <__fp_split3>
    6e2e:	a0 f3       	brcs	.-24     	; 0x6e18 <__mulsf3+0x4>

00006e30 <__mulsf3_pse>:
    6e30:	95 9f       	mul	r25, r21
    6e32:	d1 f3       	breq	.-12     	; 0x6e28 <__mulsf3+0x14>
    6e34:	95 0f       	add	r25, r21
    6e36:	50 e0       	ldi	r21, 0x00	; 0
    6e38:	55 1f       	adc	r21, r21
    6e3a:	62 9f       	mul	r22, r18
    6e3c:	f0 01       	movw	r30, r0
    6e3e:	72 9f       	mul	r23, r18
    6e40:	bb 27       	eor	r27, r27
    6e42:	f0 0d       	add	r31, r0
    6e44:	b1 1d       	adc	r27, r1
    6e46:	63 9f       	mul	r22, r19
    6e48:	aa 27       	eor	r26, r26
    6e4a:	f0 0d       	add	r31, r0
    6e4c:	b1 1d       	adc	r27, r1
    6e4e:	aa 1f       	adc	r26, r26
    6e50:	64 9f       	mul	r22, r20
    6e52:	66 27       	eor	r22, r22
    6e54:	b0 0d       	add	r27, r0
    6e56:	a1 1d       	adc	r26, r1
    6e58:	66 1f       	adc	r22, r22
    6e5a:	82 9f       	mul	r24, r18
    6e5c:	22 27       	eor	r18, r18
    6e5e:	b0 0d       	add	r27, r0
    6e60:	a1 1d       	adc	r26, r1
    6e62:	62 1f       	adc	r22, r18
    6e64:	73 9f       	mul	r23, r19
    6e66:	b0 0d       	add	r27, r0
    6e68:	a1 1d       	adc	r26, r1
    6e6a:	62 1f       	adc	r22, r18
    6e6c:	83 9f       	mul	r24, r19
    6e6e:	a0 0d       	add	r26, r0
    6e70:	61 1d       	adc	r22, r1
    6e72:	22 1f       	adc	r18, r18
    6e74:	74 9f       	mul	r23, r20
    6e76:	33 27       	eor	r19, r19
    6e78:	a0 0d       	add	r26, r0
    6e7a:	61 1d       	adc	r22, r1
    6e7c:	23 1f       	adc	r18, r19
    6e7e:	84 9f       	mul	r24, r20
    6e80:	60 0d       	add	r22, r0
    6e82:	21 1d       	adc	r18, r1
    6e84:	82 2f       	mov	r24, r18
    6e86:	76 2f       	mov	r23, r22
    6e88:	6a 2f       	mov	r22, r26
    6e8a:	11 24       	eor	r1, r1
    6e8c:	9f 57       	subi	r25, 0x7F	; 127
    6e8e:	50 40       	sbci	r21, 0x00	; 0
    6e90:	8a f0       	brmi	.+34     	; 0x6eb4 <__mulsf3_pse+0x84>
    6e92:	e1 f0       	breq	.+56     	; 0x6ecc <__mulsf3_pse+0x9c>
    6e94:	88 23       	and	r24, r24
    6e96:	4a f0       	brmi	.+18     	; 0x6eaa <__mulsf3_pse+0x7a>
    6e98:	ee 0f       	add	r30, r30
    6e9a:	ff 1f       	adc	r31, r31
    6e9c:	bb 1f       	adc	r27, r27
    6e9e:	66 1f       	adc	r22, r22
    6ea0:	77 1f       	adc	r23, r23
    6ea2:	88 1f       	adc	r24, r24
    6ea4:	91 50       	subi	r25, 0x01	; 1
    6ea6:	50 40       	sbci	r21, 0x00	; 0
    6ea8:	a9 f7       	brne	.-22     	; 0x6e94 <__mulsf3_pse+0x64>
    6eaa:	9e 3f       	cpi	r25, 0xFE	; 254
    6eac:	51 05       	cpc	r21, r1
    6eae:	70 f0       	brcs	.+28     	; 0x6ecc <__mulsf3_pse+0x9c>
    6eb0:	02 cf       	rjmp	.-508    	; 0x6cb6 <__fp_inf>
    6eb2:	aa cf       	rjmp	.-172    	; 0x6e08 <__fp_szero>
    6eb4:	5f 3f       	cpi	r21, 0xFF	; 255
    6eb6:	ec f3       	brlt	.-6      	; 0x6eb2 <__mulsf3_pse+0x82>
    6eb8:	98 3e       	cpi	r25, 0xE8	; 232
    6eba:	dc f3       	brlt	.-10     	; 0x6eb2 <__mulsf3_pse+0x82>
    6ebc:	86 95       	lsr	r24
    6ebe:	77 95       	ror	r23
    6ec0:	67 95       	ror	r22
    6ec2:	b7 95       	ror	r27
    6ec4:	f7 95       	ror	r31
    6ec6:	e7 95       	ror	r30
    6ec8:	9f 5f       	subi	r25, 0xFF	; 255
    6eca:	c1 f7       	brne	.-16     	; 0x6ebc <__mulsf3_pse+0x8c>
    6ecc:	fe 2b       	or	r31, r30
    6ece:	88 0f       	add	r24, r24
    6ed0:	91 1d       	adc	r25, r1
    6ed2:	96 95       	lsr	r25
    6ed4:	87 95       	ror	r24
    6ed6:	97 f9       	bld	r25, 7
    6ed8:	08 95       	ret

00006eda <sin>:
    6eda:	9f 93       	push	r25
    6edc:	29 df       	rcall	.-430    	; 0x6d30 <__fp_rempio2>
    6ede:	0f 90       	pop	r0
    6ee0:	07 fc       	sbrc	r0, 7
    6ee2:	ee 5f       	subi	r30, 0xFE	; 254
    6ee4:	5d cf       	rjmp	.-326    	; 0x6da0 <__fp_sinus>
    6ee6:	11 f4       	brne	.+4      	; 0x6eec <sin+0x12>
    6ee8:	0e f4       	brtc	.+2      	; 0x6eec <sin+0x12>
    6eea:	eb ce       	rjmp	.-554    	; 0x6cc2 <__fp_nan>
    6eec:	3e c0       	rjmp	.+124    	; 0x6f6a <__fp_mpack>

00006eee <sqrt>:
    6eee:	71 df       	rcall	.-286    	; 0x6dd2 <__fp_splitA>
    6ef0:	d0 f3       	brcs	.-12     	; 0x6ee6 <sin+0xc>
    6ef2:	99 23       	and	r25, r25
    6ef4:	d9 f3       	breq	.-10     	; 0x6eec <sin+0x12>
    6ef6:	ce f3       	brts	.-14     	; 0x6eea <sin+0x10>
    6ef8:	9f 57       	subi	r25, 0x7F	; 127
    6efa:	55 0b       	sbc	r21, r21
    6efc:	87 ff       	sbrs	r24, 7
    6efe:	43 d0       	rcall	.+134    	; 0x6f86 <__fp_norm2>
    6f00:	00 24       	eor	r0, r0
    6f02:	a0 e6       	ldi	r26, 0x60	; 96
    6f04:	40 ea       	ldi	r20, 0xA0	; 160
    6f06:	90 01       	movw	r18, r0
    6f08:	80 58       	subi	r24, 0x80	; 128
    6f0a:	56 95       	lsr	r21
    6f0c:	97 95       	ror	r25
    6f0e:	28 f4       	brcc	.+10     	; 0x6f1a <sqrt+0x2c>
    6f10:	80 5c       	subi	r24, 0xC0	; 192
    6f12:	66 0f       	add	r22, r22
    6f14:	77 1f       	adc	r23, r23
    6f16:	88 1f       	adc	r24, r24
    6f18:	20 f0       	brcs	.+8      	; 0x6f22 <sqrt+0x34>
    6f1a:	26 17       	cp	r18, r22
    6f1c:	37 07       	cpc	r19, r23
    6f1e:	48 07       	cpc	r20, r24
    6f20:	30 f4       	brcc	.+12     	; 0x6f2e <sqrt+0x40>
    6f22:	62 1b       	sub	r22, r18
    6f24:	73 0b       	sbc	r23, r19
    6f26:	84 0b       	sbc	r24, r20
    6f28:	20 29       	or	r18, r0
    6f2a:	31 29       	or	r19, r1
    6f2c:	4a 2b       	or	r20, r26
    6f2e:	a6 95       	lsr	r26
    6f30:	17 94       	ror	r1
    6f32:	07 94       	ror	r0
    6f34:	20 25       	eor	r18, r0
    6f36:	31 25       	eor	r19, r1
    6f38:	4a 27       	eor	r20, r26
    6f3a:	58 f7       	brcc	.-42     	; 0x6f12 <sqrt+0x24>
    6f3c:	66 0f       	add	r22, r22
    6f3e:	77 1f       	adc	r23, r23
    6f40:	88 1f       	adc	r24, r24
    6f42:	20 f0       	brcs	.+8      	; 0x6f4c <sqrt+0x5e>
    6f44:	26 17       	cp	r18, r22
    6f46:	37 07       	cpc	r19, r23
    6f48:	48 07       	cpc	r20, r24
    6f4a:	30 f4       	brcc	.+12     	; 0x6f58 <sqrt+0x6a>
    6f4c:	62 0b       	sbc	r22, r18
    6f4e:	73 0b       	sbc	r23, r19
    6f50:	84 0b       	sbc	r24, r20
    6f52:	20 0d       	add	r18, r0
    6f54:	31 1d       	adc	r19, r1
    6f56:	41 1d       	adc	r20, r1
    6f58:	a0 95       	com	r26
    6f5a:	81 f7       	brne	.-32     	; 0x6f3c <sqrt+0x4e>
    6f5c:	b9 01       	movw	r22, r18
    6f5e:	84 2f       	mov	r24, r20
    6f60:	91 58       	subi	r25, 0x81	; 129
    6f62:	88 0f       	add	r24, r24
    6f64:	96 95       	lsr	r25
    6f66:	87 95       	ror	r24
    6f68:	08 95       	ret

00006f6a <__fp_mpack>:
    6f6a:	9f 3f       	cpi	r25, 0xFF	; 255
    6f6c:	31 f0       	breq	.+12     	; 0x6f7a <__fp_mpack_finite+0xc>

00006f6e <__fp_mpack_finite>:
    6f6e:	91 50       	subi	r25, 0x01	; 1
    6f70:	20 f4       	brcc	.+8      	; 0x6f7a <__fp_mpack_finite+0xc>
    6f72:	87 95       	ror	r24
    6f74:	77 95       	ror	r23
    6f76:	67 95       	ror	r22
    6f78:	b7 95       	ror	r27
    6f7a:	88 0f       	add	r24, r24
    6f7c:	91 1d       	adc	r25, r1
    6f7e:	96 95       	lsr	r25
    6f80:	87 95       	ror	r24
    6f82:	97 f9       	bld	r25, 7
    6f84:	08 95       	ret

00006f86 <__fp_norm2>:
    6f86:	91 50       	subi	r25, 0x01	; 1
    6f88:	50 40       	sbci	r21, 0x00	; 0
    6f8a:	66 0f       	add	r22, r22
    6f8c:	77 1f       	adc	r23, r23
    6f8e:	88 1f       	adc	r24, r24
    6f90:	d2 f7       	brpl	.-12     	; 0x6f86 <__fp_norm2>
    6f92:	08 95       	ret

00006f94 <__fp_powsodd>:
    6f94:	9f 93       	push	r25
    6f96:	8f 93       	push	r24
    6f98:	7f 93       	push	r23
    6f9a:	6f 93       	push	r22
    6f9c:	ff 93       	push	r31
    6f9e:	ef 93       	push	r30
    6fa0:	9b 01       	movw	r18, r22
    6fa2:	ac 01       	movw	r20, r24
    6fa4:	37 df       	rcall	.-402    	; 0x6e14 <__mulsf3>
    6fa6:	ef 91       	pop	r30
    6fa8:	ff 91       	pop	r31
    6faa:	8e de       	rcall	.-740    	; 0x6cc8 <__fp_powser>
    6fac:	2f 91       	pop	r18
    6fae:	3f 91       	pop	r19
    6fb0:	4f 91       	pop	r20
    6fb2:	5f 91       	pop	r21
    6fb4:	2f cf       	rjmp	.-418    	; 0x6e14 <__mulsf3>

00006fb6 <_ZN14HardwareSerial9availableEv>:
  // clear any received data
  _rx_buffer_head = _rx_buffer_tail;
}

int HardwareSerial::available(void)
{
    6fb6:	fc 01       	movw	r30, r24
  return ((unsigned int)(SERIAL_RX_BUFFER_SIZE + _rx_buffer_head - _rx_buffer_tail)) % SERIAL_RX_BUFFER_SIZE;
    6fb8:	91 8d       	ldd	r25, Z+25	; 0x19
    6fba:	22 8d       	ldd	r18, Z+26	; 0x1a
    6fbc:	89 2f       	mov	r24, r25
    6fbe:	90 e0       	ldi	r25, 0x00	; 0
    6fc0:	80 5c       	subi	r24, 0xC0	; 192
    6fc2:	9f 4f       	sbci	r25, 0xFF	; 255
    6fc4:	82 1b       	sub	r24, r18
    6fc6:	91 09       	sbc	r25, r1
}
    6fc8:	8f 73       	andi	r24, 0x3F	; 63
    6fca:	99 27       	eor	r25, r25
    6fcc:	08 95       	ret

00006fce <_ZN14HardwareSerial4peekEv>:

int HardwareSerial::peek(void)
{
    6fce:	fc 01       	movw	r30, r24
  if (_rx_buffer_head == _rx_buffer_tail) {
    6fd0:	91 8d       	ldd	r25, Z+25	; 0x19
    6fd2:	82 8d       	ldd	r24, Z+26	; 0x1a
    6fd4:	98 17       	cp	r25, r24
    6fd6:	31 f0       	breq	.+12     	; 0x6fe4 <_ZN14HardwareSerial4peekEv+0x16>
    return -1;
  } else {
    return _rx_buffer[_rx_buffer_tail];
    6fd8:	82 8d       	ldd	r24, Z+26	; 0x1a
    6fda:	e8 0f       	add	r30, r24
    6fdc:	f1 1d       	adc	r31, r1
    6fde:	85 8d       	ldd	r24, Z+29	; 0x1d
    6fe0:	90 e0       	ldi	r25, 0x00	; 0
    6fe2:	08 95       	ret
}

int HardwareSerial::peek(void)
{
  if (_rx_buffer_head == _rx_buffer_tail) {
    return -1;
    6fe4:	8f ef       	ldi	r24, 0xFF	; 255
    6fe6:	9f ef       	ldi	r25, 0xFF	; 255
  } else {
    return _rx_buffer[_rx_buffer_tail];
  }
}
    6fe8:	08 95       	ret

00006fea <_ZN14HardwareSerial4readEv>:

int HardwareSerial::read(void)
{
    6fea:	fc 01       	movw	r30, r24
  // if the head isn't ahead of the tail, we don't have any characters
  if (_rx_buffer_head == _rx_buffer_tail) {
    6fec:	91 8d       	ldd	r25, Z+25	; 0x19
    6fee:	82 8d       	ldd	r24, Z+26	; 0x1a
    6ff0:	98 17       	cp	r25, r24
    6ff2:	61 f0       	breq	.+24     	; 0x700c <_ZN14HardwareSerial4readEv+0x22>
    return -1;
  } else {
    unsigned char c = _rx_buffer[_rx_buffer_tail];
    6ff4:	82 8d       	ldd	r24, Z+26	; 0x1a
    6ff6:	df 01       	movw	r26, r30
    6ff8:	a8 0f       	add	r26, r24
    6ffa:	b1 1d       	adc	r27, r1
    6ffc:	5d 96       	adiw	r26, 0x1d	; 29
    6ffe:	8c 91       	ld	r24, X
    _rx_buffer_tail = (rx_buffer_index_t)(_rx_buffer_tail + 1) % SERIAL_RX_BUFFER_SIZE;
    7000:	92 8d       	ldd	r25, Z+26	; 0x1a
    7002:	9f 5f       	subi	r25, 0xFF	; 255
    7004:	9f 73       	andi	r25, 0x3F	; 63
    7006:	92 8f       	std	Z+26, r25	; 0x1a
    return c;
    7008:	90 e0       	ldi	r25, 0x00	; 0
    700a:	08 95       	ret

int HardwareSerial::read(void)
{
  // if the head isn't ahead of the tail, we don't have any characters
  if (_rx_buffer_head == _rx_buffer_tail) {
    return -1;
    700c:	8f ef       	ldi	r24, 0xFF	; 255
    700e:	9f ef       	ldi	r25, 0xFF	; 255
  } else {
    unsigned char c = _rx_buffer[_rx_buffer_tail];
    _rx_buffer_tail = (rx_buffer_index_t)(_rx_buffer_tail + 1) % SERIAL_RX_BUFFER_SIZE;
    return c;
  }
}
    7010:	08 95       	ret

00007012 <_Z14serialEventRunv>:
#endif

void serialEventRun(void)
{
#if defined(HAVE_HWSERIAL0)
  if (Serial0_available && serialEvent && Serial0_available()) serialEvent();
    7012:	81 e9       	ldi	r24, 0x91	; 145
    7014:	99 e3       	ldi	r25, 0x39	; 57
    7016:	89 2b       	or	r24, r25
    7018:	39 f0       	breq	.+14     	; 0x7028 <_Z14serialEventRunv+0x16>
    701a:	80 e0       	ldi	r24, 0x00	; 0
    701c:	90 e0       	ldi	r25, 0x00	; 0
    701e:	89 2b       	or	r24, r25
    7020:	19 f0       	breq	.+6      	; 0x7028 <_Z14serialEventRunv+0x16>
    7022:	7f d1       	rcall	.+766    	; 0x7322 <_Z17Serial0_availablev>
    7024:	81 11       	cpse	r24, r1
    7026:	25 c0       	rjmp	.+74     	; 0x7072 <_Z14serialEventRunv+0x60>
#endif
#if defined(HAVE_HWSERIAL1)
  if (Serial1_available && serialEvent1 && Serial1_available()) serialEvent1();
    7028:	80 e0       	ldi	r24, 0x00	; 0
    702a:	90 e0       	ldi	r25, 0x00	; 0
    702c:	89 2b       	or	r24, r25
    702e:	41 f0       	breq	.+16     	; 0x7040 <_Z14serialEventRunv+0x2e>
    7030:	80 e0       	ldi	r24, 0x00	; 0
    7032:	90 e0       	ldi	r25, 0x00	; 0
    7034:	89 2b       	or	r24, r25
    7036:	21 f0       	breq	.+8      	; 0x7040 <_Z14serialEventRunv+0x2e>
    7038:	0e 94 00 00 	call	0	; 0x0 <__vectors>
    703c:	81 11       	cpse	r24, r1
    703e:	1c c0       	rjmp	.+56     	; 0x7078 <_Z14serialEventRunv+0x66>
#endif
#if defined(HAVE_HWSERIAL2)
  if (Serial2_available && serialEvent2 && Serial2_available()) serialEvent2();
    7040:	80 e0       	ldi	r24, 0x00	; 0
    7042:	90 e0       	ldi	r25, 0x00	; 0
    7044:	89 2b       	or	r24, r25
    7046:	41 f0       	breq	.+16     	; 0x7058 <_Z14serialEventRunv+0x46>
    7048:	80 e0       	ldi	r24, 0x00	; 0
    704a:	90 e0       	ldi	r25, 0x00	; 0
    704c:	89 2b       	or	r24, r25
    704e:	21 f0       	breq	.+8      	; 0x7058 <_Z14serialEventRunv+0x46>
    7050:	0e 94 00 00 	call	0	; 0x0 <__vectors>
    7054:	81 11       	cpse	r24, r1
    7056:	13 c0       	rjmp	.+38     	; 0x707e <_Z14serialEventRunv+0x6c>
#endif
#if defined(HAVE_HWSERIAL3)
  if (Serial3_available && serialEvent3 && Serial3_available()) serialEvent3();
    7058:	80 e0       	ldi	r24, 0x00	; 0
    705a:	90 e0       	ldi	r25, 0x00	; 0
    705c:	89 2b       	or	r24, r25
    705e:	a1 f0       	breq	.+40     	; 0x7088 <_Z14serialEventRunv+0x76>
    7060:	80 e0       	ldi	r24, 0x00	; 0
    7062:	90 e0       	ldi	r25, 0x00	; 0
    7064:	89 2b       	or	r24, r25
    7066:	81 f0       	breq	.+32     	; 0x7088 <_Z14serialEventRunv+0x76>
    7068:	0e 94 00 00 	call	0	; 0x0 <__vectors>
    706c:	81 11       	cpse	r24, r1
    706e:	0a c0       	rjmp	.+20     	; 0x7084 <_Z14serialEventRunv+0x72>
    7070:	08 95       	ret
#endif

void serialEventRun(void)
{
#if defined(HAVE_HWSERIAL0)
  if (Serial0_available && serialEvent && Serial0_available()) serialEvent();
    7072:	0e 94 00 00 	call	0	; 0x0 <__vectors>
    7076:	d8 cf       	rjmp	.-80     	; 0x7028 <_Z14serialEventRunv+0x16>
#endif
#if defined(HAVE_HWSERIAL1)
  if (Serial1_available && serialEvent1 && Serial1_available()) serialEvent1();
    7078:	0e 94 00 00 	call	0	; 0x0 <__vectors>
    707c:	e1 cf       	rjmp	.-62     	; 0x7040 <_Z14serialEventRunv+0x2e>
#endif
#if defined(HAVE_HWSERIAL2)
  if (Serial2_available && serialEvent2 && Serial2_available()) serialEvent2();
    707e:	0e 94 00 00 	call	0	; 0x0 <__vectors>
    7082:	ea cf       	rjmp	.-44     	; 0x7058 <_Z14serialEventRunv+0x46>
#endif
#if defined(HAVE_HWSERIAL3)
  if (Serial3_available && serialEvent3 && Serial3_available()) serialEvent3();
    7084:	0c 94 00 00 	jmp	0	; 0x0 <__vectors>
    7088:	08 95       	ret

0000708a <_ZN14HardwareSerial17_tx_udr_empty_irqEv>:
}

// Actual interrupt handlers //////////////////////////////////////////////////////////////

void HardwareSerial::_tx_udr_empty_irq(void)
{
    708a:	fc 01       	movw	r30, r24
  // If interrupts are enabled, there must be more data in the output
  // buffer. Send the next byte
  unsigned char c = _tx_buffer[_tx_buffer_tail];
    708c:	84 8d       	ldd	r24, Z+28	; 0x1c
    708e:	df 01       	movw	r26, r30
    7090:	a8 0f       	add	r26, r24
    7092:	b1 1d       	adc	r27, r1
    7094:	a3 5a       	subi	r26, 0xA3	; 163
    7096:	bf 4f       	sbci	r27, 0xFF	; 255
    7098:	2c 91       	ld	r18, X
  _tx_buffer_tail = (_tx_buffer_tail + 1) % SERIAL_TX_BUFFER_SIZE;
    709a:	84 8d       	ldd	r24, Z+28	; 0x1c
    709c:	90 e0       	ldi	r25, 0x00	; 0
    709e:	01 96       	adiw	r24, 0x01	; 1
    70a0:	8f 73       	andi	r24, 0x3F	; 63
    70a2:	99 27       	eor	r25, r25
    70a4:	84 8f       	std	Z+28, r24	; 0x1c

  *_udr = c;
    70a6:	a6 89       	ldd	r26, Z+22	; 0x16
    70a8:	b7 89       	ldd	r27, Z+23	; 0x17
    70aa:	2c 93       	st	X, r18

  // clear the TXC bit -- "can be cleared by writing a one to its bit
  // location". This makes sure flush() won't return until the bytes
  // actually got written
  sbi(*_ucsra, TXC0);
    70ac:	a0 89       	ldd	r26, Z+16	; 0x10
    70ae:	b1 89       	ldd	r27, Z+17	; 0x11
    70b0:	8c 91       	ld	r24, X
    70b2:	80 64       	ori	r24, 0x40	; 64
    70b4:	8c 93       	st	X, r24

  if (_tx_buffer_head == _tx_buffer_tail) {
    70b6:	93 8d       	ldd	r25, Z+27	; 0x1b
    70b8:	84 8d       	ldd	r24, Z+28	; 0x1c
    70ba:	98 13       	cpse	r25, r24
    70bc:	06 c0       	rjmp	.+12     	; 0x70ca <_ZN14HardwareSerial17_tx_udr_empty_irqEv+0x40>
    // Buffer empty, so disable interrupts
    cbi(*_ucsrb, UDRIE0);
    70be:	02 88       	ldd	r0, Z+18	; 0x12
    70c0:	f3 89       	ldd	r31, Z+19	; 0x13
    70c2:	e0 2d       	mov	r30, r0
    70c4:	80 81       	ld	r24, Z
    70c6:	8f 7d       	andi	r24, 0xDF	; 223
    70c8:	80 83       	st	Z, r24
    70ca:	08 95       	ret

000070cc <_ZN14HardwareSerial5flushEv>:
  if (head >= tail) return SERIAL_TX_BUFFER_SIZE - 1 - head + tail;
  return tail - head - 1;
}

void HardwareSerial::flush()
{
    70cc:	cf 93       	push	r28
    70ce:	df 93       	push	r29
    70d0:	ec 01       	movw	r28, r24
  // If we have never written a byte, no need to flush. This special
  // case is needed since there is no way to force the TXC (transmit
  // complete) bit to 1 during initialization
  if (!_written)
    70d2:	88 8d       	ldd	r24, Y+24	; 0x18
    70d4:	88 23       	and	r24, r24
    70d6:	c1 f0       	breq	.+48     	; 0x7108 <_ZN14HardwareSerial5flushEv+0x3c>
    return;

  while (bit_is_set(*_ucsrb, UDRIE0) || bit_is_clear(*_ucsra, TXC0)) {
    70d8:	ea 89       	ldd	r30, Y+18	; 0x12
    70da:	fb 89       	ldd	r31, Y+19	; 0x13
    70dc:	80 81       	ld	r24, Z
    70de:	85 fd       	sbrc	r24, 5
    70e0:	05 c0       	rjmp	.+10     	; 0x70ec <_ZN14HardwareSerial5flushEv+0x20>
    70e2:	a8 89       	ldd	r26, Y+16	; 0x10
    70e4:	b9 89       	ldd	r27, Y+17	; 0x11
    70e6:	8c 91       	ld	r24, X
    70e8:	86 fd       	sbrc	r24, 6
    70ea:	0e c0       	rjmp	.+28     	; 0x7108 <_ZN14HardwareSerial5flushEv+0x3c>
    if (bit_is_clear(SREG, SREG_I) && bit_is_set(*_ucsrb, UDRIE0))
    70ec:	0f b6       	in	r0, 0x3f	; 63
    70ee:	07 fc       	sbrc	r0, 7
    70f0:	f5 cf       	rjmp	.-22     	; 0x70dc <_ZN14HardwareSerial5flushEv+0x10>
    70f2:	80 81       	ld	r24, Z
    70f4:	85 ff       	sbrs	r24, 5
    70f6:	f2 cf       	rjmp	.-28     	; 0x70dc <_ZN14HardwareSerial5flushEv+0x10>
	// Interrupts are globally disabled, but the DR empty
	// interrupt should be enabled, so poll the DR empty flag to
	// prevent deadlock
	if (bit_is_set(*_ucsra, UDRE0))
    70f8:	a8 89       	ldd	r26, Y+16	; 0x10
    70fa:	b9 89       	ldd	r27, Y+17	; 0x11
    70fc:	8c 91       	ld	r24, X
    70fe:	85 ff       	sbrs	r24, 5
    7100:	ed cf       	rjmp	.-38     	; 0x70dc <_ZN14HardwareSerial5flushEv+0x10>
	  _tx_udr_empty_irq();
    7102:	ce 01       	movw	r24, r28
    7104:	c2 df       	rcall	.-124    	; 0x708a <_ZN14HardwareSerial17_tx_udr_empty_irqEv>
    7106:	e8 cf       	rjmp	.-48     	; 0x70d8 <_ZN14HardwareSerial5flushEv+0xc>
  }
  // If we get here, nothing is queued anymore (DRIE is disabled) and
  // the hardware finished tranmission (TXC is set).
}
    7108:	df 91       	pop	r29
    710a:	cf 91       	pop	r28
    710c:	08 95       	ret

0000710e <_ZN14HardwareSerial5writeEh>:

size_t HardwareSerial::write(uint8_t c)
{
    710e:	ef 92       	push	r14
    7110:	ff 92       	push	r15
    7112:	0f 93       	push	r16
    7114:	1f 93       	push	r17
    7116:	cf 93       	push	r28
    7118:	df 93       	push	r29
    711a:	ec 01       	movw	r28, r24
  _written = true;
    711c:	81 e0       	ldi	r24, 0x01	; 1
    711e:	88 8f       	std	Y+24, r24	; 0x18
  // If the buffer and the data register is empty, just write the byte
  // to the data register and be done. This shortcut helps
  // significantly improve the effective datarate at high (>
  // 500kbit/s) bitrates, where interrupt overhead becomes a slowdown.
  if (_tx_buffer_head == _tx_buffer_tail && bit_is_set(*_ucsra, UDRE0)) {
    7120:	9b 8d       	ldd	r25, Y+27	; 0x1b
    7122:	8c 8d       	ldd	r24, Y+28	; 0x1c
    7124:	98 13       	cpse	r25, r24
    7126:	05 c0       	rjmp	.+10     	; 0x7132 <_ZN14HardwareSerial5writeEh+0x24>
    7128:	e8 89       	ldd	r30, Y+16	; 0x10
    712a:	f9 89       	ldd	r31, Y+17	; 0x11
    712c:	80 81       	ld	r24, Z
    712e:	85 fd       	sbrc	r24, 5
    7130:	23 c0       	rjmp	.+70     	; 0x7178 <_ZN14HardwareSerial5writeEh+0x6a>
    7132:	f6 2e       	mov	r15, r22
    *_udr = c;
    sbi(*_ucsra, TXC0);
    return 1;
  }
  tx_buffer_index_t i = (_tx_buffer_head + 1) % SERIAL_TX_BUFFER_SIZE;
    7134:	0b 8d       	ldd	r16, Y+27	; 0x1b
    7136:	10 e0       	ldi	r17, 0x00	; 0
    7138:	0f 5f       	subi	r16, 0xFF	; 255
    713a:	1f 4f       	sbci	r17, 0xFF	; 255
    713c:	0f 73       	andi	r16, 0x3F	; 63
    713e:	11 27       	eor	r17, r17
    7140:	e0 2e       	mov	r14, r16
	
  // If the output buffer is full, there's nothing for it other than to 
  // wait for the interrupt handler to empty it a bit
  while (i == _tx_buffer_tail) {
    7142:	8c 8d       	ldd	r24, Y+28	; 0x1c
    7144:	e8 12       	cpse	r14, r24
    7146:	0b c0       	rjmp	.+22     	; 0x715e <_ZN14HardwareSerial5writeEh+0x50>
    if (bit_is_clear(SREG, SREG_I)) {
    7148:	0f b6       	in	r0, 0x3f	; 63
    714a:	07 fc       	sbrc	r0, 7
    714c:	fa cf       	rjmp	.-12     	; 0x7142 <_ZN14HardwareSerial5writeEh+0x34>
      // Interrupts are disabled, so we'll have to poll the data
      // register empty flag ourselves. If it is set, pretend an
      // interrupt has happened and call the handler to free up
      // space for us.
      if(bit_is_set(*_ucsra, UDRE0))
    714e:	e8 89       	ldd	r30, Y+16	; 0x10
    7150:	f9 89       	ldd	r31, Y+17	; 0x11
    7152:	80 81       	ld	r24, Z
    7154:	85 ff       	sbrs	r24, 5
    7156:	f5 cf       	rjmp	.-22     	; 0x7142 <_ZN14HardwareSerial5writeEh+0x34>
	_tx_udr_empty_irq();
    7158:	ce 01       	movw	r24, r28
    715a:	97 df       	rcall	.-210    	; 0x708a <_ZN14HardwareSerial17_tx_udr_empty_irqEv>
    715c:	f2 cf       	rjmp	.-28     	; 0x7142 <_ZN14HardwareSerial5writeEh+0x34>
    } else {
      // nop, the interrupt handler will free up space for us
    }
  }

  _tx_buffer[_tx_buffer_head] = c;
    715e:	8b 8d       	ldd	r24, Y+27	; 0x1b
    7160:	fe 01       	movw	r30, r28
    7162:	e8 0f       	add	r30, r24
    7164:	f1 1d       	adc	r31, r1
    7166:	e3 5a       	subi	r30, 0xA3	; 163
    7168:	ff 4f       	sbci	r31, 0xFF	; 255
    716a:	f0 82       	st	Z, r15
  _tx_buffer_head = i;
    716c:	0b 8f       	std	Y+27, r16	; 0x1b
	
  sbi(*_ucsrb, UDRIE0);
    716e:	ea 89       	ldd	r30, Y+18	; 0x12
    7170:	fb 89       	ldd	r31, Y+19	; 0x13
    7172:	80 81       	ld	r24, Z
    7174:	80 62       	ori	r24, 0x20	; 32
    7176:	07 c0       	rjmp	.+14     	; 0x7186 <_ZN14HardwareSerial5writeEh+0x78>
  // If the buffer and the data register is empty, just write the byte
  // to the data register and be done. This shortcut helps
  // significantly improve the effective datarate at high (>
  // 500kbit/s) bitrates, where interrupt overhead becomes a slowdown.
  if (_tx_buffer_head == _tx_buffer_tail && bit_is_set(*_ucsra, UDRE0)) {
    *_udr = c;
    7178:	ee 89       	ldd	r30, Y+22	; 0x16
    717a:	ff 89       	ldd	r31, Y+23	; 0x17
    717c:	60 83       	st	Z, r22
    sbi(*_ucsra, TXC0);
    717e:	e8 89       	ldd	r30, Y+16	; 0x10
    7180:	f9 89       	ldd	r31, Y+17	; 0x11
    7182:	80 81       	ld	r24, Z
    7184:	80 64       	ori	r24, 0x40	; 64
    7186:	80 83       	st	Z, r24
  _tx_buffer_head = i;
	
  sbi(*_ucsrb, UDRIE0);
  
  return 1;
}
    7188:	81 e0       	ldi	r24, 0x01	; 1
    718a:	90 e0       	ldi	r25, 0x00	; 0
    718c:	df 91       	pop	r29
    718e:	cf 91       	pop	r28
    7190:	1f 91       	pop	r17
    7192:	0f 91       	pop	r16
    7194:	ff 90       	pop	r15
    7196:	ef 90       	pop	r14
    7198:	08 95       	ret

0000719a <_ZN14HardwareSerial5beginEmh>:
}

// Public Methods //////////////////////////////////////////////////////////////

void HardwareSerial::begin(unsigned long baud, byte config)
{
    719a:	cf 92       	push	r12
    719c:	df 92       	push	r13
    719e:	ef 92       	push	r14
    71a0:	ff 92       	push	r15
    71a2:	1f 93       	push	r17
    71a4:	cf 93       	push	r28
    71a6:	df 93       	push	r29
    71a8:	ec 01       	movw	r28, r24
    71aa:	6a 01       	movw	r12, r20
    71ac:	7b 01       	movw	r14, r22
    71ae:	12 2f       	mov	r17, r18
  // Try u2x mode first
  uint16_t baud_setting = (F_CPU / 4 / baud - 1) / 2;
  *_ucsra = 1 << U2X0;
    71b0:	e8 89       	ldd	r30, Y+16	; 0x10
    71b2:	f9 89       	ldd	r31, Y+17	; 0x11
    71b4:	82 e0       	ldi	r24, 0x02	; 2
    71b6:	80 83       	st	Z, r24
  // hardcoded exception for 57600 for compatibility with the bootloader
  // shipped with the Duemilanove and previous boards and the firmware
  // on the 8U2 on the Uno and Mega 2560. Also, The baud_setting cannot
  // be > 4095, so switch back to non-u2x mode if the baud rate is too
  // low.
  if (((F_CPU == 16000000UL) && (baud == 57600)) || (baud_setting >4095))
    71b8:	41 15       	cp	r20, r1
    71ba:	51 4e       	sbci	r21, 0xE1	; 225
    71bc:	61 05       	cpc	r22, r1
    71be:	71 05       	cpc	r23, r1
    71c0:	b1 f0       	breq	.+44     	; 0x71ee <_ZN14HardwareSerial5beginEmh+0x54>
// Public Methods //////////////////////////////////////////////////////////////

void HardwareSerial::begin(unsigned long baud, byte config)
{
  // Try u2x mode first
  uint16_t baud_setting = (F_CPU / 4 / baud - 1) / 2;
    71c2:	60 e0       	ldi	r22, 0x00	; 0
    71c4:	79 e0       	ldi	r23, 0x09	; 9
    71c6:	8d e3       	ldi	r24, 0x3D	; 61
    71c8:	90 e0       	ldi	r25, 0x00	; 0
    71ca:	a7 01       	movw	r20, r14
    71cc:	96 01       	movw	r18, r12
    71ce:	0e 94 d5 59 	call	0xb3aa	; 0xb3aa <__udivmodsi4>
    71d2:	da 01       	movw	r26, r20
    71d4:	c9 01       	movw	r24, r18
    71d6:	01 97       	sbiw	r24, 0x01	; 1
    71d8:	a1 09       	sbc	r26, r1
    71da:	b1 09       	sbc	r27, r1
    71dc:	b6 95       	lsr	r27
    71de:	a7 95       	ror	r26
    71e0:	97 95       	ror	r25
    71e2:	87 95       	ror	r24
    71e4:	ac 01       	movw	r20, r24
  // hardcoded exception for 57600 for compatibility with the bootloader
  // shipped with the Duemilanove and previous boards and the firmware
  // on the 8U2 on the Uno and Mega 2560. Also, The baud_setting cannot
  // be > 4095, so switch back to non-u2x mode if the baud rate is too
  // low.
  if (((F_CPU == 16000000UL) && (baud == 57600)) || (baud_setting >4095))
    71e6:	41 15       	cp	r20, r1
    71e8:	80 e1       	ldi	r24, 0x10	; 16
    71ea:	58 07       	cpc	r21, r24
    71ec:	a8 f0       	brcs	.+42     	; 0x7218 <_ZN14HardwareSerial5beginEmh+0x7e>
  {
    *_ucsra = 0;
    71ee:	e8 89       	ldd	r30, Y+16	; 0x10
    71f0:	f9 89       	ldd	r31, Y+17	; 0x11
    71f2:	10 82       	st	Z, r1
    baud_setting = (F_CPU / 8 / baud - 1) / 2;
    71f4:	60 e8       	ldi	r22, 0x80	; 128
    71f6:	74 e8       	ldi	r23, 0x84	; 132
    71f8:	8e e1       	ldi	r24, 0x1E	; 30
    71fa:	90 e0       	ldi	r25, 0x00	; 0
    71fc:	a7 01       	movw	r20, r14
    71fe:	96 01       	movw	r18, r12
    7200:	0e 94 d5 59 	call	0xb3aa	; 0xb3aa <__udivmodsi4>
    7204:	ba 01       	movw	r22, r20
    7206:	a9 01       	movw	r20, r18
    7208:	41 50       	subi	r20, 0x01	; 1
    720a:	51 09       	sbc	r21, r1
    720c:	61 09       	sbc	r22, r1
    720e:	71 09       	sbc	r23, r1
    7210:	76 95       	lsr	r23
    7212:	67 95       	ror	r22
    7214:	57 95       	ror	r21
    7216:	47 95       	ror	r20
  }

  // assign the baud_setting, a.k.a. ubrr (USART Baud Rate Register)
  *_ubrrh = baud_setting >> 8;
    7218:	ec 85       	ldd	r30, Y+12	; 0x0c
    721a:	fd 85       	ldd	r31, Y+13	; 0x0d
    721c:	50 83       	st	Z, r21
  *_ubrrl = baud_setting;
    721e:	ee 85       	ldd	r30, Y+14	; 0x0e
    7220:	ff 85       	ldd	r31, Y+15	; 0x0f
    7222:	40 83       	st	Z, r20

  _written = false;
    7224:	18 8e       	std	Y+24, r1	; 0x18

  //set the data bits, parity, and stop bits
#if defined(__AVR_ATmega8__)
  config |= 0x80; // select UCSRC register (shared with UBRRH)
#endif
  *_ucsrc = config;
    7226:	ec 89       	ldd	r30, Y+20	; 0x14
    7228:	fd 89       	ldd	r31, Y+21	; 0x15
    722a:	10 83       	st	Z, r17
  
  sbi(*_ucsrb, RXEN0);
    722c:	ea 89       	ldd	r30, Y+18	; 0x12
    722e:	fb 89       	ldd	r31, Y+19	; 0x13
    7230:	80 81       	ld	r24, Z
    7232:	80 61       	ori	r24, 0x10	; 16
    7234:	80 83       	st	Z, r24
  sbi(*_ucsrb, TXEN0);
    7236:	ea 89       	ldd	r30, Y+18	; 0x12
    7238:	fb 89       	ldd	r31, Y+19	; 0x13
    723a:	80 81       	ld	r24, Z
    723c:	88 60       	ori	r24, 0x08	; 8
    723e:	80 83       	st	Z, r24
  sbi(*_ucsrb, RXCIE0);
    7240:	ea 89       	ldd	r30, Y+18	; 0x12
    7242:	fb 89       	ldd	r31, Y+19	; 0x13
    7244:	80 81       	ld	r24, Z
    7246:	80 68       	ori	r24, 0x80	; 128
    7248:	80 83       	st	Z, r24
  cbi(*_ucsrb, UDRIE0);
    724a:	ea 89       	ldd	r30, Y+18	; 0x12
    724c:	fb 89       	ldd	r31, Y+19	; 0x13
    724e:	80 81       	ld	r24, Z
    7250:	8f 7d       	andi	r24, 0xDF	; 223
    7252:	80 83       	st	Z, r24
}
    7254:	df 91       	pop	r29
    7256:	cf 91       	pop	r28
    7258:	1f 91       	pop	r17
    725a:	ff 90       	pop	r15
    725c:	ef 90       	pop	r14
    725e:	df 90       	pop	r13
    7260:	cf 90       	pop	r12
    7262:	08 95       	ret

00007264 <__vector_25>:
#elif defined(USART_RXC_vect)
  ISR(USART_RXC_vect) // ATmega8
#else
  #error "Don't know what the Data Received vector is called for Serial"
#endif
  {
    7264:	1f 92       	push	r1
    7266:	0f 92       	push	r0
    7268:	0f b6       	in	r0, 0x3f	; 63
    726a:	0f 92       	push	r0
    726c:	11 24       	eor	r1, r1
    726e:	0b b6       	in	r0, 0x3b	; 59
    7270:	0f 92       	push	r0
    7272:	2f 93       	push	r18
    7274:	8f 93       	push	r24
    7276:	9f 93       	push	r25
    7278:	ef 93       	push	r30
    727a:	ff 93       	push	r31

// Actual interrupt handlers //////////////////////////////////////////////////////////////

void HardwareSerial::_rx_complete_irq(void)
{
  if (bit_is_clear(*_ucsra, UPE0)) {
    727c:	e0 91 69 0b 	lds	r30, 0x0B69	; 0x800b69 <Serial+0x10>
    7280:	f0 91 6a 0b 	lds	r31, 0x0B6A	; 0x800b6a <Serial+0x11>
    7284:	80 81       	ld	r24, Z
    7286:	e0 91 6f 0b 	lds	r30, 0x0B6F	; 0x800b6f <Serial+0x16>
    728a:	f0 91 70 0b 	lds	r31, 0x0B70	; 0x800b70 <Serial+0x17>
    728e:	82 fd       	sbrc	r24, 2
    7290:	12 c0       	rjmp	.+36     	; 0x72b6 <__vector_25+0x52>
    // No Parity error, read byte and store it in the buffer if there is
    // room
    unsigned char c = *_udr;
    7292:	90 81       	ld	r25, Z
    rx_buffer_index_t i = (unsigned int)(_rx_buffer_head + 1) % SERIAL_RX_BUFFER_SIZE;
    7294:	80 91 72 0b 	lds	r24, 0x0B72	; 0x800b72 <Serial+0x19>
    7298:	8f 5f       	subi	r24, 0xFF	; 255
    729a:	8f 73       	andi	r24, 0x3F	; 63

    // if we should be storing the received character into the location
    // just before the tail (meaning that the head would advance to the
    // current location of the tail), we're about to overflow the buffer
    // and so we don't write the character or advance the head.
    if (i != _rx_buffer_tail) {
    729c:	20 91 73 0b 	lds	r18, 0x0B73	; 0x800b73 <Serial+0x1a>
    72a0:	82 17       	cp	r24, r18
    72a2:	51 f0       	breq	.+20     	; 0x72b8 <__vector_25+0x54>
      _rx_buffer[_rx_buffer_head] = c;
    72a4:	e0 91 72 0b 	lds	r30, 0x0B72	; 0x800b72 <Serial+0x19>
    72a8:	f0 e0       	ldi	r31, 0x00	; 0
    72aa:	e7 5a       	subi	r30, 0xA7	; 167
    72ac:	f4 4f       	sbci	r31, 0xF4	; 244
    72ae:	95 8f       	std	Z+29, r25	; 0x1d
      _rx_buffer_head = i;
    72b0:	80 93 72 0b 	sts	0x0B72, r24	; 0x800b72 <Serial+0x19>
    72b4:	01 c0       	rjmp	.+2      	; 0x72b8 <__vector_25+0x54>
    }
  } else {
    // Parity error, read byte but discard it
    *_udr;
    72b6:	80 81       	ld	r24, Z
    Serial._rx_complete_irq();
  }
    72b8:	ff 91       	pop	r31
    72ba:	ef 91       	pop	r30
    72bc:	9f 91       	pop	r25
    72be:	8f 91       	pop	r24
    72c0:	2f 91       	pop	r18
    72c2:	0f 90       	pop	r0
    72c4:	0b be       	out	0x3b, r0	; 59
    72c6:	0f 90       	pop	r0
    72c8:	0f be       	out	0x3f, r0	; 63
    72ca:	0f 90       	pop	r0
    72cc:	1f 90       	pop	r1
    72ce:	18 95       	reti

000072d0 <__vector_26>:
#elif defined(USART_UDRE_vect)
ISR(USART_UDRE_vect)
#else
  #error "Don't know what the Data Register Empty vector is called for Serial"
#endif
{
    72d0:	1f 92       	push	r1
    72d2:	0f 92       	push	r0
    72d4:	0f b6       	in	r0, 0x3f	; 63
    72d6:	0f 92       	push	r0
    72d8:	11 24       	eor	r1, r1
    72da:	0b b6       	in	r0, 0x3b	; 59
    72dc:	0f 92       	push	r0
    72de:	2f 93       	push	r18
    72e0:	3f 93       	push	r19
    72e2:	4f 93       	push	r20
    72e4:	5f 93       	push	r21
    72e6:	6f 93       	push	r22
    72e8:	7f 93       	push	r23
    72ea:	8f 93       	push	r24
    72ec:	9f 93       	push	r25
    72ee:	af 93       	push	r26
    72f0:	bf 93       	push	r27
    72f2:	ef 93       	push	r30
    72f4:	ff 93       	push	r31
  Serial._tx_udr_empty_irq();
    72f6:	89 e5       	ldi	r24, 0x59	; 89
    72f8:	9b e0       	ldi	r25, 0x0B	; 11
    72fa:	c7 de       	rcall	.-626    	; 0x708a <_ZN14HardwareSerial17_tx_udr_empty_irqEv>
}
    72fc:	ff 91       	pop	r31
    72fe:	ef 91       	pop	r30
    7300:	bf 91       	pop	r27
    7302:	af 91       	pop	r26
    7304:	9f 91       	pop	r25
    7306:	8f 91       	pop	r24
    7308:	7f 91       	pop	r23
    730a:	6f 91       	pop	r22
    730c:	5f 91       	pop	r21
    730e:	4f 91       	pop	r20
    7310:	3f 91       	pop	r19
    7312:	2f 91       	pop	r18
    7314:	0f 90       	pop	r0
    7316:	0b be       	out	0x3b, r0	; 59
    7318:	0f 90       	pop	r0
    731a:	0f be       	out	0x3f, r0	; 63
    731c:	0f 90       	pop	r0
    731e:	1f 90       	pop	r1
    7320:	18 95       	reti

00007322 <_Z17Serial0_availablev>:
#endif

// Function that can be weakly referenced by serialEventRun to prevent
// pulling in this file if it's not otherwise used.
bool Serial0_available() {
  return Serial.available();
    7322:	89 e5       	ldi	r24, 0x59	; 89
    7324:	9b e0       	ldi	r25, 0x0B	; 11
    7326:	47 de       	rcall	.-882    	; 0x6fb6 <_ZN14HardwareSerial9availableEv>
    7328:	21 e0       	ldi	r18, 0x01	; 1
    732a:	89 2b       	or	r24, r25
    732c:	09 f4       	brne	.+2      	; 0x7330 <_Z17Serial0_availablev+0xe>
    732e:	20 e0       	ldi	r18, 0x00	; 0
}
    7330:	82 2f       	mov	r24, r18
    7332:	08 95       	ret

00007334 <_GLOBAL__sub_I___vector_25>:
    size_t printNumber(unsigned long, uint8_t);
    size_t printFloat(double, uint8_t);
  protected:
    void setWriteError(int err = 1) { write_error = err; }
  public:
    Print() : write_error(0) {}
    7334:	e9 e5       	ldi	r30, 0x59	; 89
    7336:	fb e0       	ldi	r31, 0x0B	; 11
    7338:	13 82       	std	Z+3, r1	; 0x03
    733a:	12 82       	std	Z+2, r1	; 0x02
    virtual int available() = 0;
    virtual int read() = 0;
    virtual int peek() = 0;
    virtual void flush() = 0;

    Stream() {_timeout=1000;}
    733c:	88 ee       	ldi	r24, 0xE8	; 232
    733e:	93 e0       	ldi	r25, 0x03	; 3
    7340:	a0 e0       	ldi	r26, 0x00	; 0
    7342:	b0 e0       	ldi	r27, 0x00	; 0
    7344:	84 83       	std	Z+4, r24	; 0x04
    7346:	95 83       	std	Z+5, r25	; 0x05
    7348:	a6 83       	std	Z+6, r26	; 0x06
    734a:	b7 83       	std	Z+7, r27	; 0x07
  volatile uint8_t *ucsrc, volatile uint8_t *udr) :
    _ubrrh(ubrrh), _ubrrl(ubrrl),
    _ucsra(ucsra), _ucsrb(ucsrb), _ucsrc(ucsrc),
    _udr(udr),
    _rx_buffer_head(0), _rx_buffer_tail(0),
    _tx_buffer_head(0), _tx_buffer_tail(0)
    734c:	85 ee       	ldi	r24, 0xE5	; 229
    734e:	94 e0       	ldi	r25, 0x04	; 4
    7350:	91 83       	std	Z+1, r25	; 0x01
    7352:	80 83       	st	Z, r24
    7354:	85 ec       	ldi	r24, 0xC5	; 197
    7356:	90 e0       	ldi	r25, 0x00	; 0
    7358:	95 87       	std	Z+13, r25	; 0x0d
    735a:	84 87       	std	Z+12, r24	; 0x0c
    735c:	84 ec       	ldi	r24, 0xC4	; 196
    735e:	90 e0       	ldi	r25, 0x00	; 0
    7360:	97 87       	std	Z+15, r25	; 0x0f
    7362:	86 87       	std	Z+14, r24	; 0x0e
    7364:	80 ec       	ldi	r24, 0xC0	; 192
    7366:	90 e0       	ldi	r25, 0x00	; 0
    7368:	91 8b       	std	Z+17, r25	; 0x11
    736a:	80 8b       	std	Z+16, r24	; 0x10
    736c:	81 ec       	ldi	r24, 0xC1	; 193
    736e:	90 e0       	ldi	r25, 0x00	; 0
    7370:	93 8b       	std	Z+19, r25	; 0x13
    7372:	82 8b       	std	Z+18, r24	; 0x12
    7374:	82 ec       	ldi	r24, 0xC2	; 194
    7376:	90 e0       	ldi	r25, 0x00	; 0
    7378:	95 8b       	std	Z+21, r25	; 0x15
    737a:	84 8b       	std	Z+20, r24	; 0x14
    737c:	86 ec       	ldi	r24, 0xC6	; 198
    737e:	90 e0       	ldi	r25, 0x00	; 0
    7380:	97 8b       	std	Z+23, r25	; 0x17
    7382:	86 8b       	std	Z+22, r24	; 0x16
    7384:	11 8e       	std	Z+25, r1	; 0x19
    7386:	12 8e       	std	Z+26, r1	; 0x1a
    7388:	13 8e       	std	Z+27, r1	; 0x1b
    738a:	14 8e       	std	Z+28, r1	; 0x1c
    738c:	08 95       	ret

0000738e <initVariant>:
// May be redefined by variant files.
void initVariant() __attribute__((weak));
void initVariant() { }

void setupUSB() __attribute__((weak));
void setupUSB() { }
    738e:	08 95       	ret

00007390 <main>:

int main(void)
{
	init();
    7390:	bf d1       	rcall	.+894    	; 0x7710 <init>

	initVariant();
    7392:	fd df       	rcall	.-6      	; 0x738e <initVariant>

#if defined(USBCON)
	USBDevice.attach();
#endif
	
	setup();
    7394:	0e 94 5b 30 	call	0x60b6	; 0x60b6 <setup>
    
	for (;;) {
		loop();
		if (serialEventRun) serialEventRun();
    7398:	c9 e0       	ldi	r28, 0x09	; 9
    739a:	d8 e3       	ldi	r29, 0x38	; 56
#endif
	
	setup();
    
	for (;;) {
		loop();
    739c:	ce d8       	rcall	.-3684   	; 0x653a <loop>
		if (serialEventRun) serialEventRun();
    739e:	20 97       	sbiw	r28, 0x00	; 0
    73a0:	e9 f3       	breq	.-6      	; 0x739c <main+0xc>
    73a2:	37 de       	rcall	.-914    	; 0x7012 <_Z14serialEventRunv>
    73a4:	fb cf       	rjmp	.-10     	; 0x739c <main+0xc>

000073a6 <_ZN5Print5writeEPKhj>:
size_t Print::println(const Printable& x)
{
  size_t n = print(x);
  n += println();
  return n;
}
    73a6:	cf 92       	push	r12
    73a8:	df 92       	push	r13
    73aa:	ef 92       	push	r14
    73ac:	ff 92       	push	r15
    73ae:	0f 93       	push	r16
    73b0:	1f 93       	push	r17
    73b2:	cf 93       	push	r28
    73b4:	df 93       	push	r29
    73b6:	6c 01       	movw	r12, r24
    73b8:	7a 01       	movw	r14, r20
    73ba:	8b 01       	movw	r16, r22
    73bc:	c0 e0       	ldi	r28, 0x00	; 0
    73be:	d0 e0       	ldi	r29, 0x00	; 0
    73c0:	ce 15       	cp	r28, r14
    73c2:	df 05       	cpc	r29, r15
    73c4:	89 f0       	breq	.+34     	; 0x73e8 <_ZN5Print5writeEPKhj+0x42>
    73c6:	d8 01       	movw	r26, r16
    73c8:	6d 91       	ld	r22, X+
    73ca:	8d 01       	movw	r16, r26
    73cc:	d6 01       	movw	r26, r12
    73ce:	ed 91       	ld	r30, X+
    73d0:	fc 91       	ld	r31, X
    73d2:	01 90       	ld	r0, Z+
    73d4:	f0 81       	ld	r31, Z
    73d6:	e0 2d       	mov	r30, r0
    73d8:	c6 01       	movw	r24, r12
    73da:	19 95       	eicall
    73dc:	89 2b       	or	r24, r25
    73de:	11 f4       	brne	.+4      	; 0x73e4 <_ZN5Print5writeEPKhj+0x3e>
    73e0:	7e 01       	movw	r14, r28
    73e2:	02 c0       	rjmp	.+4      	; 0x73e8 <_ZN5Print5writeEPKhj+0x42>
    73e4:	21 96       	adiw	r28, 0x01	; 1
    73e6:	ec cf       	rjmp	.-40     	; 0x73c0 <_ZN5Print5writeEPKhj+0x1a>
    73e8:	c7 01       	movw	r24, r14
    73ea:	df 91       	pop	r29
    73ec:	cf 91       	pop	r28
    73ee:	1f 91       	pop	r17
    73f0:	0f 91       	pop	r16
    73f2:	ff 90       	pop	r15
    73f4:	ef 90       	pop	r14
    73f6:	df 90       	pop	r13
    73f8:	cf 90       	pop	r12
    73fa:	08 95       	ret

000073fc <_ZN5Print5writeEPKc>:
    73fc:	61 15       	cp	r22, r1
    73fe:	71 05       	cpc	r23, r1
    7400:	79 f0       	breq	.+30     	; 0x7420 <_ZN5Print5writeEPKc+0x24>
    7402:	fb 01       	movw	r30, r22
    7404:	01 90       	ld	r0, Z+
    7406:	00 20       	and	r0, r0
    7408:	e9 f7       	brne	.-6      	; 0x7404 <_ZN5Print5writeEPKc+0x8>
    740a:	31 97       	sbiw	r30, 0x01	; 1
    740c:	af 01       	movw	r20, r30
    740e:	46 1b       	sub	r20, r22
    7410:	57 0b       	sbc	r21, r23
    7412:	dc 01       	movw	r26, r24
    7414:	ed 91       	ld	r30, X+
    7416:	fc 91       	ld	r31, X
    7418:	02 80       	ldd	r0, Z+2	; 0x02
    741a:	f3 81       	ldd	r31, Z+3	; 0x03
    741c:	e0 2d       	mov	r30, r0
    741e:	19 94       	eijmp
    7420:	80 e0       	ldi	r24, 0x00	; 0
    7422:	90 e0       	ldi	r25, 0x00	; 0
    7424:	08 95       	ret

00007426 <_ZN5Print5printEPKc>:
    7426:	ea cf       	rjmp	.-44     	; 0x73fc <_ZN5Print5writeEPKc>

00007428 <_ZN5Print5printEc>:
    7428:	dc 01       	movw	r26, r24
    742a:	ed 91       	ld	r30, X+
    742c:	fc 91       	ld	r31, X
    742e:	01 90       	ld	r0, Z+
    7430:	f0 81       	ld	r31, Z
    7432:	e0 2d       	mov	r30, r0
    7434:	19 94       	eijmp

00007436 <_ZN5Print7printlnEv>:
    7436:	61 ef       	ldi	r22, 0xF1	; 241
    7438:	74 e0       	ldi	r23, 0x04	; 4
    743a:	e0 cf       	rjmp	.-64     	; 0x73fc <_ZN5Print5writeEPKc>

0000743c <_ZN5Print11printNumberEmh>:

// Private Methods /////////////////////////////////////////////////////////////

size_t Print::printNumber(unsigned long n, uint8_t base)
{
    743c:	8f 92       	push	r8
    743e:	9f 92       	push	r9
    7440:	af 92       	push	r10
    7442:	bf 92       	push	r11
    7444:	cf 92       	push	r12
    7446:	df 92       	push	r13
    7448:	ef 92       	push	r14
    744a:	ff 92       	push	r15
    744c:	0f 93       	push	r16
    744e:	1f 93       	push	r17
    7450:	cf 93       	push	r28
    7452:	df 93       	push	r29
    7454:	cd b7       	in	r28, 0x3d	; 61
    7456:	de b7       	in	r29, 0x3e	; 62
    7458:	a1 97       	sbiw	r28, 0x21	; 33
    745a:	0f b6       	in	r0, 0x3f	; 63
    745c:	f8 94       	cli
    745e:	de bf       	out	0x3e, r29	; 62
    7460:	0f be       	out	0x3f, r0	; 63
    7462:	cd bf       	out	0x3d, r28	; 61
    7464:	7c 01       	movw	r14, r24
    7466:	d4 2e       	mov	r13, r20
    7468:	c5 2e       	mov	r12, r21
    746a:	db 01       	movw	r26, r22
  char buf[8 * sizeof(long) + 1]; // Assumes 8-bit chars plus zero byte.
  char *str = &buf[sizeof(buf) - 1];

  *str = '\0';
    746c:	19 a2       	std	Y+33, r1	; 0x21

  // prevent crash if called with base == 1
  if (base < 2) base = 10;
    746e:	22 30       	cpi	r18, 0x02	; 2
    7470:	08 f4       	brcc	.+2      	; 0x7474 <_ZN5Print11printNumberEmh+0x38>
    7472:	2a e0       	ldi	r18, 0x0A	; 10
    7474:	8e 01       	movw	r16, r28
    7476:	0f 5d       	subi	r16, 0xDF	; 223
    7478:	1f 4f       	sbci	r17, 0xFF	; 255

  do {
    char c = n % base;
    747a:	82 2e       	mov	r8, r18
    747c:	91 2c       	mov	r9, r1
    747e:	a1 2c       	mov	r10, r1
    7480:	b1 2c       	mov	r11, r1
    7482:	6d 2d       	mov	r22, r13
    7484:	7c 2d       	mov	r23, r12
    7486:	cd 01       	movw	r24, r26
    7488:	a5 01       	movw	r20, r10
    748a:	94 01       	movw	r18, r8
    748c:	0e 94 d5 59 	call	0xb3aa	; 0xb3aa <__udivmodsi4>
    n /= base;
    7490:	d2 2e       	mov	r13, r18
    7492:	c3 2e       	mov	r12, r19
    7494:	da 01       	movw	r26, r20

    *--str = c < 10 ? c + '0' : c + 'A' - 10;
    7496:	01 50       	subi	r16, 0x01	; 1
    7498:	11 09       	sbc	r17, r1
    749a:	6a 30       	cpi	r22, 0x0A	; 10
    749c:	71 05       	cpc	r23, r1
    749e:	81 05       	cpc	r24, r1
    74a0:	91 05       	cpc	r25, r1
    74a2:	10 f4       	brcc	.+4      	; 0x74a8 <_ZN5Print11printNumberEmh+0x6c>
    74a4:	60 5d       	subi	r22, 0xD0	; 208
    74a6:	01 c0       	rjmp	.+2      	; 0x74aa <_ZN5Print11printNumberEmh+0x6e>
    74a8:	69 5c       	subi	r22, 0xC9	; 201
    74aa:	f8 01       	movw	r30, r16
    74ac:	60 83       	st	Z, r22
  *str = '\0';

  // prevent crash if called with base == 1
  if (base < 2) base = 10;

  do {
    74ae:	23 2b       	or	r18, r19
    74b0:	24 2b       	or	r18, r20
    74b2:	25 2b       	or	r18, r21
    74b4:	31 f7       	brne	.-52     	; 0x7482 <_ZN5Print11printNumberEmh+0x46>
    n /= base;

    *--str = c < 10 ? c + '0' : c + 'A' - 10;
  } while(n);

  return write(str);
    74b6:	b8 01       	movw	r22, r16
    74b8:	c7 01       	movw	r24, r14
    74ba:	a0 df       	rcall	.-192    	; 0x73fc <_ZN5Print5writeEPKc>
}
    74bc:	a1 96       	adiw	r28, 0x21	; 33
    74be:	0f b6       	in	r0, 0x3f	; 63
    74c0:	f8 94       	cli
    74c2:	de bf       	out	0x3e, r29	; 62
    74c4:	0f be       	out	0x3f, r0	; 63
    74c6:	cd bf       	out	0x3d, r28	; 61
    74c8:	df 91       	pop	r29
    74ca:	cf 91       	pop	r28
    74cc:	1f 91       	pop	r17
    74ce:	0f 91       	pop	r16
    74d0:	ff 90       	pop	r15
    74d2:	ef 90       	pop	r14
    74d4:	df 90       	pop	r13
    74d6:	cf 90       	pop	r12
    74d8:	bf 90       	pop	r11
    74da:	af 90       	pop	r10
    74dc:	9f 90       	pop	r9
    74de:	8f 90       	pop	r8
    74e0:	08 95       	ret

000074e2 <_ZN5Print5printEli>:
{
  return print((unsigned long) n, base);
}

size_t Print::print(long n, int base)
{
    74e2:	cf 92       	push	r12
    74e4:	df 92       	push	r13
    74e6:	ef 92       	push	r14
    74e8:	ff 92       	push	r15
    74ea:	0f 93       	push	r16
    74ec:	1f 93       	push	r17
    74ee:	cf 93       	push	r28
    74f0:	df 93       	push	r29
    74f2:	ec 01       	movw	r28, r24
    74f4:	6a 01       	movw	r12, r20
    74f6:	7b 01       	movw	r14, r22
  if (base == 0) {
    74f8:	21 15       	cp	r18, r1
    74fa:	31 05       	cpc	r19, r1
    74fc:	79 f4       	brne	.+30     	; 0x751c <_ZN5Print5printEli+0x3a>
    return write(n);
    74fe:	e8 81       	ld	r30, Y
    7500:	f9 81       	ldd	r31, Y+1	; 0x01
    7502:	01 90       	ld	r0, Z+
    7504:	f0 81       	ld	r31, Z
    7506:	e0 2d       	mov	r30, r0
    7508:	64 2f       	mov	r22, r20
    }
    return printNumber(n, 10);
  } else {
    return printNumber(n, base);
  }
}
    750a:	df 91       	pop	r29
    750c:	cf 91       	pop	r28
    750e:	1f 91       	pop	r17
    7510:	0f 91       	pop	r16
    7512:	ff 90       	pop	r15
    7514:	ef 90       	pop	r14
    7516:	df 90       	pop	r13
    7518:	cf 90       	pop	r12
}

size_t Print::print(long n, int base)
{
  if (base == 0) {
    return write(n);
    751a:	19 94       	eijmp
  } else if (base == 10) {
    751c:	2a 30       	cpi	r18, 0x0A	; 10
    751e:	31 05       	cpc	r19, r1
    7520:	d9 f4       	brne	.+54     	; 0x7558 <_ZN5Print5printEli+0x76>
    if (n < 0) {
    7522:	77 ff       	sbrs	r23, 7
    7524:	18 c0       	rjmp	.+48     	; 0x7556 <_ZN5Print5printEli+0x74>
      int t = print('-');
    7526:	6d e2       	ldi	r22, 0x2D	; 45
    7528:	7f df       	rcall	.-258    	; 0x7428 <_ZN5Print5printEc>
    752a:	8c 01       	movw	r16, r24
      n = -n;
    752c:	44 27       	eor	r20, r20
    752e:	55 27       	eor	r21, r21
    7530:	ba 01       	movw	r22, r20
    7532:	4c 19       	sub	r20, r12
    7534:	5d 09       	sbc	r21, r13
    7536:	6e 09       	sbc	r22, r14
    7538:	7f 09       	sbc	r23, r15
      return printNumber(n, 10) + t;
    753a:	2a e0       	ldi	r18, 0x0A	; 10
    753c:	ce 01       	movw	r24, r28
    753e:	7e df       	rcall	.-260    	; 0x743c <_ZN5Print11printNumberEmh>
    7540:	80 0f       	add	r24, r16
    7542:	91 1f       	adc	r25, r17
    }
    return printNumber(n, 10);
  } else {
    return printNumber(n, base);
  }
}
    7544:	df 91       	pop	r29
    7546:	cf 91       	pop	r28
    7548:	1f 91       	pop	r17
    754a:	0f 91       	pop	r16
    754c:	ff 90       	pop	r15
    754e:	ef 90       	pop	r14
    7550:	df 90       	pop	r13
    7552:	cf 90       	pop	r12
    7554:	08 95       	ret
    if (n < 0) {
      int t = print('-');
      n = -n;
      return printNumber(n, 10) + t;
    }
    return printNumber(n, 10);
    7556:	2a e0       	ldi	r18, 0x0A	; 10
  } else {
    return printNumber(n, base);
    7558:	b7 01       	movw	r22, r14
    755a:	a6 01       	movw	r20, r12
    755c:	ce 01       	movw	r24, r28
  }
}
    755e:	df 91       	pop	r29
    7560:	cf 91       	pop	r28
    7562:	1f 91       	pop	r17
    7564:	0f 91       	pop	r16
    7566:	ff 90       	pop	r15
    7568:	ef 90       	pop	r14
    756a:	df 90       	pop	r13
    756c:	cf 90       	pop	r12
      n = -n;
      return printNumber(n, 10) + t;
    }
    return printNumber(n, 10);
  } else {
    return printNumber(n, base);
    756e:	66 cf       	rjmp	.-308    	; 0x743c <_ZN5Print11printNumberEmh>

00007570 <_ZN5Print5printEii>:
{
  return print((unsigned long) b, base);
}

size_t Print::print(int n, int base)
{
    7570:	9a 01       	movw	r18, r20
  return print((long) n, base);
    7572:	ab 01       	movw	r20, r22
    7574:	77 0f       	add	r23, r23
    7576:	66 0b       	sbc	r22, r22
    7578:	77 0b       	sbc	r23, r23
    757a:	b3 cf       	rjmp	.-154    	; 0x74e2 <_ZN5Print5printEli>

0000757c <_ZN5Print7printlnEii>:
  n += println();
  return n;
}

size_t Print::println(int num, int base)
{
    757c:	0f 93       	push	r16
    757e:	1f 93       	push	r17
    7580:	cf 93       	push	r28
    7582:	df 93       	push	r29
    7584:	ec 01       	movw	r28, r24
    7586:	9a 01       	movw	r18, r20
  return print((unsigned long) b, base);
}

size_t Print::print(int n, int base)
{
  return print((long) n, base);
    7588:	ab 01       	movw	r20, r22
    758a:	77 0f       	add	r23, r23
    758c:	66 0b       	sbc	r22, r22
    758e:	77 0b       	sbc	r23, r23
    7590:	a8 df       	rcall	.-176    	; 0x74e2 <_ZN5Print5printEli>
    7592:	8c 01       	movw	r16, r24
}

size_t Print::println(int num, int base)
{
  size_t n = print(num, base);
  n += println();
    7594:	ce 01       	movw	r24, r28
    7596:	4f df       	rcall	.-354    	; 0x7436 <_ZN5Print7printlnEv>
  return n;
}
    7598:	80 0f       	add	r24, r16
    759a:	91 1f       	adc	r25, r17
    759c:	df 91       	pop	r29
    759e:	cf 91       	pop	r28
    75a0:	1f 91       	pop	r17
    75a2:	0f 91       	pop	r16
    75a4:	08 95       	ret

000075a6 <__vector_23>:
	

#endif

	// busy wait
	__asm__ __volatile__ (
    75a6:	1f 92       	push	r1
    75a8:	0f 92       	push	r0
    75aa:	0f b6       	in	r0, 0x3f	; 63
    75ac:	0f 92       	push	r0
    75ae:	11 24       	eor	r1, r1
    75b0:	2f 93       	push	r18
    75b2:	3f 93       	push	r19
    75b4:	8f 93       	push	r24
    75b6:	9f 93       	push	r25
    75b8:	af 93       	push	r26
    75ba:	bf 93       	push	r27
    75bc:	80 91 f7 0b 	lds	r24, 0x0BF7	; 0x800bf7 <timer0_millis>
    75c0:	90 91 f8 0b 	lds	r25, 0x0BF8	; 0x800bf8 <timer0_millis+0x1>
    75c4:	a0 91 f9 0b 	lds	r26, 0x0BF9	; 0x800bf9 <timer0_millis+0x2>
    75c8:	b0 91 fa 0b 	lds	r27, 0x0BFA	; 0x800bfa <timer0_millis+0x3>
    75cc:	30 91 f6 0b 	lds	r19, 0x0BF6	; 0x800bf6 <timer0_fract>
    75d0:	23 e0       	ldi	r18, 0x03	; 3
    75d2:	23 0f       	add	r18, r19
    75d4:	2d 37       	cpi	r18, 0x7D	; 125
    75d6:	20 f4       	brcc	.+8      	; 0x75e0 <__vector_23+0x3a>
    75d8:	01 96       	adiw	r24, 0x01	; 1
    75da:	a1 1d       	adc	r26, r1
    75dc:	b1 1d       	adc	r27, r1
    75de:	05 c0       	rjmp	.+10     	; 0x75ea <__vector_23+0x44>
    75e0:	26 e8       	ldi	r18, 0x86	; 134
    75e2:	23 0f       	add	r18, r19
    75e4:	02 96       	adiw	r24, 0x02	; 2
    75e6:	a1 1d       	adc	r26, r1
    75e8:	b1 1d       	adc	r27, r1
    75ea:	20 93 f6 0b 	sts	0x0BF6, r18	; 0x800bf6 <timer0_fract>
    75ee:	80 93 f7 0b 	sts	0x0BF7, r24	; 0x800bf7 <timer0_millis>
    75f2:	90 93 f8 0b 	sts	0x0BF8, r25	; 0x800bf8 <timer0_millis+0x1>
    75f6:	a0 93 f9 0b 	sts	0x0BF9, r26	; 0x800bf9 <timer0_millis+0x2>
    75fa:	b0 93 fa 0b 	sts	0x0BFA, r27	; 0x800bfa <timer0_millis+0x3>
    75fe:	80 91 fb 0b 	lds	r24, 0x0BFB	; 0x800bfb <timer0_overflow_count>
    7602:	90 91 fc 0b 	lds	r25, 0x0BFC	; 0x800bfc <timer0_overflow_count+0x1>
    7606:	a0 91 fd 0b 	lds	r26, 0x0BFD	; 0x800bfd <timer0_overflow_count+0x2>
    760a:	b0 91 fe 0b 	lds	r27, 0x0BFE	; 0x800bfe <timer0_overflow_count+0x3>
    760e:	01 96       	adiw	r24, 0x01	; 1
    7610:	a1 1d       	adc	r26, r1
    7612:	b1 1d       	adc	r27, r1
    7614:	80 93 fb 0b 	sts	0x0BFB, r24	; 0x800bfb <timer0_overflow_count>
    7618:	90 93 fc 0b 	sts	0x0BFC, r25	; 0x800bfc <timer0_overflow_count+0x1>
    761c:	a0 93 fd 0b 	sts	0x0BFD, r26	; 0x800bfd <timer0_overflow_count+0x2>
    7620:	b0 93 fe 0b 	sts	0x0BFE, r27	; 0x800bfe <timer0_overflow_count+0x3>
    7624:	bf 91       	pop	r27
    7626:	af 91       	pop	r26
    7628:	9f 91       	pop	r25
    762a:	8f 91       	pop	r24
    762c:	3f 91       	pop	r19
    762e:	2f 91       	pop	r18
    7630:	0f 90       	pop	r0
    7632:	0f be       	out	0x3f, r0	; 63
    7634:	0f 90       	pop	r0
    7636:	1f 90       	pop	r1
    7638:	18 95       	reti

0000763a <millis>:
    763a:	2f b7       	in	r18, 0x3f	; 63
    763c:	f8 94       	cli
    763e:	60 91 f7 0b 	lds	r22, 0x0BF7	; 0x800bf7 <timer0_millis>
    7642:	70 91 f8 0b 	lds	r23, 0x0BF8	; 0x800bf8 <timer0_millis+0x1>
    7646:	80 91 f9 0b 	lds	r24, 0x0BF9	; 0x800bf9 <timer0_millis+0x2>
    764a:	90 91 fa 0b 	lds	r25, 0x0BFA	; 0x800bfa <timer0_millis+0x3>
    764e:	2f bf       	out	0x3f, r18	; 63
    7650:	08 95       	ret

00007652 <micros>:
    7652:	3f b7       	in	r19, 0x3f	; 63
    7654:	f8 94       	cli
    7656:	80 91 fb 0b 	lds	r24, 0x0BFB	; 0x800bfb <timer0_overflow_count>
    765a:	90 91 fc 0b 	lds	r25, 0x0BFC	; 0x800bfc <timer0_overflow_count+0x1>
    765e:	a0 91 fd 0b 	lds	r26, 0x0BFD	; 0x800bfd <timer0_overflow_count+0x2>
    7662:	b0 91 fe 0b 	lds	r27, 0x0BFE	; 0x800bfe <timer0_overflow_count+0x3>
    7666:	26 b5       	in	r18, 0x26	; 38
    7668:	a8 9b       	sbis	0x15, 0	; 21
    766a:	05 c0       	rjmp	.+10     	; 0x7676 <micros+0x24>
    766c:	2f 3f       	cpi	r18, 0xFF	; 255
    766e:	19 f0       	breq	.+6      	; 0x7676 <micros+0x24>
    7670:	01 96       	adiw	r24, 0x01	; 1
    7672:	a1 1d       	adc	r26, r1
    7674:	b1 1d       	adc	r27, r1
    7676:	3f bf       	out	0x3f, r19	; 63
    7678:	ba 2f       	mov	r27, r26
    767a:	a9 2f       	mov	r26, r25
    767c:	98 2f       	mov	r25, r24
    767e:	88 27       	eor	r24, r24
    7680:	82 0f       	add	r24, r18
    7682:	91 1d       	adc	r25, r1
    7684:	a1 1d       	adc	r26, r1
    7686:	b1 1d       	adc	r27, r1
    7688:	bc 01       	movw	r22, r24
    768a:	cd 01       	movw	r24, r26
    768c:	42 e0       	ldi	r20, 0x02	; 2
    768e:	66 0f       	add	r22, r22
    7690:	77 1f       	adc	r23, r23
    7692:	88 1f       	adc	r24, r24
    7694:	99 1f       	adc	r25, r25
    7696:	4a 95       	dec	r20
    7698:	d1 f7       	brne	.-12     	; 0x768e <micros+0x3c>
    769a:	08 95       	ret

0000769c <delay>:
    769c:	8f 92       	push	r8
    769e:	9f 92       	push	r9
    76a0:	af 92       	push	r10
    76a2:	bf 92       	push	r11
    76a4:	cf 92       	push	r12
    76a6:	df 92       	push	r13
    76a8:	ef 92       	push	r14
    76aa:	ff 92       	push	r15
    76ac:	6b 01       	movw	r12, r22
    76ae:	7c 01       	movw	r14, r24
    76b0:	d0 df       	rcall	.-96     	; 0x7652 <micros>
    76b2:	4b 01       	movw	r8, r22
    76b4:	5c 01       	movw	r10, r24
    76b6:	c1 14       	cp	r12, r1
    76b8:	d1 04       	cpc	r13, r1
    76ba:	e1 04       	cpc	r14, r1
    76bc:	f1 04       	cpc	r15, r1
    76be:	f9 f0       	breq	.+62     	; 0x76fe <delay+0x62>
    76c0:	0e 94 92 59 	call	0xb324	; 0xb324 <yield>
    76c4:	c6 df       	rcall	.-116    	; 0x7652 <micros>
    76c6:	dc 01       	movw	r26, r24
    76c8:	cb 01       	movw	r24, r22
    76ca:	88 19       	sub	r24, r8
    76cc:	99 09       	sbc	r25, r9
    76ce:	aa 09       	sbc	r26, r10
    76d0:	bb 09       	sbc	r27, r11
    76d2:	88 3e       	cpi	r24, 0xE8	; 232
    76d4:	93 40       	sbci	r25, 0x03	; 3
    76d6:	a1 05       	cpc	r26, r1
    76d8:	b1 05       	cpc	r27, r1
    76da:	68 f3       	brcs	.-38     	; 0x76b6 <delay+0x1a>
    76dc:	21 e0       	ldi	r18, 0x01	; 1
    76de:	c2 1a       	sub	r12, r18
    76e0:	d1 08       	sbc	r13, r1
    76e2:	e1 08       	sbc	r14, r1
    76e4:	f1 08       	sbc	r15, r1
    76e6:	88 ee       	ldi	r24, 0xE8	; 232
    76e8:	88 0e       	add	r8, r24
    76ea:	83 e0       	ldi	r24, 0x03	; 3
    76ec:	98 1e       	adc	r9, r24
    76ee:	a1 1c       	adc	r10, r1
    76f0:	b1 1c       	adc	r11, r1
    76f2:	c1 14       	cp	r12, r1
    76f4:	d1 04       	cpc	r13, r1
    76f6:	e1 04       	cpc	r14, r1
    76f8:	f1 04       	cpc	r15, r1
    76fa:	21 f7       	brne	.-56     	; 0x76c4 <delay+0x28>
    76fc:	dc cf       	rjmp	.-72     	; 0x76b6 <delay+0x1a>
    76fe:	ff 90       	pop	r15
    7700:	ef 90       	pop	r14
    7702:	df 90       	pop	r13
    7704:	cf 90       	pop	r12
    7706:	bf 90       	pop	r11
    7708:	af 90       	pop	r10
    770a:	9f 90       	pop	r9
    770c:	8f 90       	pop	r8
    770e:	08 95       	ret

00007710 <init>:

void init()
{
	// this needs to be called before setup() or some functions won't
	// work there
	sei();
    7710:	78 94       	sei
	
	// on the ATmega168, timer 0 is also used for fast hardware pwm
	// (using phase-correct PWM would mean that timer 0 overflowed half as often
	// resulting in different millis() behavior on the ATmega8 and ATmega168)
#if defined(TCCR0A) && defined(WGM01)
	sbi(TCCR0A, WGM01);
    7712:	84 b5       	in	r24, 0x24	; 36
    7714:	82 60       	ori	r24, 0x02	; 2
    7716:	84 bd       	out	0x24, r24	; 36
	sbi(TCCR0A, WGM00);
    7718:	84 b5       	in	r24, 0x24	; 36
    771a:	81 60       	ori	r24, 0x01	; 1
    771c:	84 bd       	out	0x24, r24	; 36
	// this combination is for the standard atmega8
	sbi(TCCR0, CS01);
	sbi(TCCR0, CS00);
#elif defined(TCCR0B) && defined(CS01) && defined(CS00)
	// this combination is for the standard 168/328/1280/2560
	sbi(TCCR0B, CS01);
    771e:	85 b5       	in	r24, 0x25	; 37
    7720:	82 60       	ori	r24, 0x02	; 2
    7722:	85 bd       	out	0x25, r24	; 37
	sbi(TCCR0B, CS00);
    7724:	85 b5       	in	r24, 0x25	; 37
    7726:	81 60       	ori	r24, 0x01	; 1
    7728:	85 bd       	out	0x25, r24	; 37

	// enable timer 0 overflow interrupt
#if defined(TIMSK) && defined(TOIE0)
	sbi(TIMSK, TOIE0);
#elif defined(TIMSK0) && defined(TOIE0)
	sbi(TIMSK0, TOIE0);
    772a:	ee e6       	ldi	r30, 0x6E	; 110
    772c:	f0 e0       	ldi	r31, 0x00	; 0
    772e:	80 81       	ld	r24, Z
    7730:	81 60       	ori	r24, 0x01	; 1
    7732:	80 83       	st	Z, r24
	// this is better for motors as it ensures an even waveform
	// note, however, that fast pwm mode can achieve a frequency of up
	// 8 MHz (with a 16 MHz clock) at 50% duty cycle

#if defined(TCCR1B) && defined(CS11) && defined(CS10)
	TCCR1B = 0;
    7734:	e1 e8       	ldi	r30, 0x81	; 129
    7736:	f0 e0       	ldi	r31, 0x00	; 0
    7738:	10 82       	st	Z, r1

	// set timer 1 prescale factor to 64
	sbi(TCCR1B, CS11);
    773a:	80 81       	ld	r24, Z
    773c:	82 60       	ori	r24, 0x02	; 2
    773e:	80 83       	st	Z, r24
#if F_CPU >= 8000000L
	sbi(TCCR1B, CS10);
    7740:	80 81       	ld	r24, Z
    7742:	81 60       	ori	r24, 0x01	; 1
    7744:	80 83       	st	Z, r24
	sbi(TCCR1, CS10);
#endif
#endif
	// put timer 1 in 8-bit phase correct pwm mode
#if defined(TCCR1A) && defined(WGM10)
	sbi(TCCR1A, WGM10);
    7746:	e0 e8       	ldi	r30, 0x80	; 128
    7748:	f0 e0       	ldi	r31, 0x00	; 0
    774a:	80 81       	ld	r24, Z
    774c:	81 60       	ori	r24, 0x01	; 1
    774e:	80 83       	st	Z, r24

	// set timer 2 prescale factor to 64
#if defined(TCCR2) && defined(CS22)
	sbi(TCCR2, CS22);
#elif defined(TCCR2B) && defined(CS22)
	sbi(TCCR2B, CS22);
    7750:	e1 eb       	ldi	r30, 0xB1	; 177
    7752:	f0 e0       	ldi	r31, 0x00	; 0
    7754:	80 81       	ld	r24, Z
    7756:	84 60       	ori	r24, 0x04	; 4
    7758:	80 83       	st	Z, r24

	// configure timer 2 for phase correct pwm (8-bit)
#if defined(TCCR2) && defined(WGM20)
	sbi(TCCR2, WGM20);
#elif defined(TCCR2A) && defined(WGM20)
	sbi(TCCR2A, WGM20);
    775a:	e0 eb       	ldi	r30, 0xB0	; 176
    775c:	f0 e0       	ldi	r31, 0x00	; 0
    775e:	80 81       	ld	r24, Z
    7760:	81 60       	ori	r24, 0x01	; 1
    7762:	80 83       	st	Z, r24
//#else
	// Timer 2 not finished (may not be present on this CPU)
#endif

#if defined(TCCR3B) && defined(CS31) && defined(WGM30)
	sbi(TCCR3B, CS31);		// set timer 3 prescale factor to 64
    7764:	e1 e9       	ldi	r30, 0x91	; 145
    7766:	f0 e0       	ldi	r31, 0x00	; 0
    7768:	80 81       	ld	r24, Z
    776a:	82 60       	ori	r24, 0x02	; 2
    776c:	80 83       	st	Z, r24
	sbi(TCCR3B, CS30);
    776e:	80 81       	ld	r24, Z
    7770:	81 60       	ori	r24, 0x01	; 1
    7772:	80 83       	st	Z, r24
	sbi(TCCR3A, WGM30);		// put timer 3 in 8-bit phase correct pwm mode
    7774:	e0 e9       	ldi	r30, 0x90	; 144
    7776:	f0 e0       	ldi	r31, 0x00	; 0
    7778:	80 81       	ld	r24, Z
    777a:	81 60       	ori	r24, 0x01	; 1
    777c:	80 83       	st	Z, r24
	sbi(TCCR4D, WGM40);		// put timer 4 in phase- and frequency-correct PWM mode	
	sbi(TCCR4A, PWM4A);		// enable PWM mode for comparator OCR4A
	sbi(TCCR4C, PWM4D);		// enable PWM mode for comparator OCR4D
#else /* beginning of timer4 block for ATMEGA1280 and ATMEGA2560 */
#if defined(TCCR4B) && defined(CS41) && defined(WGM40)
	sbi(TCCR4B, CS41);		// set timer 4 prescale factor to 64
    777e:	e1 ea       	ldi	r30, 0xA1	; 161
    7780:	f0 e0       	ldi	r31, 0x00	; 0
    7782:	80 81       	ld	r24, Z
    7784:	82 60       	ori	r24, 0x02	; 2
    7786:	80 83       	st	Z, r24
	sbi(TCCR4B, CS40);
    7788:	80 81       	ld	r24, Z
    778a:	81 60       	ori	r24, 0x01	; 1
    778c:	80 83       	st	Z, r24
	sbi(TCCR4A, WGM40);		// put timer 4 in 8-bit phase correct pwm mode
    778e:	e0 ea       	ldi	r30, 0xA0	; 160
    7790:	f0 e0       	ldi	r31, 0x00	; 0
    7792:	80 81       	ld	r24, Z
    7794:	81 60       	ori	r24, 0x01	; 1
    7796:	80 83       	st	Z, r24
#endif
#endif /* end timer4 block for ATMEGA1280/2560 and similar */	

#if defined(TCCR5B) && defined(CS51) && defined(WGM50)
	sbi(TCCR5B, CS51);		// set timer 5 prescale factor to 64
    7798:	e1 e2       	ldi	r30, 0x21	; 33
    779a:	f1 e0       	ldi	r31, 0x01	; 1
    779c:	80 81       	ld	r24, Z
    779e:	82 60       	ori	r24, 0x02	; 2
    77a0:	80 83       	st	Z, r24
	sbi(TCCR5B, CS50);
    77a2:	80 81       	ld	r24, Z
    77a4:	81 60       	ori	r24, 0x01	; 1
    77a6:	80 83       	st	Z, r24
	sbi(TCCR5A, WGM50);		// put timer 5 in 8-bit phase correct pwm mode
    77a8:	e0 e2       	ldi	r30, 0x20	; 32
    77aa:	f1 e0       	ldi	r31, 0x01	; 1
    77ac:	80 81       	ld	r24, Z
    77ae:	81 60       	ori	r24, 0x01	; 1
    77b0:	80 83       	st	Z, r24
#endif

#if defined(ADCSRA)
	// set a2d prescaler so we are inside the desired 50-200 KHz range.
	#if F_CPU >= 16000000 // 16 MHz / 128 = 125 KHz
		sbi(ADCSRA, ADPS2);
    77b2:	ea e7       	ldi	r30, 0x7A	; 122
    77b4:	f0 e0       	ldi	r31, 0x00	; 0
    77b6:	80 81       	ld	r24, Z
    77b8:	84 60       	ori	r24, 0x04	; 4
    77ba:	80 83       	st	Z, r24
		sbi(ADCSRA, ADPS1);
    77bc:	80 81       	ld	r24, Z
    77be:	82 60       	ori	r24, 0x02	; 2
    77c0:	80 83       	st	Z, r24
		sbi(ADCSRA, ADPS0);
    77c2:	80 81       	ld	r24, Z
    77c4:	81 60       	ori	r24, 0x01	; 1
    77c6:	80 83       	st	Z, r24
		cbi(ADCSRA, ADPS2);
		cbi(ADCSRA, ADPS1);
		sbi(ADCSRA, ADPS0);
	#endif
	// enable a2d conversions
	sbi(ADCSRA, ADEN);
    77c8:	80 81       	ld	r24, Z
    77ca:	80 68       	ori	r24, 0x80	; 128
    77cc:	80 83       	st	Z, r24
	// here so they can be used as normal digital i/o; they will be
	// reconnected in Serial.begin()
#if defined(UCSRB)
	UCSRB = 0;
#elif defined(UCSR0B)
	UCSR0B = 0;
    77ce:	10 92 c1 00 	sts	0x00C1, r1	; 0x8000c1 <__TEXT_REGION_LENGTH__+0x7000c1>
    77d2:	08 95       	ret

000077d4 <analogRead>:
#if defined(__AVR_ATmega32U4__)
	if (pin >= 18) pin -= 18; // allow for channel or pin numbers
#endif
	pin = analogPinToChannel(pin);
#elif defined(__AVR_ATmega1280__) || defined(__AVR_ATmega2560__)
	if (pin >= 54) pin -= 54; // allow for channel or pin numbers
    77d4:	86 33       	cpi	r24, 0x36	; 54
    77d6:	08 f0       	brcs	.+2      	; 0x77da <analogRead+0x6>
    77d8:	86 53       	subi	r24, 0x36	; 54
#endif

#if defined(ADCSRB) && defined(MUX5)
	// the MUX5 bit of ADCSRB selects whether we're reading from channels
	// 0 to 7 (MUX5 low) or 8 to 15 (MUX5 high).
	ADCSRB = (ADCSRB & ~(1 << MUX5)) | (((pin >> 3) & 0x01) << MUX5);
    77da:	90 91 7b 00 	lds	r25, 0x007B	; 0x80007b <__TEXT_REGION_LENGTH__+0x70007b>
    77de:	28 2f       	mov	r18, r24
    77e0:	28 70       	andi	r18, 0x08	; 8
    77e2:	97 7f       	andi	r25, 0xF7	; 247
    77e4:	92 2b       	or	r25, r18
    77e6:	90 93 7b 00 	sts	0x007B, r25	; 0x80007b <__TEXT_REGION_LENGTH__+0x70007b>
  
	// set the analog reference (high two bits of ADMUX) and select the
	// channel (low 4 bits).  this also sets ADLAR (left-adjust result)
	// to 0 (the default).
#if defined(ADMUX)
	ADMUX = (analog_reference << 6) | (pin & 0x07);
    77ea:	87 70       	andi	r24, 0x07	; 7
    77ec:	20 91 06 02 	lds	r18, 0x0206	; 0x800206 <analog_reference>
    77f0:	90 e4       	ldi	r25, 0x40	; 64
    77f2:	29 9f       	mul	r18, r25
    77f4:	90 01       	movw	r18, r0
    77f6:	11 24       	eor	r1, r1
    77f8:	82 2b       	or	r24, r18
    77fa:	80 93 7c 00 	sts	0x007C, r24	; 0x80007c <__TEXT_REGION_LENGTH__+0x70007c>
	// without a delay, we seem to read from the wrong channel
	//delay(1);

#if defined(ADCSRA) && defined(ADCL)
	// start the conversion
	sbi(ADCSRA, ADSC);
    77fe:	80 91 7a 00 	lds	r24, 0x007A	; 0x80007a <__TEXT_REGION_LENGTH__+0x70007a>
    7802:	80 64       	ori	r24, 0x40	; 64
    7804:	80 93 7a 00 	sts	0x007A, r24	; 0x80007a <__TEXT_REGION_LENGTH__+0x70007a>

	// ADSC is cleared when the conversion finishes
	while (bit_is_set(ADCSRA, ADSC));
    7808:	80 91 7a 00 	lds	r24, 0x007A	; 0x80007a <__TEXT_REGION_LENGTH__+0x70007a>
    780c:	86 fd       	sbrc	r24, 6
    780e:	fc cf       	rjmp	.-8      	; 0x7808 <analogRead+0x34>

	// we have to read ADCL first; doing so locks both ADCL
	// and ADCH until ADCH is read.  reading ADCL second would
	// cause the results of each conversion to be discarded,
	// as ADCL and ADCH would be locked when it completed.
	low  = ADCL;
    7810:	80 91 78 00 	lds	r24, 0x0078	; 0x800078 <__TEXT_REGION_LENGTH__+0x700078>
	high = ADCH;
    7814:	20 91 79 00 	lds	r18, 0x0079	; 0x800079 <__TEXT_REGION_LENGTH__+0x700079>
	low  = 0;
	high = 0;
#endif

	// combine the two bytes
	return (high << 8) | low;
    7818:	90 e0       	ldi	r25, 0x00	; 0
}
    781a:	92 2b       	or	r25, r18
    781c:	08 95       	ret

0000781e <turnOffPWM>:
//
//static inline void turnOffPWM(uint8_t timer) __attribute__ ((always_inline));
//static inline void turnOffPWM(uint8_t timer)
static void turnOffPWM(uint8_t timer)
{
	switch (timer)
    781e:	90 e0       	ldi	r25, 0x00	; 0
    7820:	fc 01       	movw	r30, r24
    7822:	31 97       	sbiw	r30, 0x01	; 1
    7824:	e2 31       	cpi	r30, 0x12	; 18
    7826:	f1 05       	cpc	r31, r1
    7828:	08 f0       	brcs	.+2      	; 0x782c <turnOffPWM+0xe>
    782a:	4e c0       	rjmp	.+156    	; 0x78c8 <turnOffPWM+0xaa>
    782c:	88 27       	eor	r24, r24
    782e:	eb 56       	subi	r30, 0x6B	; 107
    7830:	ff 4f       	sbci	r31, 0xFF	; 255
    7832:	8f 4f       	sbci	r24, 0xFF	; 255
    7834:	0c 94 13 5a 	jmp	0xb426	; 0xb426 <__tablejump2__>
	{
		#if defined(TCCR1A) && defined(COM1A1)
		case TIMER1A:   cbi(TCCR1A, COM1A1);    break;
    7838:	80 91 80 00 	lds	r24, 0x0080	; 0x800080 <__TEXT_REGION_LENGTH__+0x700080>
    783c:	8f 77       	andi	r24, 0x7F	; 127
    783e:	03 c0       	rjmp	.+6      	; 0x7846 <turnOffPWM+0x28>
		#endif
		#if defined(TCCR1A) && defined(COM1B1)
		case TIMER1B:   cbi(TCCR1A, COM1B1);    break;
    7840:	80 91 80 00 	lds	r24, 0x0080	; 0x800080 <__TEXT_REGION_LENGTH__+0x700080>
    7844:	8f 7d       	andi	r24, 0xDF	; 223
    7846:	80 93 80 00 	sts	0x0080, r24	; 0x800080 <__TEXT_REGION_LENGTH__+0x700080>
    784a:	08 95       	ret
		#endif
		#if defined(TCCR1A) && defined(COM1C1)
		case TIMER1C:   cbi(TCCR1A, COM1C1);    break;
    784c:	80 91 80 00 	lds	r24, 0x0080	; 0x800080 <__TEXT_REGION_LENGTH__+0x700080>
    7850:	87 7f       	andi	r24, 0xF7	; 247
    7852:	f9 cf       	rjmp	.-14     	; 0x7846 <turnOffPWM+0x28>
		#if defined(TCCR2) && defined(COM21)
		case  TIMER2:   cbi(TCCR2, COM21);      break;
		#endif
		
		#if defined(TCCR0A) && defined(COM0A1)
		case  TIMER0A:  cbi(TCCR0A, COM0A1);    break;
    7854:	84 b5       	in	r24, 0x24	; 36
    7856:	8f 77       	andi	r24, 0x7F	; 127
    7858:	02 c0       	rjmp	.+4      	; 0x785e <turnOffPWM+0x40>
		#endif
		
		#if defined(TCCR0A) && defined(COM0B1)
		case  TIMER0B:  cbi(TCCR0A, COM0B1);    break;
    785a:	84 b5       	in	r24, 0x24	; 36
    785c:	8f 7d       	andi	r24, 0xDF	; 223
    785e:	84 bd       	out	0x24, r24	; 36
    7860:	08 95       	ret
		#endif
		#if defined(TCCR2A) && defined(COM2A1)
		case  TIMER2A:  cbi(TCCR2A, COM2A1);    break;
    7862:	80 91 b0 00 	lds	r24, 0x00B0	; 0x8000b0 <__TEXT_REGION_LENGTH__+0x7000b0>
    7866:	8f 77       	andi	r24, 0x7F	; 127
    7868:	03 c0       	rjmp	.+6      	; 0x7870 <turnOffPWM+0x52>
		#endif
		#if defined(TCCR2A) && defined(COM2B1)
		case  TIMER2B:  cbi(TCCR2A, COM2B1);    break;
    786a:	80 91 b0 00 	lds	r24, 0x00B0	; 0x8000b0 <__TEXT_REGION_LENGTH__+0x7000b0>
    786e:	8f 7d       	andi	r24, 0xDF	; 223
    7870:	80 93 b0 00 	sts	0x00B0, r24	; 0x8000b0 <__TEXT_REGION_LENGTH__+0x7000b0>
    7874:	08 95       	ret
		#endif
		
		#if defined(TCCR3A) && defined(COM3A1)
		case  TIMER3A:  cbi(TCCR3A, COM3A1);    break;
    7876:	80 91 90 00 	lds	r24, 0x0090	; 0x800090 <__TEXT_REGION_LENGTH__+0x700090>
    787a:	8f 77       	andi	r24, 0x7F	; 127
    787c:	07 c0       	rjmp	.+14     	; 0x788c <turnOffPWM+0x6e>
		#endif
		#if defined(TCCR3A) && defined(COM3B1)
		case  TIMER3B:  cbi(TCCR3A, COM3B1);    break;
    787e:	80 91 90 00 	lds	r24, 0x0090	; 0x800090 <__TEXT_REGION_LENGTH__+0x700090>
    7882:	8f 7d       	andi	r24, 0xDF	; 223
    7884:	03 c0       	rjmp	.+6      	; 0x788c <turnOffPWM+0x6e>
		#endif
		#if defined(TCCR3A) && defined(COM3C1)
		case  TIMER3C:  cbi(TCCR3A, COM3C1);    break;
    7886:	80 91 90 00 	lds	r24, 0x0090	; 0x800090 <__TEXT_REGION_LENGTH__+0x700090>
    788a:	87 7f       	andi	r24, 0xF7	; 247
    788c:	80 93 90 00 	sts	0x0090, r24	; 0x800090 <__TEXT_REGION_LENGTH__+0x700090>
    7890:	08 95       	ret
		#endif

		#if defined(TCCR4A) && defined(COM4A1)
		case  TIMER4A:  cbi(TCCR4A, COM4A1);    break;
    7892:	80 91 a0 00 	lds	r24, 0x00A0	; 0x8000a0 <__TEXT_REGION_LENGTH__+0x7000a0>
    7896:	8f 77       	andi	r24, 0x7F	; 127
    7898:	07 c0       	rjmp	.+14     	; 0x78a8 <turnOffPWM+0x8a>
		#endif					
		#if defined(TCCR4A) && defined(COM4B1)
		case  TIMER4B:  cbi(TCCR4A, COM4B1);    break;
    789a:	80 91 a0 00 	lds	r24, 0x00A0	; 0x8000a0 <__TEXT_REGION_LENGTH__+0x7000a0>
    789e:	8f 7d       	andi	r24, 0xDF	; 223
    78a0:	03 c0       	rjmp	.+6      	; 0x78a8 <turnOffPWM+0x8a>
		#endif
		#if defined(TCCR4A) && defined(COM4C1)
		case  TIMER4C:  cbi(TCCR4A, COM4C1);    break;
    78a2:	80 91 a0 00 	lds	r24, 0x00A0	; 0x8000a0 <__TEXT_REGION_LENGTH__+0x7000a0>
    78a6:	87 7f       	andi	r24, 0xF7	; 247
    78a8:	80 93 a0 00 	sts	0x00A0, r24	; 0x8000a0 <__TEXT_REGION_LENGTH__+0x7000a0>
    78ac:	08 95       	ret
		#if defined(TCCR4C) && defined(COM4D1)
		case TIMER4D:	cbi(TCCR4C, COM4D1);	break;
		#endif			
			
		#if defined(TCCR5A)
		case  TIMER5A:  cbi(TCCR5A, COM5A1);    break;
    78ae:	80 91 20 01 	lds	r24, 0x0120	; 0x800120 <__TEXT_REGION_LENGTH__+0x700120>
    78b2:	8f 77       	andi	r24, 0x7F	; 127
    78b4:	07 c0       	rjmp	.+14     	; 0x78c4 <turnOffPWM+0xa6>
		case  TIMER5B:  cbi(TCCR5A, COM5B1);    break;
    78b6:	80 91 20 01 	lds	r24, 0x0120	; 0x800120 <__TEXT_REGION_LENGTH__+0x700120>
    78ba:	8f 7d       	andi	r24, 0xDF	; 223
    78bc:	03 c0       	rjmp	.+6      	; 0x78c4 <turnOffPWM+0xa6>
		case  TIMER5C:  cbi(TCCR5A, COM5C1);    break;
    78be:	80 91 20 01 	lds	r24, 0x0120	; 0x800120 <__TEXT_REGION_LENGTH__+0x700120>
    78c2:	87 7f       	andi	r24, 0xF7	; 247
    78c4:	80 93 20 01 	sts	0x0120, r24	; 0x800120 <__TEXT_REGION_LENGTH__+0x700120>
    78c8:	08 95       	ret

000078ca <pinMode>:
#define ARDUINO_MAIN
#include "wiring_private.h"
#include "pins_arduino.h"

void pinMode(uint8_t pin, uint8_t mode)
{
    78ca:	cf 93       	push	r28
    78cc:	df 93       	push	r29
	uint8_t bit = digitalPinToBitMask(pin);
    78ce:	90 e0       	ldi	r25, 0x00	; 0
    78d0:	fc 01       	movw	r30, r24
    78d2:	ec 56       	subi	r30, 0x6C	; 108
    78d4:	fe 4f       	sbci	r31, 0xFE	; 254
    78d6:	24 91       	lpm	r18, Z
	uint8_t port = digitalPinToPort(pin);
    78d8:	fc 01       	movw	r30, r24
    78da:	e6 52       	subi	r30, 0x26	; 38
    78dc:	fe 4f       	sbci	r31, 0xFE	; 254
    78de:	84 91       	lpm	r24, Z
	volatile uint8_t *reg, *out;

	if (port == NOT_A_PIN) return;
    78e0:	88 23       	and	r24, r24
    78e2:	61 f1       	breq	.+88     	; 0x793c <pinMode+0x72>

	// JWS: can I let the optimizer do this?
	reg = portModeRegister(port);
    78e4:	90 e0       	ldi	r25, 0x00	; 0
    78e6:	88 0f       	add	r24, r24
    78e8:	99 1f       	adc	r25, r25
    78ea:	fc 01       	movw	r30, r24
    78ec:	ec 5a       	subi	r30, 0xAC	; 172
    78ee:	fd 4f       	sbci	r31, 0xFD	; 253
    78f0:	c5 91       	lpm	r28, Z+
    78f2:	d4 91       	lpm	r29, Z
	out = portOutputRegister(port);
    78f4:	fc 01       	movw	r30, r24
    78f6:	e6 5c       	subi	r30, 0xC6	; 198
    78f8:	fd 4f       	sbci	r31, 0xFD	; 253
    78fa:	a5 91       	lpm	r26, Z+
    78fc:	b4 91       	lpm	r27, Z

	if (mode == INPUT) { 
    78fe:	61 11       	cpse	r22, r1
    7900:	09 c0       	rjmp	.+18     	; 0x7914 <pinMode+0x4a>
		uint8_t oldSREG = SREG;
    7902:	9f b7       	in	r25, 0x3f	; 63
                cli();
    7904:	f8 94       	cli
		*reg &= ~bit;
    7906:	88 81       	ld	r24, Y
    7908:	20 95       	com	r18
    790a:	82 23       	and	r24, r18
    790c:	88 83       	st	Y, r24
		*out &= ~bit;
    790e:	ec 91       	ld	r30, X
    7910:	2e 23       	and	r18, r30
    7912:	0b c0       	rjmp	.+22     	; 0x792a <pinMode+0x60>
		SREG = oldSREG;
	} else if (mode == INPUT_PULLUP) {
    7914:	62 30       	cpi	r22, 0x02	; 2
    7916:	61 f4       	brne	.+24     	; 0x7930 <pinMode+0x66>
		uint8_t oldSREG = SREG;
    7918:	9f b7       	in	r25, 0x3f	; 63
                cli();
    791a:	f8 94       	cli
		*reg &= ~bit;
    791c:	38 81       	ld	r19, Y
    791e:	82 2f       	mov	r24, r18
    7920:	80 95       	com	r24
    7922:	83 23       	and	r24, r19
    7924:	88 83       	st	Y, r24
		*out |= bit;
    7926:	ec 91       	ld	r30, X
    7928:	2e 2b       	or	r18, r30
    792a:	2c 93       	st	X, r18
		SREG = oldSREG;
    792c:	9f bf       	out	0x3f, r25	; 63
    792e:	06 c0       	rjmp	.+12     	; 0x793c <pinMode+0x72>
	} else {
		uint8_t oldSREG = SREG;
    7930:	8f b7       	in	r24, 0x3f	; 63
                cli();
    7932:	f8 94       	cli
		*reg |= bit;
    7934:	e8 81       	ld	r30, Y
    7936:	2e 2b       	or	r18, r30
    7938:	28 83       	st	Y, r18
		SREG = oldSREG;
    793a:	8f bf       	out	0x3f, r24	; 63
	}
}
    793c:	df 91       	pop	r29
    793e:	cf 91       	pop	r28
    7940:	08 95       	ret

00007942 <digitalWrite>:
		#endif
	}
}

void digitalWrite(uint8_t pin, uint8_t val)
{
    7942:	1f 93       	push	r17
    7944:	cf 93       	push	r28
    7946:	df 93       	push	r29
	uint8_t timer = digitalPinToTimer(pin);
    7948:	28 2f       	mov	r18, r24
    794a:	30 e0       	ldi	r19, 0x00	; 0
    794c:	f9 01       	movw	r30, r18
    794e:	e2 5b       	subi	r30, 0xB2	; 178
    7950:	fe 4f       	sbci	r31, 0xFE	; 254
    7952:	84 91       	lpm	r24, Z
	uint8_t bit = digitalPinToBitMask(pin);
    7954:	f9 01       	movw	r30, r18
    7956:	ec 56       	subi	r30, 0x6C	; 108
    7958:	fe 4f       	sbci	r31, 0xFE	; 254
    795a:	d4 91       	lpm	r29, Z
	uint8_t port = digitalPinToPort(pin);
    795c:	f9 01       	movw	r30, r18
    795e:	e6 52       	subi	r30, 0x26	; 38
    7960:	fe 4f       	sbci	r31, 0xFE	; 254
    7962:	c4 91       	lpm	r28, Z
	volatile uint8_t *out;

	if (port == NOT_A_PIN) return;
    7964:	cc 23       	and	r28, r28
    7966:	c1 f0       	breq	.+48     	; 0x7998 <digitalWrite+0x56>
    7968:	16 2f       	mov	r17, r22

	// If the pin that support PWM output, we need to turn it off
	// before doing a digital write.
	if (timer != NOT_ON_TIMER) turnOffPWM(timer);
    796a:	81 11       	cpse	r24, r1
    796c:	58 df       	rcall	.-336    	; 0x781e <turnOffPWM>

	out = portOutputRegister(port);
    796e:	ec 2f       	mov	r30, r28
    7970:	f0 e0       	ldi	r31, 0x00	; 0
    7972:	ee 0f       	add	r30, r30
    7974:	ff 1f       	adc	r31, r31
    7976:	e6 5c       	subi	r30, 0xC6	; 198
    7978:	fd 4f       	sbci	r31, 0xFD	; 253
    797a:	a5 91       	lpm	r26, Z+
    797c:	b4 91       	lpm	r27, Z

	uint8_t oldSREG = SREG;
    797e:	8f b7       	in	r24, 0x3f	; 63
	cli();
    7980:	f8 94       	cli

	if (val == LOW) {
    7982:	11 11       	cpse	r17, r1
    7984:	05 c0       	rjmp	.+10     	; 0x7990 <digitalWrite+0x4e>
		*out &= ~bit;
    7986:	9c 91       	ld	r25, X
    7988:	ed 2f       	mov	r30, r29
    798a:	e0 95       	com	r30
    798c:	e9 23       	and	r30, r25
    798e:	02 c0       	rjmp	.+4      	; 0x7994 <digitalWrite+0x52>
	} else {
		*out |= bit;
    7990:	ec 91       	ld	r30, X
    7992:	ed 2b       	or	r30, r29
    7994:	ec 93       	st	X, r30
	}

	SREG = oldSREG;
    7996:	8f bf       	out	0x3f, r24	; 63
}
    7998:	df 91       	pop	r29
    799a:	cf 91       	pop	r28
    799c:	1f 91       	pop	r17
    799e:	08 95       	ret

000079a0 <_Z3maplllll>:
  long diff = howbig - howsmall;
  return random(diff) + howsmall;
}

long map(long x, long in_min, long in_max, long out_min, long out_max)
{
    79a0:	4f 92       	push	r4
    79a2:	5f 92       	push	r5
    79a4:	6f 92       	push	r6
    79a6:	7f 92       	push	r7
    79a8:	af 92       	push	r10
    79aa:	bf 92       	push	r11
    79ac:	cf 92       	push	r12
    79ae:	df 92       	push	r13
    79b0:	ef 92       	push	r14
    79b2:	ff 92       	push	r15
    79b4:	0f 93       	push	r16
    79b6:	1f 93       	push	r17
    79b8:	cf 93       	push	r28
    79ba:	df 93       	push	r29
    79bc:	cd b7       	in	r28, 0x3d	; 61
    79be:	de b7       	in	r29, 0x3e	; 62
    79c0:	29 01       	movw	r4, r18
    79c2:	3a 01       	movw	r6, r20
  return (x - in_min) * (out_max - out_min) / (in_max - in_min) + out_min;
    79c4:	9b 01       	movw	r18, r22
    79c6:	ac 01       	movw	r20, r24
    79c8:	24 19       	sub	r18, r4
    79ca:	35 09       	sbc	r19, r5
    79cc:	46 09       	sbc	r20, r6
    79ce:	57 09       	sbc	r21, r7
    79d0:	8a 89       	ldd	r24, Y+18	; 0x12
    79d2:	9b 89       	ldd	r25, Y+19	; 0x13
    79d4:	ac 89       	ldd	r26, Y+20	; 0x14
    79d6:	bd 89       	ldd	r27, Y+21	; 0x15
    79d8:	bc 01       	movw	r22, r24
    79da:	cd 01       	movw	r24, r26
    79dc:	6a 19       	sub	r22, r10
    79de:	7b 09       	sbc	r23, r11
    79e0:	8c 09       	sbc	r24, r12
    79e2:	9d 09       	sbc	r25, r13
    79e4:	0e 94 93 59 	call	0xb326	; 0xb326 <__mulsi3>
    79e8:	a8 01       	movw	r20, r16
    79ea:	97 01       	movw	r18, r14
    79ec:	24 19       	sub	r18, r4
    79ee:	35 09       	sbc	r19, r5
    79f0:	46 09       	sbc	r20, r6
    79f2:	57 09       	sbc	r21, r7
    79f4:	0e 94 f7 59 	call	0xb3ee	; 0xb3ee <__divmodsi4>
    79f8:	ca 01       	movw	r24, r20
    79fa:	b9 01       	movw	r22, r18
    79fc:	6a 0d       	add	r22, r10
    79fe:	7b 1d       	adc	r23, r11
    7a00:	8c 1d       	adc	r24, r12
    7a02:	9d 1d       	adc	r25, r13
}
    7a04:	df 91       	pop	r29
    7a06:	cf 91       	pop	r28
    7a08:	1f 91       	pop	r17
    7a0a:	0f 91       	pop	r16
    7a0c:	ff 90       	pop	r15
    7a0e:	ef 90       	pop	r14
    7a10:	df 90       	pop	r13
    7a12:	cf 90       	pop	r12
    7a14:	bf 90       	pop	r11
    7a16:	af 90       	pop	r10
    7a18:	7f 90       	pop	r7
    7a1a:	6f 90       	pop	r6
    7a1c:	5f 90       	pop	r5
    7a1e:	4f 90       	pop	r4
    7a20:	08 95       	ret

00007a22 <_ZN6StringD1Ev>:
	return temp - buffer;
}

int String::lastIndexOf(const String &s2) const
{
	return lastIndexOf(s2, len - s2.len);
    7a22:	fc 01       	movw	r30, r24
    7a24:	80 81       	ld	r24, Z
    7a26:	91 81       	ldd	r25, Z+1	; 0x01
    7a28:	0c 94 c9 5a 	jmp	0xb592	; 0xb592 <free>

00007a2c <_ZN6String10invalidateEv>:
    7a2c:	cf 93       	push	r28
    7a2e:	df 93       	push	r29
    7a30:	ec 01       	movw	r28, r24
    7a32:	88 81       	ld	r24, Y
    7a34:	99 81       	ldd	r25, Y+1	; 0x01
    7a36:	00 97       	sbiw	r24, 0x00	; 0
    7a38:	11 f0       	breq	.+4      	; 0x7a3e <_ZN6String10invalidateEv+0x12>
    7a3a:	0e 94 c9 5a 	call	0xb592	; 0xb592 <free>
    7a3e:	19 82       	std	Y+1, r1	; 0x01
    7a40:	18 82       	st	Y, r1
    7a42:	1d 82       	std	Y+5, r1	; 0x05
    7a44:	1c 82       	std	Y+4, r1	; 0x04
    7a46:	1b 82       	std	Y+3, r1	; 0x03
    7a48:	1a 82       	std	Y+2, r1	; 0x02
    7a4a:	df 91       	pop	r29
    7a4c:	cf 91       	pop	r28
    7a4e:	08 95       	ret

00007a50 <_ZN6String12changeBufferEj>:
    7a50:	0f 93       	push	r16
    7a52:	1f 93       	push	r17
    7a54:	cf 93       	push	r28
    7a56:	df 93       	push	r29
    7a58:	ec 01       	movw	r28, r24
    7a5a:	8b 01       	movw	r16, r22
    7a5c:	6f 5f       	subi	r22, 0xFF	; 255
    7a5e:	7f 4f       	sbci	r23, 0xFF	; 255
    7a60:	88 81       	ld	r24, Y
    7a62:	99 81       	ldd	r25, Y+1	; 0x01
    7a64:	0e 94 61 5b 	call	0xb6c2	; 0xb6c2 <realloc>
    7a68:	00 97       	sbiw	r24, 0x00	; 0
    7a6a:	31 f0       	breq	.+12     	; 0x7a78 <_ZN6String12changeBufferEj+0x28>
    7a6c:	99 83       	std	Y+1, r25	; 0x01
    7a6e:	88 83       	st	Y, r24
    7a70:	1b 83       	std	Y+3, r17	; 0x03
    7a72:	0a 83       	std	Y+2, r16	; 0x02
    7a74:	81 e0       	ldi	r24, 0x01	; 1
    7a76:	01 c0       	rjmp	.+2      	; 0x7a7a <_ZN6String12changeBufferEj+0x2a>
    7a78:	80 e0       	ldi	r24, 0x00	; 0
    7a7a:	df 91       	pop	r29
    7a7c:	cf 91       	pop	r28
    7a7e:	1f 91       	pop	r17
    7a80:	0f 91       	pop	r16
    7a82:	08 95       	ret

00007a84 <_ZN6String7reserveEj>:
    7a84:	cf 93       	push	r28
    7a86:	df 93       	push	r29
    7a88:	ec 01       	movw	r28, r24
    7a8a:	88 81       	ld	r24, Y
    7a8c:	99 81       	ldd	r25, Y+1	; 0x01
    7a8e:	89 2b       	or	r24, r25
    7a90:	29 f0       	breq	.+10     	; 0x7a9c <_ZN6String7reserveEj+0x18>
    7a92:	8a 81       	ldd	r24, Y+2	; 0x02
    7a94:	9b 81       	ldd	r25, Y+3	; 0x03
    7a96:	86 17       	cp	r24, r22
    7a98:	97 07       	cpc	r25, r23
    7a9a:	58 f4       	brcc	.+22     	; 0x7ab2 <_ZN6String7reserveEj+0x2e>
    7a9c:	ce 01       	movw	r24, r28
    7a9e:	d8 df       	rcall	.-80     	; 0x7a50 <_ZN6String12changeBufferEj>
    7aa0:	88 23       	and	r24, r24
    7aa2:	41 f0       	breq	.+16     	; 0x7ab4 <_ZN6String7reserveEj+0x30>
    7aa4:	8c 81       	ldd	r24, Y+4	; 0x04
    7aa6:	9d 81       	ldd	r25, Y+5	; 0x05
    7aa8:	89 2b       	or	r24, r25
    7aaa:	19 f4       	brne	.+6      	; 0x7ab2 <_ZN6String7reserveEj+0x2e>
    7aac:	e8 81       	ld	r30, Y
    7aae:	f9 81       	ldd	r31, Y+1	; 0x01
    7ab0:	10 82       	st	Z, r1
    7ab2:	81 e0       	ldi	r24, 0x01	; 1
    7ab4:	df 91       	pop	r29
    7ab6:	cf 91       	pop	r28
    7ab8:	08 95       	ret

00007aba <_ZN6String4copyEPKcj>:
    7aba:	ef 92       	push	r14
    7abc:	ff 92       	push	r15
    7abe:	0f 93       	push	r16
    7ac0:	1f 93       	push	r17
    7ac2:	cf 93       	push	r28
    7ac4:	df 93       	push	r29
    7ac6:	ec 01       	movw	r28, r24
    7ac8:	7b 01       	movw	r14, r22
    7aca:	8a 01       	movw	r16, r20
    7acc:	ba 01       	movw	r22, r20
    7ace:	da df       	rcall	.-76     	; 0x7a84 <_ZN6String7reserveEj>
    7ad0:	81 11       	cpse	r24, r1
    7ad2:	03 c0       	rjmp	.+6      	; 0x7ada <_ZN6String4copyEPKcj+0x20>
    7ad4:	ce 01       	movw	r24, r28
    7ad6:	aa df       	rcall	.-172    	; 0x7a2c <_ZN6String10invalidateEv>
    7ad8:	07 c0       	rjmp	.+14     	; 0x7ae8 <_ZN6String4copyEPKcj+0x2e>
    7ada:	1d 83       	std	Y+5, r17	; 0x05
    7adc:	0c 83       	std	Y+4, r16	; 0x04
    7ade:	b7 01       	movw	r22, r14
    7ae0:	88 81       	ld	r24, Y
    7ae2:	99 81       	ldd	r25, Y+1	; 0x01
    7ae4:	0e 94 59 5c 	call	0xb8b2	; 0xb8b2 <strcpy>
    7ae8:	ce 01       	movw	r24, r28
    7aea:	df 91       	pop	r29
    7aec:	cf 91       	pop	r28
    7aee:	1f 91       	pop	r17
    7af0:	0f 91       	pop	r16
    7af2:	ff 90       	pop	r15
    7af4:	ef 90       	pop	r14
    7af6:	08 95       	ret

00007af8 <_ZN6StringC1EPKc>:
    7af8:	fc 01       	movw	r30, r24
    7afa:	11 82       	std	Z+1, r1	; 0x01
    7afc:	10 82       	st	Z, r1
    7afe:	13 82       	std	Z+3, r1	; 0x03
    7b00:	12 82       	std	Z+2, r1	; 0x02
    7b02:	15 82       	std	Z+5, r1	; 0x05
    7b04:	14 82       	std	Z+4, r1	; 0x04
    7b06:	61 15       	cp	r22, r1
    7b08:	71 05       	cpc	r23, r1
    7b0a:	49 f0       	breq	.+18     	; 0x7b1e <_ZN6StringC1EPKc+0x26>
    7b0c:	fb 01       	movw	r30, r22
    7b0e:	01 90       	ld	r0, Z+
    7b10:	00 20       	and	r0, r0
    7b12:	e9 f7       	brne	.-6      	; 0x7b0e <_ZN6StringC1EPKc+0x16>
    7b14:	31 97       	sbiw	r30, 0x01	; 1
    7b16:	af 01       	movw	r20, r30
    7b18:	46 1b       	sub	r20, r22
    7b1a:	57 0b       	sbc	r21, r23
    7b1c:	ce cf       	rjmp	.-100    	; 0x7aba <_ZN6String4copyEPKcj>
    7b1e:	08 95       	ret

00007b20 <_ZN6StringaSERKS_>:
    7b20:	cf 93       	push	r28
    7b22:	df 93       	push	r29
    7b24:	ec 01       	movw	r28, r24
    7b26:	fb 01       	movw	r30, r22
    7b28:	86 17       	cp	r24, r22
    7b2a:	97 07       	cpc	r25, r23
    7b2c:	51 f0       	breq	.+20     	; 0x7b42 <_ZN6StringaSERKS_+0x22>
    7b2e:	60 81       	ld	r22, Z
    7b30:	71 81       	ldd	r23, Z+1	; 0x01
    7b32:	61 15       	cp	r22, r1
    7b34:	71 05       	cpc	r23, r1
    7b36:	21 f0       	breq	.+8      	; 0x7b40 <_ZN6StringaSERKS_+0x20>
    7b38:	44 81       	ldd	r20, Z+4	; 0x04
    7b3a:	55 81       	ldd	r21, Z+5	; 0x05
    7b3c:	be df       	rcall	.-132    	; 0x7aba <_ZN6String4copyEPKcj>
    7b3e:	01 c0       	rjmp	.+2      	; 0x7b42 <_ZN6StringaSERKS_+0x22>
    7b40:	75 df       	rcall	.-278    	; 0x7a2c <_ZN6String10invalidateEv>
    7b42:	ce 01       	movw	r24, r28
    7b44:	df 91       	pop	r29
    7b46:	cf 91       	pop	r28
    7b48:	08 95       	ret

00007b4a <_ZN6StringC1ERKS_>:
    7b4a:	fc 01       	movw	r30, r24
    7b4c:	11 82       	std	Z+1, r1	; 0x01
    7b4e:	10 82       	st	Z, r1
    7b50:	13 82       	std	Z+3, r1	; 0x03
    7b52:	12 82       	std	Z+2, r1	; 0x02
    7b54:	15 82       	std	Z+5, r1	; 0x05
    7b56:	14 82       	std	Z+4, r1	; 0x04
    7b58:	e3 cf       	rjmp	.-58     	; 0x7b20 <_ZN6StringaSERKS_>

00007b5a <_ZN6StringaSEPKc>:
    7b5a:	cf 93       	push	r28
    7b5c:	df 93       	push	r29
    7b5e:	ec 01       	movw	r28, r24
    7b60:	61 15       	cp	r22, r1
    7b62:	71 05       	cpc	r23, r1
    7b64:	51 f0       	breq	.+20     	; 0x7b7a <_ZN6StringaSEPKc+0x20>
    7b66:	fb 01       	movw	r30, r22
    7b68:	01 90       	ld	r0, Z+
    7b6a:	00 20       	and	r0, r0
    7b6c:	e9 f7       	brne	.-6      	; 0x7b68 <_ZN6StringaSEPKc+0xe>
    7b6e:	31 97       	sbiw	r30, 0x01	; 1
    7b70:	af 01       	movw	r20, r30
    7b72:	46 1b       	sub	r20, r22
    7b74:	57 0b       	sbc	r21, r23
    7b76:	a1 df       	rcall	.-190    	; 0x7aba <_ZN6String4copyEPKcj>
    7b78:	01 c0       	rjmp	.+2      	; 0x7b7c <_ZN6StringaSEPKc+0x22>
    7b7a:	58 df       	rcall	.-336    	; 0x7a2c <_ZN6String10invalidateEv>
    7b7c:	ce 01       	movw	r24, r28
    7b7e:	df 91       	pop	r29
    7b80:	cf 91       	pop	r28
    7b82:	08 95       	ret

00007b84 <_ZN6String6concatEPKcj>:
    7b84:	ef 92       	push	r14
    7b86:	ff 92       	push	r15
    7b88:	0f 93       	push	r16
    7b8a:	1f 93       	push	r17
    7b8c:	cf 93       	push	r28
    7b8e:	df 93       	push	r29
    7b90:	fc 01       	movw	r30, r24
    7b92:	24 81       	ldd	r18, Z+4	; 0x04
    7b94:	35 81       	ldd	r19, Z+5	; 0x05
    7b96:	61 15       	cp	r22, r1
    7b98:	71 05       	cpc	r23, r1
    7b9a:	11 f4       	brne	.+4      	; 0x7ba0 <_ZN6String6concatEPKcj+0x1c>
    7b9c:	80 e0       	ldi	r24, 0x00	; 0
    7b9e:	18 c0       	rjmp	.+48     	; 0x7bd0 <_ZN6String6concatEPKcj+0x4c>
    7ba0:	41 15       	cp	r20, r1
    7ba2:	51 05       	cpc	r21, r1
    7ba4:	a1 f0       	breq	.+40     	; 0x7bce <_ZN6String6concatEPKcj+0x4a>
    7ba6:	7b 01       	movw	r14, r22
    7ba8:	ec 01       	movw	r28, r24
    7baa:	8a 01       	movw	r16, r20
    7bac:	02 0f       	add	r16, r18
    7bae:	13 1f       	adc	r17, r19
    7bb0:	b8 01       	movw	r22, r16
    7bb2:	68 df       	rcall	.-304    	; 0x7a84 <_ZN6String7reserveEj>
    7bb4:	88 23       	and	r24, r24
    7bb6:	91 f3       	breq	.-28     	; 0x7b9c <_ZN6String6concatEPKcj+0x18>
    7bb8:	28 81       	ld	r18, Y
    7bba:	39 81       	ldd	r19, Y+1	; 0x01
    7bbc:	8c 81       	ldd	r24, Y+4	; 0x04
    7bbe:	9d 81       	ldd	r25, Y+5	; 0x05
    7bc0:	b7 01       	movw	r22, r14
    7bc2:	82 0f       	add	r24, r18
    7bc4:	93 1f       	adc	r25, r19
    7bc6:	0e 94 59 5c 	call	0xb8b2	; 0xb8b2 <strcpy>
    7bca:	1d 83       	std	Y+5, r17	; 0x05
    7bcc:	0c 83       	std	Y+4, r16	; 0x04
    7bce:	81 e0       	ldi	r24, 0x01	; 1
    7bd0:	df 91       	pop	r29
    7bd2:	cf 91       	pop	r28
    7bd4:	1f 91       	pop	r17
    7bd6:	0f 91       	pop	r16
    7bd8:	ff 90       	pop	r15
    7bda:	ef 90       	pop	r14
    7bdc:	08 95       	ret

00007bde <_ZN6String6concatEh>:
    7bde:	ef 92       	push	r14
    7be0:	ff 92       	push	r15
    7be2:	0f 93       	push	r16
    7be4:	1f 93       	push	r17
    7be6:	cf 93       	push	r28
    7be8:	df 93       	push	r29
    7bea:	00 d0       	rcall	.+0      	; 0x7bec <_ZN6String6concatEh+0xe>
    7bec:	1f 92       	push	r1
    7bee:	cd b7       	in	r28, 0x3d	; 61
    7bf0:	de b7       	in	r29, 0x3e	; 62
    7bf2:	7c 01       	movw	r14, r24
    7bf4:	86 2f       	mov	r24, r22
    7bf6:	4a e0       	ldi	r20, 0x0A	; 10
    7bf8:	8e 01       	movw	r16, r28
    7bfa:	0f 5f       	subi	r16, 0xFF	; 255
    7bfc:	1f 4f       	sbci	r17, 0xFF	; 255
    7bfe:	b8 01       	movw	r22, r16
    7c00:	90 e0       	ldi	r25, 0x00	; 0
    7c02:	0e 94 6f 5c 	call	0xb8de	; 0xb8de <__itoa_ncheck>
    7c06:	f8 01       	movw	r30, r16
    7c08:	01 90       	ld	r0, Z+
    7c0a:	00 20       	and	r0, r0
    7c0c:	e9 f7       	brne	.-6      	; 0x7c08 <_ZN6String6concatEh+0x2a>
    7c0e:	31 97       	sbiw	r30, 0x01	; 1
    7c10:	af 01       	movw	r20, r30
    7c12:	40 1b       	sub	r20, r16
    7c14:	51 0b       	sbc	r21, r17
    7c16:	b8 01       	movw	r22, r16
    7c18:	c7 01       	movw	r24, r14
    7c1a:	b4 df       	rcall	.-152    	; 0x7b84 <_ZN6String6concatEPKcj>
    7c1c:	0f 90       	pop	r0
    7c1e:	0f 90       	pop	r0
    7c20:	0f 90       	pop	r0
    7c22:	0f 90       	pop	r0
    7c24:	df 91       	pop	r29
    7c26:	cf 91       	pop	r28
    7c28:	1f 91       	pop	r17
    7c2a:	0f 91       	pop	r16
    7c2c:	ff 90       	pop	r15
    7c2e:	ef 90       	pop	r14
    7c30:	08 95       	ret

00007c32 <_ZplRK15StringSumHelperPKc>:
    7c32:	cf 93       	push	r28
    7c34:	df 93       	push	r29
    7c36:	ec 01       	movw	r28, r24
    7c38:	61 15       	cp	r22, r1
    7c3a:	71 05       	cpc	r23, r1
    7c3c:	59 f0       	breq	.+22     	; 0x7c54 <_ZplRK15StringSumHelperPKc+0x22>
    7c3e:	fb 01       	movw	r30, r22
    7c40:	01 90       	ld	r0, Z+
    7c42:	00 20       	and	r0, r0
    7c44:	e9 f7       	brne	.-6      	; 0x7c40 <_ZplRK15StringSumHelperPKc+0xe>
    7c46:	31 97       	sbiw	r30, 0x01	; 1
    7c48:	af 01       	movw	r20, r30
    7c4a:	46 1b       	sub	r20, r22
    7c4c:	57 0b       	sbc	r21, r23
    7c4e:	9a df       	rcall	.-204    	; 0x7b84 <_ZN6String6concatEPKcj>
    7c50:	81 11       	cpse	r24, r1
    7c52:	02 c0       	rjmp	.+4      	; 0x7c58 <_ZplRK15StringSumHelperPKc+0x26>
    7c54:	ce 01       	movw	r24, r28
    7c56:	ea de       	rcall	.-556    	; 0x7a2c <_ZN6String10invalidateEv>
    7c58:	ce 01       	movw	r24, r28
    7c5a:	df 91       	pop	r29
    7c5c:	cf 91       	pop	r28
    7c5e:	08 95       	ret

00007c60 <_ZplRK15StringSumHelperh>:
    7c60:	cf 93       	push	r28
    7c62:	df 93       	push	r29
    7c64:	ec 01       	movw	r28, r24
    7c66:	bb df       	rcall	.-138    	; 0x7bde <_ZN6String6concatEh>
    7c68:	81 11       	cpse	r24, r1
    7c6a:	02 c0       	rjmp	.+4      	; 0x7c70 <_ZplRK15StringSumHelperh+0x10>
    7c6c:	ce 01       	movw	r24, r28
    7c6e:	de de       	rcall	.-580    	; 0x7a2c <_ZN6String10invalidateEv>
    7c70:	ce 01       	movw	r24, r28
    7c72:	df 91       	pop	r29
    7c74:	cf 91       	pop	r28
    7c76:	08 95       	ret

00007c78 <_ZNK6StringixEj>:
    7c78:	fc 01       	movw	r30, r24
    7c7a:	24 81       	ldd	r18, Z+4	; 0x04
    7c7c:	35 81       	ldd	r19, Z+5	; 0x05
    7c7e:	62 17       	cp	r22, r18
    7c80:	73 07       	cpc	r23, r19
    7c82:	48 f4       	brcc	.+18     	; 0x7c96 <_ZNK6StringixEj+0x1e>
    7c84:	80 81       	ld	r24, Z
    7c86:	91 81       	ldd	r25, Z+1	; 0x01
    7c88:	00 97       	sbiw	r24, 0x00	; 0
    7c8a:	29 f0       	breq	.+10     	; 0x7c96 <_ZNK6StringixEj+0x1e>
    7c8c:	fc 01       	movw	r30, r24
    7c8e:	e6 0f       	add	r30, r22
    7c90:	f7 1f       	adc	r31, r23
    7c92:	80 81       	ld	r24, Z
    7c94:	08 95       	ret
    7c96:	80 e0       	ldi	r24, 0x00	; 0
    7c98:	08 95       	ret

00007c9a <_ZNK6String6charAtEj>:
    7c9a:	ee cf       	rjmp	.-36     	; 0x7c78 <_ZNK6StringixEj>

00007c9c <_ZNK6String8getBytesEPhjj>:
    7c9c:	0f 93       	push	r16
    7c9e:	1f 93       	push	r17
    7ca0:	cf 93       	push	r28
    7ca2:	df 93       	push	r29
    7ca4:	41 15       	cp	r20, r1
    7ca6:	51 05       	cpc	r21, r1
    7ca8:	19 f1       	breq	.+70     	; 0x7cf0 <_ZNK6String8getBytesEPhjj+0x54>
    7caa:	61 15       	cp	r22, r1
    7cac:	71 05       	cpc	r23, r1
    7cae:	01 f1       	breq	.+64     	; 0x7cf0 <_ZNK6String8getBytesEPhjj+0x54>
    7cb0:	dc 01       	movw	r26, r24
    7cb2:	14 96       	adiw	r26, 0x04	; 4
    7cb4:	ed 91       	ld	r30, X+
    7cb6:	fc 91       	ld	r31, X
    7cb8:	15 97       	sbiw	r26, 0x05	; 5
    7cba:	2e 17       	cp	r18, r30
    7cbc:	3f 07       	cpc	r19, r31
    7cbe:	18 f0       	brcs	.+6      	; 0x7cc6 <_ZNK6String8getBytesEPhjj+0x2a>
    7cc0:	fb 01       	movw	r30, r22
    7cc2:	10 82       	st	Z, r1
    7cc4:	15 c0       	rjmp	.+42     	; 0x7cf0 <_ZNK6String8getBytesEPhjj+0x54>
    7cc6:	e2 1b       	sub	r30, r18
    7cc8:	f3 0b       	sbc	r31, r19
    7cca:	ea 01       	movw	r28, r20
    7ccc:	21 97       	sbiw	r28, 0x01	; 1
    7cce:	ec 17       	cp	r30, r28
    7cd0:	fd 07       	cpc	r31, r29
    7cd2:	08 f4       	brcc	.+2      	; 0x7cd6 <_ZNK6String8getBytesEPhjj+0x3a>
    7cd4:	ef 01       	movw	r28, r30
    7cd6:	8b 01       	movw	r16, r22
    7cd8:	fc 01       	movw	r30, r24
    7cda:	60 81       	ld	r22, Z
    7cdc:	71 81       	ldd	r23, Z+1	; 0x01
    7cde:	62 0f       	add	r22, r18
    7ce0:	73 1f       	adc	r23, r19
    7ce2:	ae 01       	movw	r20, r28
    7ce4:	c8 01       	movw	r24, r16
    7ce6:	0e 94 60 5c 	call	0xb8c0	; 0xb8c0 <strncpy>
    7cea:	c0 0f       	add	r28, r16
    7cec:	d1 1f       	adc	r29, r17
    7cee:	18 82       	st	Y, r1
    7cf0:	df 91       	pop	r29
    7cf2:	cf 91       	pop	r28
    7cf4:	1f 91       	pop	r17
    7cf6:	0f 91       	pop	r16
    7cf8:	08 95       	ret

00007cfa <_ZNK6String9substringEjj>:
	}
	return found;
}

String String::substring(unsigned int left, unsigned int right) const
{
    7cfa:	bf 92       	push	r11
    7cfc:	cf 92       	push	r12
    7cfe:	df 92       	push	r13
    7d00:	ef 92       	push	r14
    7d02:	ff 92       	push	r15
    7d04:	0f 93       	push	r16
    7d06:	1f 93       	push	r17
    7d08:	cf 93       	push	r28
    7d0a:	df 93       	push	r29
    7d0c:	7c 01       	movw	r14, r24
    7d0e:	6b 01       	movw	r12, r22
    7d10:	8a 01       	movw	r16, r20
    7d12:	e9 01       	movw	r28, r18
	if (left > right) {
    7d14:	24 17       	cp	r18, r20
    7d16:	35 07       	cpc	r19, r21
    7d18:	20 f4       	brcc	.+8      	; 0x7d22 <_ZNK6String9substringEjj+0x28>
    7d1a:	81 2f       	mov	r24, r17
    7d1c:	89 01       	movw	r16, r18
    7d1e:	c4 2f       	mov	r28, r20
    7d20:	d8 2f       	mov	r29, r24
		unsigned int temp = right;
		right = left;
		left = temp;
	}
	String out;
    7d22:	63 ef       	ldi	r22, 0xF3	; 243
    7d24:	74 e0       	ldi	r23, 0x04	; 4
    7d26:	c7 01       	movw	r24, r14
    7d28:	e7 de       	rcall	.-562    	; 0x7af8 <_ZN6StringC1EPKc>
	if (left >= len) return out;
    7d2a:	d6 01       	movw	r26, r12
    7d2c:	14 96       	adiw	r26, 0x04	; 4
    7d2e:	8d 91       	ld	r24, X+
    7d30:	9c 91       	ld	r25, X
    7d32:	15 97       	sbiw	r26, 0x05	; 5
    7d34:	08 17       	cp	r16, r24
    7d36:	19 07       	cpc	r17, r25
    7d38:	c8 f4       	brcc	.+50     	; 0x7d6c <_ZNK6String9substringEjj+0x72>
    7d3a:	8c 17       	cp	r24, r28
    7d3c:	9d 07       	cpc	r25, r29
    7d3e:	08 f4       	brcc	.+2      	; 0x7d42 <_ZNK6String9substringEjj+0x48>
    7d40:	ec 01       	movw	r28, r24
	if (right > len) right = len;
	char temp = buffer[right];  // save the replaced character
    7d42:	d6 01       	movw	r26, r12
    7d44:	ed 91       	ld	r30, X+
    7d46:	fc 91       	ld	r31, X
    7d48:	11 97       	sbiw	r26, 0x01	; 1
    7d4a:	ec 0f       	add	r30, r28
    7d4c:	fd 1f       	adc	r31, r29
    7d4e:	b0 80       	ld	r11, Z
	buffer[right] = '\0';	
    7d50:	10 82       	st	Z, r1
	out = buffer + left;  // pointer arithmetic
    7d52:	4d 91       	ld	r20, X+
    7d54:	5c 91       	ld	r21, X
    7d56:	ba 01       	movw	r22, r20
    7d58:	60 0f       	add	r22, r16
    7d5a:	71 1f       	adc	r23, r17
    7d5c:	c7 01       	movw	r24, r14
    7d5e:	fd de       	rcall	.-518    	; 0x7b5a <_ZN6StringaSEPKc>
	buffer[right] = temp;  //restore character
    7d60:	d6 01       	movw	r26, r12
    7d62:	ed 91       	ld	r30, X+
    7d64:	fc 91       	ld	r31, X
    7d66:	ec 0f       	add	r30, r28
    7d68:	fd 1f       	adc	r31, r29
    7d6a:	b0 82       	st	Z, r11
	return out;
}
    7d6c:	c7 01       	movw	r24, r14
    7d6e:	df 91       	pop	r29
    7d70:	cf 91       	pop	r28
    7d72:	1f 91       	pop	r17
    7d74:	0f 91       	pop	r16
    7d76:	ff 90       	pop	r15
    7d78:	ef 90       	pop	r14
    7d7a:	df 90       	pop	r13
    7d7c:	cf 90       	pop	r12
    7d7e:	bf 90       	pop	r11
    7d80:	08 95       	ret

00007d82 <_ZN7URTouch15touch_WriteDataEh>:
void URTouch::touch_WriteData(byte data)
{
    7d82:	fc 01       	movw	r30, r24
	byte temp;

	temp=data;
	cbi(P_CLK, B_CLK);
    7d84:	a4 81       	ldd	r26, Z+4	; 0x04
    7d86:	b5 81       	ldd	r27, Z+5	; 0x05
    7d88:	9c 91       	ld	r25, X
    7d8a:	86 85       	ldd	r24, Z+14	; 0x0e
    7d8c:	80 95       	com	r24
    7d8e:	89 23       	and	r24, r25
    7d90:	8c 93       	st	X, r24
    7d92:	98 e0       	ldi	r25, 0x08	; 8
    7d94:	a0 85       	ldd	r26, Z+8	; 0x08
    7d96:	b1 85       	ldd	r27, Z+9	; 0x09
    7d98:	80 89       	ldd	r24, Z+16	; 0x10

	for(byte count=0; count<8; count++)
	{
		if(temp & 0x80)
			sbi(P_DIN, B_DIN);
    7d9a:	2c 91       	ld	r18, X
	temp=data;
	cbi(P_CLK, B_CLK);

	for(byte count=0; count<8; count++)
	{
		if(temp & 0x80)
    7d9c:	67 ff       	sbrs	r22, 7
    7d9e:	02 c0       	rjmp	.+4      	; 0x7da4 <_ZN7URTouch15touch_WriteDataEh+0x22>
			sbi(P_DIN, B_DIN);
    7da0:	82 2b       	or	r24, r18
    7da2:	02 c0       	rjmp	.+4      	; 0x7da8 <_ZN7URTouch15touch_WriteDataEh+0x26>
		else
			cbi(P_DIN, B_DIN);
    7da4:	80 95       	com	r24
    7da6:	82 23       	and	r24, r18
    7da8:	8c 93       	st	X, r24
		temp = temp << 1; 
    7daa:	66 0f       	add	r22, r22
		cbi(P_CLK, B_CLK);                
    7dac:	a4 81       	ldd	r26, Z+4	; 0x04
    7dae:	b5 81       	ldd	r27, Z+5	; 0x05
    7db0:	2c 91       	ld	r18, X
    7db2:	86 85       	ldd	r24, Z+14	; 0x0e
    7db4:	80 95       	com	r24
    7db6:	82 23       	and	r24, r18
    7db8:	8c 93       	st	X, r24
		sbi(P_CLK, B_CLK);
    7dba:	a4 81       	ldd	r26, Z+4	; 0x04
    7dbc:	b5 81       	ldd	r27, Z+5	; 0x05
    7dbe:	2c 91       	ld	r18, X
    7dc0:	86 85       	ldd	r24, Z+14	; 0x0e
    7dc2:	82 2b       	or	r24, r18
    7dc4:	8c 93       	st	X, r24
    7dc6:	91 50       	subi	r25, 0x01	; 1
	byte temp;

	temp=data;
	cbi(P_CLK, B_CLK);

	for(byte count=0; count<8; count++)
    7dc8:	29 f7       	brne	.-54     	; 0x7d94 <_ZN7URTouch15touch_WriteDataEh+0x12>
			cbi(P_DIN, B_DIN);
		temp = temp << 1; 
		cbi(P_CLK, B_CLK);                
		sbi(P_CLK, B_CLK);
	}
}
    7dca:	08 95       	ret

00007dcc <_ZN7URTouch14touch_ReadDataEv>:

word URTouch::touch_ReadData()
{
    7dcc:	fc 01       	movw	r30, r24
    7dce:	2c e0       	ldi	r18, 0x0C	; 12
	word data = 0;
    7dd0:	80 e0       	ldi	r24, 0x00	; 0
    7dd2:	90 e0       	ldi	r25, 0x00	; 0

	for(byte count=0; count<12; count++)
	{
		data <<= 1;
    7dd4:	88 0f       	add	r24, r24
    7dd6:	99 1f       	adc	r25, r25
		sbi(P_CLK, B_CLK);
    7dd8:	a4 81       	ldd	r26, Z+4	; 0x04
    7dda:	b5 81       	ldd	r27, Z+5	; 0x05
    7ddc:	4c 91       	ld	r20, X
    7dde:	36 85       	ldd	r19, Z+14	; 0x0e
    7de0:	34 2b       	or	r19, r20
    7de2:	3c 93       	st	X, r19
		cbi(P_CLK, B_CLK);                
    7de4:	a4 81       	ldd	r26, Z+4	; 0x04
    7de6:	b5 81       	ldd	r27, Z+5	; 0x05
    7de8:	4c 91       	ld	r20, X
    7dea:	36 85       	ldd	r19, Z+14	; 0x0e
    7dec:	30 95       	com	r19
    7dee:	34 23       	and	r19, r20
    7df0:	3c 93       	st	X, r19
		if (rbi(P_DOUT, B_DOUT))
    7df2:	a2 85       	ldd	r26, Z+10	; 0x0a
    7df4:	b3 85       	ldd	r27, Z+11	; 0x0b
    7df6:	4c 91       	ld	r20, X
    7df8:	31 89       	ldd	r19, Z+17	; 0x11
    7dfa:	34 23       	and	r19, r20
    7dfc:	09 f0       	breq	.+2      	; 0x7e00 <_ZN7URTouch14touch_ReadDataEv+0x34>
			data++;
    7dfe:	01 96       	adiw	r24, 0x01	; 1
    7e00:	21 50       	subi	r18, 0x01	; 1

word URTouch::touch_ReadData()
{
	word data = 0;

	for(byte count=0; count<12; count++)
    7e02:	41 f7       	brne	.-48     	; 0x7dd4 <_ZN7URTouch14touch_ReadDataEv+0x8>
		cbi(P_CLK, B_CLK);                
		if (rbi(P_DOUT, B_DOUT))
			data++;
	}
	return(data);
}
    7e04:	08 95       	ret

00007e06 <_ZN7URTouchC1Ehhhhh>:
	#include "hardware/pic32/HW_PIC32.inc"
#elif defined(__arm__)
	#include "hardware/arm/HW_ARM.inc"
#endif

URTouch::URTouch(byte tclk, byte tcs, byte din, byte dout, byte irq)
    7e06:	ef 92       	push	r14
    7e08:	0f 93       	push	r16
    7e0a:	fc 01       	movw	r30, r24
{
	T_CLK	= tclk;
    7e0c:	63 8b       	std	Z+19, r22	; 0x13
	T_CS	= tcs;
    7e0e:	44 8b       	std	Z+20, r20	; 0x14
	T_DIN	= din;
    7e10:	25 8b       	std	Z+21, r18	; 0x15
	T_DOUT	= dout;
    7e12:	06 8b       	std	Z+22, r16	; 0x16
	T_IRQ	= irq;
    7e14:	e7 8a       	std	Z+23, r14	; 0x17
}
    7e16:	0f 91       	pop	r16
    7e18:	ef 90       	pop	r14
    7e1a:	08 95       	ret

00007e1c <_ZN7URTouch9InitTouchEh>:

void URTouch::InitTouch(byte orientation)
{
    7e1c:	cf 93       	push	r28
    7e1e:	df 93       	push	r29
    7e20:	ec 01       	movw	r28, r24
	orient					= orientation;
    7e22:	6c 8f       	std	Y+28, r22	; 0x1c
	_default_orientation	= CAL_S>>31;
    7e24:	18 8e       	std	Y+24, r1	; 0x18
    7e26:	19 8e       	std	Y+25, r1	; 0x19
    7e28:	1a 8e       	std	Y+26, r1	; 0x1a
    7e2a:	1b 8e       	std	Y+27, r1	; 0x1b
	touch_x_left			= (CAL_X>>14) & 0x3FFF;
    7e2c:	8e ed       	ldi	r24, 0xDE	; 222
    7e2e:	90 e0       	ldi	r25, 0x00	; 0
    7e30:	a0 e0       	ldi	r26, 0x00	; 0
    7e32:	b0 e0       	ldi	r27, 0x00	; 0
    7e34:	8b a7       	std	Y+43, r24	; 0x2b
    7e36:	9c a7       	std	Y+44, r25	; 0x2c
    7e38:	ad a7       	std	Y+45, r26	; 0x2d
    7e3a:	be a7       	std	Y+46, r27	; 0x2e
	touch_x_right			= CAL_X & 0x3FFF;
    7e3c:	86 e6       	ldi	r24, 0x66	; 102
    7e3e:	9f e0       	ldi	r25, 0x0F	; 15
    7e40:	a0 e0       	ldi	r26, 0x00	; 0
    7e42:	b0 e0       	ldi	r27, 0x00	; 0
    7e44:	8f a7       	std	Y+47, r24	; 0x2f
    7e46:	98 ab       	std	Y+48, r25	; 0x30
    7e48:	a9 ab       	std	Y+49, r26	; 0x31
    7e4a:	ba ab       	std	Y+50, r27	; 0x32
	touch_y_top				= (CAL_Y>>14) & 0x3FFF;
    7e4c:	8d e0       	ldi	r24, 0x0D	; 13
    7e4e:	9f e0       	ldi	r25, 0x0F	; 15
    7e50:	a0 e0       	ldi	r26, 0x00	; 0
    7e52:	b0 e0       	ldi	r27, 0x00	; 0
    7e54:	8b ab       	std	Y+51, r24	; 0x33
    7e56:	9c ab       	std	Y+52, r25	; 0x34
    7e58:	ad ab       	std	Y+53, r26	; 0x35
    7e5a:	be ab       	std	Y+54, r27	; 0x36
	touch_y_bottom			= CAL_Y & 0x3FFF;
    7e5c:	85 e5       	ldi	r24, 0x55	; 85
    7e5e:	91 e0       	ldi	r25, 0x01	; 1
    7e60:	a0 e0       	ldi	r26, 0x00	; 0
    7e62:	b0 e0       	ldi	r27, 0x00	; 0
    7e64:	8f ab       	std	Y+55, r24	; 0x37
    7e66:	98 af       	std	Y+56, r25	; 0x38
    7e68:	a9 af       	std	Y+57, r26	; 0x39
    7e6a:	ba af       	std	Y+58, r27	; 0x3a
	disp_x_size				= (CAL_S>>12) & 0x0FFF;
    7e6c:	8f ee       	ldi	r24, 0xEF	; 239
    7e6e:	90 e0       	ldi	r25, 0x00	; 0
    7e70:	a0 e0       	ldi	r26, 0x00	; 0
    7e72:	b0 e0       	ldi	r27, 0x00	; 0
    7e74:	8f 8f       	std	Y+31, r24	; 0x1f
    7e76:	98 a3       	std	Y+32, r25	; 0x20
    7e78:	a9 a3       	std	Y+33, r26	; 0x21
    7e7a:	ba a3       	std	Y+34, r27	; 0x22
	disp_y_size				= CAL_S & 0x0FFF;
    7e7c:	8f e3       	ldi	r24, 0x3F	; 63
    7e7e:	91 e0       	ldi	r25, 0x01	; 1
    7e80:	a0 e0       	ldi	r26, 0x00	; 0
    7e82:	b0 e0       	ldi	r27, 0x00	; 0
    7e84:	8b a3       	std	Y+35, r24	; 0x23
    7e86:	9c a3       	std	Y+36, r25	; 0x24
    7e88:	ad a3       	std	Y+37, r26	; 0x25
    7e8a:	be a3       	std	Y+38, r27	; 0x26
	prec					= 10;
    7e8c:	8a e0       	ldi	r24, 0x0A	; 10
    7e8e:	8d 8f       	std	Y+29, r24	; 0x1d

	P_CLK	= portOutputRegister(digitalPinToPort(T_CLK));
    7e90:	8b 89       	ldd	r24, Y+19	; 0x13
    7e92:	28 2f       	mov	r18, r24
    7e94:	30 e0       	ldi	r19, 0x00	; 0
    7e96:	f9 01       	movw	r30, r18
    7e98:	e6 52       	subi	r30, 0x26	; 38
    7e9a:	fe 4f       	sbci	r31, 0xFE	; 254
    7e9c:	e4 91       	lpm	r30, Z
    7e9e:	f0 e0       	ldi	r31, 0x00	; 0
    7ea0:	ee 0f       	add	r30, r30
    7ea2:	ff 1f       	adc	r31, r31
    7ea4:	e6 5c       	subi	r30, 0xC6	; 198
    7ea6:	fd 4f       	sbci	r31, 0xFD	; 253
    7ea8:	45 91       	lpm	r20, Z+
    7eaa:	54 91       	lpm	r21, Z
    7eac:	5d 83       	std	Y+5, r21	; 0x05
    7eae:	4c 83       	std	Y+4, r20	; 0x04
	B_CLK	= digitalPinToBitMask(T_CLK);
    7eb0:	f9 01       	movw	r30, r18
    7eb2:	ec 56       	subi	r30, 0x6C	; 108
    7eb4:	fe 4f       	sbci	r31, 0xFE	; 254
    7eb6:	e4 91       	lpm	r30, Z
    7eb8:	ee 87       	std	Y+14, r30	; 0x0e
	P_CS	= portOutputRegister(digitalPinToPort(T_CS));
    7eba:	2c 89       	ldd	r18, Y+20	; 0x14
    7ebc:	30 e0       	ldi	r19, 0x00	; 0
    7ebe:	f9 01       	movw	r30, r18
    7ec0:	e6 52       	subi	r30, 0x26	; 38
    7ec2:	fe 4f       	sbci	r31, 0xFE	; 254
    7ec4:	e4 91       	lpm	r30, Z
    7ec6:	f0 e0       	ldi	r31, 0x00	; 0
    7ec8:	ee 0f       	add	r30, r30
    7eca:	ff 1f       	adc	r31, r31
    7ecc:	e6 5c       	subi	r30, 0xC6	; 198
    7ece:	fd 4f       	sbci	r31, 0xFD	; 253
    7ed0:	45 91       	lpm	r20, Z+
    7ed2:	54 91       	lpm	r21, Z
    7ed4:	5f 83       	std	Y+7, r21	; 0x07
    7ed6:	4e 83       	std	Y+6, r20	; 0x06
	B_CS	= digitalPinToBitMask(T_CS);
    7ed8:	f9 01       	movw	r30, r18
    7eda:	ec 56       	subi	r30, 0x6C	; 108
    7edc:	fe 4f       	sbci	r31, 0xFE	; 254
    7ede:	e4 91       	lpm	r30, Z
    7ee0:	ef 87       	std	Y+15, r30	; 0x0f
	P_DIN	= portOutputRegister(digitalPinToPort(T_DIN));
    7ee2:	2d 89       	ldd	r18, Y+21	; 0x15
    7ee4:	30 e0       	ldi	r19, 0x00	; 0
    7ee6:	f9 01       	movw	r30, r18
    7ee8:	e6 52       	subi	r30, 0x26	; 38
    7eea:	fe 4f       	sbci	r31, 0xFE	; 254
    7eec:	e4 91       	lpm	r30, Z
    7eee:	f0 e0       	ldi	r31, 0x00	; 0
    7ef0:	ee 0f       	add	r30, r30
    7ef2:	ff 1f       	adc	r31, r31
    7ef4:	e6 5c       	subi	r30, 0xC6	; 198
    7ef6:	fd 4f       	sbci	r31, 0xFD	; 253
    7ef8:	45 91       	lpm	r20, Z+
    7efa:	54 91       	lpm	r21, Z
    7efc:	59 87       	std	Y+9, r21	; 0x09
    7efe:	48 87       	std	Y+8, r20	; 0x08
	B_DIN	= digitalPinToBitMask(T_DIN);
    7f00:	f9 01       	movw	r30, r18
    7f02:	ec 56       	subi	r30, 0x6C	; 108
    7f04:	fe 4f       	sbci	r31, 0xFE	; 254
    7f06:	e4 91       	lpm	r30, Z
    7f08:	e8 8b       	std	Y+16, r30	; 0x10
	P_DOUT	= portInputRegister(digitalPinToPort(T_DOUT));
    7f0a:	2e 89       	ldd	r18, Y+22	; 0x16
    7f0c:	30 e0       	ldi	r19, 0x00	; 0
    7f0e:	f9 01       	movw	r30, r18
    7f10:	e6 52       	subi	r30, 0x26	; 38
    7f12:	fe 4f       	sbci	r31, 0xFE	; 254
    7f14:	e4 91       	lpm	r30, Z
    7f16:	f0 e0       	ldi	r31, 0x00	; 0
    7f18:	ee 0f       	add	r30, r30
    7f1a:	ff 1f       	adc	r31, r31
    7f1c:	e0 5e       	subi	r30, 0xE0	; 224
    7f1e:	fd 4f       	sbci	r31, 0xFD	; 253
    7f20:	45 91       	lpm	r20, Z+
    7f22:	54 91       	lpm	r21, Z
    7f24:	5b 87       	std	Y+11, r21	; 0x0b
    7f26:	4a 87       	std	Y+10, r20	; 0x0a
	B_DOUT	= digitalPinToBitMask(T_DOUT);
    7f28:	f9 01       	movw	r30, r18
    7f2a:	ec 56       	subi	r30, 0x6C	; 108
    7f2c:	fe 4f       	sbci	r31, 0xFE	; 254
    7f2e:	e4 91       	lpm	r30, Z
    7f30:	e9 8b       	std	Y+17, r30	; 0x11
	P_IRQ	= portInputRegister(digitalPinToPort(T_IRQ));
    7f32:	2f 89       	ldd	r18, Y+23	; 0x17
    7f34:	30 e0       	ldi	r19, 0x00	; 0
    7f36:	f9 01       	movw	r30, r18
    7f38:	e6 52       	subi	r30, 0x26	; 38
    7f3a:	fe 4f       	sbci	r31, 0xFE	; 254
    7f3c:	e4 91       	lpm	r30, Z
    7f3e:	f0 e0       	ldi	r31, 0x00	; 0
    7f40:	ee 0f       	add	r30, r30
    7f42:	ff 1f       	adc	r31, r31
    7f44:	e0 5e       	subi	r30, 0xE0	; 224
    7f46:	fd 4f       	sbci	r31, 0xFD	; 253
    7f48:	45 91       	lpm	r20, Z+
    7f4a:	54 91       	lpm	r21, Z
    7f4c:	5d 87       	std	Y+13, r21	; 0x0d
    7f4e:	4c 87       	std	Y+12, r20	; 0x0c
	B_IRQ	= digitalPinToBitMask(T_IRQ);
    7f50:	f9 01       	movw	r30, r18
    7f52:	ec 56       	subi	r30, 0x6C	; 108
    7f54:	fe 4f       	sbci	r31, 0xFE	; 254
    7f56:	e4 91       	lpm	r30, Z
    7f58:	ea 8b       	std	Y+18, r30	; 0x12

	pinMode(T_CLK,  OUTPUT);
    7f5a:	61 e0       	ldi	r22, 0x01	; 1
    7f5c:	b6 dc       	rcall	.-1684   	; 0x78ca <pinMode>
    pinMode(T_CS,   OUTPUT);
    7f5e:	61 e0       	ldi	r22, 0x01	; 1
    7f60:	8c 89       	ldd	r24, Y+20	; 0x14
    7f62:	b3 dc       	rcall	.-1690   	; 0x78ca <pinMode>
    pinMode(T_DIN,  OUTPUT);
    7f64:	61 e0       	ldi	r22, 0x01	; 1
    7f66:	8d 89       	ldd	r24, Y+21	; 0x15
    7f68:	b0 dc       	rcall	.-1696   	; 0x78ca <pinMode>
    pinMode(T_DOUT, INPUT);
    7f6a:	60 e0       	ldi	r22, 0x00	; 0
    7f6c:	8e 89       	ldd	r24, Y+22	; 0x16
    7f6e:	ad dc       	rcall	.-1702   	; 0x78ca <pinMode>
    pinMode(T_IRQ,  OUTPUT);
    7f70:	61 e0       	ldi	r22, 0x01	; 1
    7f72:	8f 89       	ldd	r24, Y+23	; 0x17
    7f74:	aa dc       	rcall	.-1708   	; 0x78ca <pinMode>

	sbi(P_CS, B_CS);
    7f76:	ee 81       	ldd	r30, Y+6	; 0x06
    7f78:	ff 81       	ldd	r31, Y+7	; 0x07
    7f7a:	90 81       	ld	r25, Z
    7f7c:	8f 85       	ldd	r24, Y+15	; 0x0f
    7f7e:	89 2b       	or	r24, r25
    7f80:	80 83       	st	Z, r24
	sbi(P_CLK, B_CLK);
    7f82:	ec 81       	ldd	r30, Y+4	; 0x04
    7f84:	fd 81       	ldd	r31, Y+5	; 0x05
    7f86:	90 81       	ld	r25, Z
    7f88:	8e 85       	ldd	r24, Y+14	; 0x0e
    7f8a:	89 2b       	or	r24, r25
    7f8c:	80 83       	st	Z, r24
	sbi(P_DIN, B_DIN);
    7f8e:	e8 85       	ldd	r30, Y+8	; 0x08
    7f90:	f9 85       	ldd	r31, Y+9	; 0x09
    7f92:	90 81       	ld	r25, Z
    7f94:	88 89       	ldd	r24, Y+16	; 0x10
    7f96:	89 2b       	or	r24, r25
    7f98:	80 83       	st	Z, r24
	sbi(P_IRQ, B_IRQ);
    7f9a:	ec 85       	ldd	r30, Y+12	; 0x0c
    7f9c:	fd 85       	ldd	r31, Y+13	; 0x0d
    7f9e:	90 81       	ld	r25, Z
    7fa0:	8a 89       	ldd	r24, Y+18	; 0x12
    7fa2:	89 2b       	or	r24, r25
    7fa4:	80 83       	st	Z, r24
}
    7fa6:	df 91       	pop	r29
    7fa8:	cf 91       	pop	r28
    7faa:	08 95       	ret

00007fac <_ZN7URTouch4readEv>:

void URTouch::read()
{
    7fac:	2f 92       	push	r2
    7fae:	3f 92       	push	r3
    7fb0:	4f 92       	push	r4
    7fb2:	5f 92       	push	r5
    7fb4:	6f 92       	push	r6
    7fb6:	7f 92       	push	r7
    7fb8:	8f 92       	push	r8
    7fba:	9f 92       	push	r9
    7fbc:	af 92       	push	r10
    7fbe:	bf 92       	push	r11
    7fc0:	cf 92       	push	r12
    7fc2:	df 92       	push	r13
    7fc4:	ef 92       	push	r14
    7fc6:	ff 92       	push	r15
    7fc8:	0f 93       	push	r16
    7fca:	1f 93       	push	r17
    7fcc:	cf 93       	push	r28
    7fce:	df 93       	push	r29
    7fd0:	cd b7       	in	r28, 0x3d	; 61
    7fd2:	de b7       	in	r29, 0x3e	; 62
    7fd4:	62 97       	sbiw	r28, 0x12	; 18
    7fd6:	0f b6       	in	r0, 0x3f	; 63
    7fd8:	f8 94       	cli
    7fda:	de bf       	out	0x3e, r29	; 62
    7fdc:	0f be       	out	0x3f, r0	; 63
    7fde:	cd bf       	out	0x3d, r28	; 61
    7fe0:	9a 8b       	std	Y+18, r25	; 0x12
    7fe2:	89 8b       	std	Y+17, r24	; 0x11
	unsigned long ty=0, temp_y=0;
	unsigned long minx=99999, maxx=0;
	unsigned long miny=99999, maxy=0;
	int datacount=0;

	cbi(P_CS, B_CS);                    
    7fe4:	dc 01       	movw	r26, r24
    7fe6:	16 96       	adiw	r26, 0x06	; 6
    7fe8:	ed 91       	ld	r30, X+
    7fea:	fc 91       	ld	r31, X
    7fec:	17 97       	sbiw	r26, 0x07	; 7
    7fee:	90 81       	ld	r25, Z
    7ff0:	1f 96       	adiw	r26, 0x0f	; 15
    7ff2:	8c 91       	ld	r24, X
    7ff4:	1f 97       	sbiw	r26, 0x0f	; 15
    7ff6:	80 95       	com	r24
    7ff8:	89 23       	and	r24, r25
    7ffa:	80 83       	st	Z, r24

	pinMode(T_IRQ,  INPUT);
    7ffc:	60 e0       	ldi	r22, 0x00	; 0
    7ffe:	57 96       	adiw	r26, 0x17	; 23
    8000:	8c 91       	ld	r24, X
    8002:	63 dc       	rcall	.-1850   	; 0x78ca <pinMode>
	for (int i=0; i<prec; i++)
    8004:	21 2c       	mov	r2, r1
    8006:	31 2c       	mov	r3, r1
{
	unsigned long tx=0, temp_x=0;
	unsigned long ty=0, temp_y=0;
	unsigned long minx=99999, maxx=0;
	unsigned long miny=99999, maxy=0;
	int datacount=0;
    8008:	00 e0       	ldi	r16, 0x00	; 0
    800a:	10 e0       	ldi	r17, 0x00	; 0
void URTouch::read()
{
	unsigned long tx=0, temp_x=0;
	unsigned long ty=0, temp_y=0;
	unsigned long minx=99999, maxx=0;
	unsigned long miny=99999, maxy=0;
    800c:	1d 86       	std	Y+13, r1	; 0x0d
    800e:	1e 86       	std	Y+14, r1	; 0x0e
    8010:	1f 86       	std	Y+15, r1	; 0x0f
    8012:	18 8a       	std	Y+16, r1	; 0x10
    8014:	2f e9       	ldi	r18, 0x9F	; 159
    8016:	36 e8       	ldi	r19, 0x86	; 134
    8018:	41 e0       	ldi	r20, 0x01	; 1
    801a:	50 e0       	ldi	r21, 0x00	; 0
    801c:	29 87       	std	Y+9, r18	; 0x09
    801e:	3a 87       	std	Y+10, r19	; 0x0a
    8020:	4b 87       	std	Y+11, r20	; 0x0b
    8022:	5c 87       	std	Y+12, r21	; 0x0c

void URTouch::read()
{
	unsigned long tx=0, temp_x=0;
	unsigned long ty=0, temp_y=0;
	unsigned long minx=99999, maxx=0;
    8024:	c1 2c       	mov	r12, r1
    8026:	d1 2c       	mov	r13, r1
    8028:	76 01       	movw	r14, r12
    802a:	2d 83       	std	Y+5, r18	; 0x05
    802c:	3e 83       	std	Y+6, r19	; 0x06
    802e:	4f 83       	std	Y+7, r20	; 0x07
    8030:	58 87       	std	Y+8, r21	; 0x08
}

void URTouch::read()
{
	unsigned long tx=0, temp_x=0;
	unsigned long ty=0, temp_y=0;
    8032:	41 2c       	mov	r4, r1
    8034:	51 2c       	mov	r5, r1
    8036:	32 01       	movw	r6, r4
	sbi(P_IRQ, B_IRQ);
}

void URTouch::read()
{
	unsigned long tx=0, temp_x=0;
    8038:	19 82       	std	Y+1, r1	; 0x01
    803a:	1a 82       	std	Y+2, r1	; 0x02
    803c:	1b 82       	std	Y+3, r1	; 0x03
    803e:	1c 82       	std	Y+4, r1	; 0x04
	int datacount=0;

	cbi(P_CS, B_CS);                    

	pinMode(T_IRQ,  INPUT);
	for (int i=0; i<prec; i++)
    8040:	a9 89       	ldd	r26, Y+17	; 0x11
    8042:	ba 89       	ldd	r27, Y+18	; 0x12
    8044:	5d 96       	adiw	r26, 0x1d	; 29
    8046:	8c 91       	ld	r24, X
    8048:	5d 97       	sbiw	r26, 0x1d	; 29
    804a:	90 e0       	ldi	r25, 0x00	; 0
    804c:	28 16       	cp	r2, r24
    804e:	39 06       	cpc	r3, r25
    8050:	0c f0       	brlt	.+2      	; 0x8054 <_ZN7URTouch4readEv+0xa8>
    8052:	b3 c0       	rjmp	.+358    	; 0x81ba <_ZN7URTouch4readEv+0x20e>
	{
		if (!rbi(P_IRQ, B_IRQ))
    8054:	a9 89       	ldd	r26, Y+17	; 0x11
    8056:	ba 89       	ldd	r27, Y+18	; 0x12
    8058:	1c 96       	adiw	r26, 0x0c	; 12
    805a:	ed 91       	ld	r30, X+
    805c:	fc 91       	ld	r31, X
    805e:	1d 97       	sbiw	r26, 0x0d	; 13
    8060:	90 81       	ld	r25, Z
    8062:	52 96       	adiw	r26, 0x12	; 18
    8064:	8c 91       	ld	r24, X
    8066:	52 97       	sbiw	r26, 0x12	; 18
    8068:	89 23       	and	r24, r25
    806a:	09 f0       	breq	.+2      	; 0x806e <_ZN7URTouch4readEv+0xc2>
    806c:	a2 c0       	rjmp	.+324    	; 0x81b2 <_ZN7URTouch4readEv+0x206>
		{
			touch_WriteData(0x90);        
    806e:	60 e9       	ldi	r22, 0x90	; 144
    8070:	cd 01       	movw	r24, r26
    8072:	87 de       	rcall	.-754    	; 0x7d82 <_ZN7URTouch15touch_WriteDataEh>
			pulse_high(P_CLK, B_CLK);
    8074:	a9 89       	ldd	r26, Y+17	; 0x11
    8076:	ba 89       	ldd	r27, Y+18	; 0x12
    8078:	14 96       	adiw	r26, 0x04	; 4
    807a:	ed 91       	ld	r30, X+
    807c:	fc 91       	ld	r31, X
    807e:	15 97       	sbiw	r26, 0x05	; 5
    8080:	90 81       	ld	r25, Z
    8082:	1e 96       	adiw	r26, 0x0e	; 14
    8084:	8c 91       	ld	r24, X
    8086:	1e 97       	sbiw	r26, 0x0e	; 14
    8088:	89 2b       	or	r24, r25
    808a:	80 83       	st	Z, r24
    808c:	14 96       	adiw	r26, 0x04	; 4
    808e:	ed 91       	ld	r30, X+
    8090:	fc 91       	ld	r31, X
    8092:	15 97       	sbiw	r26, 0x05	; 5
    8094:	80 81       	ld	r24, Z
    8096:	1e 96       	adiw	r26, 0x0e	; 14
    8098:	9c 91       	ld	r25, X
    809a:	1e 97       	sbiw	r26, 0x0e	; 14
    809c:	90 95       	com	r25
    809e:	89 23       	and	r24, r25
    80a0:	80 83       	st	Z, r24
			temp_x=touch_ReadData();
    80a2:	cd 01       	movw	r24, r26
    80a4:	93 de       	rcall	.-730    	; 0x7dcc <_ZN7URTouch14touch_ReadDataEv>

			if (!rbi(P_IRQ, B_IRQ))
    80a6:	a9 89       	ldd	r26, Y+17	; 0x11
    80a8:	ba 89       	ldd	r27, Y+18	; 0x12
    80aa:	1c 96       	adiw	r26, 0x0c	; 12
    80ac:	ed 91       	ld	r30, X+
    80ae:	fc 91       	ld	r31, X
    80b0:	1d 97       	sbiw	r26, 0x0d	; 13
    80b2:	30 81       	ld	r19, Z
    80b4:	52 96       	adiw	r26, 0x12	; 18
    80b6:	2c 91       	ld	r18, X
    80b8:	52 97       	sbiw	r26, 0x12	; 18
    80ba:	23 23       	and	r18, r19
    80bc:	09 f0       	breq	.+2      	; 0x80c0 <_ZN7URTouch4readEv+0x114>
    80be:	79 c0       	rjmp	.+242    	; 0x81b2 <_ZN7URTouch4readEv+0x206>
	{
		if (!rbi(P_IRQ, B_IRQ))
		{
			touch_WriteData(0x90);        
			pulse_high(P_CLK, B_CLK);
			temp_x=touch_ReadData();
    80c0:	4c 01       	movw	r8, r24
    80c2:	a1 2c       	mov	r10, r1
    80c4:	b1 2c       	mov	r11, r1

			if (!rbi(P_IRQ, B_IRQ))
			{
				touch_WriteData(0xD0);      
    80c6:	60 ed       	ldi	r22, 0xD0	; 208
    80c8:	cd 01       	movw	r24, r26
    80ca:	5b de       	rcall	.-842    	; 0x7d82 <_ZN7URTouch15touch_WriteDataEh>
				pulse_high(P_CLK, B_CLK);
    80cc:	a9 89       	ldd	r26, Y+17	; 0x11
    80ce:	ba 89       	ldd	r27, Y+18	; 0x12
    80d0:	14 96       	adiw	r26, 0x04	; 4
    80d2:	ed 91       	ld	r30, X+
    80d4:	fc 91       	ld	r31, X
    80d6:	15 97       	sbiw	r26, 0x05	; 5
    80d8:	90 81       	ld	r25, Z
    80da:	1e 96       	adiw	r26, 0x0e	; 14
    80dc:	8c 91       	ld	r24, X
    80de:	1e 97       	sbiw	r26, 0x0e	; 14
    80e0:	89 2b       	or	r24, r25
    80e2:	80 83       	st	Z, r24
    80e4:	14 96       	adiw	r26, 0x04	; 4
    80e6:	ed 91       	ld	r30, X+
    80e8:	fc 91       	ld	r31, X
    80ea:	15 97       	sbiw	r26, 0x05	; 5
    80ec:	80 81       	ld	r24, Z
    80ee:	1e 96       	adiw	r26, 0x0e	; 14
    80f0:	9c 91       	ld	r25, X
    80f2:	1e 97       	sbiw	r26, 0x0e	; 14
    80f4:	90 95       	com	r25
    80f6:	89 23       	and	r24, r25
    80f8:	80 83       	st	Z, r24
				temp_y=touch_ReadData();
    80fa:	cd 01       	movw	r24, r26
    80fc:	67 de       	rcall	.-818    	; 0x7dcc <_ZN7URTouch14touch_ReadDataEv>

				if ((temp_x>0) and (temp_x<4096) and (temp_y>0) and (temp_y<4096))
    80fe:	b5 01       	movw	r22, r10
    8100:	a4 01       	movw	r20, r8
    8102:	41 50       	subi	r20, 0x01	; 1
    8104:	51 09       	sbc	r21, r1
    8106:	61 09       	sbc	r22, r1
    8108:	71 09       	sbc	r23, r1
    810a:	4f 3f       	cpi	r20, 0xFF	; 255
    810c:	5f 40       	sbci	r21, 0x0F	; 15
    810e:	61 05       	cpc	r22, r1
    8110:	71 05       	cpc	r23, r1
    8112:	08 f0       	brcs	.+2      	; 0x8116 <_ZN7URTouch4readEv+0x16a>
    8114:	4e c0       	rjmp	.+156    	; 0x81b2 <_ZN7URTouch4readEv+0x206>
    8116:	9c 01       	movw	r18, r24
    8118:	21 50       	subi	r18, 0x01	; 1
    811a:	31 09       	sbc	r19, r1
    811c:	2f 3f       	cpi	r18, 0xFF	; 255
    811e:	3f 40       	sbci	r19, 0x0F	; 15
    8120:	08 f0       	brcs	.+2      	; 0x8124 <_ZN7URTouch4readEv+0x178>
    8122:	47 c0       	rjmp	.+142    	; 0x81b2 <_ZN7URTouch4readEv+0x206>

			if (!rbi(P_IRQ, B_IRQ))
			{
				touch_WriteData(0xD0);      
				pulse_high(P_CLK, B_CLK);
				temp_y=touch_ReadData();
    8124:	a0 e0       	ldi	r26, 0x00	; 0
    8126:	b0 e0       	ldi	r27, 0x00	; 0

				if ((temp_x>0) and (temp_x<4096) and (temp_y>0) and (temp_y<4096))
				{
					tx+=temp_x;
    8128:	29 81       	ldd	r18, Y+1	; 0x01
    812a:	3a 81       	ldd	r19, Y+2	; 0x02
    812c:	4b 81       	ldd	r20, Y+3	; 0x03
    812e:	5c 81       	ldd	r21, Y+4	; 0x04
    8130:	28 0d       	add	r18, r8
    8132:	39 1d       	adc	r19, r9
    8134:	4a 1d       	adc	r20, r10
    8136:	5b 1d       	adc	r21, r11
    8138:	29 83       	std	Y+1, r18	; 0x01
    813a:	3a 83       	std	Y+2, r19	; 0x02
    813c:	4b 83       	std	Y+3, r20	; 0x03
    813e:	5c 83       	std	Y+4, r21	; 0x04
					ty+=temp_y;
    8140:	48 0e       	add	r4, r24
    8142:	59 1e       	adc	r5, r25
    8144:	6a 1e       	adc	r6, r26
    8146:	7b 1e       	adc	r7, r27
					if (prec>5)
    8148:	e9 89       	ldd	r30, Y+17	; 0x11
    814a:	fa 89       	ldd	r31, Y+18	; 0x12
    814c:	25 8d       	ldd	r18, Z+29	; 0x1d
    814e:	26 30       	cpi	r18, 0x06	; 6
    8150:	70 f1       	brcs	.+92     	; 0x81ae <_ZN7URTouch4readEv+0x202>
    8152:	2d 81       	ldd	r18, Y+5	; 0x05
    8154:	3e 81       	ldd	r19, Y+6	; 0x06
    8156:	4f 81       	ldd	r20, Y+7	; 0x07
    8158:	58 85       	ldd	r21, Y+8	; 0x08
    815a:	82 16       	cp	r8, r18
    815c:	93 06       	cpc	r9, r19
    815e:	a4 06       	cpc	r10, r20
    8160:	b5 06       	cpc	r11, r21
    8162:	20 f4       	brcc	.+8      	; 0x816c <_ZN7URTouch4readEv+0x1c0>
    8164:	8d 82       	std	Y+5, r8	; 0x05
    8166:	9e 82       	std	Y+6, r9	; 0x06
    8168:	af 82       	std	Y+7, r10	; 0x07
    816a:	b8 86       	std	Y+8, r11	; 0x08
    816c:	c8 14       	cp	r12, r8
    816e:	d9 04       	cpc	r13, r9
    8170:	ea 04       	cpc	r14, r10
    8172:	fb 04       	cpc	r15, r11
    8174:	10 f4       	brcc	.+4      	; 0x817a <_ZN7URTouch4readEv+0x1ce>
    8176:	75 01       	movw	r14, r10
    8178:	64 01       	movw	r12, r8
    817a:	29 85       	ldd	r18, Y+9	; 0x09
    817c:	3a 85       	ldd	r19, Y+10	; 0x0a
    817e:	4b 85       	ldd	r20, Y+11	; 0x0b
    8180:	5c 85       	ldd	r21, Y+12	; 0x0c
    8182:	82 17       	cp	r24, r18
    8184:	93 07       	cpc	r25, r19
    8186:	a4 07       	cpc	r26, r20
    8188:	b5 07       	cpc	r27, r21
    818a:	20 f4       	brcc	.+8      	; 0x8194 <_ZN7URTouch4readEv+0x1e8>
    818c:	89 87       	std	Y+9, r24	; 0x09
    818e:	9a 87       	std	Y+10, r25	; 0x0a
    8190:	ab 87       	std	Y+11, r26	; 0x0b
    8192:	bc 87       	std	Y+12, r27	; 0x0c
    8194:	2d 85       	ldd	r18, Y+13	; 0x0d
    8196:	3e 85       	ldd	r19, Y+14	; 0x0e
    8198:	4f 85       	ldd	r20, Y+15	; 0x0f
    819a:	58 89       	ldd	r21, Y+16	; 0x10
    819c:	28 17       	cp	r18, r24
    819e:	39 07       	cpc	r19, r25
    81a0:	4a 07       	cpc	r20, r26
    81a2:	5b 07       	cpc	r21, r27
    81a4:	20 f4       	brcc	.+8      	; 0x81ae <_ZN7URTouch4readEv+0x202>
    81a6:	8d 87       	std	Y+13, r24	; 0x0d
    81a8:	9e 87       	std	Y+14, r25	; 0x0e
    81aa:	af 87       	std	Y+15, r26	; 0x0f
    81ac:	b8 8b       	std	Y+16, r27	; 0x10
						if (temp_y<miny)
							miny=temp_y;
						if (temp_y>maxy)
							maxy=temp_y;
					}
					datacount++;
    81ae:	0f 5f       	subi	r16, 0xFF	; 255
    81b0:	1f 4f       	sbci	r17, 0xFF	; 255
	int datacount=0;

	cbi(P_CS, B_CS);                    

	pinMode(T_IRQ,  INPUT);
	for (int i=0; i<prec; i++)
    81b2:	3f ef       	ldi	r19, 0xFF	; 255
    81b4:	23 1a       	sub	r2, r19
    81b6:	33 0a       	sbc	r3, r19
    81b8:	43 cf       	rjmp	.-378    	; 0x8040 <_ZN7URTouch4readEv+0x94>
    81ba:	53 01       	movw	r10, r6
    81bc:	42 01       	movw	r8, r4
    81be:	49 80       	ldd	r4, Y+1	; 0x01
    81c0:	5a 80       	ldd	r5, Y+2	; 0x02
    81c2:	6b 80       	ldd	r6, Y+3	; 0x03
    81c4:	7c 80       	ldd	r7, Y+4	; 0x04
					datacount++;
				}
			}
		}
	}
	pinMode(T_IRQ,  OUTPUT);
    81c6:	61 e0       	ldi	r22, 0x01	; 1
    81c8:	57 96       	adiw	r26, 0x17	; 23
    81ca:	8c 91       	ld	r24, X
    81cc:	7e db       	rcall	.-2308   	; 0x78ca <pinMode>

	if (prec>5)
    81ce:	e9 89       	ldd	r30, Y+17	; 0x11
    81d0:	fa 89       	ldd	r31, Y+18	; 0x12
    81d2:	85 8d       	ldd	r24, Z+29	; 0x1d
    81d4:	86 30       	cpi	r24, 0x06	; 6
    81d6:	f0 f0       	brcs	.+60     	; 0x8214 <_ZN7URTouch4readEv+0x268>
    81d8:	2d 81       	ldd	r18, Y+5	; 0x05
    81da:	3e 81       	ldd	r19, Y+6	; 0x06
    81dc:	4f 81       	ldd	r20, Y+7	; 0x07
    81de:	58 85       	ldd	r21, Y+8	; 0x08
    81e0:	c2 0e       	add	r12, r18
    81e2:	d3 1e       	adc	r13, r19
    81e4:	e4 1e       	adc	r14, r20
    81e6:	f5 1e       	adc	r15, r21
	{
		tx = tx-(minx+maxx);
    81e8:	4c 18       	sub	r4, r12
    81ea:	5d 08       	sbc	r5, r13
    81ec:	6e 08       	sbc	r6, r14
    81ee:	7f 08       	sbc	r7, r15
    81f0:	89 85       	ldd	r24, Y+9	; 0x09
    81f2:	9a 85       	ldd	r25, Y+10	; 0x0a
    81f4:	ab 85       	ldd	r26, Y+11	; 0x0b
    81f6:	bc 85       	ldd	r27, Y+12	; 0x0c
    81f8:	2d 85       	ldd	r18, Y+13	; 0x0d
    81fa:	3e 85       	ldd	r19, Y+14	; 0x0e
    81fc:	4f 85       	ldd	r20, Y+15	; 0x0f
    81fe:	58 89       	ldd	r21, Y+16	; 0x10
    8200:	82 0f       	add	r24, r18
    8202:	93 1f       	adc	r25, r19
    8204:	a4 1f       	adc	r26, r20
    8206:	b5 1f       	adc	r27, r21
		ty = ty-(miny+maxy);
    8208:	88 1a       	sub	r8, r24
    820a:	99 0a       	sbc	r9, r25
    820c:	aa 0a       	sbc	r10, r26
    820e:	bb 0a       	sbc	r11, r27
		datacount -= 2;
    8210:	02 50       	subi	r16, 0x02	; 2
    8212:	11 09       	sbc	r17, r1
	}

	sbi(P_CS, B_CS);                    
    8214:	a9 89       	ldd	r26, Y+17	; 0x11
    8216:	ba 89       	ldd	r27, Y+18	; 0x12
    8218:	16 96       	adiw	r26, 0x06	; 6
    821a:	ed 91       	ld	r30, X+
    821c:	fc 91       	ld	r31, X
    821e:	17 97       	sbiw	r26, 0x07	; 7
    8220:	90 81       	ld	r25, Z
    8222:	1f 96       	adiw	r26, 0x0f	; 15
    8224:	8c 91       	ld	r24, X
    8226:	1f 97       	sbiw	r26, 0x0f	; 15
    8228:	89 2b       	or	r24, r25
    822a:	80 83       	st	Z, r24
	if ((datacount==(prec-2)) or (datacount==PREC_LOW))
    822c:	5d 96       	adiw	r26, 0x1d	; 29
    822e:	8c 91       	ld	r24, X
    8230:	90 e0       	ldi	r25, 0x00	; 0
    8232:	02 97       	sbiw	r24, 0x02	; 2
    8234:	08 17       	cp	r16, r24
    8236:	19 07       	cpc	r17, r25
    8238:	19 f0       	breq	.+6      	; 0x8240 <_ZN7URTouch4readEv+0x294>
    823a:	01 30       	cpi	r16, 0x01	; 1
    823c:	11 05       	cpc	r17, r1
    823e:	a9 f5       	brne	.+106    	; 0x82aa <_ZN7URTouch4readEv+0x2fe>
	{
		if (orient == _default_orientation)
    8240:	e9 89       	ldd	r30, Y+17	; 0x11
    8242:	fa 89       	ldd	r31, Y+18	; 0x12
    8244:	84 8d       	ldd	r24, Z+28	; 0x1c
    8246:	90 e0       	ldi	r25, 0x00	; 0
    8248:	a0 e0       	ldi	r26, 0x00	; 0
    824a:	b0 e0       	ldi	r27, 0x00	; 0
    824c:	40 8d       	ldd	r20, Z+24	; 0x18
    824e:	51 8d       	ldd	r21, Z+25	; 0x19
    8250:	62 8d       	ldd	r22, Z+26	; 0x1a
    8252:	73 8d       	ldd	r23, Z+27	; 0x1b
    8254:	68 01       	movw	r12, r16
    8256:	11 0f       	add	r17, r17
    8258:	ee 08       	sbc	r14, r14
    825a:	ff 08       	sbc	r15, r15
    825c:	84 17       	cp	r24, r20
    825e:	95 07       	cpc	r25, r21
    8260:	a6 07       	cpc	r26, r22
    8262:	b7 07       	cpc	r27, r23
    8264:	69 f4       	brne	.+26     	; 0x8280 <_ZN7URTouch4readEv+0x2d4>
		{
			TP_X=ty/datacount;
    8266:	c5 01       	movw	r24, r10
    8268:	b4 01       	movw	r22, r8
    826a:	a7 01       	movw	r20, r14
    826c:	96 01       	movw	r18, r12
    826e:	0e 94 d5 59 	call	0xb3aa	; 0xb3aa <__udivmodsi4>
    8272:	a9 89       	ldd	r26, Y+17	; 0x11
    8274:	ba 89       	ldd	r27, Y+18	; 0x12
    8276:	2d 93       	st	X+, r18
    8278:	3c 93       	st	X, r19
			TP_Y=tx/datacount;
    827a:	c3 01       	movw	r24, r6
    827c:	b2 01       	movw	r22, r4
    827e:	0c c0       	rjmp	.+24     	; 0x8298 <_ZN7URTouch4readEv+0x2ec>
		}
		else
		{
			TP_X=tx/datacount;
    8280:	c3 01       	movw	r24, r6
    8282:	b2 01       	movw	r22, r4
    8284:	a7 01       	movw	r20, r14
    8286:	96 01       	movw	r18, r12
    8288:	0e 94 d5 59 	call	0xb3aa	; 0xb3aa <__udivmodsi4>
    828c:	a9 89       	ldd	r26, Y+17	; 0x11
    828e:	ba 89       	ldd	r27, Y+18	; 0x12
    8290:	2d 93       	st	X+, r18
    8292:	3c 93       	st	X, r19
			TP_Y=ty/datacount;
    8294:	c5 01       	movw	r24, r10
    8296:	b4 01       	movw	r22, r8
    8298:	a7 01       	movw	r20, r14
    829a:	96 01       	movw	r18, r12
    829c:	0e 94 d5 59 	call	0xb3aa	; 0xb3aa <__udivmodsi4>
    82a0:	e9 89       	ldd	r30, Y+17	; 0x11
    82a2:	fa 89       	ldd	r31, Y+18	; 0x12
    82a4:	33 83       	std	Z+3, r19	; 0x03
    82a6:	22 83       	std	Z+2, r18	; 0x02
    82a8:	0b c0       	rjmp	.+22     	; 0x82c0 <_ZN7URTouch4readEv+0x314>
		}
	}
	else
	{
		TP_X=-1;
    82aa:	8f ef       	ldi	r24, 0xFF	; 255
    82ac:	9f ef       	ldi	r25, 0xFF	; 255
    82ae:	a9 89       	ldd	r26, Y+17	; 0x11
    82b0:	ba 89       	ldd	r27, Y+18	; 0x12
    82b2:	11 96       	adiw	r26, 0x01	; 1
    82b4:	9c 93       	st	X, r25
    82b6:	8e 93       	st	-X, r24
		TP_Y=-1;
    82b8:	13 96       	adiw	r26, 0x03	; 3
    82ba:	9c 93       	st	X, r25
    82bc:	8e 93       	st	-X, r24
    82be:	12 97       	sbiw	r26, 0x02	; 2
	}
}
    82c0:	62 96       	adiw	r28, 0x12	; 18
    82c2:	0f b6       	in	r0, 0x3f	; 63
    82c4:	f8 94       	cli
    82c6:	de bf       	out	0x3e, r29	; 62
    82c8:	0f be       	out	0x3f, r0	; 63
    82ca:	cd bf       	out	0x3d, r28	; 61
    82cc:	df 91       	pop	r29
    82ce:	cf 91       	pop	r28
    82d0:	1f 91       	pop	r17
    82d2:	0f 91       	pop	r16
    82d4:	ff 90       	pop	r15
    82d6:	ef 90       	pop	r14
    82d8:	df 90       	pop	r13
    82da:	cf 90       	pop	r12
    82dc:	bf 90       	pop	r11
    82de:	af 90       	pop	r10
    82e0:	9f 90       	pop	r9
    82e2:	8f 90       	pop	r8
    82e4:	7f 90       	pop	r7
    82e6:	6f 90       	pop	r6
    82e8:	5f 90       	pop	r5
    82ea:	4f 90       	pop	r4
    82ec:	3f 90       	pop	r3
    82ee:	2f 90       	pop	r2
    82f0:	08 95       	ret

000082f2 <_ZN7URTouch13dataAvailableEv>:

bool URTouch::dataAvailable()
{
    82f2:	1f 93       	push	r17
    82f4:	cf 93       	push	r28
    82f6:	df 93       	push	r29
    82f8:	ec 01       	movw	r28, r24
	bool avail;
	pinMode(T_IRQ,  INPUT);
    82fa:	60 e0       	ldi	r22, 0x00	; 0
    82fc:	8f 89       	ldd	r24, Y+23	; 0x17
    82fe:	e5 da       	rcall	.-2614   	; 0x78ca <pinMode>
	avail = !(rbi(P_IRQ, B_IRQ));
    8300:	ec 85       	ldd	r30, Y+12	; 0x0c
    8302:	fd 85       	ldd	r31, Y+13	; 0x0d
    8304:	90 81       	ld	r25, Z
    8306:	8a 89       	ldd	r24, Y+18	; 0x12
    8308:	98 23       	and	r25, r24
    830a:	11 e0       	ldi	r17, 0x01	; 1
    830c:	09 f0       	breq	.+2      	; 0x8310 <_ZN7URTouch13dataAvailableEv+0x1e>
    830e:	10 e0       	ldi	r17, 0x00	; 0
	pinMode(T_IRQ,  OUTPUT);
    8310:	61 e0       	ldi	r22, 0x01	; 1
    8312:	8f 89       	ldd	r24, Y+23	; 0x17
    8314:	da da       	rcall	.-2636   	; 0x78ca <pinMode>
	return avail;
}
    8316:	81 2f       	mov	r24, r17
    8318:	df 91       	pop	r29
    831a:	cf 91       	pop	r28
    831c:	1f 91       	pop	r17
    831e:	08 95       	ret

00008320 <_ZN7URTouch4getXEv>:

int16_t URTouch::getX()
{
    8320:	4f 92       	push	r4
    8322:	5f 92       	push	r5
    8324:	6f 92       	push	r6
    8326:	7f 92       	push	r7
    8328:	8f 92       	push	r8
    832a:	9f 92       	push	r9
    832c:	af 92       	push	r10
    832e:	bf 92       	push	r11
    8330:	cf 92       	push	r12
    8332:	df 92       	push	r13
    8334:	ef 92       	push	r14
    8336:	ff 92       	push	r15
    8338:	0f 93       	push	r16
    833a:	1f 93       	push	r17
    833c:	fc 01       	movw	r30, r24
	long c;

	if ((TP_X==-1) or (TP_Y==-1))
    833e:	40 81       	ld	r20, Z
    8340:	51 81       	ldd	r21, Z+1	; 0x01
    8342:	4f 3f       	cpi	r20, 0xFF	; 255
    8344:	2f ef       	ldi	r18, 0xFF	; 255
    8346:	52 07       	cpc	r21, r18
    8348:	09 f4       	brne	.+2      	; 0x834c <_ZN7URTouch4getXEv+0x2c>
    834a:	a0 c0       	rjmp	.+320    	; 0x848c <_ZN7URTouch4getXEv+0x16c>
    834c:	82 81       	ldd	r24, Z+2	; 0x02
    834e:	93 81       	ldd	r25, Z+3	; 0x03
    8350:	8f 3f       	cpi	r24, 0xFF	; 255
    8352:	af ef       	ldi	r26, 0xFF	; 255
    8354:	9a 07       	cpc	r25, r26
    8356:	09 f4       	brne	.+2      	; 0x835a <_ZN7URTouch4getXEv+0x3a>
    8358:	9b c0       	rjmp	.+310    	; 0x8490 <_ZN7URTouch4getXEv+0x170>
		return -1;
	if (orient == _default_orientation)
    835a:	80 8d       	ldd	r24, Z+24	; 0x18
    835c:	91 8d       	ldd	r25, Z+25	; 0x19
    835e:	a2 8d       	ldd	r26, Z+26	; 0x1a
    8360:	b3 8d       	ldd	r27, Z+27	; 0x1b
    8362:	24 8d       	ldd	r18, Z+28	; 0x1c
    8364:	82 2e       	mov	r8, r18
    8366:	91 2c       	mov	r9, r1
    8368:	a1 2c       	mov	r10, r1
    836a:	b1 2c       	mov	r11, r1
    836c:	05 2e       	mov	r0, r21
    836e:	00 0c       	add	r0, r0
    8370:	66 0b       	sbc	r22, r22
    8372:	77 0b       	sbc	r23, r23
    8374:	e3 a0       	ldd	r14, Z+35	; 0x23
    8376:	f4 a0       	ldd	r15, Z+36	; 0x24
    8378:	05 a1       	ldd	r16, Z+37	; 0x25
    837a:	16 a1       	ldd	r17, Z+38	; 0x26
    837c:	88 16       	cp	r8, r24
    837e:	99 06       	cpc	r9, r25
    8380:	aa 06       	cpc	r10, r26
    8382:	bb 06       	cpc	r11, r27
    8384:	61 f5       	brne	.+88     	; 0x83de <_ZN7URTouch4getXEv+0xbe>
	{
		c = long(long(TP_X - touch_x_left) * (disp_x_size)) / long(touch_x_right - touch_x_left);
    8386:	43 a4       	ldd	r4, Z+43	; 0x2b
    8388:	54 a4       	ldd	r5, Z+44	; 0x2c
    838a:	65 a4       	ldd	r6, Z+45	; 0x2d
    838c:	76 a4       	ldd	r7, Z+46	; 0x2e
    838e:	87 8c       	ldd	r8, Z+31	; 0x1f
    8390:	90 a0       	ldd	r9, Z+32	; 0x20
    8392:	a1 a0       	ldd	r10, Z+33	; 0x21
    8394:	b2 a0       	ldd	r11, Z+34	; 0x22
    8396:	9a 01       	movw	r18, r20
    8398:	ab 01       	movw	r20, r22
    839a:	24 19       	sub	r18, r4
    839c:	35 09       	sbc	r19, r5
    839e:	46 09       	sbc	r20, r6
    83a0:	57 09       	sbc	r21, r7
    83a2:	c5 01       	movw	r24, r10
    83a4:	b4 01       	movw	r22, r8
    83a6:	0e 94 93 59 	call	0xb326	; 0xb326 <__mulsi3>
    83aa:	27 a5       	ldd	r18, Z+47	; 0x2f
    83ac:	30 a9       	ldd	r19, Z+48	; 0x30
    83ae:	41 a9       	ldd	r20, Z+49	; 0x31
    83b0:	52 a9       	ldd	r21, Z+50	; 0x32
    83b2:	24 19       	sub	r18, r4
    83b4:	35 09       	sbc	r19, r5
    83b6:	46 09       	sbc	r20, r6
    83b8:	57 09       	sbc	r21, r7
    83ba:	0e 94 f7 59 	call	0xb3ee	; 0xb3ee <__divmodsi4>
    83be:	57 ff       	sbrs	r21, 7
    83c0:	03 c0       	rjmp	.+6      	; 0x83c8 <_ZN7URTouch4getXEv+0xa8>
    83c2:	20 e0       	ldi	r18, 0x00	; 0
    83c4:	30 e0       	ldi	r19, 0x00	; 0
    83c6:	a9 01       	movw	r20, r18
    83c8:	ca 01       	movw	r24, r20
    83ca:	b9 01       	movw	r22, r18
    83cc:	82 16       	cp	r8, r18
    83ce:	93 06       	cpc	r9, r19
    83d0:	a4 06       	cpc	r10, r20
    83d2:	b5 06       	cpc	r11, r21
    83d4:	0c f0       	brlt	.+2      	; 0x83d8 <_ZN7URTouch4getXEv+0xb8>
    83d6:	4a c0       	rjmp	.+148    	; 0x846c <_ZN7URTouch4getXEv+0x14c>
    83d8:	c5 01       	movw	r24, r10
    83da:	b4 01       	movw	r22, r8
    83dc:	47 c0       	rjmp	.+142    	; 0x846c <_ZN7URTouch4getXEv+0x14c>
    83de:	83 a8       	ldd	r8, Z+51	; 0x33
    83e0:	94 a8       	ldd	r9, Z+52	; 0x34
    83e2:	a5 a8       	ldd	r10, Z+53	; 0x35
    83e4:	b6 a8       	ldd	r11, Z+54	; 0x36
    83e6:	47 a8       	ldd	r4, Z+55	; 0x37
    83e8:	50 ac       	ldd	r5, Z+56	; 0x38
    83ea:	61 ac       	ldd	r6, Z+57	; 0x39
    83ec:	72 ac       	ldd	r7, Z+58	; 0x3a
		if (c>disp_x_size)
			c = disp_x_size;
	}
	else
	{
		if (_default_orientation == PORTRAIT)
    83ee:	89 2b       	or	r24, r25
    83f0:	8a 2b       	or	r24, r26
    83f2:	8b 2b       	or	r24, r27
    83f4:	c9 f4       	brne	.+50     	; 0x8428 <_ZN7URTouch4getXEv+0x108>
			c = long(long(TP_X - touch_y_top) * (-disp_y_size)) / long(touch_y_bottom - touch_y_top) + long(disp_y_size);
    83f6:	d5 01       	movw	r26, r10
    83f8:	c4 01       	movw	r24, r8
    83fa:	84 1b       	sub	r24, r20
    83fc:	95 0b       	sbc	r25, r21
    83fe:	a6 0b       	sbc	r26, r22
    8400:	b7 0b       	sbc	r27, r23
    8402:	9c 01       	movw	r18, r24
    8404:	ad 01       	movw	r20, r26
    8406:	c8 01       	movw	r24, r16
    8408:	b7 01       	movw	r22, r14
    840a:	0e 94 93 59 	call	0xb326	; 0xb326 <__mulsi3>
    840e:	a3 01       	movw	r20, r6
    8410:	92 01       	movw	r18, r4
    8412:	28 19       	sub	r18, r8
    8414:	39 09       	sbc	r19, r9
    8416:	4a 09       	sbc	r20, r10
    8418:	5b 09       	sbc	r21, r11
    841a:	0e 94 f7 59 	call	0xb3ee	; 0xb3ee <__divmodsi4>
    841e:	2e 0d       	add	r18, r14
    8420:	3f 1d       	adc	r19, r15
    8422:	40 1f       	adc	r20, r16
    8424:	51 1f       	adc	r21, r17
    8426:	12 c0       	rjmp	.+36     	; 0x844c <_ZN7URTouch4getXEv+0x12c>
		else
			c = long(long(TP_X - touch_y_top) * (disp_y_size)) / long(touch_y_bottom - touch_y_top);
    8428:	9a 01       	movw	r18, r20
    842a:	ab 01       	movw	r20, r22
    842c:	28 19       	sub	r18, r8
    842e:	39 09       	sbc	r19, r9
    8430:	4a 09       	sbc	r20, r10
    8432:	5b 09       	sbc	r21, r11
    8434:	c8 01       	movw	r24, r16
    8436:	b7 01       	movw	r22, r14
    8438:	0e 94 93 59 	call	0xb326	; 0xb326 <__mulsi3>
    843c:	a3 01       	movw	r20, r6
    843e:	92 01       	movw	r18, r4
    8440:	28 19       	sub	r18, r8
    8442:	39 09       	sbc	r19, r9
    8444:	4a 09       	sbc	r20, r10
    8446:	5b 09       	sbc	r21, r11
    8448:	0e 94 f7 59 	call	0xb3ee	; 0xb3ee <__divmodsi4>
    844c:	da 01       	movw	r26, r20
    844e:	c9 01       	movw	r24, r18
    8450:	57 ff       	sbrs	r21, 7
    8452:	03 c0       	rjmp	.+6      	; 0x845a <_ZN7URTouch4getXEv+0x13a>
    8454:	80 e0       	ldi	r24, 0x00	; 0
    8456:	90 e0       	ldi	r25, 0x00	; 0
    8458:	dc 01       	movw	r26, r24
    845a:	bc 01       	movw	r22, r24
    845c:	cd 01       	movw	r24, r26
    845e:	e6 16       	cp	r14, r22
    8460:	f7 06       	cpc	r15, r23
    8462:	08 07       	cpc	r16, r24
    8464:	19 07       	cpc	r17, r25
    8466:	14 f4       	brge	.+4      	; 0x846c <_ZN7URTouch4getXEv+0x14c>
    8468:	c8 01       	movw	r24, r16
    846a:	b7 01       	movw	r22, r14
		if (c<0)
			c = 0;
		if (c>disp_y_size)
			c = disp_y_size;
	}
	c=map(c,0,disp_y_size,disp_y_size,0);
    846c:	1f 92       	push	r1
    846e:	1f 92       	push	r1
    8470:	1f 92       	push	r1
    8472:	1f 92       	push	r1
    8474:	57 01       	movw	r10, r14
    8476:	68 01       	movw	r12, r16
    8478:	20 e0       	ldi	r18, 0x00	; 0
    847a:	30 e0       	ldi	r19, 0x00	; 0
    847c:	a9 01       	movw	r20, r18
    847e:	90 da       	rcall	.-2784   	; 0x79a0 <_Z3maplllll>
	return c;
    8480:	cb 01       	movw	r24, r22
    8482:	0f 90       	pop	r0
    8484:	0f 90       	pop	r0
    8486:	0f 90       	pop	r0
    8488:	0f 90       	pop	r0
    848a:	02 c0       	rjmp	.+4      	; 0x8490 <_ZN7URTouch4getXEv+0x170>
int16_t URTouch::getX()
{
	long c;

	if ((TP_X==-1) or (TP_Y==-1))
		return -1;
    848c:	8f ef       	ldi	r24, 0xFF	; 255
    848e:	9f ef       	ldi	r25, 0xFF	; 255
		if (c>disp_y_size)
			c = disp_y_size;
	}
	c=map(c,0,disp_y_size,disp_y_size,0);
	return c;
}
    8490:	1f 91       	pop	r17
    8492:	0f 91       	pop	r16
    8494:	ff 90       	pop	r15
    8496:	ef 90       	pop	r14
    8498:	df 90       	pop	r13
    849a:	cf 90       	pop	r12
    849c:	bf 90       	pop	r11
    849e:	af 90       	pop	r10
    84a0:	9f 90       	pop	r9
    84a2:	8f 90       	pop	r8
    84a4:	7f 90       	pop	r7
    84a6:	6f 90       	pop	r6
    84a8:	5f 90       	pop	r5
    84aa:	4f 90       	pop	r4
    84ac:	08 95       	ret

000084ae <_ZN7URTouch4getYEv>:

int16_t URTouch::getY()
{
    84ae:	4f 92       	push	r4
    84b0:	5f 92       	push	r5
    84b2:	6f 92       	push	r6
    84b4:	7f 92       	push	r7
    84b6:	8f 92       	push	r8
    84b8:	9f 92       	push	r9
    84ba:	af 92       	push	r10
    84bc:	bf 92       	push	r11
    84be:	cf 92       	push	r12
    84c0:	df 92       	push	r13
    84c2:	ef 92       	push	r14
    84c4:	ff 92       	push	r15
    84c6:	0f 93       	push	r16
    84c8:	1f 93       	push	r17
    84ca:	fc 01       	movw	r30, r24
	int c;

	if ((TP_X==-1) or (TP_Y==-1))
    84cc:	60 81       	ld	r22, Z
    84ce:	71 81       	ldd	r23, Z+1	; 0x01
    84d0:	6f 3f       	cpi	r22, 0xFF	; 255
    84d2:	8f ef       	ldi	r24, 0xFF	; 255
    84d4:	78 07       	cpc	r23, r24
    84d6:	09 f4       	brne	.+2      	; 0x84da <_ZN7URTouch4getYEv+0x2c>
    84d8:	9f c0       	rjmp	.+318    	; 0x8618 <_ZN7URTouch4getYEv+0x16a>
    84da:	62 81       	ldd	r22, Z+2	; 0x02
    84dc:	73 81       	ldd	r23, Z+3	; 0x03
    84de:	6f 3f       	cpi	r22, 0xFF	; 255
    84e0:	9f ef       	ldi	r25, 0xFF	; 255
    84e2:	79 07       	cpc	r23, r25
    84e4:	09 f4       	brne	.+2      	; 0x84e8 <_ZN7URTouch4getYEv+0x3a>
    84e6:	98 c0       	rjmp	.+304    	; 0x8618 <_ZN7URTouch4getYEv+0x16a>
		return -1;
	if (orient == _default_orientation)
    84e8:	80 8d       	ldd	r24, Z+24	; 0x18
    84ea:	91 8d       	ldd	r25, Z+25	; 0x19
    84ec:	a2 8d       	ldd	r26, Z+26	; 0x1a
    84ee:	b3 8d       	ldd	r27, Z+27	; 0x1b
    84f0:	84 8c       	ldd	r8, Z+28	; 0x1c
    84f2:	91 2c       	mov	r9, r1
    84f4:	a1 2c       	mov	r10, r1
    84f6:	b1 2c       	mov	r11, r1
    84f8:	ab 01       	movw	r20, r22
    84fa:	77 0f       	add	r23, r23
    84fc:	66 0b       	sbc	r22, r22
    84fe:	77 0b       	sbc	r23, r23
    8500:	e7 8c       	ldd	r14, Z+31	; 0x1f
    8502:	f0 a0       	ldd	r15, Z+32	; 0x20
    8504:	01 a1       	ldd	r16, Z+33	; 0x21
    8506:	12 a1       	ldd	r17, Z+34	; 0x22
    8508:	88 16       	cp	r8, r24
    850a:	99 06       	cpc	r9, r25
    850c:	aa 06       	cpc	r10, r26
    850e:	bb 06       	cpc	r11, r27
    8510:	69 f5       	brne	.+90     	; 0x856c <_ZN7URTouch4getYEv+0xbe>
	{
		c = long(long(TP_Y - touch_y_top) * (disp_y_size)) / long(touch_y_bottom - touch_y_top);
    8512:	43 a8       	ldd	r4, Z+51	; 0x33
    8514:	54 a8       	ldd	r5, Z+52	; 0x34
    8516:	65 a8       	ldd	r6, Z+53	; 0x35
    8518:	76 a8       	ldd	r7, Z+54	; 0x36
    851a:	83 a0       	ldd	r8, Z+35	; 0x23
    851c:	94 a0       	ldd	r9, Z+36	; 0x24
    851e:	a5 a0       	ldd	r10, Z+37	; 0x25
    8520:	b6 a0       	ldd	r11, Z+38	; 0x26
    8522:	9a 01       	movw	r18, r20
    8524:	ab 01       	movw	r20, r22
    8526:	24 19       	sub	r18, r4
    8528:	35 09       	sbc	r19, r5
    852a:	46 09       	sbc	r20, r6
    852c:	57 09       	sbc	r21, r7
    852e:	c5 01       	movw	r24, r10
    8530:	b4 01       	movw	r22, r8
    8532:	0e 94 93 59 	call	0xb326	; 0xb326 <__mulsi3>
    8536:	27 a9       	ldd	r18, Z+55	; 0x37
    8538:	30 ad       	ldd	r19, Z+56	; 0x38
    853a:	41 ad       	ldd	r20, Z+57	; 0x39
    853c:	52 ad       	ldd	r21, Z+58	; 0x3a
    853e:	24 19       	sub	r18, r4
    8540:	35 09       	sbc	r19, r5
    8542:	46 09       	sbc	r20, r6
    8544:	57 09       	sbc	r21, r7
    8546:	0e 94 f7 59 	call	0xb3ee	; 0xb3ee <__divmodsi4>
    854a:	37 ff       	sbrs	r19, 7
    854c:	02 c0       	rjmp	.+4      	; 0x8552 <_ZN7URTouch4getYEv+0xa4>
    854e:	20 e0       	ldi	r18, 0x00	; 0
    8550:	30 e0       	ldi	r19, 0x00	; 0
		if (c<0)
			c = 0;
		if (c>disp_y_size)
    8552:	c9 01       	movw	r24, r18
    8554:	03 2e       	mov	r0, r19
    8556:	00 0c       	add	r0, r0
    8558:	aa 0b       	sbc	r26, r26
    855a:	bb 0b       	sbc	r27, r27
    855c:	88 16       	cp	r8, r24
    855e:	99 06       	cpc	r9, r25
    8560:	aa 06       	cpc	r10, r26
    8562:	bb 06       	cpc	r11, r27
    8564:	0c f0       	brlt	.+2      	; 0x8568 <_ZN7URTouch4getYEv+0xba>
    8566:	46 c0       	rjmp	.+140    	; 0x85f4 <_ZN7URTouch4getYEv+0x146>
			c = disp_y_size;
    8568:	94 01       	movw	r18, r8
    856a:	44 c0       	rjmp	.+136    	; 0x85f4 <_ZN7URTouch4getYEv+0x146>
    856c:	83 a4       	ldd	r8, Z+43	; 0x2b
    856e:	94 a4       	ldd	r9, Z+44	; 0x2c
    8570:	a5 a4       	ldd	r10, Z+45	; 0x2d
    8572:	b6 a4       	ldd	r11, Z+46	; 0x2e
    8574:	47 a4       	ldd	r4, Z+47	; 0x2f
    8576:	50 a8       	ldd	r5, Z+48	; 0x30
    8578:	61 a8       	ldd	r6, Z+49	; 0x31
    857a:	72 a8       	ldd	r7, Z+50	; 0x32
	}
	else
	{
		if (_default_orientation == PORTRAIT)
    857c:	89 2b       	or	r24, r25
    857e:	8a 2b       	or	r24, r26
    8580:	8b 2b       	or	r24, r27
    8582:	99 f4       	brne	.+38     	; 0x85aa <_ZN7URTouch4getYEv+0xfc>
			c = long(long(TP_Y - touch_x_left) * (disp_x_size)) / long(touch_x_right - touch_x_left);
    8584:	9a 01       	movw	r18, r20
    8586:	ab 01       	movw	r20, r22
    8588:	28 19       	sub	r18, r8
    858a:	39 09       	sbc	r19, r9
    858c:	4a 09       	sbc	r20, r10
    858e:	5b 09       	sbc	r21, r11
    8590:	c8 01       	movw	r24, r16
    8592:	b7 01       	movw	r22, r14
    8594:	0e 94 93 59 	call	0xb326	; 0xb326 <__mulsi3>
    8598:	a3 01       	movw	r20, r6
    859a:	92 01       	movw	r18, r4
    859c:	28 19       	sub	r18, r8
    859e:	39 09       	sbc	r19, r9
    85a0:	4a 09       	sbc	r20, r10
    85a2:	5b 09       	sbc	r21, r11
    85a4:	0e 94 f7 59 	call	0xb3ee	; 0xb3ee <__divmodsi4>
    85a8:	16 c0       	rjmp	.+44     	; 0x85d6 <_ZN7URTouch4getYEv+0x128>
		else
			c = long(long(TP_Y - touch_x_left) * (-disp_x_size)) / long(touch_x_right - touch_x_left) + long(disp_x_size);
    85aa:	d5 01       	movw	r26, r10
    85ac:	c4 01       	movw	r24, r8
    85ae:	84 1b       	sub	r24, r20
    85b0:	95 0b       	sbc	r25, r21
    85b2:	a6 0b       	sbc	r26, r22
    85b4:	b7 0b       	sbc	r27, r23
    85b6:	9c 01       	movw	r18, r24
    85b8:	ad 01       	movw	r20, r26
    85ba:	c8 01       	movw	r24, r16
    85bc:	b7 01       	movw	r22, r14
    85be:	0e 94 93 59 	call	0xb326	; 0xb326 <__mulsi3>
    85c2:	a3 01       	movw	r20, r6
    85c4:	92 01       	movw	r18, r4
    85c6:	28 19       	sub	r18, r8
    85c8:	39 09       	sbc	r19, r9
    85ca:	4a 09       	sbc	r20, r10
    85cc:	5b 09       	sbc	r21, r11
    85ce:	0e 94 f7 59 	call	0xb3ee	; 0xb3ee <__divmodsi4>
    85d2:	2e 0d       	add	r18, r14
    85d4:	3f 1d       	adc	r19, r15
    85d6:	37 ff       	sbrs	r19, 7
    85d8:	02 c0       	rjmp	.+4      	; 0x85de <_ZN7URTouch4getYEv+0x130>
    85da:	20 e0       	ldi	r18, 0x00	; 0
    85dc:	30 e0       	ldi	r19, 0x00	; 0
		if (c<0)
			c = 0;
		if (c>disp_x_size)
    85de:	c9 01       	movw	r24, r18
    85e0:	03 2e       	mov	r0, r19
    85e2:	00 0c       	add	r0, r0
    85e4:	aa 0b       	sbc	r26, r26
    85e6:	bb 0b       	sbc	r27, r27
    85e8:	e8 16       	cp	r14, r24
    85ea:	f9 06       	cpc	r15, r25
    85ec:	0a 07       	cpc	r16, r26
    85ee:	1b 07       	cpc	r17, r27
    85f0:	0c f4       	brge	.+2      	; 0x85f4 <_ZN7URTouch4getYEv+0x146>
			c = disp_x_size;
    85f2:	97 01       	movw	r18, r14
	}
	c=map(c,0,disp_x_size,disp_x_size,0);
    85f4:	b9 01       	movw	r22, r18
    85f6:	33 0f       	add	r19, r19
    85f8:	88 0b       	sbc	r24, r24
    85fa:	99 0b       	sbc	r25, r25
    85fc:	1f 92       	push	r1
    85fe:	1f 92       	push	r1
    8600:	1f 92       	push	r1
    8602:	1f 92       	push	r1
    8604:	57 01       	movw	r10, r14
    8606:	68 01       	movw	r12, r16
    8608:	20 e0       	ldi	r18, 0x00	; 0
    860a:	30 e0       	ldi	r19, 0x00	; 0
    860c:	a9 01       	movw	r20, r18
    860e:	c8 d9       	rcall	.-3184   	; 0x79a0 <_Z3maplllll>
	return c;
    8610:	0f 90       	pop	r0
    8612:	0f 90       	pop	r0
    8614:	0f 90       	pop	r0
    8616:	0f 90       	pop	r0
}
    8618:	cb 01       	movw	r24, r22
    861a:	1f 91       	pop	r17
    861c:	0f 91       	pop	r16
    861e:	ff 90       	pop	r15
    8620:	ef 90       	pop	r14
    8622:	df 90       	pop	r13
    8624:	cf 90       	pop	r12
    8626:	bf 90       	pop	r11
    8628:	af 90       	pop	r10
    862a:	9f 90       	pop	r9
    862c:	8f 90       	pop	r8
    862e:	7f 90       	pop	r7
    8630:	6f 90       	pop	r6
    8632:	5f 90       	pop	r5
    8634:	4f 90       	pop	r4
    8636:	08 95       	ret

00008638 <_ZN7URTouch12setPrecisionEh>:

void URTouch::setPrecision(byte precision)
{
    8638:	fc 01       	movw	r30, r24
	switch (precision)
    863a:	62 30       	cpi	r22, 0x02	; 2
    863c:	69 f0       	breq	.+26     	; 0x8658 <_ZN7URTouch12setPrecisionEh+0x20>
    863e:	20 f4       	brcc	.+8      	; 0x8648 <_ZN7URTouch12setPrecisionEh+0x10>
    8640:	61 30       	cpi	r22, 0x01	; 1
    8642:	51 f4       	brne	.+20     	; 0x8658 <_ZN7URTouch12setPrecisionEh+0x20>
	{
		case PREC_LOW:
			prec=1;		// DO NOT CHANGE!
    8644:	65 8f       	std	Z+29, r22	; 0x1d
			break;
    8646:	08 95       	ret
	return c;
}

void URTouch::setPrecision(byte precision)
{
	switch (precision)
    8648:	63 30       	cpi	r22, 0x03	; 3
    864a:	21 f0       	breq	.+8      	; 0x8654 <_ZN7URTouch12setPrecisionEh+0x1c>
    864c:	64 30       	cpi	r22, 0x04	; 4
    864e:	21 f4       	brne	.+8      	; 0x8658 <_ZN7URTouch12setPrecisionEh+0x20>
			break;
		case PREC_HI:
			prec=27;	// Iterations + 2
			break;
		case PREC_EXTREME:
			prec=102;	// Iterations + 2
    8650:	86 e6       	ldi	r24, 0x66	; 102
    8652:	03 c0       	rjmp	.+6      	; 0x865a <_ZN7URTouch12setPrecisionEh+0x22>
			break;
		case PREC_MEDIUM:
			prec=12;	// Iterations + 2
			break;
		case PREC_HI:
			prec=27;	// Iterations + 2
    8654:	8b e1       	ldi	r24, 0x1B	; 27
    8656:	01 c0       	rjmp	.+2      	; 0x865a <_ZN7URTouch12setPrecisionEh+0x22>
			break;
		case PREC_EXTREME:
			prec=102;	// Iterations + 2
			break;
		default:
			prec=12;	// Iterations + 2
    8658:	8c e0       	ldi	r24, 0x0C	; 12
    865a:	85 8f       	std	Z+29, r24	; 0x1d
    865c:	08 95       	ret

0000865e <_ZN4UTFT12LCD_Writ_BusEcch>:
				if ((st[i]==' ') || (st[i]=='-'))
					st[i]=filler;
		}
		else
		{
			for (int i=0; i<sizeof(st); i++)
    865e:	fc 01       	movw	r30, r24
    8660:	28 30       	cpi	r18, 0x08	; 8
    8662:	09 f4       	brne	.+2      	; 0x8666 <_ZN4UTFT12LCD_Writ_BusEcch+0x8>
    8664:	ee c0       	rjmp	.+476    	; 0x8842 <_ZN4UTFT12LCD_Writ_BusEcch+0x1e4>
    8666:	18 f4       	brcc	.+6      	; 0x866e <_ZN4UTFT12LCD_Writ_BusEcch+0x10>
    8668:	21 30       	cpi	r18, 0x01	; 1
    866a:	41 f0       	breq	.+16     	; 0x867c <_ZN4UTFT12LCD_Writ_BusEcch+0x1e>
    866c:	08 95       	ret
    866e:	20 31       	cpi	r18, 0x10	; 16
    8670:	09 f4       	brne	.+2      	; 0x8674 <_ZN4UTFT12LCD_Writ_BusEcch+0x16>
    8672:	f7 c0       	rjmp	.+494    	; 0x8862 <_ZN4UTFT12LCD_Writ_BusEcch+0x204>
    8674:	21 31       	cpi	r18, 0x11	; 17
    8676:	09 f4       	brne	.+2      	; 0x867a <_ZN4UTFT12LCD_Writ_BusEcch+0x1c>
    8678:	02 c1       	rjmp	.+516    	; 0x887e <_ZN4UTFT12LCD_Writ_BusEcch+0x220>
    867a:	08 95       	ret
    867c:	87 85       	ldd	r24, Z+15	; 0x0f
    867e:	84 30       	cpi	r24, 0x04	; 4
    8680:	c1 f4       	brne	.+48     	; 0x86b2 <_ZN4UTFT12LCD_Writ_BusEcch+0x54>
    8682:	a0 8d       	ldd	r26, Z+24	; 0x18
    8684:	b1 8d       	ldd	r27, Z+25	; 0x19
    8686:	82 a1       	ldd	r24, Z+34	; 0x22
    8688:	9c 91       	ld	r25, X
    868a:	61 30       	cpi	r22, 0x01	; 1
    868c:	11 f4       	brne	.+4      	; 0x8692 <_ZN4UTFT12LCD_Writ_BusEcch+0x34>
    868e:	89 2b       	or	r24, r25
    8690:	02 c0       	rjmp	.+4      	; 0x8696 <_ZN4UTFT12LCD_Writ_BusEcch+0x38>
    8692:	80 95       	com	r24
    8694:	89 23       	and	r24, r25
    8696:	8c 93       	st	X, r24
    8698:	a2 8d       	ldd	r26, Z+26	; 0x1a
    869a:	b3 8d       	ldd	r27, Z+27	; 0x1b
    869c:	9c 91       	ld	r25, X
    869e:	83 a1       	ldd	r24, Z+35	; 0x23
    86a0:	80 95       	com	r24
    86a2:	89 23       	and	r24, r25
    86a4:	8c 93       	st	X, r24
    86a6:	a2 8d       	ldd	r26, Z+26	; 0x1a
    86a8:	b3 8d       	ldd	r27, Z+27	; 0x1b
    86aa:	9c 91       	ld	r25, X
    86ac:	83 a1       	ldd	r24, Z+35	; 0x23
    86ae:	89 2b       	or	r24, r25
    86b0:	08 c0       	rjmp	.+16     	; 0x86c2 <_ZN4UTFT12LCD_Writ_BusEcch+0x64>
    86b2:	a0 89       	ldd	r26, Z+16	; 0x10
    86b4:	b1 89       	ldd	r27, Z+17	; 0x11
    86b6:	86 8d       	ldd	r24, Z+30	; 0x1e
    86b8:	9c 91       	ld	r25, X
    86ba:	61 30       	cpi	r22, 0x01	; 1
    86bc:	c1 f3       	breq	.-16     	; 0x86ae <_ZN4UTFT12LCD_Writ_BusEcch+0x50>
    86be:	80 95       	com	r24
    86c0:	89 23       	and	r24, r25
    86c2:	8c 93       	st	X, r24
    86c4:	a0 8d       	ldd	r26, Z+24	; 0x18
    86c6:	b1 8d       	ldd	r27, Z+25	; 0x19
    86c8:	82 a1       	ldd	r24, Z+34	; 0x22
    86ca:	9c 91       	ld	r25, X
    86cc:	47 ff       	sbrs	r20, 7
    86ce:	02 c0       	rjmp	.+4      	; 0x86d4 <_ZN4UTFT12LCD_Writ_BusEcch+0x76>
    86d0:	89 2b       	or	r24, r25
    86d2:	02 c0       	rjmp	.+4      	; 0x86d8 <_ZN4UTFT12LCD_Writ_BusEcch+0x7a>
    86d4:	80 95       	com	r24
    86d6:	89 23       	and	r24, r25
    86d8:	8c 93       	st	X, r24
    86da:	a2 8d       	ldd	r26, Z+26	; 0x1a
    86dc:	b3 8d       	ldd	r27, Z+27	; 0x1b
    86de:	9c 91       	ld	r25, X
    86e0:	83 a1       	ldd	r24, Z+35	; 0x23
    86e2:	80 95       	com	r24
    86e4:	89 23       	and	r24, r25
    86e6:	8c 93       	st	X, r24
    86e8:	a2 8d       	ldd	r26, Z+26	; 0x1a
    86ea:	b3 8d       	ldd	r27, Z+27	; 0x1b
    86ec:	9c 91       	ld	r25, X
    86ee:	83 a1       	ldd	r24, Z+35	; 0x23
    86f0:	89 2b       	or	r24, r25
    86f2:	8c 93       	st	X, r24
    86f4:	a0 8d       	ldd	r26, Z+24	; 0x18
    86f6:	b1 8d       	ldd	r27, Z+25	; 0x19
    86f8:	82 a1       	ldd	r24, Z+34	; 0x22
    86fa:	9c 91       	ld	r25, X
    86fc:	46 ff       	sbrs	r20, 6
    86fe:	02 c0       	rjmp	.+4      	; 0x8704 <_ZN4UTFT12LCD_Writ_BusEcch+0xa6>
    8700:	89 2b       	or	r24, r25
    8702:	02 c0       	rjmp	.+4      	; 0x8708 <_ZN4UTFT12LCD_Writ_BusEcch+0xaa>
    8704:	80 95       	com	r24
    8706:	89 23       	and	r24, r25
    8708:	8c 93       	st	X, r24
    870a:	a2 8d       	ldd	r26, Z+26	; 0x1a
    870c:	b3 8d       	ldd	r27, Z+27	; 0x1b
    870e:	9c 91       	ld	r25, X
    8710:	83 a1       	ldd	r24, Z+35	; 0x23
    8712:	80 95       	com	r24
    8714:	89 23       	and	r24, r25
    8716:	8c 93       	st	X, r24
    8718:	a2 8d       	ldd	r26, Z+26	; 0x1a
    871a:	b3 8d       	ldd	r27, Z+27	; 0x1b
    871c:	9c 91       	ld	r25, X
    871e:	83 a1       	ldd	r24, Z+35	; 0x23
    8720:	89 2b       	or	r24, r25
    8722:	8c 93       	st	X, r24
    8724:	a0 8d       	ldd	r26, Z+24	; 0x18
    8726:	b1 8d       	ldd	r27, Z+25	; 0x19
    8728:	82 a1       	ldd	r24, Z+34	; 0x22
    872a:	9c 91       	ld	r25, X
    872c:	45 ff       	sbrs	r20, 5
    872e:	02 c0       	rjmp	.+4      	; 0x8734 <_ZN4UTFT12LCD_Writ_BusEcch+0xd6>
    8730:	89 2b       	or	r24, r25
    8732:	02 c0       	rjmp	.+4      	; 0x8738 <_ZN4UTFT12LCD_Writ_BusEcch+0xda>
    8734:	80 95       	com	r24
    8736:	89 23       	and	r24, r25
    8738:	8c 93       	st	X, r24
    873a:	a2 8d       	ldd	r26, Z+26	; 0x1a
    873c:	b3 8d       	ldd	r27, Z+27	; 0x1b
    873e:	9c 91       	ld	r25, X
    8740:	83 a1       	ldd	r24, Z+35	; 0x23
    8742:	80 95       	com	r24
    8744:	89 23       	and	r24, r25
    8746:	8c 93       	st	X, r24
    8748:	a2 8d       	ldd	r26, Z+26	; 0x1a
    874a:	b3 8d       	ldd	r27, Z+27	; 0x1b
    874c:	9c 91       	ld	r25, X
    874e:	83 a1       	ldd	r24, Z+35	; 0x23
    8750:	89 2b       	or	r24, r25
    8752:	8c 93       	st	X, r24
    8754:	a0 8d       	ldd	r26, Z+24	; 0x18
    8756:	b1 8d       	ldd	r27, Z+25	; 0x19
    8758:	82 a1       	ldd	r24, Z+34	; 0x22
    875a:	9c 91       	ld	r25, X
    875c:	44 ff       	sbrs	r20, 4
    875e:	02 c0       	rjmp	.+4      	; 0x8764 <_ZN4UTFT12LCD_Writ_BusEcch+0x106>
    8760:	89 2b       	or	r24, r25
    8762:	02 c0       	rjmp	.+4      	; 0x8768 <_ZN4UTFT12LCD_Writ_BusEcch+0x10a>
    8764:	80 95       	com	r24
    8766:	89 23       	and	r24, r25
    8768:	8c 93       	st	X, r24
    876a:	a2 8d       	ldd	r26, Z+26	; 0x1a
    876c:	b3 8d       	ldd	r27, Z+27	; 0x1b
    876e:	9c 91       	ld	r25, X
    8770:	83 a1       	ldd	r24, Z+35	; 0x23
    8772:	80 95       	com	r24
    8774:	89 23       	and	r24, r25
    8776:	8c 93       	st	X, r24
    8778:	a2 8d       	ldd	r26, Z+26	; 0x1a
    877a:	b3 8d       	ldd	r27, Z+27	; 0x1b
    877c:	9c 91       	ld	r25, X
    877e:	83 a1       	ldd	r24, Z+35	; 0x23
    8780:	89 2b       	or	r24, r25
    8782:	8c 93       	st	X, r24
    8784:	a0 8d       	ldd	r26, Z+24	; 0x18
    8786:	b1 8d       	ldd	r27, Z+25	; 0x19
    8788:	82 a1       	ldd	r24, Z+34	; 0x22
    878a:	9c 91       	ld	r25, X
    878c:	43 ff       	sbrs	r20, 3
    878e:	02 c0       	rjmp	.+4      	; 0x8794 <_ZN4UTFT12LCD_Writ_BusEcch+0x136>
    8790:	89 2b       	or	r24, r25
    8792:	02 c0       	rjmp	.+4      	; 0x8798 <_ZN4UTFT12LCD_Writ_BusEcch+0x13a>
    8794:	80 95       	com	r24
    8796:	89 23       	and	r24, r25
    8798:	8c 93       	st	X, r24
    879a:	a2 8d       	ldd	r26, Z+26	; 0x1a
    879c:	b3 8d       	ldd	r27, Z+27	; 0x1b
    879e:	9c 91       	ld	r25, X
    87a0:	83 a1       	ldd	r24, Z+35	; 0x23
    87a2:	80 95       	com	r24
    87a4:	89 23       	and	r24, r25
    87a6:	8c 93       	st	X, r24
    87a8:	a2 8d       	ldd	r26, Z+26	; 0x1a
    87aa:	b3 8d       	ldd	r27, Z+27	; 0x1b
    87ac:	9c 91       	ld	r25, X
    87ae:	83 a1       	ldd	r24, Z+35	; 0x23
    87b0:	89 2b       	or	r24, r25
    87b2:	8c 93       	st	X, r24
    87b4:	a0 8d       	ldd	r26, Z+24	; 0x18
    87b6:	b1 8d       	ldd	r27, Z+25	; 0x19
    87b8:	82 a1       	ldd	r24, Z+34	; 0x22
    87ba:	9c 91       	ld	r25, X
    87bc:	42 ff       	sbrs	r20, 2
    87be:	02 c0       	rjmp	.+4      	; 0x87c4 <_ZN4UTFT12LCD_Writ_BusEcch+0x166>
    87c0:	89 2b       	or	r24, r25
    87c2:	02 c0       	rjmp	.+4      	; 0x87c8 <_ZN4UTFT12LCD_Writ_BusEcch+0x16a>
    87c4:	80 95       	com	r24
    87c6:	89 23       	and	r24, r25
    87c8:	8c 93       	st	X, r24
    87ca:	a2 8d       	ldd	r26, Z+26	; 0x1a
    87cc:	b3 8d       	ldd	r27, Z+27	; 0x1b
    87ce:	9c 91       	ld	r25, X
    87d0:	83 a1       	ldd	r24, Z+35	; 0x23
    87d2:	80 95       	com	r24
    87d4:	89 23       	and	r24, r25
    87d6:	8c 93       	st	X, r24
    87d8:	a2 8d       	ldd	r26, Z+26	; 0x1a
    87da:	b3 8d       	ldd	r27, Z+27	; 0x1b
    87dc:	9c 91       	ld	r25, X
    87de:	83 a1       	ldd	r24, Z+35	; 0x23
    87e0:	89 2b       	or	r24, r25
    87e2:	8c 93       	st	X, r24
    87e4:	a0 8d       	ldd	r26, Z+24	; 0x18
    87e6:	b1 8d       	ldd	r27, Z+25	; 0x19
    87e8:	82 a1       	ldd	r24, Z+34	; 0x22
    87ea:	9c 91       	ld	r25, X
    87ec:	41 ff       	sbrs	r20, 1
    87ee:	02 c0       	rjmp	.+4      	; 0x87f4 <_ZN4UTFT12LCD_Writ_BusEcch+0x196>
    87f0:	89 2b       	or	r24, r25
    87f2:	02 c0       	rjmp	.+4      	; 0x87f8 <_ZN4UTFT12LCD_Writ_BusEcch+0x19a>
    87f4:	80 95       	com	r24
    87f6:	89 23       	and	r24, r25
    87f8:	8c 93       	st	X, r24
    87fa:	a2 8d       	ldd	r26, Z+26	; 0x1a
    87fc:	b3 8d       	ldd	r27, Z+27	; 0x1b
    87fe:	9c 91       	ld	r25, X
    8800:	83 a1       	ldd	r24, Z+35	; 0x23
    8802:	80 95       	com	r24
    8804:	89 23       	and	r24, r25
    8806:	8c 93       	st	X, r24
    8808:	a2 8d       	ldd	r26, Z+26	; 0x1a
    880a:	b3 8d       	ldd	r27, Z+27	; 0x1b
    880c:	9c 91       	ld	r25, X
    880e:	83 a1       	ldd	r24, Z+35	; 0x23
    8810:	89 2b       	or	r24, r25
    8812:	8c 93       	st	X, r24
    8814:	a0 8d       	ldd	r26, Z+24	; 0x18
    8816:	b1 8d       	ldd	r27, Z+25	; 0x19
    8818:	82 a1       	ldd	r24, Z+34	; 0x22
    881a:	9c 91       	ld	r25, X
    881c:	40 ff       	sbrs	r20, 0
    881e:	02 c0       	rjmp	.+4      	; 0x8824 <_ZN4UTFT12LCD_Writ_BusEcch+0x1c6>
    8820:	89 2b       	or	r24, r25
    8822:	02 c0       	rjmp	.+4      	; 0x8828 <_ZN4UTFT12LCD_Writ_BusEcch+0x1ca>
    8824:	80 95       	com	r24
    8826:	89 23       	and	r24, r25
    8828:	8c 93       	st	X, r24
    882a:	a2 8d       	ldd	r26, Z+26	; 0x1a
    882c:	b3 8d       	ldd	r27, Z+27	; 0x1b
    882e:	9c 91       	ld	r25, X
    8830:	83 a1       	ldd	r24, Z+35	; 0x23
    8832:	80 95       	com	r24
    8834:	89 23       	and	r24, r25
    8836:	8c 93       	st	X, r24
    8838:	a2 8d       	ldd	r26, Z+26	; 0x1a
    883a:	b3 8d       	ldd	r27, Z+27	; 0x1b
    883c:	9c 91       	ld	r25, X
    883e:	83 a1       	ldd	r24, Z+35	; 0x23
    8840:	a2 c0       	rjmp	.+324    	; 0x8986 <_ZN4UTFT12LCD_Writ_BusEcch+0x328>
    8842:	62 b9       	out	0x02, r22	; 2
    8844:	a2 89       	ldd	r26, Z+18	; 0x12
    8846:	b3 89       	ldd	r27, Z+19	; 0x13
    8848:	9c 91       	ld	r25, X
    884a:	87 8d       	ldd	r24, Z+31	; 0x1f
    884c:	80 95       	com	r24
    884e:	89 23       	and	r24, r25
    8850:	8c 93       	st	X, r24
    8852:	a2 89       	ldd	r26, Z+18	; 0x12
    8854:	b3 89       	ldd	r27, Z+19	; 0x13
    8856:	9c 91       	ld	r25, X
    8858:	87 8d       	ldd	r24, Z+31	; 0x1f
    885a:	89 2b       	or	r24, r25
    885c:	8c 93       	st	X, r24
    885e:	42 b9       	out	0x02, r20	; 2
    8860:	02 c0       	rjmp	.+4      	; 0x8866 <_ZN4UTFT12LCD_Writ_BusEcch+0x208>
    8862:	62 b9       	out	0x02, r22	; 2
    8864:	48 b9       	out	0x08, r20	; 8
    8866:	a2 89       	ldd	r26, Z+18	; 0x12
    8868:	b3 89       	ldd	r27, Z+19	; 0x13
    886a:	9c 91       	ld	r25, X
    886c:	87 8d       	ldd	r24, Z+31	; 0x1f
    886e:	80 95       	com	r24
    8870:	89 23       	and	r24, r25
    8872:	8c 93       	st	X, r24
    8874:	a2 89       	ldd	r26, Z+18	; 0x12
    8876:	b3 89       	ldd	r27, Z+19	; 0x13
    8878:	9c 91       	ld	r25, X
    887a:	87 8d       	ldd	r24, Z+31	; 0x1f
    887c:	84 c0       	rjmp	.+264    	; 0x8986 <_ZN4UTFT12LCD_Writ_BusEcch+0x328>
    887e:	a5 98       	cbi	0x14, 5	; 20
    8880:	94 b3       	in	r25, 0x14	; 20
    8882:	86 2f       	mov	r24, r22
    8884:	80 71       	andi	r24, 0x10	; 16
    8886:	88 0f       	add	r24, r24
    8888:	89 2b       	or	r24, r25
    888a:	84 bb       	out	0x14, r24	; 20
    888c:	80 91 02 01 	lds	r24, 0x0102	; 0x800102 <__TEXT_REGION_LENGTH__+0x700102>
    8890:	87 7e       	andi	r24, 0xE7	; 231
    8892:	80 93 02 01 	sts	0x0102, r24	; 0x800102 <__TEXT_REGION_LENGTH__+0x700102>
    8896:	90 91 02 01 	lds	r25, 0x0102	; 0x800102 <__TEXT_REGION_LENGTH__+0x700102>
    889a:	86 2f       	mov	r24, r22
    889c:	80 7c       	andi	r24, 0xC0	; 192
    889e:	86 95       	lsr	r24
    88a0:	86 95       	lsr	r24
    88a2:	86 95       	lsr	r24
    88a4:	89 2b       	or	r24, r25
    88a6:	80 93 02 01 	sts	0x0102, r24	; 0x800102 <__TEXT_REGION_LENGTH__+0x700102>
    88aa:	8e b1       	in	r24, 0x0e	; 14
    88ac:	84 7c       	andi	r24, 0xC4	; 196
    88ae:	8e b9       	out	0x0e, r24	; 14
    88b0:	9e b1       	in	r25, 0x0e	; 14
    88b2:	26 2f       	mov	r18, r22
    88b4:	2c 70       	andi	r18, 0x0C	; 12
    88b6:	22 0f       	add	r18, r18
    88b8:	22 0f       	add	r18, r18
    88ba:	86 2f       	mov	r24, r22
    88bc:	83 70       	andi	r24, 0x03	; 3
    88be:	28 0f       	add	r18, r24
    88c0:	86 2f       	mov	r24, r22
    88c2:	80 72       	andi	r24, 0x20	; 32
    88c4:	68 2f       	mov	r22, r24
    88c6:	70 e0       	ldi	r23, 0x00	; 0
    88c8:	75 95       	asr	r23
    88ca:	67 95       	ror	r22
    88cc:	75 95       	asr	r23
    88ce:	67 95       	ror	r22
    88d0:	62 0f       	add	r22, r18
    88d2:	69 2b       	or	r22, r25
    88d4:	6e b9       	out	0x0e, r22	; 14
    88d6:	a4 8d       	ldd	r26, Z+28	; 0x1c
    88d8:	b5 8d       	ldd	r27, Z+29	; 0x1d
    88da:	9c 91       	ld	r25, X
    88dc:	84 a1       	ldd	r24, Z+36	; 0x24
    88de:	80 95       	com	r24
    88e0:	89 23       	and	r24, r25
    88e2:	8c 93       	st	X, r24
    88e4:	a4 8d       	ldd	r26, Z+28	; 0x1c
    88e6:	b5 8d       	ldd	r27, Z+29	; 0x1d
    88e8:	9c 91       	ld	r25, X
    88ea:	84 a1       	ldd	r24, Z+36	; 0x24
    88ec:	89 2b       	or	r24, r25
    88ee:	8c 93       	st	X, r24
    88f0:	a4 8d       	ldd	r26, Z+28	; 0x1c
    88f2:	b5 8d       	ldd	r27, Z+29	; 0x1d
    88f4:	9c 91       	ld	r25, X
    88f6:	84 a1       	ldd	r24, Z+36	; 0x24
    88f8:	80 95       	com	r24
    88fa:	89 23       	and	r24, r25
    88fc:	8c 93       	st	X, r24
    88fe:	a4 89       	ldd	r26, Z+20	; 0x14
    8900:	b5 89       	ldd	r27, Z+21	; 0x15
    8902:	9c 91       	ld	r25, X
    8904:	80 a1       	ldd	r24, Z+32	; 0x20
    8906:	80 95       	com	r24
    8908:	89 23       	and	r24, r25
    890a:	8c 93       	st	X, r24
    890c:	a5 98       	cbi	0x14, 5	; 20
    890e:	94 b3       	in	r25, 0x14	; 20
    8910:	84 2f       	mov	r24, r20
    8912:	80 71       	andi	r24, 0x10	; 16
    8914:	88 0f       	add	r24, r24
    8916:	89 2b       	or	r24, r25
    8918:	84 bb       	out	0x14, r24	; 20
    891a:	80 91 02 01 	lds	r24, 0x0102	; 0x800102 <__TEXT_REGION_LENGTH__+0x700102>
    891e:	87 7e       	andi	r24, 0xE7	; 231
    8920:	80 93 02 01 	sts	0x0102, r24	; 0x800102 <__TEXT_REGION_LENGTH__+0x700102>
    8924:	90 91 02 01 	lds	r25, 0x0102	; 0x800102 <__TEXT_REGION_LENGTH__+0x700102>
    8928:	84 2f       	mov	r24, r20
    892a:	80 7c       	andi	r24, 0xC0	; 192
    892c:	86 95       	lsr	r24
    892e:	86 95       	lsr	r24
    8930:	86 95       	lsr	r24
    8932:	89 2b       	or	r24, r25
    8934:	80 93 02 01 	sts	0x0102, r24	; 0x800102 <__TEXT_REGION_LENGTH__+0x700102>
    8938:	8e b1       	in	r24, 0x0e	; 14
    893a:	84 7c       	andi	r24, 0xC4	; 196
    893c:	8e b9       	out	0x0e, r24	; 14
    893e:	9e b1       	in	r25, 0x0e	; 14
    8940:	24 2f       	mov	r18, r20
    8942:	2c 70       	andi	r18, 0x0C	; 12
    8944:	22 0f       	add	r18, r18
    8946:	22 0f       	add	r18, r18
    8948:	84 2f       	mov	r24, r20
    894a:	83 70       	andi	r24, 0x03	; 3
    894c:	28 0f       	add	r18, r24
    894e:	84 2f       	mov	r24, r20
    8950:	80 72       	andi	r24, 0x20	; 32
    8952:	48 2f       	mov	r20, r24
    8954:	50 e0       	ldi	r21, 0x00	; 0
    8956:	55 95       	asr	r21
    8958:	47 95       	ror	r20
    895a:	55 95       	asr	r21
    895c:	47 95       	ror	r20
    895e:	42 0f       	add	r20, r18
    8960:	49 2b       	or	r20, r25
    8962:	4e b9       	out	0x0e, r20	; 14
    8964:	a2 89       	ldd	r26, Z+18	; 0x12
    8966:	b3 89       	ldd	r27, Z+19	; 0x13
    8968:	9c 91       	ld	r25, X
    896a:	87 8d       	ldd	r24, Z+31	; 0x1f
    896c:	80 95       	com	r24
    896e:	89 23       	and	r24, r25
    8970:	8c 93       	st	X, r24
    8972:	a2 89       	ldd	r26, Z+18	; 0x12
    8974:	b3 89       	ldd	r27, Z+19	; 0x13
    8976:	9c 91       	ld	r25, X
    8978:	87 8d       	ldd	r24, Z+31	; 0x1f
    897a:	89 2b       	or	r24, r25
    897c:	8c 93       	st	X, r24
    897e:	a4 89       	ldd	r26, Z+20	; 0x14
    8980:	b5 89       	ldd	r27, Z+21	; 0x15
    8982:	9c 91       	ld	r25, X
    8984:	80 a1       	ldd	r24, Z+32	; 0x20
    8986:	89 2b       	or	r24, r25
    8988:	8c 93       	st	X, r24
    898a:	08 95       	ret

0000898c <_ZN4UTFT24_set_direction_registersEh>:
    898c:	61 31       	cpi	r22, 0x11	; 17
    898e:	31 f0       	breq	.+12     	; 0x899c <_ZN4UTFT24_set_direction_registersEh+0x10>
    8990:	8f ef       	ldi	r24, 0xFF	; 255
    8992:	81 b9       	out	0x01, r24	; 1
    8994:	60 31       	cpi	r22, 0x10	; 16
    8996:	49 f4       	brne	.+18     	; 0x89aa <_ZN4UTFT24_set_direction_registersEh+0x1e>
    8998:	87 b9       	out	0x07, r24	; 7
    899a:	08 95       	ret
    899c:	88 e1       	ldi	r24, 0x18	; 24
    899e:	80 93 01 01 	sts	0x0101, r24	; 0x800101 <__TEXT_REGION_LENGTH__+0x700101>
    89a2:	80 e2       	ldi	r24, 0x20	; 32
    89a4:	83 bb       	out	0x13, r24	; 19
    89a6:	8b e3       	ldi	r24, 0x3B	; 59
    89a8:	8d b9       	out	0x0d, r24	; 13
    89aa:	08 95       	ret

000089ac <_ZN4UTFT13_fast_fill_16Eiil>:
    89ac:	8f 92       	push	r8
    89ae:	9f 92       	push	r9
    89b0:	af 92       	push	r10
    89b2:	bf 92       	push	r11
    89b4:	cf 92       	push	r12
    89b6:	df 92       	push	r13
    89b8:	ef 92       	push	r14
    89ba:	ff 92       	push	r15
    89bc:	0f 93       	push	r16
    89be:	1f 93       	push	r17
    89c0:	cf 93       	push	r28
    89c2:	df 93       	push	r29
    89c4:	ec 01       	movw	r28, r24
    89c6:	68 01       	movw	r12, r16
    89c8:	79 01       	movw	r14, r18
    89ca:	62 b9       	out	0x02, r22	; 2
    89cc:	48 b9       	out	0x08, r20	; 8
    89ce:	c9 01       	movw	r24, r18
    89d0:	b8 01       	movw	r22, r16
    89d2:	20 e1       	ldi	r18, 0x10	; 16
    89d4:	30 e0       	ldi	r19, 0x00	; 0
    89d6:	40 e0       	ldi	r20, 0x00	; 0
    89d8:	50 e0       	ldi	r21, 0x00	; 0
    89da:	0e 94 f7 59 	call	0xb3ee	; 0xb3ee <__divmodsi4>
    89de:	49 01       	movw	r8, r18
    89e0:	5a 01       	movw	r10, r20
    89e2:	80 e0       	ldi	r24, 0x00	; 0
    89e4:	90 e0       	ldi	r25, 0x00	; 0
    89e6:	dc 01       	movw	r26, r24
    89e8:	88 15       	cp	r24, r8
    89ea:	99 05       	cpc	r25, r9
    89ec:	aa 05       	cpc	r26, r10
    89ee:	bb 05       	cpc	r27, r11
    89f0:	0c f0       	brlt	.+2      	; 0x89f4 <_ZN4UTFT13_fast_fill_16Eiil+0x48>
    89f2:	d4 c0       	rjmp	.+424    	; 0x8b9c <_ZN4UTFT13_fast_fill_16Eiil+0x1f0>
    89f4:	ea 89       	ldd	r30, Y+18	; 0x12
    89f6:	fb 89       	ldd	r31, Y+19	; 0x13
    89f8:	30 81       	ld	r19, Z
    89fa:	2f 8d       	ldd	r18, Y+31	; 0x1f
    89fc:	20 95       	com	r18
    89fe:	23 23       	and	r18, r19
    8a00:	20 83       	st	Z, r18
    8a02:	ea 89       	ldd	r30, Y+18	; 0x12
    8a04:	fb 89       	ldd	r31, Y+19	; 0x13
    8a06:	30 81       	ld	r19, Z
    8a08:	2f 8d       	ldd	r18, Y+31	; 0x1f
    8a0a:	23 2b       	or	r18, r19
    8a0c:	20 83       	st	Z, r18
    8a0e:	ea 89       	ldd	r30, Y+18	; 0x12
    8a10:	fb 89       	ldd	r31, Y+19	; 0x13
    8a12:	30 81       	ld	r19, Z
    8a14:	2f 8d       	ldd	r18, Y+31	; 0x1f
    8a16:	20 95       	com	r18
    8a18:	23 23       	and	r18, r19
    8a1a:	20 83       	st	Z, r18
    8a1c:	ea 89       	ldd	r30, Y+18	; 0x12
    8a1e:	fb 89       	ldd	r31, Y+19	; 0x13
    8a20:	30 81       	ld	r19, Z
    8a22:	2f 8d       	ldd	r18, Y+31	; 0x1f
    8a24:	23 2b       	or	r18, r19
    8a26:	20 83       	st	Z, r18
    8a28:	ea 89       	ldd	r30, Y+18	; 0x12
    8a2a:	fb 89       	ldd	r31, Y+19	; 0x13
    8a2c:	30 81       	ld	r19, Z
    8a2e:	2f 8d       	ldd	r18, Y+31	; 0x1f
    8a30:	20 95       	com	r18
    8a32:	23 23       	and	r18, r19
    8a34:	20 83       	st	Z, r18
    8a36:	ea 89       	ldd	r30, Y+18	; 0x12
    8a38:	fb 89       	ldd	r31, Y+19	; 0x13
    8a3a:	30 81       	ld	r19, Z
    8a3c:	2f 8d       	ldd	r18, Y+31	; 0x1f
    8a3e:	23 2b       	or	r18, r19
    8a40:	20 83       	st	Z, r18
    8a42:	ea 89       	ldd	r30, Y+18	; 0x12
    8a44:	fb 89       	ldd	r31, Y+19	; 0x13
    8a46:	30 81       	ld	r19, Z
    8a48:	2f 8d       	ldd	r18, Y+31	; 0x1f
    8a4a:	20 95       	com	r18
    8a4c:	23 23       	and	r18, r19
    8a4e:	20 83       	st	Z, r18
    8a50:	ea 89       	ldd	r30, Y+18	; 0x12
    8a52:	fb 89       	ldd	r31, Y+19	; 0x13
    8a54:	30 81       	ld	r19, Z
    8a56:	2f 8d       	ldd	r18, Y+31	; 0x1f
    8a58:	23 2b       	or	r18, r19
    8a5a:	20 83       	st	Z, r18
    8a5c:	ea 89       	ldd	r30, Y+18	; 0x12
    8a5e:	fb 89       	ldd	r31, Y+19	; 0x13
    8a60:	30 81       	ld	r19, Z
    8a62:	2f 8d       	ldd	r18, Y+31	; 0x1f
    8a64:	20 95       	com	r18
    8a66:	23 23       	and	r18, r19
    8a68:	20 83       	st	Z, r18
    8a6a:	ea 89       	ldd	r30, Y+18	; 0x12
    8a6c:	fb 89       	ldd	r31, Y+19	; 0x13
    8a6e:	30 81       	ld	r19, Z
    8a70:	2f 8d       	ldd	r18, Y+31	; 0x1f
    8a72:	23 2b       	or	r18, r19
    8a74:	20 83       	st	Z, r18
    8a76:	ea 89       	ldd	r30, Y+18	; 0x12
    8a78:	fb 89       	ldd	r31, Y+19	; 0x13
    8a7a:	30 81       	ld	r19, Z
    8a7c:	2f 8d       	ldd	r18, Y+31	; 0x1f
    8a7e:	20 95       	com	r18
    8a80:	23 23       	and	r18, r19
    8a82:	20 83       	st	Z, r18
    8a84:	ea 89       	ldd	r30, Y+18	; 0x12
    8a86:	fb 89       	ldd	r31, Y+19	; 0x13
    8a88:	30 81       	ld	r19, Z
    8a8a:	2f 8d       	ldd	r18, Y+31	; 0x1f
    8a8c:	23 2b       	or	r18, r19
    8a8e:	20 83       	st	Z, r18
    8a90:	ea 89       	ldd	r30, Y+18	; 0x12
    8a92:	fb 89       	ldd	r31, Y+19	; 0x13
    8a94:	30 81       	ld	r19, Z
    8a96:	2f 8d       	ldd	r18, Y+31	; 0x1f
    8a98:	20 95       	com	r18
    8a9a:	23 23       	and	r18, r19
    8a9c:	20 83       	st	Z, r18
    8a9e:	ea 89       	ldd	r30, Y+18	; 0x12
    8aa0:	fb 89       	ldd	r31, Y+19	; 0x13
    8aa2:	30 81       	ld	r19, Z
    8aa4:	2f 8d       	ldd	r18, Y+31	; 0x1f
    8aa6:	23 2b       	or	r18, r19
    8aa8:	20 83       	st	Z, r18
    8aaa:	ea 89       	ldd	r30, Y+18	; 0x12
    8aac:	fb 89       	ldd	r31, Y+19	; 0x13
    8aae:	30 81       	ld	r19, Z
    8ab0:	2f 8d       	ldd	r18, Y+31	; 0x1f
    8ab2:	20 95       	com	r18
    8ab4:	23 23       	and	r18, r19
    8ab6:	20 83       	st	Z, r18
    8ab8:	ea 89       	ldd	r30, Y+18	; 0x12
    8aba:	fb 89       	ldd	r31, Y+19	; 0x13
    8abc:	30 81       	ld	r19, Z
    8abe:	2f 8d       	ldd	r18, Y+31	; 0x1f
    8ac0:	23 2b       	or	r18, r19
    8ac2:	20 83       	st	Z, r18
    8ac4:	ea 89       	ldd	r30, Y+18	; 0x12
    8ac6:	fb 89       	ldd	r31, Y+19	; 0x13
    8ac8:	30 81       	ld	r19, Z
    8aca:	2f 8d       	ldd	r18, Y+31	; 0x1f
    8acc:	20 95       	com	r18
    8ace:	23 23       	and	r18, r19
    8ad0:	20 83       	st	Z, r18
    8ad2:	ea 89       	ldd	r30, Y+18	; 0x12
    8ad4:	fb 89       	ldd	r31, Y+19	; 0x13
    8ad6:	30 81       	ld	r19, Z
    8ad8:	2f 8d       	ldd	r18, Y+31	; 0x1f
    8ada:	23 2b       	or	r18, r19
    8adc:	20 83       	st	Z, r18
    8ade:	ea 89       	ldd	r30, Y+18	; 0x12
    8ae0:	fb 89       	ldd	r31, Y+19	; 0x13
    8ae2:	30 81       	ld	r19, Z
    8ae4:	2f 8d       	ldd	r18, Y+31	; 0x1f
    8ae6:	20 95       	com	r18
    8ae8:	23 23       	and	r18, r19
    8aea:	20 83       	st	Z, r18
    8aec:	ea 89       	ldd	r30, Y+18	; 0x12
    8aee:	fb 89       	ldd	r31, Y+19	; 0x13
    8af0:	30 81       	ld	r19, Z
    8af2:	2f 8d       	ldd	r18, Y+31	; 0x1f
    8af4:	23 2b       	or	r18, r19
    8af6:	20 83       	st	Z, r18
    8af8:	ea 89       	ldd	r30, Y+18	; 0x12
    8afa:	fb 89       	ldd	r31, Y+19	; 0x13
    8afc:	30 81       	ld	r19, Z
    8afe:	2f 8d       	ldd	r18, Y+31	; 0x1f
    8b00:	20 95       	com	r18
    8b02:	23 23       	and	r18, r19
    8b04:	20 83       	st	Z, r18
    8b06:	ea 89       	ldd	r30, Y+18	; 0x12
    8b08:	fb 89       	ldd	r31, Y+19	; 0x13
    8b0a:	30 81       	ld	r19, Z
    8b0c:	2f 8d       	ldd	r18, Y+31	; 0x1f
    8b0e:	23 2b       	or	r18, r19
    8b10:	20 83       	st	Z, r18
    8b12:	ea 89       	ldd	r30, Y+18	; 0x12
    8b14:	fb 89       	ldd	r31, Y+19	; 0x13
    8b16:	30 81       	ld	r19, Z
    8b18:	2f 8d       	ldd	r18, Y+31	; 0x1f
    8b1a:	20 95       	com	r18
    8b1c:	23 23       	and	r18, r19
    8b1e:	20 83       	st	Z, r18
    8b20:	ea 89       	ldd	r30, Y+18	; 0x12
    8b22:	fb 89       	ldd	r31, Y+19	; 0x13
    8b24:	30 81       	ld	r19, Z
    8b26:	2f 8d       	ldd	r18, Y+31	; 0x1f
    8b28:	23 2b       	or	r18, r19
    8b2a:	20 83       	st	Z, r18
    8b2c:	ea 89       	ldd	r30, Y+18	; 0x12
    8b2e:	fb 89       	ldd	r31, Y+19	; 0x13
    8b30:	30 81       	ld	r19, Z
    8b32:	2f 8d       	ldd	r18, Y+31	; 0x1f
    8b34:	20 95       	com	r18
    8b36:	23 23       	and	r18, r19
    8b38:	20 83       	st	Z, r18
    8b3a:	ea 89       	ldd	r30, Y+18	; 0x12
    8b3c:	fb 89       	ldd	r31, Y+19	; 0x13
    8b3e:	30 81       	ld	r19, Z
    8b40:	2f 8d       	ldd	r18, Y+31	; 0x1f
    8b42:	23 2b       	or	r18, r19
    8b44:	20 83       	st	Z, r18
    8b46:	ea 89       	ldd	r30, Y+18	; 0x12
    8b48:	fb 89       	ldd	r31, Y+19	; 0x13
    8b4a:	30 81       	ld	r19, Z
    8b4c:	2f 8d       	ldd	r18, Y+31	; 0x1f
    8b4e:	20 95       	com	r18
    8b50:	23 23       	and	r18, r19
    8b52:	20 83       	st	Z, r18
    8b54:	ea 89       	ldd	r30, Y+18	; 0x12
    8b56:	fb 89       	ldd	r31, Y+19	; 0x13
    8b58:	30 81       	ld	r19, Z
    8b5a:	2f 8d       	ldd	r18, Y+31	; 0x1f
    8b5c:	23 2b       	or	r18, r19
    8b5e:	20 83       	st	Z, r18
    8b60:	ea 89       	ldd	r30, Y+18	; 0x12
    8b62:	fb 89       	ldd	r31, Y+19	; 0x13
    8b64:	30 81       	ld	r19, Z
    8b66:	2f 8d       	ldd	r18, Y+31	; 0x1f
    8b68:	20 95       	com	r18
    8b6a:	23 23       	and	r18, r19
    8b6c:	20 83       	st	Z, r18
    8b6e:	ea 89       	ldd	r30, Y+18	; 0x12
    8b70:	fb 89       	ldd	r31, Y+19	; 0x13
    8b72:	30 81       	ld	r19, Z
    8b74:	2f 8d       	ldd	r18, Y+31	; 0x1f
    8b76:	23 2b       	or	r18, r19
    8b78:	20 83       	st	Z, r18
    8b7a:	ea 89       	ldd	r30, Y+18	; 0x12
    8b7c:	fb 89       	ldd	r31, Y+19	; 0x13
    8b7e:	40 81       	ld	r20, Z
    8b80:	3f 8d       	ldd	r19, Y+31	; 0x1f
    8b82:	30 95       	com	r19
    8b84:	34 23       	and	r19, r20
    8b86:	30 83       	st	Z, r19
    8b88:	ea 89       	ldd	r30, Y+18	; 0x12
    8b8a:	fb 89       	ldd	r31, Y+19	; 0x13
    8b8c:	20 81       	ld	r18, Z
    8b8e:	3f 8d       	ldd	r19, Y+31	; 0x1f
    8b90:	32 2b       	or	r19, r18
    8b92:	30 83       	st	Z, r19
    8b94:	01 96       	adiw	r24, 0x01	; 1
    8b96:	a1 1d       	adc	r26, r1
    8b98:	b1 1d       	adc	r27, r1
    8b9a:	26 cf       	rjmp	.-436    	; 0x89e8 <_ZN4UTFT13_fast_fill_16Eiil+0x3c>
    8b9c:	d7 01       	movw	r26, r14
    8b9e:	c6 01       	movw	r24, r12
    8ba0:	8f 70       	andi	r24, 0x0F	; 15
    8ba2:	99 27       	eor	r25, r25
    8ba4:	aa 27       	eor	r26, r26
    8ba6:	bb 27       	eor	r27, r27
    8ba8:	89 2b       	or	r24, r25
    8baa:	8a 2b       	or	r24, r26
    8bac:	8b 2b       	or	r24, r27
    8bae:	19 f1       	breq	.+70     	; 0x8bf6 <_ZN4UTFT13_fast_fill_16Eiil+0x24a>
    8bb0:	c7 01       	movw	r24, r14
    8bb2:	b6 01       	movw	r22, r12
    8bb4:	20 e1       	ldi	r18, 0x10	; 16
    8bb6:	30 e0       	ldi	r19, 0x00	; 0
    8bb8:	40 e0       	ldi	r20, 0x00	; 0
    8bba:	50 e0       	ldi	r21, 0x00	; 0
    8bbc:	0e 94 f7 59 	call	0xb3ee	; 0xb3ee <__divmodsi4>
    8bc0:	c1 2c       	mov	r12, r1
    8bc2:	d1 2c       	mov	r13, r1
    8bc4:	76 01       	movw	r14, r12
    8bc6:	6c 15       	cp	r22, r12
    8bc8:	7d 05       	cpc	r23, r13
    8bca:	8e 05       	cpc	r24, r14
    8bcc:	9f 05       	cpc	r25, r15
    8bce:	9c f0       	brlt	.+38     	; 0x8bf6 <_ZN4UTFT13_fast_fill_16Eiil+0x24a>
    8bd0:	ea 89       	ldd	r30, Y+18	; 0x12
    8bd2:	fb 89       	ldd	r31, Y+19	; 0x13
    8bd4:	30 81       	ld	r19, Z
    8bd6:	2f 8d       	ldd	r18, Y+31	; 0x1f
    8bd8:	20 95       	com	r18
    8bda:	23 23       	and	r18, r19
    8bdc:	20 83       	st	Z, r18
    8bde:	ea 89       	ldd	r30, Y+18	; 0x12
    8be0:	fb 89       	ldd	r31, Y+19	; 0x13
    8be2:	30 81       	ld	r19, Z
    8be4:	2f 8d       	ldd	r18, Y+31	; 0x1f
    8be6:	23 2b       	or	r18, r19
    8be8:	20 83       	st	Z, r18
    8bea:	2f ef       	ldi	r18, 0xFF	; 255
    8bec:	c2 1a       	sub	r12, r18
    8bee:	d2 0a       	sbc	r13, r18
    8bf0:	e2 0a       	sbc	r14, r18
    8bf2:	f2 0a       	sbc	r15, r18
    8bf4:	e8 cf       	rjmp	.-48     	; 0x8bc6 <_ZN4UTFT13_fast_fill_16Eiil+0x21a>
    8bf6:	df 91       	pop	r29
    8bf8:	cf 91       	pop	r28
    8bfa:	1f 91       	pop	r17
    8bfc:	0f 91       	pop	r16
    8bfe:	ff 90       	pop	r15
    8c00:	ef 90       	pop	r14
    8c02:	df 90       	pop	r13
    8c04:	cf 90       	pop	r12
    8c06:	bf 90       	pop	r11
    8c08:	af 90       	pop	r10
    8c0a:	9f 90       	pop	r9
    8c0c:	8f 90       	pop	r8
    8c0e:	08 95       	ret

00008c10 <_ZN4UTFT12_fast_fill_8Eil>:
    8c10:	8f 92       	push	r8
    8c12:	9f 92       	push	r9
    8c14:	af 92       	push	r10
    8c16:	bf 92       	push	r11
    8c18:	cf 92       	push	r12
    8c1a:	df 92       	push	r13
    8c1c:	ef 92       	push	r14
    8c1e:	ff 92       	push	r15
    8c20:	cf 93       	push	r28
    8c22:	df 93       	push	r29
    8c24:	ec 01       	movw	r28, r24
    8c26:	69 01       	movw	r12, r18
    8c28:	7a 01       	movw	r14, r20
    8c2a:	62 b9       	out	0x02, r22	; 2
    8c2c:	ca 01       	movw	r24, r20
    8c2e:	b9 01       	movw	r22, r18
    8c30:	20 e1       	ldi	r18, 0x10	; 16
    8c32:	30 e0       	ldi	r19, 0x00	; 0
    8c34:	40 e0       	ldi	r20, 0x00	; 0
    8c36:	50 e0       	ldi	r21, 0x00	; 0
    8c38:	0e 94 f7 59 	call	0xb3ee	; 0xb3ee <__divmodsi4>
    8c3c:	49 01       	movw	r8, r18
    8c3e:	5a 01       	movw	r10, r20
    8c40:	80 e0       	ldi	r24, 0x00	; 0
    8c42:	90 e0       	ldi	r25, 0x00	; 0
    8c44:	dc 01       	movw	r26, r24
    8c46:	88 15       	cp	r24, r8
    8c48:	99 05       	cpc	r25, r9
    8c4a:	aa 05       	cpc	r26, r10
    8c4c:	bb 05       	cpc	r27, r11
    8c4e:	0c f0       	brlt	.+2      	; 0x8c52 <_ZN4UTFT12_fast_fill_8Eil+0x42>
    8c50:	a4 c1       	rjmp	.+840    	; 0x8f9a <_ZN4UTFT12_fast_fill_8Eil+0x38a>
    8c52:	ea 89       	ldd	r30, Y+18	; 0x12
    8c54:	fb 89       	ldd	r31, Y+19	; 0x13
    8c56:	30 81       	ld	r19, Z
    8c58:	2f 8d       	ldd	r18, Y+31	; 0x1f
    8c5a:	20 95       	com	r18
    8c5c:	23 23       	and	r18, r19
    8c5e:	20 83       	st	Z, r18
    8c60:	ea 89       	ldd	r30, Y+18	; 0x12
    8c62:	fb 89       	ldd	r31, Y+19	; 0x13
    8c64:	30 81       	ld	r19, Z
    8c66:	2f 8d       	ldd	r18, Y+31	; 0x1f
    8c68:	23 2b       	or	r18, r19
    8c6a:	20 83       	st	Z, r18
    8c6c:	ea 89       	ldd	r30, Y+18	; 0x12
    8c6e:	fb 89       	ldd	r31, Y+19	; 0x13
    8c70:	30 81       	ld	r19, Z
    8c72:	2f 8d       	ldd	r18, Y+31	; 0x1f
    8c74:	20 95       	com	r18
    8c76:	23 23       	and	r18, r19
    8c78:	20 83       	st	Z, r18
    8c7a:	ea 89       	ldd	r30, Y+18	; 0x12
    8c7c:	fb 89       	ldd	r31, Y+19	; 0x13
    8c7e:	30 81       	ld	r19, Z
    8c80:	2f 8d       	ldd	r18, Y+31	; 0x1f
    8c82:	23 2b       	or	r18, r19
    8c84:	20 83       	st	Z, r18
    8c86:	ea 89       	ldd	r30, Y+18	; 0x12
    8c88:	fb 89       	ldd	r31, Y+19	; 0x13
    8c8a:	30 81       	ld	r19, Z
    8c8c:	2f 8d       	ldd	r18, Y+31	; 0x1f
    8c8e:	20 95       	com	r18
    8c90:	23 23       	and	r18, r19
    8c92:	20 83       	st	Z, r18
    8c94:	ea 89       	ldd	r30, Y+18	; 0x12
    8c96:	fb 89       	ldd	r31, Y+19	; 0x13
    8c98:	30 81       	ld	r19, Z
    8c9a:	2f 8d       	ldd	r18, Y+31	; 0x1f
    8c9c:	23 2b       	or	r18, r19
    8c9e:	20 83       	st	Z, r18
    8ca0:	ea 89       	ldd	r30, Y+18	; 0x12
    8ca2:	fb 89       	ldd	r31, Y+19	; 0x13
    8ca4:	30 81       	ld	r19, Z
    8ca6:	2f 8d       	ldd	r18, Y+31	; 0x1f
    8ca8:	20 95       	com	r18
    8caa:	23 23       	and	r18, r19
    8cac:	20 83       	st	Z, r18
    8cae:	ea 89       	ldd	r30, Y+18	; 0x12
    8cb0:	fb 89       	ldd	r31, Y+19	; 0x13
    8cb2:	30 81       	ld	r19, Z
    8cb4:	2f 8d       	ldd	r18, Y+31	; 0x1f
    8cb6:	23 2b       	or	r18, r19
    8cb8:	20 83       	st	Z, r18
    8cba:	ea 89       	ldd	r30, Y+18	; 0x12
    8cbc:	fb 89       	ldd	r31, Y+19	; 0x13
    8cbe:	30 81       	ld	r19, Z
    8cc0:	2f 8d       	ldd	r18, Y+31	; 0x1f
    8cc2:	20 95       	com	r18
    8cc4:	23 23       	and	r18, r19
    8cc6:	20 83       	st	Z, r18
    8cc8:	ea 89       	ldd	r30, Y+18	; 0x12
    8cca:	fb 89       	ldd	r31, Y+19	; 0x13
    8ccc:	30 81       	ld	r19, Z
    8cce:	2f 8d       	ldd	r18, Y+31	; 0x1f
    8cd0:	23 2b       	or	r18, r19
    8cd2:	20 83       	st	Z, r18
    8cd4:	ea 89       	ldd	r30, Y+18	; 0x12
    8cd6:	fb 89       	ldd	r31, Y+19	; 0x13
    8cd8:	30 81       	ld	r19, Z
    8cda:	2f 8d       	ldd	r18, Y+31	; 0x1f
    8cdc:	20 95       	com	r18
    8cde:	23 23       	and	r18, r19
    8ce0:	20 83       	st	Z, r18
    8ce2:	ea 89       	ldd	r30, Y+18	; 0x12
    8ce4:	fb 89       	ldd	r31, Y+19	; 0x13
    8ce6:	30 81       	ld	r19, Z
    8ce8:	2f 8d       	ldd	r18, Y+31	; 0x1f
    8cea:	23 2b       	or	r18, r19
    8cec:	20 83       	st	Z, r18
    8cee:	ea 89       	ldd	r30, Y+18	; 0x12
    8cf0:	fb 89       	ldd	r31, Y+19	; 0x13
    8cf2:	30 81       	ld	r19, Z
    8cf4:	2f 8d       	ldd	r18, Y+31	; 0x1f
    8cf6:	20 95       	com	r18
    8cf8:	23 23       	and	r18, r19
    8cfa:	20 83       	st	Z, r18
    8cfc:	ea 89       	ldd	r30, Y+18	; 0x12
    8cfe:	fb 89       	ldd	r31, Y+19	; 0x13
    8d00:	30 81       	ld	r19, Z
    8d02:	2f 8d       	ldd	r18, Y+31	; 0x1f
    8d04:	23 2b       	or	r18, r19
    8d06:	20 83       	st	Z, r18
    8d08:	ea 89       	ldd	r30, Y+18	; 0x12
    8d0a:	fb 89       	ldd	r31, Y+19	; 0x13
    8d0c:	30 81       	ld	r19, Z
    8d0e:	2f 8d       	ldd	r18, Y+31	; 0x1f
    8d10:	20 95       	com	r18
    8d12:	23 23       	and	r18, r19
    8d14:	20 83       	st	Z, r18
    8d16:	ea 89       	ldd	r30, Y+18	; 0x12
    8d18:	fb 89       	ldd	r31, Y+19	; 0x13
    8d1a:	30 81       	ld	r19, Z
    8d1c:	2f 8d       	ldd	r18, Y+31	; 0x1f
    8d1e:	23 2b       	or	r18, r19
    8d20:	20 83       	st	Z, r18
    8d22:	ea 89       	ldd	r30, Y+18	; 0x12
    8d24:	fb 89       	ldd	r31, Y+19	; 0x13
    8d26:	30 81       	ld	r19, Z
    8d28:	2f 8d       	ldd	r18, Y+31	; 0x1f
    8d2a:	20 95       	com	r18
    8d2c:	23 23       	and	r18, r19
    8d2e:	20 83       	st	Z, r18
    8d30:	ea 89       	ldd	r30, Y+18	; 0x12
    8d32:	fb 89       	ldd	r31, Y+19	; 0x13
    8d34:	30 81       	ld	r19, Z
    8d36:	2f 8d       	ldd	r18, Y+31	; 0x1f
    8d38:	23 2b       	or	r18, r19
    8d3a:	20 83       	st	Z, r18
    8d3c:	ea 89       	ldd	r30, Y+18	; 0x12
    8d3e:	fb 89       	ldd	r31, Y+19	; 0x13
    8d40:	30 81       	ld	r19, Z
    8d42:	2f 8d       	ldd	r18, Y+31	; 0x1f
    8d44:	20 95       	com	r18
    8d46:	23 23       	and	r18, r19
    8d48:	20 83       	st	Z, r18
    8d4a:	ea 89       	ldd	r30, Y+18	; 0x12
    8d4c:	fb 89       	ldd	r31, Y+19	; 0x13
    8d4e:	30 81       	ld	r19, Z
    8d50:	2f 8d       	ldd	r18, Y+31	; 0x1f
    8d52:	23 2b       	or	r18, r19
    8d54:	20 83       	st	Z, r18
    8d56:	ea 89       	ldd	r30, Y+18	; 0x12
    8d58:	fb 89       	ldd	r31, Y+19	; 0x13
    8d5a:	30 81       	ld	r19, Z
    8d5c:	2f 8d       	ldd	r18, Y+31	; 0x1f
    8d5e:	20 95       	com	r18
    8d60:	23 23       	and	r18, r19
    8d62:	20 83       	st	Z, r18
    8d64:	ea 89       	ldd	r30, Y+18	; 0x12
    8d66:	fb 89       	ldd	r31, Y+19	; 0x13
    8d68:	30 81       	ld	r19, Z
    8d6a:	2f 8d       	ldd	r18, Y+31	; 0x1f
    8d6c:	23 2b       	or	r18, r19
    8d6e:	20 83       	st	Z, r18
    8d70:	ea 89       	ldd	r30, Y+18	; 0x12
    8d72:	fb 89       	ldd	r31, Y+19	; 0x13
    8d74:	30 81       	ld	r19, Z
    8d76:	2f 8d       	ldd	r18, Y+31	; 0x1f
    8d78:	20 95       	com	r18
    8d7a:	23 23       	and	r18, r19
    8d7c:	20 83       	st	Z, r18
    8d7e:	ea 89       	ldd	r30, Y+18	; 0x12
    8d80:	fb 89       	ldd	r31, Y+19	; 0x13
    8d82:	30 81       	ld	r19, Z
    8d84:	2f 8d       	ldd	r18, Y+31	; 0x1f
    8d86:	23 2b       	or	r18, r19
    8d88:	20 83       	st	Z, r18
    8d8a:	ea 89       	ldd	r30, Y+18	; 0x12
    8d8c:	fb 89       	ldd	r31, Y+19	; 0x13
    8d8e:	30 81       	ld	r19, Z
    8d90:	2f 8d       	ldd	r18, Y+31	; 0x1f
    8d92:	20 95       	com	r18
    8d94:	23 23       	and	r18, r19
    8d96:	20 83       	st	Z, r18
    8d98:	ea 89       	ldd	r30, Y+18	; 0x12
    8d9a:	fb 89       	ldd	r31, Y+19	; 0x13
    8d9c:	30 81       	ld	r19, Z
    8d9e:	2f 8d       	ldd	r18, Y+31	; 0x1f
    8da0:	23 2b       	or	r18, r19
    8da2:	20 83       	st	Z, r18
    8da4:	ea 89       	ldd	r30, Y+18	; 0x12
    8da6:	fb 89       	ldd	r31, Y+19	; 0x13
    8da8:	30 81       	ld	r19, Z
    8daa:	2f 8d       	ldd	r18, Y+31	; 0x1f
    8dac:	20 95       	com	r18
    8dae:	23 23       	and	r18, r19
    8db0:	20 83       	st	Z, r18
    8db2:	ea 89       	ldd	r30, Y+18	; 0x12
    8db4:	fb 89       	ldd	r31, Y+19	; 0x13
    8db6:	30 81       	ld	r19, Z
    8db8:	2f 8d       	ldd	r18, Y+31	; 0x1f
    8dba:	23 2b       	or	r18, r19
    8dbc:	20 83       	st	Z, r18
    8dbe:	ea 89       	ldd	r30, Y+18	; 0x12
    8dc0:	fb 89       	ldd	r31, Y+19	; 0x13
    8dc2:	30 81       	ld	r19, Z
    8dc4:	2f 8d       	ldd	r18, Y+31	; 0x1f
    8dc6:	20 95       	com	r18
    8dc8:	23 23       	and	r18, r19
    8dca:	20 83       	st	Z, r18
    8dcc:	ea 89       	ldd	r30, Y+18	; 0x12
    8dce:	fb 89       	ldd	r31, Y+19	; 0x13
    8dd0:	30 81       	ld	r19, Z
    8dd2:	2f 8d       	ldd	r18, Y+31	; 0x1f
    8dd4:	23 2b       	or	r18, r19
    8dd6:	20 83       	st	Z, r18
    8dd8:	ea 89       	ldd	r30, Y+18	; 0x12
    8dda:	fb 89       	ldd	r31, Y+19	; 0x13
    8ddc:	30 81       	ld	r19, Z
    8dde:	2f 8d       	ldd	r18, Y+31	; 0x1f
    8de0:	20 95       	com	r18
    8de2:	23 23       	and	r18, r19
    8de4:	20 83       	st	Z, r18
    8de6:	ea 89       	ldd	r30, Y+18	; 0x12
    8de8:	fb 89       	ldd	r31, Y+19	; 0x13
    8dea:	30 81       	ld	r19, Z
    8dec:	2f 8d       	ldd	r18, Y+31	; 0x1f
    8dee:	23 2b       	or	r18, r19
    8df0:	20 83       	st	Z, r18
    8df2:	ea 89       	ldd	r30, Y+18	; 0x12
    8df4:	fb 89       	ldd	r31, Y+19	; 0x13
    8df6:	30 81       	ld	r19, Z
    8df8:	2f 8d       	ldd	r18, Y+31	; 0x1f
    8dfa:	20 95       	com	r18
    8dfc:	23 23       	and	r18, r19
    8dfe:	20 83       	st	Z, r18
    8e00:	ea 89       	ldd	r30, Y+18	; 0x12
    8e02:	fb 89       	ldd	r31, Y+19	; 0x13
    8e04:	30 81       	ld	r19, Z
    8e06:	2f 8d       	ldd	r18, Y+31	; 0x1f
    8e08:	23 2b       	or	r18, r19
    8e0a:	20 83       	st	Z, r18
    8e0c:	ea 89       	ldd	r30, Y+18	; 0x12
    8e0e:	fb 89       	ldd	r31, Y+19	; 0x13
    8e10:	30 81       	ld	r19, Z
    8e12:	2f 8d       	ldd	r18, Y+31	; 0x1f
    8e14:	20 95       	com	r18
    8e16:	23 23       	and	r18, r19
    8e18:	20 83       	st	Z, r18
    8e1a:	ea 89       	ldd	r30, Y+18	; 0x12
    8e1c:	fb 89       	ldd	r31, Y+19	; 0x13
    8e1e:	30 81       	ld	r19, Z
    8e20:	2f 8d       	ldd	r18, Y+31	; 0x1f
    8e22:	23 2b       	or	r18, r19
    8e24:	20 83       	st	Z, r18
    8e26:	ea 89       	ldd	r30, Y+18	; 0x12
    8e28:	fb 89       	ldd	r31, Y+19	; 0x13
    8e2a:	30 81       	ld	r19, Z
    8e2c:	2f 8d       	ldd	r18, Y+31	; 0x1f
    8e2e:	20 95       	com	r18
    8e30:	23 23       	and	r18, r19
    8e32:	20 83       	st	Z, r18
    8e34:	ea 89       	ldd	r30, Y+18	; 0x12
    8e36:	fb 89       	ldd	r31, Y+19	; 0x13
    8e38:	30 81       	ld	r19, Z
    8e3a:	2f 8d       	ldd	r18, Y+31	; 0x1f
    8e3c:	23 2b       	or	r18, r19
    8e3e:	20 83       	st	Z, r18
    8e40:	ea 89       	ldd	r30, Y+18	; 0x12
    8e42:	fb 89       	ldd	r31, Y+19	; 0x13
    8e44:	30 81       	ld	r19, Z
    8e46:	2f 8d       	ldd	r18, Y+31	; 0x1f
    8e48:	20 95       	com	r18
    8e4a:	23 23       	and	r18, r19
    8e4c:	20 83       	st	Z, r18
    8e4e:	ea 89       	ldd	r30, Y+18	; 0x12
    8e50:	fb 89       	ldd	r31, Y+19	; 0x13
    8e52:	30 81       	ld	r19, Z
    8e54:	2f 8d       	ldd	r18, Y+31	; 0x1f
    8e56:	23 2b       	or	r18, r19
    8e58:	20 83       	st	Z, r18
    8e5a:	ea 89       	ldd	r30, Y+18	; 0x12
    8e5c:	fb 89       	ldd	r31, Y+19	; 0x13
    8e5e:	30 81       	ld	r19, Z
    8e60:	2f 8d       	ldd	r18, Y+31	; 0x1f
    8e62:	20 95       	com	r18
    8e64:	23 23       	and	r18, r19
    8e66:	20 83       	st	Z, r18
    8e68:	ea 89       	ldd	r30, Y+18	; 0x12
    8e6a:	fb 89       	ldd	r31, Y+19	; 0x13
    8e6c:	30 81       	ld	r19, Z
    8e6e:	2f 8d       	ldd	r18, Y+31	; 0x1f
    8e70:	23 2b       	or	r18, r19
    8e72:	20 83       	st	Z, r18
    8e74:	ea 89       	ldd	r30, Y+18	; 0x12
    8e76:	fb 89       	ldd	r31, Y+19	; 0x13
    8e78:	30 81       	ld	r19, Z
    8e7a:	2f 8d       	ldd	r18, Y+31	; 0x1f
    8e7c:	20 95       	com	r18
    8e7e:	23 23       	and	r18, r19
    8e80:	20 83       	st	Z, r18
    8e82:	ea 89       	ldd	r30, Y+18	; 0x12
    8e84:	fb 89       	ldd	r31, Y+19	; 0x13
    8e86:	30 81       	ld	r19, Z
    8e88:	2f 8d       	ldd	r18, Y+31	; 0x1f
    8e8a:	23 2b       	or	r18, r19
    8e8c:	20 83       	st	Z, r18
    8e8e:	ea 89       	ldd	r30, Y+18	; 0x12
    8e90:	fb 89       	ldd	r31, Y+19	; 0x13
    8e92:	30 81       	ld	r19, Z
    8e94:	2f 8d       	ldd	r18, Y+31	; 0x1f
    8e96:	20 95       	com	r18
    8e98:	23 23       	and	r18, r19
    8e9a:	20 83       	st	Z, r18
    8e9c:	ea 89       	ldd	r30, Y+18	; 0x12
    8e9e:	fb 89       	ldd	r31, Y+19	; 0x13
    8ea0:	30 81       	ld	r19, Z
    8ea2:	2f 8d       	ldd	r18, Y+31	; 0x1f
    8ea4:	23 2b       	or	r18, r19
    8ea6:	20 83       	st	Z, r18
    8ea8:	ea 89       	ldd	r30, Y+18	; 0x12
    8eaa:	fb 89       	ldd	r31, Y+19	; 0x13
    8eac:	30 81       	ld	r19, Z
    8eae:	2f 8d       	ldd	r18, Y+31	; 0x1f
    8eb0:	20 95       	com	r18
    8eb2:	23 23       	and	r18, r19
    8eb4:	20 83       	st	Z, r18
    8eb6:	ea 89       	ldd	r30, Y+18	; 0x12
    8eb8:	fb 89       	ldd	r31, Y+19	; 0x13
    8eba:	30 81       	ld	r19, Z
    8ebc:	2f 8d       	ldd	r18, Y+31	; 0x1f
    8ebe:	23 2b       	or	r18, r19
    8ec0:	20 83       	st	Z, r18
    8ec2:	ea 89       	ldd	r30, Y+18	; 0x12
    8ec4:	fb 89       	ldd	r31, Y+19	; 0x13
    8ec6:	30 81       	ld	r19, Z
    8ec8:	2f 8d       	ldd	r18, Y+31	; 0x1f
    8eca:	20 95       	com	r18
    8ecc:	23 23       	and	r18, r19
    8ece:	20 83       	st	Z, r18
    8ed0:	ea 89       	ldd	r30, Y+18	; 0x12
    8ed2:	fb 89       	ldd	r31, Y+19	; 0x13
    8ed4:	30 81       	ld	r19, Z
    8ed6:	2f 8d       	ldd	r18, Y+31	; 0x1f
    8ed8:	23 2b       	or	r18, r19
    8eda:	20 83       	st	Z, r18
    8edc:	ea 89       	ldd	r30, Y+18	; 0x12
    8ede:	fb 89       	ldd	r31, Y+19	; 0x13
    8ee0:	30 81       	ld	r19, Z
    8ee2:	2f 8d       	ldd	r18, Y+31	; 0x1f
    8ee4:	20 95       	com	r18
    8ee6:	23 23       	and	r18, r19
    8ee8:	20 83       	st	Z, r18
    8eea:	ea 89       	ldd	r30, Y+18	; 0x12
    8eec:	fb 89       	ldd	r31, Y+19	; 0x13
    8eee:	30 81       	ld	r19, Z
    8ef0:	2f 8d       	ldd	r18, Y+31	; 0x1f
    8ef2:	23 2b       	or	r18, r19
    8ef4:	20 83       	st	Z, r18
    8ef6:	ea 89       	ldd	r30, Y+18	; 0x12
    8ef8:	fb 89       	ldd	r31, Y+19	; 0x13
    8efa:	30 81       	ld	r19, Z
    8efc:	2f 8d       	ldd	r18, Y+31	; 0x1f
    8efe:	20 95       	com	r18
    8f00:	23 23       	and	r18, r19
    8f02:	20 83       	st	Z, r18
    8f04:	ea 89       	ldd	r30, Y+18	; 0x12
    8f06:	fb 89       	ldd	r31, Y+19	; 0x13
    8f08:	30 81       	ld	r19, Z
    8f0a:	2f 8d       	ldd	r18, Y+31	; 0x1f
    8f0c:	23 2b       	or	r18, r19
    8f0e:	20 83       	st	Z, r18
    8f10:	ea 89       	ldd	r30, Y+18	; 0x12
    8f12:	fb 89       	ldd	r31, Y+19	; 0x13
    8f14:	30 81       	ld	r19, Z
    8f16:	2f 8d       	ldd	r18, Y+31	; 0x1f
    8f18:	20 95       	com	r18
    8f1a:	23 23       	and	r18, r19
    8f1c:	20 83       	st	Z, r18
    8f1e:	ea 89       	ldd	r30, Y+18	; 0x12
    8f20:	fb 89       	ldd	r31, Y+19	; 0x13
    8f22:	30 81       	ld	r19, Z
    8f24:	2f 8d       	ldd	r18, Y+31	; 0x1f
    8f26:	23 2b       	or	r18, r19
    8f28:	20 83       	st	Z, r18
    8f2a:	ea 89       	ldd	r30, Y+18	; 0x12
    8f2c:	fb 89       	ldd	r31, Y+19	; 0x13
    8f2e:	30 81       	ld	r19, Z
    8f30:	2f 8d       	ldd	r18, Y+31	; 0x1f
    8f32:	20 95       	com	r18
    8f34:	23 23       	and	r18, r19
    8f36:	20 83       	st	Z, r18
    8f38:	ea 89       	ldd	r30, Y+18	; 0x12
    8f3a:	fb 89       	ldd	r31, Y+19	; 0x13
    8f3c:	30 81       	ld	r19, Z
    8f3e:	2f 8d       	ldd	r18, Y+31	; 0x1f
    8f40:	23 2b       	or	r18, r19
    8f42:	20 83       	st	Z, r18
    8f44:	ea 89       	ldd	r30, Y+18	; 0x12
    8f46:	fb 89       	ldd	r31, Y+19	; 0x13
    8f48:	30 81       	ld	r19, Z
    8f4a:	2f 8d       	ldd	r18, Y+31	; 0x1f
    8f4c:	20 95       	com	r18
    8f4e:	23 23       	and	r18, r19
    8f50:	20 83       	st	Z, r18
    8f52:	ea 89       	ldd	r30, Y+18	; 0x12
    8f54:	fb 89       	ldd	r31, Y+19	; 0x13
    8f56:	30 81       	ld	r19, Z
    8f58:	2f 8d       	ldd	r18, Y+31	; 0x1f
    8f5a:	23 2b       	or	r18, r19
    8f5c:	20 83       	st	Z, r18
    8f5e:	ea 89       	ldd	r30, Y+18	; 0x12
    8f60:	fb 89       	ldd	r31, Y+19	; 0x13
    8f62:	30 81       	ld	r19, Z
    8f64:	2f 8d       	ldd	r18, Y+31	; 0x1f
    8f66:	20 95       	com	r18
    8f68:	23 23       	and	r18, r19
    8f6a:	20 83       	st	Z, r18
    8f6c:	ea 89       	ldd	r30, Y+18	; 0x12
    8f6e:	fb 89       	ldd	r31, Y+19	; 0x13
    8f70:	30 81       	ld	r19, Z
    8f72:	2f 8d       	ldd	r18, Y+31	; 0x1f
    8f74:	23 2b       	or	r18, r19
    8f76:	20 83       	st	Z, r18
    8f78:	ea 89       	ldd	r30, Y+18	; 0x12
    8f7a:	fb 89       	ldd	r31, Y+19	; 0x13
    8f7c:	40 81       	ld	r20, Z
    8f7e:	3f 8d       	ldd	r19, Y+31	; 0x1f
    8f80:	30 95       	com	r19
    8f82:	34 23       	and	r19, r20
    8f84:	30 83       	st	Z, r19
    8f86:	ea 89       	ldd	r30, Y+18	; 0x12
    8f88:	fb 89       	ldd	r31, Y+19	; 0x13
    8f8a:	20 81       	ld	r18, Z
    8f8c:	3f 8d       	ldd	r19, Y+31	; 0x1f
    8f8e:	32 2b       	or	r19, r18
    8f90:	30 83       	st	Z, r19
    8f92:	01 96       	adiw	r24, 0x01	; 1
    8f94:	a1 1d       	adc	r26, r1
    8f96:	b1 1d       	adc	r27, r1
    8f98:	56 ce       	rjmp	.-852    	; 0x8c46 <_ZN4UTFT12_fast_fill_8Eil+0x36>
    8f9a:	d7 01       	movw	r26, r14
    8f9c:	c6 01       	movw	r24, r12
    8f9e:	8f 70       	andi	r24, 0x0F	; 15
    8fa0:	99 27       	eor	r25, r25
    8fa2:	aa 27       	eor	r26, r26
    8fa4:	bb 27       	eor	r27, r27
    8fa6:	89 2b       	or	r24, r25
    8fa8:	8a 2b       	or	r24, r26
    8faa:	8b 2b       	or	r24, r27
    8fac:	81 f1       	breq	.+96     	; 0x900e <_ZN4UTFT12_fast_fill_8Eil+0x3fe>
    8fae:	c7 01       	movw	r24, r14
    8fb0:	b6 01       	movw	r22, r12
    8fb2:	20 e1       	ldi	r18, 0x10	; 16
    8fb4:	30 e0       	ldi	r19, 0x00	; 0
    8fb6:	40 e0       	ldi	r20, 0x00	; 0
    8fb8:	50 e0       	ldi	r21, 0x00	; 0
    8fba:	0e 94 f7 59 	call	0xb3ee	; 0xb3ee <__divmodsi4>
    8fbe:	c1 2c       	mov	r12, r1
    8fc0:	d1 2c       	mov	r13, r1
    8fc2:	76 01       	movw	r14, r12
    8fc4:	6c 15       	cp	r22, r12
    8fc6:	7d 05       	cpc	r23, r13
    8fc8:	8e 05       	cpc	r24, r14
    8fca:	9f 05       	cpc	r25, r15
    8fcc:	04 f1       	brlt	.+64     	; 0x900e <_ZN4UTFT12_fast_fill_8Eil+0x3fe>
    8fce:	ea 89       	ldd	r30, Y+18	; 0x12
    8fd0:	fb 89       	ldd	r31, Y+19	; 0x13
    8fd2:	30 81       	ld	r19, Z
    8fd4:	2f 8d       	ldd	r18, Y+31	; 0x1f
    8fd6:	20 95       	com	r18
    8fd8:	23 23       	and	r18, r19
    8fda:	20 83       	st	Z, r18
    8fdc:	ea 89       	ldd	r30, Y+18	; 0x12
    8fde:	fb 89       	ldd	r31, Y+19	; 0x13
    8fe0:	30 81       	ld	r19, Z
    8fe2:	2f 8d       	ldd	r18, Y+31	; 0x1f
    8fe4:	23 2b       	or	r18, r19
    8fe6:	20 83       	st	Z, r18
    8fe8:	ea 89       	ldd	r30, Y+18	; 0x12
    8fea:	fb 89       	ldd	r31, Y+19	; 0x13
    8fec:	30 81       	ld	r19, Z
    8fee:	2f 8d       	ldd	r18, Y+31	; 0x1f
    8ff0:	20 95       	com	r18
    8ff2:	23 23       	and	r18, r19
    8ff4:	20 83       	st	Z, r18
    8ff6:	ea 89       	ldd	r30, Y+18	; 0x12
    8ff8:	fb 89       	ldd	r31, Y+19	; 0x13
    8ffa:	30 81       	ld	r19, Z
    8ffc:	2f 8d       	ldd	r18, Y+31	; 0x1f
    8ffe:	23 2b       	or	r18, r19
    9000:	20 83       	st	Z, r18
    9002:	2f ef       	ldi	r18, 0xFF	; 255
    9004:	c2 1a       	sub	r12, r18
    9006:	d2 0a       	sbc	r13, r18
    9008:	e2 0a       	sbc	r14, r18
    900a:	f2 0a       	sbc	r15, r18
    900c:	db cf       	rjmp	.-74     	; 0x8fc4 <_ZN4UTFT12_fast_fill_8Eil+0x3b4>
    900e:	df 91       	pop	r29
    9010:	cf 91       	pop	r28
    9012:	ff 90       	pop	r15
    9014:	ef 90       	pop	r14
    9016:	df 90       	pop	r13
    9018:	cf 90       	pop	r12
    901a:	bf 90       	pop	r11
    901c:	af 90       	pop	r10
    901e:	9f 90       	pop	r9
    9020:	8f 90       	pop	r8
    9022:	08 95       	ret

00009024 <_ZN4UTFTC1Ehiiiii>:
    9024:	4f 92       	push	r4
    9026:	5f 92       	push	r5
    9028:	6f 92       	push	r6
    902a:	7f 92       	push	r7
    902c:	af 92       	push	r10
    902e:	bf 92       	push	r11
    9030:	cf 92       	push	r12
    9032:	df 92       	push	r13
    9034:	ef 92       	push	r14
    9036:	ff 92       	push	r15
    9038:	0f 93       	push	r16
    903a:	1f 93       	push	r17
    903c:	cf 93       	push	r28
    903e:	df 93       	push	r29
    9040:	cd b7       	in	r28, 0x3d	; 61
    9042:	de b7       	in	r29, 0x3e	; 62
    9044:	c4 5a       	subi	r28, 0xA4	; 164
    9046:	d1 09       	sbc	r29, r1
    9048:	0f b6       	in	r0, 0x3f	; 63
    904a:	f8 94       	cli
    904c:	de bf       	out	0x3e, r29	; 62
    904e:	0f be       	out	0x3f, r0	; 63
    9050:	cd bf       	out	0x3d, r28	; 61
    9052:	5c 01       	movw	r10, r24
    9054:	80 e4       	ldi	r24, 0x40	; 64
    9056:	e1 e2       	ldi	r30, 0x21	; 33
    9058:	f2 e0       	ldi	r31, 0x02	; 2
    905a:	de 01       	movw	r26, r28
    905c:	af 5b       	subi	r26, 0xBF	; 191
    905e:	bf 4f       	sbci	r27, 0xFF	; 255
    9060:	01 90       	ld	r0, Z+
    9062:	0d 92       	st	X+, r0
    9064:	8a 95       	dec	r24
    9066:	e1 f7       	brne	.-8      	; 0x9060 <_ZN4UTFTC1Ehiiiii+0x3c>
    9068:	80 e4       	ldi	r24, 0x40	; 64
    906a:	e1 e6       	ldi	r30, 0x61	; 97
    906c:	f2 e0       	ldi	r31, 0x02	; 2
    906e:	de 01       	movw	r26, r28
    9070:	11 96       	adiw	r26, 0x01	; 1
    9072:	01 90       	ld	r0, Z+
    9074:	0d 92       	st	X+, r0
    9076:	8a 95       	dec	r24
    9078:	e1 f7       	brne	.-8      	; 0x9072 <_ZN4UTFTC1Ehiiiii+0x4e>
    907a:	80 e2       	ldi	r24, 0x20	; 32
    907c:	e1 ea       	ldi	r30, 0xA1	; 161
    907e:	f2 e0       	ldi	r31, 0x02	; 2
    9080:	de 01       	movw	r26, r28
    9082:	af 57       	subi	r26, 0x7F	; 127
    9084:	bf 4f       	sbci	r27, 0xFF	; 255
    9086:	01 90       	ld	r0, Z+
    9088:	0d 92       	st	X+, r0
    908a:	8a 95       	dec	r24
    908c:	e1 f7       	brne	.-8      	; 0x9086 <_ZN4UTFTC1Ehiiiii+0x62>
    908e:	86 2f       	mov	r24, r22
    9090:	90 e0       	ldi	r25, 0x00	; 0
    9092:	fc 01       	movw	r30, r24
    9094:	ee 0f       	add	r30, r30
    9096:	ff 1f       	adc	r31, r31
    9098:	a1 e4       	ldi	r26, 0x41	; 65
    909a:	b0 e0       	ldi	r27, 0x00	; 0
    909c:	ac 0f       	add	r26, r28
    909e:	bd 1f       	adc	r27, r29
    90a0:	ae 0f       	add	r26, r30
    90a2:	bf 1f       	adc	r27, r31
    90a4:	0d 90       	ld	r0, X+
    90a6:	bc 91       	ld	r27, X
    90a8:	a0 2d       	mov	r26, r0
    90aa:	2d 01       	movw	r4, r26
    90ac:	61 2c       	mov	r6, r1
    90ae:	71 2c       	mov	r7, r1
    90b0:	d5 01       	movw	r26, r10
    90b2:	15 96       	adiw	r26, 0x05	; 5
    90b4:	4d 92       	st	X+, r4
    90b6:	5d 92       	st	X+, r5
    90b8:	6d 92       	st	X+, r6
    90ba:	7c 92       	st	X, r7
    90bc:	18 97       	sbiw	r26, 0x08	; 8
    90be:	a1 e0       	ldi	r26, 0x01	; 1
    90c0:	b0 e0       	ldi	r27, 0x00	; 0
    90c2:	ac 0f       	add	r26, r28
    90c4:	bd 1f       	adc	r27, r29
    90c6:	ea 0f       	add	r30, r26
    90c8:	fb 1f       	adc	r31, r27
    90ca:	40 80       	ld	r4, Z
    90cc:	51 80       	ldd	r5, Z+1	; 0x01
    90ce:	61 2c       	mov	r6, r1
    90d0:	71 2c       	mov	r7, r1
    90d2:	f5 01       	movw	r30, r10
    90d4:	41 86       	std	Z+9, r4	; 0x09
    90d6:	52 86       	std	Z+10, r5	; 0x0a
    90d8:	63 86       	std	Z+11, r6	; 0x0b
    90da:	74 86       	std	Z+12, r7	; 0x0c
    90dc:	e1 e8       	ldi	r30, 0x81	; 129
    90de:	f0 e0       	ldi	r31, 0x00	; 0
    90e0:	ec 0f       	add	r30, r28
    90e2:	fd 1f       	adc	r31, r29
    90e4:	e8 0f       	add	r30, r24
    90e6:	f9 1f       	adc	r31, r25
    90e8:	80 81       	ld	r24, Z
    90ea:	d5 01       	movw	r26, r10
    90ec:	1e 96       	adiw	r26, 0x0e	; 14
    90ee:	8c 93       	st	X, r24
    90f0:	1e 97       	sbiw	r26, 0x0e	; 14
    90f2:	1d 96       	adiw	r26, 0x0d	; 13
    90f4:	6c 93       	st	X, r22
    90f6:	1d 97       	sbiw	r26, 0x0d	; 13
    90f8:	95 96       	adiw	r26, 0x25	; 37
    90fa:	4c 93       	st	X, r20
    90fc:	95 97       	sbiw	r26, 0x25	; 37
    90fe:	96 96       	adiw	r26, 0x26	; 38
    9100:	2c 93       	st	X, r18
    9102:	96 97       	sbiw	r26, 0x26	; 38
    9104:	97 96       	adiw	r26, 0x27	; 39
    9106:	0c 93       	st	X, r16
    9108:	97 97       	sbiw	r26, 0x27	; 39
    910a:	98 96       	adiw	r26, 0x28	; 40
    910c:	ec 92       	st	X, r14
    910e:	98 97       	sbiw	r26, 0x28	; 40
    9110:	99 96       	adiw	r26, 0x29	; 41
    9112:	cc 92       	st	X, r12
    9114:	99 97       	sbiw	r26, 0x29	; 41
    9116:	84 30       	cpi	r24, 0x04	; 4
    9118:	31 f4       	brne	.+12     	; 0x9126 <_ZN4UTFTC1Ehiiiii+0x102>
    911a:	91 e0       	ldi	r25, 0x01	; 1
    911c:	1e 96       	adiw	r26, 0x0e	; 14
    911e:	9c 93       	st	X, r25
    9120:	1e 97       	sbiw	r26, 0x0e	; 14
    9122:	1f 96       	adiw	r26, 0x0f	; 15
    9124:	8c 93       	st	X, r24
    9126:	f5 01       	movw	r30, r10
    9128:	86 85       	ldd	r24, Z+14	; 0x0e
    912a:	85 30       	cpi	r24, 0x05	; 5
    912c:	19 f4       	brne	.+6      	; 0x9134 <_ZN4UTFTC1Ehiiiii+0x110>
    912e:	91 e0       	ldi	r25, 0x01	; 1
    9130:	96 87       	std	Z+14, r25	; 0x0e
    9132:	87 87       	std	Z+15, r24	; 0x0f
    9134:	d5 01       	movw	r26, r10
    9136:	1e 96       	adiw	r26, 0x0e	; 14
    9138:	6c 91       	ld	r22, X
    913a:	61 30       	cpi	r22, 0x01	; 1
    913c:	09 f4       	brne	.+2      	; 0x9140 <_ZN4UTFTC1Ehiiiii+0x11c>
    913e:	be c0       	rjmp	.+380    	; 0x92bc <_ZN4UTFTC1Ehiiiii+0x298>
    9140:	c5 01       	movw	r24, r10
    9142:	cd 55       	subi	r28, 0x5D	; 93
    9144:	df 4f       	sbci	r29, 0xFF	; 255
    9146:	28 83       	st	Y, r18
    9148:	c3 5a       	subi	r28, 0xA3	; 163
    914a:	d0 40       	sbci	r29, 0x00	; 0
    914c:	cc 55       	subi	r28, 0x5C	; 92
    914e:	df 4f       	sbci	r29, 0xFF	; 255
    9150:	38 83       	st	Y, r19
    9152:	c4 5a       	subi	r28, 0xA4	; 164
    9154:	d0 40       	sbci	r29, 0x00	; 0
    9156:	cf 55       	subi	r28, 0x5F	; 95
    9158:	df 4f       	sbci	r29, 0xFF	; 255
    915a:	48 83       	st	Y, r20
    915c:	c1 5a       	subi	r28, 0xA1	; 161
    915e:	d0 40       	sbci	r29, 0x00	; 0
    9160:	ce 55       	subi	r28, 0x5E	; 94
    9162:	df 4f       	sbci	r29, 0xFF	; 255
    9164:	58 83       	st	Y, r21
    9166:	c2 5a       	subi	r28, 0xA2	; 162
    9168:	d0 40       	sbci	r29, 0x00	; 0
    916a:	10 dc       	rcall	.-2016   	; 0x898c <_ZN4UTFT24_set_direction_registersEh>
    916c:	cf 55       	subi	r28, 0x5F	; 95
    916e:	df 4f       	sbci	r29, 0xFF	; 255
    9170:	48 81       	ld	r20, Y
    9172:	c1 5a       	subi	r28, 0xA1	; 161
    9174:	d0 40       	sbci	r29, 0x00	; 0
    9176:	84 2f       	mov	r24, r20
    9178:	ce 55       	subi	r28, 0x5E	; 94
    917a:	df 4f       	sbci	r29, 0xFF	; 255
    917c:	58 81       	ld	r21, Y
    917e:	c2 5a       	subi	r28, 0xA2	; 162
    9180:	d0 40       	sbci	r29, 0x00	; 0
    9182:	95 2f       	mov	r25, r21
    9184:	fc 01       	movw	r30, r24
    9186:	e6 52       	subi	r30, 0x26	; 38
    9188:	fe 4f       	sbci	r31, 0xFE	; 254
    918a:	e4 91       	lpm	r30, Z
    918c:	f0 e0       	ldi	r31, 0x00	; 0
    918e:	ee 0f       	add	r30, r30
    9190:	ff 1f       	adc	r31, r31
    9192:	e6 5c       	subi	r30, 0xC6	; 198
    9194:	fd 4f       	sbci	r31, 0xFD	; 253
    9196:	45 91       	lpm	r20, Z+
    9198:	54 91       	lpm	r21, Z
    919a:	f5 01       	movw	r30, r10
    919c:	51 8b       	std	Z+17, r21	; 0x11
    919e:	40 8b       	std	Z+16, r20	; 0x10
    91a0:	fc 01       	movw	r30, r24
    91a2:	ec 56       	subi	r30, 0x6C	; 108
    91a4:	fe 4f       	sbci	r31, 0xFE	; 254
    91a6:	e4 91       	lpm	r30, Z
    91a8:	d5 01       	movw	r26, r10
    91aa:	5e 96       	adiw	r26, 0x1e	; 30
    91ac:	ec 93       	st	X, r30
    91ae:	5e 97       	sbiw	r26, 0x1e	; 30
    91b0:	cd 55       	subi	r28, 0x5D	; 93
    91b2:	df 4f       	sbci	r29, 0xFF	; 255
    91b4:	28 81       	ld	r18, Y
    91b6:	c3 5a       	subi	r28, 0xA3	; 163
    91b8:	d0 40       	sbci	r29, 0x00	; 0
    91ba:	82 2f       	mov	r24, r18
    91bc:	cc 55       	subi	r28, 0x5C	; 92
    91be:	df 4f       	sbci	r29, 0xFF	; 255
    91c0:	38 81       	ld	r19, Y
    91c2:	c4 5a       	subi	r28, 0xA4	; 164
    91c4:	d0 40       	sbci	r29, 0x00	; 0
    91c6:	93 2f       	mov	r25, r19
    91c8:	fc 01       	movw	r30, r24
    91ca:	e6 52       	subi	r30, 0x26	; 38
    91cc:	fe 4f       	sbci	r31, 0xFE	; 254
    91ce:	e4 91       	lpm	r30, Z
    91d0:	f0 e0       	ldi	r31, 0x00	; 0
    91d2:	ee 0f       	add	r30, r30
    91d4:	ff 1f       	adc	r31, r31
    91d6:	e6 5c       	subi	r30, 0xC6	; 198
    91d8:	fd 4f       	sbci	r31, 0xFD	; 253
    91da:	25 91       	lpm	r18, Z+
    91dc:	34 91       	lpm	r19, Z
    91de:	f5 01       	movw	r30, r10
    91e0:	33 8b       	std	Z+19, r19	; 0x13
    91e2:	22 8b       	std	Z+18, r18	; 0x12
    91e4:	fc 01       	movw	r30, r24
    91e6:	ec 56       	subi	r30, 0x6C	; 108
    91e8:	fe 4f       	sbci	r31, 0xFE	; 254
    91ea:	e4 91       	lpm	r30, Z
    91ec:	5f 96       	adiw	r26, 0x1f	; 31
    91ee:	ec 93       	st	X, r30
    91f0:	5f 97       	sbiw	r26, 0x1f	; 31
    91f2:	f8 01       	movw	r30, r16
    91f4:	e6 52       	subi	r30, 0x26	; 38
    91f6:	fe 4f       	sbci	r31, 0xFE	; 254
    91f8:	e4 91       	lpm	r30, Z
    91fa:	f0 e0       	ldi	r31, 0x00	; 0
    91fc:	ee 0f       	add	r30, r30
    91fe:	ff 1f       	adc	r31, r31
    9200:	e6 5c       	subi	r30, 0xC6	; 198
    9202:	fd 4f       	sbci	r31, 0xFD	; 253
    9204:	25 91       	lpm	r18, Z+
    9206:	34 91       	lpm	r19, Z
    9208:	f5 01       	movw	r30, r10
    920a:	35 8b       	std	Z+21, r19	; 0x15
    920c:	24 8b       	std	Z+20, r18	; 0x14
    920e:	f8 01       	movw	r30, r16
    9210:	ec 56       	subi	r30, 0x6C	; 108
    9212:	fe 4f       	sbci	r31, 0xFE	; 254
    9214:	e4 91       	lpm	r30, Z
    9216:	90 96       	adiw	r26, 0x20	; 32
    9218:	ec 93       	st	X, r30
    921a:	90 97       	sbiw	r26, 0x20	; 32
    921c:	f7 01       	movw	r30, r14
    921e:	e6 52       	subi	r30, 0x26	; 38
    9220:	fe 4f       	sbci	r31, 0xFE	; 254
    9222:	e4 91       	lpm	r30, Z
    9224:	f0 e0       	ldi	r31, 0x00	; 0
    9226:	ee 0f       	add	r30, r30
    9228:	ff 1f       	adc	r31, r31
    922a:	e6 5c       	subi	r30, 0xC6	; 198
    922c:	fd 4f       	sbci	r31, 0xFD	; 253
    922e:	85 91       	lpm	r24, Z+
    9230:	94 91       	lpm	r25, Z
    9232:	f5 01       	movw	r30, r10
    9234:	97 8b       	std	Z+23, r25	; 0x17
    9236:	86 8b       	std	Z+22, r24	; 0x16
    9238:	f7 01       	movw	r30, r14
    923a:	ec 56       	subi	r30, 0x6C	; 108
    923c:	fe 4f       	sbci	r31, 0xFE	; 254
    923e:	e4 90       	lpm	r14, Z
    9240:	91 96       	adiw	r26, 0x21	; 33
    9242:	ec 92       	st	X, r14
    9244:	91 97       	sbiw	r26, 0x21	; 33
    9246:	1e 96       	adiw	r26, 0x0e	; 14
    9248:	8c 91       	ld	r24, X
    924a:	81 31       	cpi	r24, 0x11	; 17
    924c:	09 f0       	breq	.+2      	; 0x9250 <_ZN4UTFTC1Ehiiiii+0x22c>
    924e:	ab c0       	rjmp	.+342    	; 0x93a6 <_ZN4UTFTC1Ehiiiii+0x382>
    9250:	f6 01       	movw	r30, r12
    9252:	e6 52       	subi	r30, 0x26	; 38
    9254:	fe 4f       	sbci	r31, 0xFE	; 254
    9256:	e4 91       	lpm	r30, Z
    9258:	f0 e0       	ldi	r31, 0x00	; 0
    925a:	ee 0f       	add	r30, r30
    925c:	ff 1f       	adc	r31, r31
    925e:	e6 5c       	subi	r30, 0xC6	; 198
    9260:	fd 4f       	sbci	r31, 0xFD	; 253
    9262:	a5 91       	lpm	r26, Z+
    9264:	b4 91       	lpm	r27, Z
    9266:	f5 01       	movw	r30, r10
    9268:	b5 8f       	std	Z+29, r27	; 0x1d
    926a:	a4 8f       	std	Z+28, r26	; 0x1c
    926c:	f6 01       	movw	r30, r12
    926e:	ec 56       	subi	r30, 0x6C	; 108
    9270:	fe 4f       	sbci	r31, 0xFE	; 254
    9272:	94 91       	lpm	r25, Z
    9274:	f5 01       	movw	r30, r10
    9276:	94 a3       	std	Z+36, r25	; 0x24
    9278:	8c 91       	ld	r24, X
    927a:	e9 2f       	mov	r30, r25
    927c:	e0 95       	com	r30
    927e:	e8 23       	and	r30, r24
    9280:	ec 93       	st	X, r30
    9282:	61 e0       	ldi	r22, 0x01	; 1
    9284:	88 e0       	ldi	r24, 0x08	; 8
    9286:	0e 94 65 3c 	call	0x78ca	; 0x78ca <pinMode>
    928a:	60 e0       	ldi	r22, 0x00	; 0
    928c:	88 e0       	ldi	r24, 0x08	; 8
    928e:	cc 55       	subi	r28, 0x5C	; 92
    9290:	df 4f       	sbci	r29, 0xFF	; 255
    9292:	0f b6       	in	r0, 0x3f	; 63
    9294:	f8 94       	cli
    9296:	de bf       	out	0x3e, r29	; 62
    9298:	0f be       	out	0x3f, r0	; 63
    929a:	cd bf       	out	0x3d, r28	; 61
    929c:	df 91       	pop	r29
    929e:	cf 91       	pop	r28
    92a0:	1f 91       	pop	r17
    92a2:	0f 91       	pop	r16
    92a4:	ff 90       	pop	r15
    92a6:	ef 90       	pop	r14
    92a8:	df 90       	pop	r13
    92aa:	cf 90       	pop	r12
    92ac:	bf 90       	pop	r11
    92ae:	af 90       	pop	r10
    92b0:	7f 90       	pop	r7
    92b2:	6f 90       	pop	r6
    92b4:	5f 90       	pop	r5
    92b6:	4f 90       	pop	r4
    92b8:	0c 94 a1 3c 	jmp	0x7942	; 0x7942 <digitalWrite>
    92bc:	ca 01       	movw	r24, r20
    92be:	fa 01       	movw	r30, r20
    92c0:	e6 52       	subi	r30, 0x26	; 38
    92c2:	fe 4f       	sbci	r31, 0xFE	; 254
    92c4:	e4 91       	lpm	r30, Z
    92c6:	f0 e0       	ldi	r31, 0x00	; 0
    92c8:	ee 0f       	add	r30, r30
    92ca:	ff 1f       	adc	r31, r31
    92cc:	e6 5c       	subi	r30, 0xC6	; 198
    92ce:	fd 4f       	sbci	r31, 0xFD	; 253
    92d0:	45 91       	lpm	r20, Z+
    92d2:	54 91       	lpm	r21, Z
    92d4:	d5 01       	movw	r26, r10
    92d6:	59 96       	adiw	r26, 0x19	; 25
    92d8:	5c 93       	st	X, r21
    92da:	4e 93       	st	-X, r20
    92dc:	58 97       	sbiw	r26, 0x18	; 24
    92de:	fc 01       	movw	r30, r24
    92e0:	ec 56       	subi	r30, 0x6C	; 108
    92e2:	fe 4f       	sbci	r31, 0xFE	; 254
    92e4:	e4 91       	lpm	r30, Z
    92e6:	92 96       	adiw	r26, 0x22	; 34
    92e8:	ec 93       	st	X, r30
    92ea:	92 97       	sbiw	r26, 0x22	; 34
    92ec:	c9 01       	movw	r24, r18
    92ee:	f9 01       	movw	r30, r18
    92f0:	e6 52       	subi	r30, 0x26	; 38
    92f2:	fe 4f       	sbci	r31, 0xFE	; 254
    92f4:	e4 91       	lpm	r30, Z
    92f6:	f0 e0       	ldi	r31, 0x00	; 0
    92f8:	ee 0f       	add	r30, r30
    92fa:	ff 1f       	adc	r31, r31
    92fc:	e6 5c       	subi	r30, 0xC6	; 198
    92fe:	fd 4f       	sbci	r31, 0xFD	; 253
    9300:	25 91       	lpm	r18, Z+
    9302:	34 91       	lpm	r19, Z
    9304:	f5 01       	movw	r30, r10
    9306:	33 8f       	std	Z+27, r19	; 0x1b
    9308:	22 8f       	std	Z+26, r18	; 0x1a
    930a:	fc 01       	movw	r30, r24
    930c:	ec 56       	subi	r30, 0x6C	; 108
    930e:	fe 4f       	sbci	r31, 0xFE	; 254
    9310:	e4 91       	lpm	r30, Z
    9312:	93 96       	adiw	r26, 0x23	; 35
    9314:	ec 93       	st	X, r30
    9316:	93 97       	sbiw	r26, 0x23	; 35
    9318:	f8 01       	movw	r30, r16
    931a:	e6 52       	subi	r30, 0x26	; 38
    931c:	fe 4f       	sbci	r31, 0xFE	; 254
    931e:	e4 91       	lpm	r30, Z
    9320:	f0 e0       	ldi	r31, 0x00	; 0
    9322:	ee 0f       	add	r30, r30
    9324:	ff 1f       	adc	r31, r31
    9326:	e6 5c       	subi	r30, 0xC6	; 198
    9328:	fd 4f       	sbci	r31, 0xFD	; 253
    932a:	25 91       	lpm	r18, Z+
    932c:	34 91       	lpm	r19, Z
    932e:	f5 01       	movw	r30, r10
    9330:	35 8b       	std	Z+21, r19	; 0x15
    9332:	24 8b       	std	Z+20, r18	; 0x14
    9334:	f8 01       	movw	r30, r16
    9336:	ec 56       	subi	r30, 0x6C	; 108
    9338:	fe 4f       	sbci	r31, 0xFE	; 254
    933a:	e4 91       	lpm	r30, Z
    933c:	90 96       	adiw	r26, 0x20	; 32
    933e:	ec 93       	st	X, r30
    9340:	bf ef       	ldi	r27, 0xFF	; 255
    9342:	eb 16       	cp	r14, r27
    9344:	f1 04       	cpc	r15, r1
    9346:	a9 f0       	breq	.+42     	; 0x9372 <_ZN4UTFTC1Ehiiiii+0x34e>
    9348:	f7 01       	movw	r30, r14
    934a:	e6 52       	subi	r30, 0x26	; 38
    934c:	fe 4f       	sbci	r31, 0xFE	; 254
    934e:	e4 91       	lpm	r30, Z
    9350:	f0 e0       	ldi	r31, 0x00	; 0
    9352:	ee 0f       	add	r30, r30
    9354:	ff 1f       	adc	r31, r31
    9356:	e6 5c       	subi	r30, 0xC6	; 198
    9358:	fd 4f       	sbci	r31, 0xFD	; 253
    935a:	85 91       	lpm	r24, Z+
    935c:	94 91       	lpm	r25, Z
    935e:	f5 01       	movw	r30, r10
    9360:	97 8b       	std	Z+23, r25	; 0x17
    9362:	86 8b       	std	Z+22, r24	; 0x16
    9364:	f7 01       	movw	r30, r14
    9366:	ec 56       	subi	r30, 0x6C	; 108
    9368:	fe 4f       	sbci	r31, 0xFE	; 254
    936a:	e4 90       	lpm	r14, Z
    936c:	d5 01       	movw	r26, r10
    936e:	91 96       	adiw	r26, 0x21	; 33
    9370:	ec 92       	st	X, r14
    9372:	f5 01       	movw	r30, r10
    9374:	87 85       	ldd	r24, Z+15	; 0x0f
    9376:	84 30       	cpi	r24, 0x04	; 4
    9378:	b1 f0       	breq	.+44     	; 0x93a6 <_ZN4UTFTC1Ehiiiii+0x382>
    937a:	f6 01       	movw	r30, r12
    937c:	e6 52       	subi	r30, 0x26	; 38
    937e:	fe 4f       	sbci	r31, 0xFE	; 254
    9380:	e4 91       	lpm	r30, Z
    9382:	f0 e0       	ldi	r31, 0x00	; 0
    9384:	ee 0f       	add	r30, r30
    9386:	ff 1f       	adc	r31, r31
    9388:	e6 5c       	subi	r30, 0xC6	; 198
    938a:	fd 4f       	sbci	r31, 0xFD	; 253
    938c:	25 91       	lpm	r18, Z+
    938e:	34 91       	lpm	r19, Z
    9390:	d5 01       	movw	r26, r10
    9392:	51 96       	adiw	r26, 0x11	; 17
    9394:	3c 93       	st	X, r19
    9396:	2e 93       	st	-X, r18
    9398:	50 97       	sbiw	r26, 0x10	; 16
    939a:	f6 01       	movw	r30, r12
    939c:	ec 56       	subi	r30, 0x6C	; 108
    939e:	fe 4f       	sbci	r31, 0xFE	; 254
    93a0:	e4 91       	lpm	r30, Z
    93a2:	5e 96       	adiw	r26, 0x1e	; 30
    93a4:	ec 93       	st	X, r30
    93a6:	cc 55       	subi	r28, 0x5C	; 92
    93a8:	df 4f       	sbci	r29, 0xFF	; 255
    93aa:	0f b6       	in	r0, 0x3f	; 63
    93ac:	f8 94       	cli
    93ae:	de bf       	out	0x3e, r29	; 62
    93b0:	0f be       	out	0x3f, r0	; 63
    93b2:	cd bf       	out	0x3d, r28	; 61
    93b4:	df 91       	pop	r29
    93b6:	cf 91       	pop	r28
    93b8:	1f 91       	pop	r17
    93ba:	0f 91       	pop	r16
    93bc:	ff 90       	pop	r15
    93be:	ef 90       	pop	r14
    93c0:	df 90       	pop	r13
    93c2:	cf 90       	pop	r12
    93c4:	bf 90       	pop	r11
    93c6:	af 90       	pop	r10
    93c8:	7f 90       	pop	r7
    93ca:	6f 90       	pop	r6
    93cc:	5f 90       	pop	r5
    93ce:	4f 90       	pop	r4
    93d0:	08 95       	ret

000093d2 <_ZN4UTFT13LCD_Write_COMEc>:
    93d2:	46 2f       	mov	r20, r22
    93d4:	dc 01       	movw	r26, r24
    93d6:	1e 96       	adiw	r26, 0x0e	; 14
    93d8:	2c 91       	ld	r18, X
    93da:	1e 97       	sbiw	r26, 0x0e	; 14
    93dc:	21 30       	cpi	r18, 0x01	; 1
    93de:	71 f0       	breq	.+28     	; 0x93fc <_ZN4UTFT13LCD_Write_COMEc+0x2a>
    93e0:	50 96       	adiw	r26, 0x10	; 16
    93e2:	ed 91       	ld	r30, X+
    93e4:	fc 91       	ld	r31, X
    93e6:	51 97       	sbiw	r26, 0x11	; 17
    93e8:	30 81       	ld	r19, Z
    93ea:	5e 96       	adiw	r26, 0x1e	; 30
    93ec:	2c 91       	ld	r18, X
    93ee:	5e 97       	sbiw	r26, 0x1e	; 30
    93f0:	20 95       	com	r18
    93f2:	23 23       	and	r18, r19
    93f4:	20 83       	st	Z, r18
    93f6:	1e 96       	adiw	r26, 0x0e	; 14
    93f8:	2c 91       	ld	r18, X
    93fa:	01 c0       	rjmp	.+2      	; 0x93fe <_ZN4UTFT13LCD_Write_COMEc+0x2c>
    93fc:	21 e0       	ldi	r18, 0x01	; 1
    93fe:	60 e0       	ldi	r22, 0x00	; 0
    9400:	2e c9       	rjmp	.-3492   	; 0x865e <_ZN4UTFT12LCD_Writ_BusEcch>

00009402 <_ZN4UTFT14LCD_Write_DATAEcc>:
    9402:	1f 93       	push	r17
    9404:	cf 93       	push	r28
    9406:	df 93       	push	r29
    9408:	dc 01       	movw	r26, r24
    940a:	1e 96       	adiw	r26, 0x0e	; 14
    940c:	2c 91       	ld	r18, X
    940e:	1e 97       	sbiw	r26, 0x0e	; 14
    9410:	21 30       	cpi	r18, 0x01	; 1
    9412:	69 f0       	breq	.+26     	; 0x942e <_ZN4UTFT14LCD_Write_DATAEcc+0x2c>
    9414:	50 96       	adiw	r26, 0x10	; 16
    9416:	ed 91       	ld	r30, X+
    9418:	fc 91       	ld	r31, X
    941a:	51 97       	sbiw	r26, 0x11	; 17
    941c:	30 81       	ld	r19, Z
    941e:	5e 96       	adiw	r26, 0x1e	; 30
    9420:	2c 91       	ld	r18, X
    9422:	5e 97       	sbiw	r26, 0x1e	; 30
    9424:	23 2b       	or	r18, r19
    9426:	20 83       	st	Z, r18
    9428:	1e 96       	adiw	r26, 0x0e	; 14
    942a:	2c 91       	ld	r18, X
    942c:	0a c0       	rjmp	.+20     	; 0x9442 <_ZN4UTFT14LCD_Write_DATAEcc+0x40>
    942e:	14 2f       	mov	r17, r20
    9430:	46 2f       	mov	r20, r22
    9432:	ec 01       	movw	r28, r24
    9434:	21 e0       	ldi	r18, 0x01	; 1
    9436:	61 e0       	ldi	r22, 0x01	; 1
    9438:	12 d9       	rcall	.-3548   	; 0x865e <_ZN4UTFT12LCD_Writ_BusEcch>
    943a:	2e 85       	ldd	r18, Y+14	; 0x0e
    943c:	41 2f       	mov	r20, r17
    943e:	61 e0       	ldi	r22, 0x01	; 1
    9440:	ce 01       	movw	r24, r28
    9442:	df 91       	pop	r29
    9444:	cf 91       	pop	r28
    9446:	1f 91       	pop	r17
    9448:	0a c9       	rjmp	.-3564   	; 0x865e <_ZN4UTFT12LCD_Writ_BusEcch>

0000944a <_ZN4UTFT14LCD_Write_DATAEc>:
    944a:	46 2f       	mov	r20, r22
    944c:	dc 01       	movw	r26, r24
    944e:	1e 96       	adiw	r26, 0x0e	; 14
    9450:	2c 91       	ld	r18, X
    9452:	1e 97       	sbiw	r26, 0x0e	; 14
    9454:	21 30       	cpi	r18, 0x01	; 1
    9456:	71 f0       	breq	.+28     	; 0x9474 <_ZN4UTFT14LCD_Write_DATAEc+0x2a>
    9458:	50 96       	adiw	r26, 0x10	; 16
    945a:	ed 91       	ld	r30, X+
    945c:	fc 91       	ld	r31, X
    945e:	51 97       	sbiw	r26, 0x11	; 17
    9460:	30 81       	ld	r19, Z
    9462:	5e 96       	adiw	r26, 0x1e	; 30
    9464:	2c 91       	ld	r18, X
    9466:	5e 97       	sbiw	r26, 0x1e	; 30
    9468:	23 2b       	or	r18, r19
    946a:	20 83       	st	Z, r18
    946c:	1e 96       	adiw	r26, 0x0e	; 14
    946e:	2c 91       	ld	r18, X
    9470:	60 e0       	ldi	r22, 0x00	; 0
    9472:	02 c0       	rjmp	.+4      	; 0x9478 <_ZN4UTFT14LCD_Write_DATAEc+0x2e>
    9474:	21 e0       	ldi	r18, 0x01	; 1
    9476:	61 e0       	ldi	r22, 0x01	; 1
    9478:	f2 c8       	rjmp	.-3612   	; 0x865e <_ZN4UTFT12LCD_Writ_BusEcch>

0000947a <_ZN4UTFT7InitLCDEh>:
    947a:	cf 93       	push	r28
    947c:	df 93       	push	r29
    947e:	ec 01       	movw	r28, r24
    9480:	6c 83       	std	Y+4, r22	; 0x04
    9482:	61 e0       	ldi	r22, 0x01	; 1
    9484:	8d a1       	ldd	r24, Y+37	; 0x25
    9486:	0e 94 65 3c 	call	0x78ca	; 0x78ca <pinMode>
    948a:	61 e0       	ldi	r22, 0x01	; 1
    948c:	8e a1       	ldd	r24, Y+38	; 0x26
    948e:	0e 94 65 3c 	call	0x78ca	; 0x78ca <pinMode>
    9492:	61 e0       	ldi	r22, 0x01	; 1
    9494:	8f a1       	ldd	r24, Y+39	; 0x27
    9496:	0e 94 65 3c 	call	0x78ca	; 0x78ca <pinMode>
    949a:	88 a5       	ldd	r24, Y+40	; 0x28
    949c:	8f 3f       	cpi	r24, 0xFF	; 255
    949e:	19 f0       	breq	.+6      	; 0x94a6 <_ZN4UTFT7InitLCDEh+0x2c>
    94a0:	61 e0       	ldi	r22, 0x01	; 1
    94a2:	0e 94 65 3c 	call	0x78ca	; 0x78ca <pinMode>
    94a6:	8e 85       	ldd	r24, Y+14	; 0x0e
    94a8:	81 31       	cpi	r24, 0x11	; 17
    94aa:	29 f0       	breq	.+10     	; 0x94b6 <_ZN4UTFT7InitLCDEh+0x3c>
    94ac:	81 30       	cpi	r24, 0x01	; 1
    94ae:	39 f4       	brne	.+14     	; 0x94be <_ZN4UTFT7InitLCDEh+0x44>
    94b0:	8f 85       	ldd	r24, Y+15	; 0x0f
    94b2:	85 30       	cpi	r24, 0x05	; 5
    94b4:	21 f4       	brne	.+8      	; 0x94be <_ZN4UTFT7InitLCDEh+0x44>
    94b6:	61 e0       	ldi	r22, 0x01	; 1
    94b8:	89 a5       	ldd	r24, Y+41	; 0x29
    94ba:	0e 94 65 3c 	call	0x78ca	; 0x78ca <pinMode>
    94be:	6e 85       	ldd	r22, Y+14	; 0x0e
    94c0:	61 30       	cpi	r22, 0x01	; 1
    94c2:	11 f0       	breq	.+4      	; 0x94c8 <_ZN4UTFT7InitLCDEh+0x4e>
    94c4:	ce 01       	movw	r24, r28
    94c6:	62 da       	rcall	.-2876   	; 0x898c <_ZN4UTFT24_set_direction_registersEh>
    94c8:	ee 89       	ldd	r30, Y+22	; 0x16
    94ca:	ff 89       	ldd	r31, Y+23	; 0x17
    94cc:	90 81       	ld	r25, Z
    94ce:	89 a1       	ldd	r24, Y+33	; 0x21
    94d0:	89 2b       	or	r24, r25
    94d2:	80 83       	st	Z, r24
    94d4:	65 e0       	ldi	r22, 0x05	; 5
    94d6:	70 e0       	ldi	r23, 0x00	; 0
    94d8:	80 e0       	ldi	r24, 0x00	; 0
    94da:	90 e0       	ldi	r25, 0x00	; 0
    94dc:	0e 94 4e 3b 	call	0x769c	; 0x769c <delay>
    94e0:	ee 89       	ldd	r30, Y+22	; 0x16
    94e2:	ff 89       	ldd	r31, Y+23	; 0x17
    94e4:	90 81       	ld	r25, Z
    94e6:	89 a1       	ldd	r24, Y+33	; 0x21
    94e8:	80 95       	com	r24
    94ea:	89 23       	and	r24, r25
    94ec:	80 83       	st	Z, r24
    94ee:	6f e0       	ldi	r22, 0x0F	; 15
    94f0:	70 e0       	ldi	r23, 0x00	; 0
    94f2:	80 e0       	ldi	r24, 0x00	; 0
    94f4:	90 e0       	ldi	r25, 0x00	; 0
    94f6:	0e 94 4e 3b 	call	0x769c	; 0x769c <delay>
    94fa:	ee 89       	ldd	r30, Y+22	; 0x16
    94fc:	ff 89       	ldd	r31, Y+23	; 0x17
    94fe:	90 81       	ld	r25, Z
    9500:	89 a1       	ldd	r24, Y+33	; 0x21
    9502:	89 2b       	or	r24, r25
    9504:	80 83       	st	Z, r24
    9506:	6f e0       	ldi	r22, 0x0F	; 15
    9508:	70 e0       	ldi	r23, 0x00	; 0
    950a:	80 e0       	ldi	r24, 0x00	; 0
    950c:	90 e0       	ldi	r25, 0x00	; 0
    950e:	0e 94 4e 3b 	call	0x769c	; 0x769c <delay>
    9512:	ec 89       	ldd	r30, Y+20	; 0x14
    9514:	fd 89       	ldd	r31, Y+21	; 0x15
    9516:	90 81       	ld	r25, Z
    9518:	88 a1       	ldd	r24, Y+32	; 0x20
    951a:	80 95       	com	r24
    951c:	89 23       	and	r24, r25
    951e:	80 83       	st	Z, r24
    9520:	8d 85       	ldd	r24, Y+13	; 0x0d
    9522:	81 31       	cpi	r24, 0x11	; 17
    9524:	09 f0       	breq	.+2      	; 0x9528 <_ZN4UTFT7InitLCDEh+0xae>
    9526:	93 c0       	rjmp	.+294    	; 0x964e <_ZN4UTFT7InitLCDEh+0x1d4>
    9528:	6b ec       	ldi	r22, 0xCB	; 203
    952a:	ce 01       	movw	r24, r28
    952c:	52 df       	rcall	.-348    	; 0x93d2 <_ZN4UTFT13LCD_Write_COMEc>
    952e:	69 e3       	ldi	r22, 0x39	; 57
    9530:	ce 01       	movw	r24, r28
    9532:	8b df       	rcall	.-234    	; 0x944a <_ZN4UTFT14LCD_Write_DATAEc>
    9534:	6c e2       	ldi	r22, 0x2C	; 44
    9536:	ce 01       	movw	r24, r28
    9538:	88 df       	rcall	.-240    	; 0x944a <_ZN4UTFT14LCD_Write_DATAEc>
    953a:	60 e0       	ldi	r22, 0x00	; 0
    953c:	ce 01       	movw	r24, r28
    953e:	85 df       	rcall	.-246    	; 0x944a <_ZN4UTFT14LCD_Write_DATAEc>
    9540:	64 e3       	ldi	r22, 0x34	; 52
    9542:	ce 01       	movw	r24, r28
    9544:	82 df       	rcall	.-252    	; 0x944a <_ZN4UTFT14LCD_Write_DATAEc>
    9546:	62 e0       	ldi	r22, 0x02	; 2
    9548:	ce 01       	movw	r24, r28
    954a:	7f df       	rcall	.-258    	; 0x944a <_ZN4UTFT14LCD_Write_DATAEc>
    954c:	6f ec       	ldi	r22, 0xCF	; 207
    954e:	ce 01       	movw	r24, r28
    9550:	40 df       	rcall	.-384    	; 0x93d2 <_ZN4UTFT13LCD_Write_COMEc>
    9552:	60 e0       	ldi	r22, 0x00	; 0
    9554:	ce 01       	movw	r24, r28
    9556:	79 df       	rcall	.-270    	; 0x944a <_ZN4UTFT14LCD_Write_DATAEc>
    9558:	61 ec       	ldi	r22, 0xC1	; 193
    955a:	ce 01       	movw	r24, r28
    955c:	76 df       	rcall	.-276    	; 0x944a <_ZN4UTFT14LCD_Write_DATAEc>
    955e:	60 e3       	ldi	r22, 0x30	; 48
    9560:	ce 01       	movw	r24, r28
    9562:	73 df       	rcall	.-282    	; 0x944a <_ZN4UTFT14LCD_Write_DATAEc>
    9564:	68 ee       	ldi	r22, 0xE8	; 232
    9566:	ce 01       	movw	r24, r28
    9568:	34 df       	rcall	.-408    	; 0x93d2 <_ZN4UTFT13LCD_Write_COMEc>
    956a:	65 e8       	ldi	r22, 0x85	; 133
    956c:	ce 01       	movw	r24, r28
    956e:	6d df       	rcall	.-294    	; 0x944a <_ZN4UTFT14LCD_Write_DATAEc>
    9570:	60 e0       	ldi	r22, 0x00	; 0
    9572:	ce 01       	movw	r24, r28
    9574:	6a df       	rcall	.-300    	; 0x944a <_ZN4UTFT14LCD_Write_DATAEc>
    9576:	68 e7       	ldi	r22, 0x78	; 120
    9578:	ce 01       	movw	r24, r28
    957a:	67 df       	rcall	.-306    	; 0x944a <_ZN4UTFT14LCD_Write_DATAEc>
    957c:	6a ee       	ldi	r22, 0xEA	; 234
    957e:	ce 01       	movw	r24, r28
    9580:	28 df       	rcall	.-432    	; 0x93d2 <_ZN4UTFT13LCD_Write_COMEc>
    9582:	60 e0       	ldi	r22, 0x00	; 0
    9584:	ce 01       	movw	r24, r28
    9586:	61 df       	rcall	.-318    	; 0x944a <_ZN4UTFT14LCD_Write_DATAEc>
    9588:	60 e0       	ldi	r22, 0x00	; 0
    958a:	ce 01       	movw	r24, r28
    958c:	5e df       	rcall	.-324    	; 0x944a <_ZN4UTFT14LCD_Write_DATAEc>
    958e:	6d ee       	ldi	r22, 0xED	; 237
    9590:	ce 01       	movw	r24, r28
    9592:	1f df       	rcall	.-450    	; 0x93d2 <_ZN4UTFT13LCD_Write_COMEc>
    9594:	64 e6       	ldi	r22, 0x64	; 100
    9596:	ce 01       	movw	r24, r28
    9598:	58 df       	rcall	.-336    	; 0x944a <_ZN4UTFT14LCD_Write_DATAEc>
    959a:	63 e0       	ldi	r22, 0x03	; 3
    959c:	ce 01       	movw	r24, r28
    959e:	55 df       	rcall	.-342    	; 0x944a <_ZN4UTFT14LCD_Write_DATAEc>
    95a0:	62 e1       	ldi	r22, 0x12	; 18
    95a2:	ce 01       	movw	r24, r28
    95a4:	52 df       	rcall	.-348    	; 0x944a <_ZN4UTFT14LCD_Write_DATAEc>
    95a6:	61 e8       	ldi	r22, 0x81	; 129
    95a8:	ce 01       	movw	r24, r28
    95aa:	4f df       	rcall	.-354    	; 0x944a <_ZN4UTFT14LCD_Write_DATAEc>
    95ac:	67 ef       	ldi	r22, 0xF7	; 247
    95ae:	ce 01       	movw	r24, r28
    95b0:	10 df       	rcall	.-480    	; 0x93d2 <_ZN4UTFT13LCD_Write_COMEc>
    95b2:	60 e2       	ldi	r22, 0x20	; 32
    95b4:	ce 01       	movw	r24, r28
    95b6:	49 df       	rcall	.-366    	; 0x944a <_ZN4UTFT14LCD_Write_DATAEc>
    95b8:	60 ec       	ldi	r22, 0xC0	; 192
    95ba:	ce 01       	movw	r24, r28
    95bc:	0a df       	rcall	.-492    	; 0x93d2 <_ZN4UTFT13LCD_Write_COMEc>
    95be:	63 e2       	ldi	r22, 0x23	; 35
    95c0:	ce 01       	movw	r24, r28
    95c2:	43 df       	rcall	.-378    	; 0x944a <_ZN4UTFT14LCD_Write_DATAEc>
    95c4:	61 ec       	ldi	r22, 0xC1	; 193
    95c6:	ce 01       	movw	r24, r28
    95c8:	04 df       	rcall	.-504    	; 0x93d2 <_ZN4UTFT13LCD_Write_COMEc>
    95ca:	60 e1       	ldi	r22, 0x10	; 16
    95cc:	ce 01       	movw	r24, r28
    95ce:	3d df       	rcall	.-390    	; 0x944a <_ZN4UTFT14LCD_Write_DATAEc>
    95d0:	65 ec       	ldi	r22, 0xC5	; 197
    95d2:	ce 01       	movw	r24, r28
    95d4:	fe de       	rcall	.-516    	; 0x93d2 <_ZN4UTFT13LCD_Write_COMEc>
    95d6:	6e e3       	ldi	r22, 0x3E	; 62
    95d8:	ce 01       	movw	r24, r28
    95da:	37 df       	rcall	.-402    	; 0x944a <_ZN4UTFT14LCD_Write_DATAEc>
    95dc:	68 e2       	ldi	r22, 0x28	; 40
    95de:	ce 01       	movw	r24, r28
    95e0:	34 df       	rcall	.-408    	; 0x944a <_ZN4UTFT14LCD_Write_DATAEc>
    95e2:	67 ec       	ldi	r22, 0xC7	; 199
    95e4:	ce 01       	movw	r24, r28
    95e6:	f5 de       	rcall	.-534    	; 0x93d2 <_ZN4UTFT13LCD_Write_COMEc>
    95e8:	66 e8       	ldi	r22, 0x86	; 134
    95ea:	ce 01       	movw	r24, r28
    95ec:	2e df       	rcall	.-420    	; 0x944a <_ZN4UTFT14LCD_Write_DATAEc>
    95ee:	66 e3       	ldi	r22, 0x36	; 54
    95f0:	ce 01       	movw	r24, r28
    95f2:	ef de       	rcall	.-546    	; 0x93d2 <_ZN4UTFT13LCD_Write_COMEc>
    95f4:	60 e8       	ldi	r22, 0x80	; 128
    95f6:	ce 01       	movw	r24, r28
    95f8:	28 df       	rcall	.-432    	; 0x944a <_ZN4UTFT14LCD_Write_DATAEc>
    95fa:	6a e3       	ldi	r22, 0x3A	; 58
    95fc:	ce 01       	movw	r24, r28
    95fe:	e9 de       	rcall	.-558    	; 0x93d2 <_ZN4UTFT13LCD_Write_COMEc>
    9600:	65 e5       	ldi	r22, 0x55	; 85
    9602:	ce 01       	movw	r24, r28
    9604:	22 df       	rcall	.-444    	; 0x944a <_ZN4UTFT14LCD_Write_DATAEc>
    9606:	61 eb       	ldi	r22, 0xB1	; 177
    9608:	ce 01       	movw	r24, r28
    960a:	e3 de       	rcall	.-570    	; 0x93d2 <_ZN4UTFT13LCD_Write_COMEc>
    960c:	60 e0       	ldi	r22, 0x00	; 0
    960e:	ce 01       	movw	r24, r28
    9610:	1c df       	rcall	.-456    	; 0x944a <_ZN4UTFT14LCD_Write_DATAEc>
    9612:	68 e1       	ldi	r22, 0x18	; 24
    9614:	ce 01       	movw	r24, r28
    9616:	19 df       	rcall	.-462    	; 0x944a <_ZN4UTFT14LCD_Write_DATAEc>
    9618:	66 eb       	ldi	r22, 0xB6	; 182
    961a:	ce 01       	movw	r24, r28
    961c:	da de       	rcall	.-588    	; 0x93d2 <_ZN4UTFT13LCD_Write_COMEc>
    961e:	68 e0       	ldi	r22, 0x08	; 8
    9620:	ce 01       	movw	r24, r28
    9622:	13 df       	rcall	.-474    	; 0x944a <_ZN4UTFT14LCD_Write_DATAEc>
    9624:	62 e8       	ldi	r22, 0x82	; 130
    9626:	ce 01       	movw	r24, r28
    9628:	10 df       	rcall	.-480    	; 0x944a <_ZN4UTFT14LCD_Write_DATAEc>
    962a:	67 e2       	ldi	r22, 0x27	; 39
    962c:	ce 01       	movw	r24, r28
    962e:	0d df       	rcall	.-486    	; 0x944a <_ZN4UTFT14LCD_Write_DATAEc>
    9630:	61 e1       	ldi	r22, 0x11	; 17
    9632:	ce 01       	movw	r24, r28
    9634:	ce de       	rcall	.-612    	; 0x93d2 <_ZN4UTFT13LCD_Write_COMEc>
    9636:	68 e7       	ldi	r22, 0x78	; 120
    9638:	70 e0       	ldi	r23, 0x00	; 0
    963a:	80 e0       	ldi	r24, 0x00	; 0
    963c:	90 e0       	ldi	r25, 0x00	; 0
    963e:	0e 94 4e 3b 	call	0x769c	; 0x769c <delay>
    9642:	69 e2       	ldi	r22, 0x29	; 41
    9644:	ce 01       	movw	r24, r28
    9646:	c5 de       	rcall	.-630    	; 0x93d2 <_ZN4UTFT13LCD_Write_COMEc>
    9648:	6c e2       	ldi	r22, 0x2C	; 44
    964a:	ce 01       	movw	r24, r28
    964c:	c2 de       	rcall	.-636    	; 0x93d2 <_ZN4UTFT13LCD_Write_COMEc>
    964e:	ec 89       	ldd	r30, Y+20	; 0x14
    9650:	fd 89       	ldd	r31, Y+21	; 0x15
    9652:	90 81       	ld	r25, Z
    9654:	88 a1       	ldd	r24, Y+32	; 0x20
    9656:	89 2b       	or	r24, r25
    9658:	80 83       	st	Z, r24
    965a:	8f ef       	ldi	r24, 0xFF	; 255
    965c:	88 83       	st	Y, r24
    965e:	89 83       	std	Y+1, r24	; 0x01
    9660:	1a 82       	std	Y+2, r1	; 0x02
    9662:	1b 82       	std	Y+3, r1	; 0x03
    9664:	18 aa       	std	Y+48, r1	; 0x30
    9666:	1b a6       	std	Y+43, r1	; 0x2b
    9668:	1a a6       	std	Y+42, r1	; 0x2a
    966a:	df 91       	pop	r29
    966c:	cf 91       	pop	r28
    966e:	08 95       	ret

00009670 <_ZN4UTFT5setXYEjjjj>:
    9670:	af 92       	push	r10
    9672:	bf 92       	push	r11
    9674:	cf 92       	push	r12
    9676:	df 92       	push	r13
    9678:	ef 92       	push	r14
    967a:	ff 92       	push	r15
    967c:	0f 93       	push	r16
    967e:	1f 93       	push	r17
    9680:	cf 93       	push	r28
    9682:	df 93       	push	r29
    9684:	1f 92       	push	r1
    9686:	1f 92       	push	r1
    9688:	cd b7       	in	r28, 0x3d	; 61
    968a:	de b7       	in	r29, 0x3e	; 62
    968c:	5c 01       	movw	r10, r24
    968e:	6b 01       	movw	r12, r22
    9690:	79 01       	movw	r14, r18
    9692:	fc 01       	movw	r30, r24
    9694:	84 81       	ldd	r24, Z+4	; 0x04
    9696:	81 30       	cpi	r24, 0x01	; 1
    9698:	59 f4       	brne	.+22     	; 0x96b0 <_ZN4UTFT5setXYEjjjj+0x40>
    969a:	81 85       	ldd	r24, Z+9	; 0x09
    969c:	92 85       	ldd	r25, Z+10	; 0x0a
    969e:	9c 01       	movw	r18, r24
    96a0:	26 1b       	sub	r18, r22
    96a2:	37 0b       	sbc	r19, r23
    96a4:	8e 19       	sub	r24, r14
    96a6:	9f 09       	sbc	r25, r15
    96a8:	78 01       	movw	r14, r16
    96aa:	89 01       	movw	r16, r18
    96ac:	6a 01       	movw	r12, r20
    96ae:	ac 01       	movw	r20, r24
    96b0:	f5 01       	movw	r30, r10
    96b2:	85 85       	ldd	r24, Z+13	; 0x0d
    96b4:	81 31       	cpi	r24, 0x11	; 17
    96b6:	89 f5       	brne	.+98     	; 0x971a <_ZN4UTFT5setXYEjjjj+0xaa>
    96b8:	6a e2       	ldi	r22, 0x2A	; 42
    96ba:	c5 01       	movw	r24, r10
    96bc:	4a 83       	std	Y+2, r20	; 0x02
    96be:	59 83       	std	Y+1, r21	; 0x01
    96c0:	88 de       	rcall	.-752    	; 0x93d2 <_ZN4UTFT13LCD_Write_COMEc>
    96c2:	6d 2d       	mov	r22, r13
    96c4:	c5 01       	movw	r24, r10
    96c6:	c1 de       	rcall	.-638    	; 0x944a <_ZN4UTFT14LCD_Write_DATAEc>
    96c8:	6c 2d       	mov	r22, r12
    96ca:	c5 01       	movw	r24, r10
    96cc:	be de       	rcall	.-644    	; 0x944a <_ZN4UTFT14LCD_Write_DATAEc>
    96ce:	6f 2d       	mov	r22, r15
    96d0:	c5 01       	movw	r24, r10
    96d2:	bb de       	rcall	.-650    	; 0x944a <_ZN4UTFT14LCD_Write_DATAEc>
    96d4:	6e 2d       	mov	r22, r14
    96d6:	c5 01       	movw	r24, r10
    96d8:	b8 de       	rcall	.-656    	; 0x944a <_ZN4UTFT14LCD_Write_DATAEc>
    96da:	6b e2       	ldi	r22, 0x2B	; 43
    96dc:	c5 01       	movw	r24, r10
    96de:	79 de       	rcall	.-782    	; 0x93d2 <_ZN4UTFT13LCD_Write_COMEc>
    96e0:	59 81       	ldd	r21, Y+1	; 0x01
    96e2:	65 2f       	mov	r22, r21
    96e4:	c5 01       	movw	r24, r10
    96e6:	b1 de       	rcall	.-670    	; 0x944a <_ZN4UTFT14LCD_Write_DATAEc>
    96e8:	4a 81       	ldd	r20, Y+2	; 0x02
    96ea:	64 2f       	mov	r22, r20
    96ec:	c5 01       	movw	r24, r10
    96ee:	ad de       	rcall	.-678    	; 0x944a <_ZN4UTFT14LCD_Write_DATAEc>
    96f0:	61 2f       	mov	r22, r17
    96f2:	c5 01       	movw	r24, r10
    96f4:	aa de       	rcall	.-684    	; 0x944a <_ZN4UTFT14LCD_Write_DATAEc>
    96f6:	60 2f       	mov	r22, r16
    96f8:	c5 01       	movw	r24, r10
    96fa:	a7 de       	rcall	.-690    	; 0x944a <_ZN4UTFT14LCD_Write_DATAEc>
    96fc:	6c e2       	ldi	r22, 0x2C	; 44
    96fe:	c5 01       	movw	r24, r10
    9700:	0f 90       	pop	r0
    9702:	0f 90       	pop	r0
    9704:	df 91       	pop	r29
    9706:	cf 91       	pop	r28
    9708:	1f 91       	pop	r17
    970a:	0f 91       	pop	r16
    970c:	ff 90       	pop	r15
    970e:	ef 90       	pop	r14
    9710:	df 90       	pop	r13
    9712:	cf 90       	pop	r12
    9714:	bf 90       	pop	r11
    9716:	af 90       	pop	r10
    9718:	5c ce       	rjmp	.-840    	; 0x93d2 <_ZN4UTFT13LCD_Write_COMEc>
    971a:	0f 90       	pop	r0
    971c:	0f 90       	pop	r0
    971e:	df 91       	pop	r29
    9720:	cf 91       	pop	r28
    9722:	1f 91       	pop	r17
    9724:	0f 91       	pop	r16
    9726:	ff 90       	pop	r15
    9728:	ef 90       	pop	r14
    972a:	df 90       	pop	r13
    972c:	cf 90       	pop	r12
    972e:	bf 90       	pop	r11
    9730:	af 90       	pop	r10
    9732:	08 95       	ret

00009734 <_ZN4UTFT5clrXYEv>:
    9734:	0f 93       	push	r16
    9736:	1f 93       	push	r17
    9738:	fc 01       	movw	r30, r24
    973a:	64 81       	ldd	r22, Z+4	; 0x04
    973c:	21 85       	ldd	r18, Z+9	; 0x09
    973e:	32 85       	ldd	r19, Z+10	; 0x0a
    9740:	45 81       	ldd	r20, Z+5	; 0x05
    9742:	56 81       	ldd	r21, Z+6	; 0x06
    9744:	61 11       	cpse	r22, r1
    9746:	03 c0       	rjmp	.+6      	; 0x974e <_ZN4UTFT5clrXYEv+0x1a>
    9748:	89 01       	movw	r16, r18
    974a:	9a 01       	movw	r18, r20
    974c:	01 c0       	rjmp	.+2      	; 0x9750 <_ZN4UTFT5clrXYEv+0x1c>
    974e:	8a 01       	movw	r16, r20
    9750:	40 e0       	ldi	r20, 0x00	; 0
    9752:	50 e0       	ldi	r21, 0x00	; 0
    9754:	60 e0       	ldi	r22, 0x00	; 0
    9756:	70 e0       	ldi	r23, 0x00	; 0
    9758:	8b df       	rcall	.-234    	; 0x9670 <_ZN4UTFT5setXYEjjjj>
    975a:	1f 91       	pop	r17
    975c:	0f 91       	pop	r16
    975e:	08 95       	ret

00009760 <_ZN4UTFT10drawCircleEiii>:
    9760:	2f 92       	push	r2
    9762:	3f 92       	push	r3
    9764:	4f 92       	push	r4
    9766:	5f 92       	push	r5
    9768:	6f 92       	push	r6
    976a:	7f 92       	push	r7
    976c:	8f 92       	push	r8
    976e:	9f 92       	push	r9
    9770:	af 92       	push	r10
    9772:	bf 92       	push	r11
    9774:	cf 92       	push	r12
    9776:	df 92       	push	r13
    9778:	ef 92       	push	r14
    977a:	ff 92       	push	r15
    977c:	0f 93       	push	r16
    977e:	1f 93       	push	r17
    9780:	cf 93       	push	r28
    9782:	df 93       	push	r29
    9784:	cd b7       	in	r28, 0x3d	; 61
    9786:	de b7       	in	r29, 0x3e	; 62
    9788:	28 97       	sbiw	r28, 0x08	; 8
    978a:	0f b6       	in	r0, 0x3f	; 63
    978c:	f8 94       	cli
    978e:	de bf       	out	0x3e, r29	; 62
    9790:	0f be       	out	0x3f, r0	; 63
    9792:	cd bf       	out	0x3d, r28	; 61
    9794:	98 87       	std	Y+8, r25	; 0x08
    9796:	8f 83       	std	Y+7, r24	; 0x07
    9798:	6b 01       	movw	r12, r22
    979a:	5a 01       	movw	r10, r20
    979c:	79 01       	movw	r14, r18
    979e:	81 e0       	ldi	r24, 0x01	; 1
    97a0:	90 e0       	ldi	r25, 0x00	; 0
    97a2:	9c 01       	movw	r18, r24
    97a4:	2e 19       	sub	r18, r14
    97a6:	3f 09       	sbc	r19, r15
    97a8:	3a 83       	std	Y+2, r19	; 0x02
    97aa:	29 83       	std	Y+1, r18	; 0x01
    97ac:	88 27       	eor	r24, r24
    97ae:	99 27       	eor	r25, r25
    97b0:	8e 19       	sub	r24, r14
    97b2:	9f 09       	sbc	r25, r15
    97b4:	dc 01       	movw	r26, r24
    97b6:	aa 0f       	add	r26, r26
    97b8:	bb 1f       	adc	r27, r27
    97ba:	be 83       	std	Y+6, r27	; 0x06
    97bc:	ad 83       	std	Y+5, r26	; 0x05
    97be:	af 81       	ldd	r26, Y+7	; 0x07
    97c0:	b8 85       	ldd	r27, Y+8	; 0x08
    97c2:	54 96       	adiw	r26, 0x14	; 20
    97c4:	ed 91       	ld	r30, X+
    97c6:	fc 91       	ld	r31, X
    97c8:	55 97       	sbiw	r26, 0x15	; 21
    97ca:	90 81       	ld	r25, Z
    97cc:	90 96       	adiw	r26, 0x20	; 32
    97ce:	8c 91       	ld	r24, X
    97d0:	90 97       	sbiw	r26, 0x20	; 32
    97d2:	80 95       	com	r24
    97d4:	89 23       	and	r24, r25
    97d6:	80 83       	st	Z, r24
    97d8:	4e 0d       	add	r20, r14
    97da:	5f 1d       	adc	r21, r15
    97dc:	8a 01       	movw	r16, r20
    97de:	9b 01       	movw	r18, r22
    97e0:	cd 01       	movw	r24, r26
    97e2:	46 df       	rcall	.-372    	; 0x9670 <_ZN4UTFT5setXYEjjjj>
    97e4:	ef 81       	ldd	r30, Y+7	; 0x07
    97e6:	f8 85       	ldd	r31, Y+8	; 0x08
    97e8:	41 81       	ldd	r20, Z+1	; 0x01
    97ea:	60 81       	ld	r22, Z
    97ec:	cf 01       	movw	r24, r30
    97ee:	09 de       	rcall	.-1006   	; 0x9402 <_ZN4UTFT14LCD_Write_DATAEcc>
    97f0:	a5 01       	movw	r20, r10
    97f2:	4e 19       	sub	r20, r14
    97f4:	5f 09       	sbc	r21, r15
    97f6:	8a 01       	movw	r16, r20
    97f8:	96 01       	movw	r18, r12
    97fa:	b6 01       	movw	r22, r12
    97fc:	8f 81       	ldd	r24, Y+7	; 0x07
    97fe:	98 85       	ldd	r25, Y+8	; 0x08
    9800:	37 df       	rcall	.-402    	; 0x9670 <_ZN4UTFT5setXYEjjjj>
    9802:	af 81       	ldd	r26, Y+7	; 0x07
    9804:	b8 85       	ldd	r27, Y+8	; 0x08
    9806:	11 96       	adiw	r26, 0x01	; 1
    9808:	4c 91       	ld	r20, X
    980a:	11 97       	sbiw	r26, 0x01	; 1
    980c:	6c 91       	ld	r22, X
    980e:	cd 01       	movw	r24, r26
    9810:	f8 dd       	rcall	.-1040   	; 0x9402 <_ZN4UTFT14LCD_Write_DATAEcc>
    9812:	b6 01       	movw	r22, r12
    9814:	6e 0d       	add	r22, r14
    9816:	7f 1d       	adc	r23, r15
    9818:	85 01       	movw	r16, r10
    981a:	9b 01       	movw	r18, r22
    981c:	a5 01       	movw	r20, r10
    981e:	8f 81       	ldd	r24, Y+7	; 0x07
    9820:	98 85       	ldd	r25, Y+8	; 0x08
    9822:	26 df       	rcall	.-436    	; 0x9670 <_ZN4UTFT5setXYEjjjj>
    9824:	ef 81       	ldd	r30, Y+7	; 0x07
    9826:	f8 85       	ldd	r31, Y+8	; 0x08
    9828:	41 81       	ldd	r20, Z+1	; 0x01
    982a:	60 81       	ld	r22, Z
    982c:	cf 01       	movw	r24, r30
    982e:	e9 dd       	rcall	.-1070   	; 0x9402 <_ZN4UTFT14LCD_Write_DATAEcc>
    9830:	b6 01       	movw	r22, r12
    9832:	6e 19       	sub	r22, r14
    9834:	7f 09       	sbc	r23, r15
    9836:	9b 01       	movw	r18, r22
    9838:	a5 01       	movw	r20, r10
    983a:	8f 81       	ldd	r24, Y+7	; 0x07
    983c:	98 85       	ldd	r25, Y+8	; 0x08
    983e:	18 df       	rcall	.-464    	; 0x9670 <_ZN4UTFT5setXYEjjjj>
    9840:	af 81       	ldd	r26, Y+7	; 0x07
    9842:	b8 85       	ldd	r27, Y+8	; 0x08
    9844:	11 96       	adiw	r26, 0x01	; 1
    9846:	4c 91       	ld	r20, X
    9848:	11 97       	sbiw	r26, 0x01	; 1
    984a:	6c 91       	ld	r22, X
    984c:	cd 01       	movw	r24, r26
    984e:	d9 dd       	rcall	.-1102   	; 0x9402 <_ZN4UTFT14LCD_Write_DATAEcc>
    9850:	61 2c       	mov	r6, r1
    9852:	71 2c       	mov	r7, r1
    9854:	e1 e0       	ldi	r30, 0x01	; 1
    9856:	f0 e0       	ldi	r31, 0x00	; 0
    9858:	fc 83       	std	Y+4, r31	; 0x04
    985a:	eb 83       	std	Y+3, r30	; 0x03
    985c:	6e 14       	cp	r6, r14
    985e:	7f 04       	cpc	r7, r15
    9860:	0c f0       	brlt	.+2      	; 0x9864 <_ZN4UTFT10drawCircleEiii+0x104>
    9862:	a5 c0       	rjmp	.+330    	; 0x99ae <_ZN4UTFT10drawCircleEiii+0x24e>
    9864:	29 81       	ldd	r18, Y+1	; 0x01
    9866:	3a 81       	ldd	r19, Y+2	; 0x02
    9868:	37 fd       	sbrc	r19, 7
    986a:	0e c0       	rjmp	.+28     	; 0x9888 <_ZN4UTFT10drawCircleEiii+0x128>
    986c:	31 e0       	ldi	r19, 0x01	; 1
    986e:	e3 1a       	sub	r14, r19
    9870:	f1 08       	sbc	r15, r1
    9872:	8d 81       	ldd	r24, Y+5	; 0x05
    9874:	9e 81       	ldd	r25, Y+6	; 0x06
    9876:	02 96       	adiw	r24, 0x02	; 2
    9878:	9e 83       	std	Y+6, r25	; 0x06
    987a:	8d 83       	std	Y+5, r24	; 0x05
    987c:	a9 81       	ldd	r26, Y+1	; 0x01
    987e:	ba 81       	ldd	r27, Y+2	; 0x02
    9880:	a8 0f       	add	r26, r24
    9882:	b9 1f       	adc	r27, r25
    9884:	ba 83       	std	Y+2, r27	; 0x02
    9886:	a9 83       	std	Y+1, r26	; 0x01
    9888:	bf ef       	ldi	r27, 0xFF	; 255
    988a:	6b 1a       	sub	r6, r27
    988c:	7b 0a       	sbc	r7, r27
    988e:	eb 81       	ldd	r30, Y+3	; 0x03
    9890:	fc 81       	ldd	r31, Y+4	; 0x04
    9892:	32 96       	adiw	r30, 0x02	; 2
    9894:	fc 83       	std	Y+4, r31	; 0x04
    9896:	eb 83       	std	Y+3, r30	; 0x03
    9898:	29 81       	ldd	r18, Y+1	; 0x01
    989a:	3a 81       	ldd	r19, Y+2	; 0x02
    989c:	2e 0f       	add	r18, r30
    989e:	3f 1f       	adc	r19, r31
    98a0:	3a 83       	std	Y+2, r19	; 0x02
    98a2:	29 83       	std	Y+1, r18	; 0x01
    98a4:	23 01       	movw	r4, r6
    98a6:	4c 0c       	add	r4, r12
    98a8:	5d 1c       	adc	r5, r13
    98aa:	45 01       	movw	r8, r10
    98ac:	8e 0c       	add	r8, r14
    98ae:	9f 1c       	adc	r9, r15
    98b0:	84 01       	movw	r16, r8
    98b2:	92 01       	movw	r18, r4
    98b4:	a4 01       	movw	r20, r8
    98b6:	b2 01       	movw	r22, r4
    98b8:	8f 81       	ldd	r24, Y+7	; 0x07
    98ba:	98 85       	ldd	r25, Y+8	; 0x08
    98bc:	d9 de       	rcall	.-590    	; 0x9670 <_ZN4UTFT5setXYEjjjj>
    98be:	af 81       	ldd	r26, Y+7	; 0x07
    98c0:	b8 85       	ldd	r27, Y+8	; 0x08
    98c2:	11 96       	adiw	r26, 0x01	; 1
    98c4:	4c 91       	ld	r20, X
    98c6:	11 97       	sbiw	r26, 0x01	; 1
    98c8:	6c 91       	ld	r22, X
    98ca:	cd 01       	movw	r24, r26
    98cc:	9a dd       	rcall	.-1228   	; 0x9402 <_ZN4UTFT14LCD_Write_DATAEcc>
    98ce:	16 01       	movw	r2, r12
    98d0:	26 18       	sub	r2, r6
    98d2:	37 08       	sbc	r3, r7
    98d4:	91 01       	movw	r18, r2
    98d6:	a4 01       	movw	r20, r8
    98d8:	b1 01       	movw	r22, r2
    98da:	8f 81       	ldd	r24, Y+7	; 0x07
    98dc:	98 85       	ldd	r25, Y+8	; 0x08
    98de:	c8 de       	rcall	.-624    	; 0x9670 <_ZN4UTFT5setXYEjjjj>
    98e0:	ef 81       	ldd	r30, Y+7	; 0x07
    98e2:	f8 85       	ldd	r31, Y+8	; 0x08
    98e4:	41 81       	ldd	r20, Z+1	; 0x01
    98e6:	60 81       	ld	r22, Z
    98e8:	cf 01       	movw	r24, r30
    98ea:	8b dd       	rcall	.-1258   	; 0x9402 <_ZN4UTFT14LCD_Write_DATAEcc>
    98ec:	45 01       	movw	r8, r10
    98ee:	8e 18       	sub	r8, r14
    98f0:	9f 08       	sbc	r9, r15
    98f2:	84 01       	movw	r16, r8
    98f4:	92 01       	movw	r18, r4
    98f6:	a4 01       	movw	r20, r8
    98f8:	b2 01       	movw	r22, r4
    98fa:	8f 81       	ldd	r24, Y+7	; 0x07
    98fc:	98 85       	ldd	r25, Y+8	; 0x08
    98fe:	b8 de       	rcall	.-656    	; 0x9670 <_ZN4UTFT5setXYEjjjj>
    9900:	af 81       	ldd	r26, Y+7	; 0x07
    9902:	b8 85       	ldd	r27, Y+8	; 0x08
    9904:	11 96       	adiw	r26, 0x01	; 1
    9906:	4c 91       	ld	r20, X
    9908:	11 97       	sbiw	r26, 0x01	; 1
    990a:	6c 91       	ld	r22, X
    990c:	cd 01       	movw	r24, r26
    990e:	79 dd       	rcall	.-1294   	; 0x9402 <_ZN4UTFT14LCD_Write_DATAEcc>
    9910:	91 01       	movw	r18, r2
    9912:	a4 01       	movw	r20, r8
    9914:	b1 01       	movw	r22, r2
    9916:	8f 81       	ldd	r24, Y+7	; 0x07
    9918:	98 85       	ldd	r25, Y+8	; 0x08
    991a:	aa de       	rcall	.-684    	; 0x9670 <_ZN4UTFT5setXYEjjjj>
    991c:	ef 81       	ldd	r30, Y+7	; 0x07
    991e:	f8 85       	ldd	r31, Y+8	; 0x08
    9920:	41 81       	ldd	r20, Z+1	; 0x01
    9922:	60 81       	ld	r22, Z
    9924:	cf 01       	movw	r24, r30
    9926:	6d dd       	rcall	.-1318   	; 0x9402 <_ZN4UTFT14LCD_Write_DATAEcc>
    9928:	43 01       	movw	r8, r6
    992a:	8a 0c       	add	r8, r10
    992c:	9b 1c       	adc	r9, r11
    992e:	84 01       	movw	r16, r8
    9930:	26 01       	movw	r4, r12
    9932:	4e 0c       	add	r4, r14
    9934:	5f 1c       	adc	r5, r15
    9936:	92 01       	movw	r18, r4
    9938:	a4 01       	movw	r20, r8
    993a:	b2 01       	movw	r22, r4
    993c:	8f 81       	ldd	r24, Y+7	; 0x07
    993e:	98 85       	ldd	r25, Y+8	; 0x08
    9940:	97 de       	rcall	.-722    	; 0x9670 <_ZN4UTFT5setXYEjjjj>
    9942:	af 81       	ldd	r26, Y+7	; 0x07
    9944:	b8 85       	ldd	r27, Y+8	; 0x08
    9946:	11 96       	adiw	r26, 0x01	; 1
    9948:	4c 91       	ld	r20, X
    994a:	11 97       	sbiw	r26, 0x01	; 1
    994c:	6c 91       	ld	r22, X
    994e:	cd 01       	movw	r24, r26
    9950:	58 dd       	rcall	.-1360   	; 0x9402 <_ZN4UTFT14LCD_Write_DATAEcc>
    9952:	16 01       	movw	r2, r12
    9954:	2e 18       	sub	r2, r14
    9956:	3f 08       	sbc	r3, r15
    9958:	91 01       	movw	r18, r2
    995a:	a4 01       	movw	r20, r8
    995c:	b1 01       	movw	r22, r2
    995e:	8f 81       	ldd	r24, Y+7	; 0x07
    9960:	98 85       	ldd	r25, Y+8	; 0x08
    9962:	86 de       	rcall	.-756    	; 0x9670 <_ZN4UTFT5setXYEjjjj>
    9964:	ef 81       	ldd	r30, Y+7	; 0x07
    9966:	f8 85       	ldd	r31, Y+8	; 0x08
    9968:	41 81       	ldd	r20, Z+1	; 0x01
    996a:	60 81       	ld	r22, Z
    996c:	cf 01       	movw	r24, r30
    996e:	49 dd       	rcall	.-1390   	; 0x9402 <_ZN4UTFT14LCD_Write_DATAEcc>
    9970:	45 01       	movw	r8, r10
    9972:	86 18       	sub	r8, r6
    9974:	97 08       	sbc	r9, r7
    9976:	84 01       	movw	r16, r8
    9978:	92 01       	movw	r18, r4
    997a:	a4 01       	movw	r20, r8
    997c:	b2 01       	movw	r22, r4
    997e:	8f 81       	ldd	r24, Y+7	; 0x07
    9980:	98 85       	ldd	r25, Y+8	; 0x08
    9982:	76 de       	rcall	.-788    	; 0x9670 <_ZN4UTFT5setXYEjjjj>
    9984:	af 81       	ldd	r26, Y+7	; 0x07
    9986:	b8 85       	ldd	r27, Y+8	; 0x08
    9988:	11 96       	adiw	r26, 0x01	; 1
    998a:	4c 91       	ld	r20, X
    998c:	11 97       	sbiw	r26, 0x01	; 1
    998e:	6c 91       	ld	r22, X
    9990:	cd 01       	movw	r24, r26
    9992:	37 dd       	rcall	.-1426   	; 0x9402 <_ZN4UTFT14LCD_Write_DATAEcc>
    9994:	91 01       	movw	r18, r2
    9996:	a4 01       	movw	r20, r8
    9998:	b1 01       	movw	r22, r2
    999a:	8f 81       	ldd	r24, Y+7	; 0x07
    999c:	98 85       	ldd	r25, Y+8	; 0x08
    999e:	68 de       	rcall	.-816    	; 0x9670 <_ZN4UTFT5setXYEjjjj>
    99a0:	ef 81       	ldd	r30, Y+7	; 0x07
    99a2:	f8 85       	ldd	r31, Y+8	; 0x08
    99a4:	41 81       	ldd	r20, Z+1	; 0x01
    99a6:	60 81       	ld	r22, Z
    99a8:	cf 01       	movw	r24, r30
    99aa:	2b dd       	rcall	.-1450   	; 0x9402 <_ZN4UTFT14LCD_Write_DATAEcc>
    99ac:	57 cf       	rjmp	.-338    	; 0x985c <_ZN4UTFT10drawCircleEiii+0xfc>
    99ae:	af 81       	ldd	r26, Y+7	; 0x07
    99b0:	b8 85       	ldd	r27, Y+8	; 0x08
    99b2:	54 96       	adiw	r26, 0x14	; 20
    99b4:	ed 91       	ld	r30, X+
    99b6:	fc 91       	ld	r31, X
    99b8:	55 97       	sbiw	r26, 0x15	; 21
    99ba:	90 81       	ld	r25, Z
    99bc:	90 96       	adiw	r26, 0x20	; 32
    99be:	8c 91       	ld	r24, X
    99c0:	90 97       	sbiw	r26, 0x20	; 32
    99c2:	89 2b       	or	r24, r25
    99c4:	80 83       	st	Z, r24
    99c6:	cd 01       	movw	r24, r26
    99c8:	28 96       	adiw	r28, 0x08	; 8
    99ca:	0f b6       	in	r0, 0x3f	; 63
    99cc:	f8 94       	cli
    99ce:	de bf       	out	0x3e, r29	; 62
    99d0:	0f be       	out	0x3f, r0	; 63
    99d2:	cd bf       	out	0x3d, r28	; 61
    99d4:	df 91       	pop	r29
    99d6:	cf 91       	pop	r28
    99d8:	1f 91       	pop	r17
    99da:	0f 91       	pop	r16
    99dc:	ff 90       	pop	r15
    99de:	ef 90       	pop	r14
    99e0:	df 90       	pop	r13
    99e2:	cf 90       	pop	r12
    99e4:	bf 90       	pop	r11
    99e6:	af 90       	pop	r10
    99e8:	9f 90       	pop	r9
    99ea:	8f 90       	pop	r8
    99ec:	7f 90       	pop	r7
    99ee:	6f 90       	pop	r6
    99f0:	5f 90       	pop	r5
    99f2:	4f 90       	pop	r4
    99f4:	3f 90       	pop	r3
    99f6:	2f 90       	pop	r2
    99f8:	9d ce       	rjmp	.-710    	; 0x9734 <_ZN4UTFT5clrXYEv>

000099fa <_ZN4UTFT6clrScrEv>:
    99fa:	cf 92       	push	r12
    99fc:	df 92       	push	r13
    99fe:	ef 92       	push	r14
    9a00:	ff 92       	push	r15
    9a02:	0f 93       	push	r16
    9a04:	1f 93       	push	r17
    9a06:	cf 93       	push	r28
    9a08:	df 93       	push	r29
    9a0a:	ec 01       	movw	r28, r24
    9a0c:	ec 89       	ldd	r30, Y+20	; 0x14
    9a0e:	fd 89       	ldd	r31, Y+21	; 0x15
    9a10:	90 81       	ld	r25, Z
    9a12:	88 a1       	ldd	r24, Y+32	; 0x20
    9a14:	80 95       	com	r24
    9a16:	89 23       	and	r24, r25
    9a18:	80 83       	st	Z, r24
    9a1a:	ce 01       	movw	r24, r28
    9a1c:	8b de       	rcall	.-746    	; 0x9734 <_ZN4UTFT5clrXYEv>
    9a1e:	8e 85       	ldd	r24, Y+14	; 0x0e
    9a20:	81 30       	cpi	r24, 0x01	; 1
    9a22:	31 f0       	breq	.+12     	; 0x9a30 <_ZN4UTFT6clrScrEv+0x36>
    9a24:	e8 89       	ldd	r30, Y+16	; 0x10
    9a26:	f9 89       	ldd	r31, Y+17	; 0x11
    9a28:	90 81       	ld	r25, Z
    9a2a:	8e 8d       	ldd	r24, Y+30	; 0x1e
    9a2c:	89 2b       	or	r24, r25
    9a2e:	80 83       	st	Z, r24
    9a30:	ee 85       	ldd	r30, Y+14	; 0x0e
    9a32:	4d 81       	ldd	r20, Y+5	; 0x05
    9a34:	5e 81       	ldd	r21, Y+6	; 0x06
    9a36:	6f 81       	ldd	r22, Y+7	; 0x07
    9a38:	78 85       	ldd	r23, Y+8	; 0x08
    9a3a:	89 85       	ldd	r24, Y+9	; 0x09
    9a3c:	9a 85       	ldd	r25, Y+10	; 0x0a
    9a3e:	ab 85       	ldd	r26, Y+11	; 0x0b
    9a40:	bc 85       	ldd	r27, Y+12	; 0x0c
    9a42:	e0 31       	cpi	r30, 0x10	; 16
    9a44:	c1 f4       	brne	.+48     	; 0x9a76 <_ZN4UTFT6clrScrEv+0x7c>
    9a46:	9a 01       	movw	r18, r20
    9a48:	ab 01       	movw	r20, r22
    9a4a:	2f 5f       	subi	r18, 0xFF	; 255
    9a4c:	3f 4f       	sbci	r19, 0xFF	; 255
    9a4e:	4f 4f       	sbci	r20, 0xFF	; 255
    9a50:	5f 4f       	sbci	r21, 0xFF	; 255
    9a52:	bc 01       	movw	r22, r24
    9a54:	cd 01       	movw	r24, r26
    9a56:	6f 5f       	subi	r22, 0xFF	; 255
    9a58:	7f 4f       	sbci	r23, 0xFF	; 255
    9a5a:	8f 4f       	sbci	r24, 0xFF	; 255
    9a5c:	9f 4f       	sbci	r25, 0xFF	; 255
    9a5e:	0e 94 93 59 	call	0xb326	; 0xb326 <__mulsi3>
    9a62:	8b 01       	movw	r16, r22
    9a64:	9c 01       	movw	r18, r24
    9a66:	40 e0       	ldi	r20, 0x00	; 0
    9a68:	50 e0       	ldi	r21, 0x00	; 0
    9a6a:	60 e0       	ldi	r22, 0x00	; 0
    9a6c:	70 e0       	ldi	r23, 0x00	; 0
    9a6e:	ce 01       	movw	r24, r28
    9a70:	0e 94 d6 44 	call	0x89ac	; 0x89ac <_ZN4UTFT13_fast_fill_16Eiil>
    9a74:	4d c0       	rjmp	.+154    	; 0x9b10 <_ZN4UTFT6clrScrEv+0x116>
    9a76:	e8 30       	cpi	r30, 0x08	; 8
    9a78:	a9 f4       	brne	.+42     	; 0x9aa4 <_ZN4UTFT6clrScrEv+0xaa>
    9a7a:	9a 01       	movw	r18, r20
    9a7c:	ab 01       	movw	r20, r22
    9a7e:	2f 5f       	subi	r18, 0xFF	; 255
    9a80:	3f 4f       	sbci	r19, 0xFF	; 255
    9a82:	4f 4f       	sbci	r20, 0xFF	; 255
    9a84:	5f 4f       	sbci	r21, 0xFF	; 255
    9a86:	bc 01       	movw	r22, r24
    9a88:	cd 01       	movw	r24, r26
    9a8a:	6f 5f       	subi	r22, 0xFF	; 255
    9a8c:	7f 4f       	sbci	r23, 0xFF	; 255
    9a8e:	8f 4f       	sbci	r24, 0xFF	; 255
    9a90:	9f 4f       	sbci	r25, 0xFF	; 255
    9a92:	0e 94 93 59 	call	0xb326	; 0xb326 <__mulsi3>
    9a96:	9b 01       	movw	r18, r22
    9a98:	ac 01       	movw	r20, r24
    9a9a:	60 e0       	ldi	r22, 0x00	; 0
    9a9c:	70 e0       	ldi	r23, 0x00	; 0
    9a9e:	ce 01       	movw	r24, r28
    9aa0:	b7 d8       	rcall	.-3730   	; 0x8c10 <_ZN4UTFT12_fast_fill_8Eil>
    9aa2:	36 c0       	rjmp	.+108    	; 0x9b10 <_ZN4UTFT6clrScrEv+0x116>
    9aa4:	c1 2c       	mov	r12, r1
    9aa6:	d1 2c       	mov	r13, r1
    9aa8:	76 01       	movw	r14, r12
    9aaa:	8d 81       	ldd	r24, Y+5	; 0x05
    9aac:	9e 81       	ldd	r25, Y+6	; 0x06
    9aae:	af 81       	ldd	r26, Y+7	; 0x07
    9ab0:	b8 85       	ldd	r27, Y+8	; 0x08
    9ab2:	9c 01       	movw	r18, r24
    9ab4:	ad 01       	movw	r20, r26
    9ab6:	2f 5f       	subi	r18, 0xFF	; 255
    9ab8:	3f 4f       	sbci	r19, 0xFF	; 255
    9aba:	4f 4f       	sbci	r20, 0xFF	; 255
    9abc:	5f 4f       	sbci	r21, 0xFF	; 255
    9abe:	89 85       	ldd	r24, Y+9	; 0x09
    9ac0:	9a 85       	ldd	r25, Y+10	; 0x0a
    9ac2:	ab 85       	ldd	r26, Y+11	; 0x0b
    9ac4:	bc 85       	ldd	r27, Y+12	; 0x0c
    9ac6:	bc 01       	movw	r22, r24
    9ac8:	cd 01       	movw	r24, r26
    9aca:	6f 5f       	subi	r22, 0xFF	; 255
    9acc:	7f 4f       	sbci	r23, 0xFF	; 255
    9ace:	8f 4f       	sbci	r24, 0xFF	; 255
    9ad0:	9f 4f       	sbci	r25, 0xFF	; 255
    9ad2:	0e 94 93 59 	call	0xb326	; 0xb326 <__mulsi3>
    9ad6:	c6 16       	cp	r12, r22
    9ad8:	d7 06       	cpc	r13, r23
    9ada:	e8 06       	cpc	r14, r24
    9adc:	f9 06       	cpc	r15, r25
    9ade:	c4 f4       	brge	.+48     	; 0x9b10 <_ZN4UTFT6clrScrEv+0x116>
    9ae0:	2e 85       	ldd	r18, Y+14	; 0x0e
    9ae2:	21 30       	cpi	r18, 0x01	; 1
    9ae4:	19 f0       	breq	.+6      	; 0x9aec <_ZN4UTFT6clrScrEv+0xf2>
    9ae6:	40 e0       	ldi	r20, 0x00	; 0
    9ae8:	60 e0       	ldi	r22, 0x00	; 0
    9aea:	09 c0       	rjmp	.+18     	; 0x9afe <_ZN4UTFT6clrScrEv+0x104>
    9aec:	21 e0       	ldi	r18, 0x01	; 1
    9aee:	40 e0       	ldi	r20, 0x00	; 0
    9af0:	61 e0       	ldi	r22, 0x01	; 1
    9af2:	ce 01       	movw	r24, r28
    9af4:	0e 94 2f 43 	call	0x865e	; 0x865e <_ZN4UTFT12LCD_Writ_BusEcch>
    9af8:	2e 85       	ldd	r18, Y+14	; 0x0e
    9afa:	40 e0       	ldi	r20, 0x00	; 0
    9afc:	61 e0       	ldi	r22, 0x01	; 1
    9afe:	ce 01       	movw	r24, r28
    9b00:	0e 94 2f 43 	call	0x865e	; 0x865e <_ZN4UTFT12LCD_Writ_BusEcch>
    9b04:	8f ef       	ldi	r24, 0xFF	; 255
    9b06:	c8 1a       	sub	r12, r24
    9b08:	d8 0a       	sbc	r13, r24
    9b0a:	e8 0a       	sbc	r14, r24
    9b0c:	f8 0a       	sbc	r15, r24
    9b0e:	cd cf       	rjmp	.-102    	; 0x9aaa <_ZN4UTFT6clrScrEv+0xb0>
    9b10:	ec 89       	ldd	r30, Y+20	; 0x14
    9b12:	fd 89       	ldd	r31, Y+21	; 0x15
    9b14:	90 81       	ld	r25, Z
    9b16:	88 a1       	ldd	r24, Y+32	; 0x20
    9b18:	89 2b       	or	r24, r25
    9b1a:	80 83       	st	Z, r24
    9b1c:	df 91       	pop	r29
    9b1e:	cf 91       	pop	r28
    9b20:	1f 91       	pop	r17
    9b22:	0f 91       	pop	r16
    9b24:	ff 90       	pop	r15
    9b26:	ef 90       	pop	r14
    9b28:	df 90       	pop	r13
    9b2a:	cf 90       	pop	r12
    9b2c:	08 95       	ret

00009b2e <_ZN4UTFT8setColorEhhh>:
    9b2e:	34 2f       	mov	r19, r20
    9b30:	32 95       	swap	r19
    9b32:	36 95       	lsr	r19
    9b34:	37 70       	andi	r19, 0x07	; 7
    9b36:	68 7f       	andi	r22, 0xF8	; 248
    9b38:	63 2b       	or	r22, r19
    9b3a:	fc 01       	movw	r30, r24
    9b3c:	60 83       	st	Z, r22
    9b3e:	4c 71       	andi	r20, 0x1C	; 28
    9b40:	f8 e0       	ldi	r31, 0x08	; 8
    9b42:	4f 9f       	mul	r20, r31
    9b44:	a0 01       	movw	r20, r0
    9b46:	11 24       	eor	r1, r1
    9b48:	26 95       	lsr	r18
    9b4a:	26 95       	lsr	r18
    9b4c:	26 95       	lsr	r18
    9b4e:	42 2b       	or	r20, r18
    9b50:	fc 01       	movw	r30, r24
    9b52:	41 83       	std	Z+1, r20	; 0x01
    9b54:	08 95       	ret

00009b56 <_ZN4UTFT12setBackColorEhhh>:
    9b56:	fc 01       	movw	r30, r24
    9b58:	84 2f       	mov	r24, r20
    9b5a:	82 95       	swap	r24
    9b5c:	86 95       	lsr	r24
    9b5e:	87 70       	andi	r24, 0x07	; 7
    9b60:	68 7f       	andi	r22, 0xF8	; 248
    9b62:	68 2b       	or	r22, r24
    9b64:	62 83       	std	Z+2, r22	; 0x02
    9b66:	4c 71       	andi	r20, 0x1C	; 28
    9b68:	88 e0       	ldi	r24, 0x08	; 8
    9b6a:	48 9f       	mul	r20, r24
    9b6c:	a0 01       	movw	r20, r0
    9b6e:	11 24       	eor	r1, r1
    9b70:	26 95       	lsr	r18
    9b72:	26 95       	lsr	r18
    9b74:	26 95       	lsr	r18
    9b76:	42 2b       	or	r20, r18
    9b78:	43 83       	std	Z+3, r20	; 0x03
    9b7a:	10 aa       	std	Z+48, r1	; 0x30
    9b7c:	08 95       	ret

00009b7e <_ZN4UTFT8setPixelEj>:
    9b7e:	46 2f       	mov	r20, r22
    9b80:	67 2f       	mov	r22, r23
    9b82:	3f cc       	rjmp	.-1922   	; 0x9402 <_ZN4UTFT14LCD_Write_DATAEcc>

00009b84 <_ZN4UTFT9drawPixelEii>:
    9b84:	0f 93       	push	r16
    9b86:	1f 93       	push	r17
    9b88:	cf 93       	push	r28
    9b8a:	df 93       	push	r29
    9b8c:	ec 01       	movw	r28, r24
    9b8e:	ec 89       	ldd	r30, Y+20	; 0x14
    9b90:	fd 89       	ldd	r31, Y+21	; 0x15
    9b92:	90 81       	ld	r25, Z
    9b94:	88 a1       	ldd	r24, Y+32	; 0x20
    9b96:	80 95       	com	r24
    9b98:	89 23       	and	r24, r25
    9b9a:	80 83       	st	Z, r24
    9b9c:	8a 01       	movw	r16, r20
    9b9e:	9b 01       	movw	r18, r22
    9ba0:	ce 01       	movw	r24, r28
    9ba2:	66 dd       	rcall	.-1332   	; 0x9670 <_ZN4UTFT5setXYEjjjj>
    9ba4:	68 81       	ld	r22, Y
    9ba6:	70 e0       	ldi	r23, 0x00	; 0
    9ba8:	76 2f       	mov	r23, r22
    9baa:	66 27       	eor	r22, r22
    9bac:	89 81       	ldd	r24, Y+1	; 0x01
    9bae:	68 2b       	or	r22, r24
    9bb0:	ce 01       	movw	r24, r28
    9bb2:	e5 df       	rcall	.-54     	; 0x9b7e <_ZN4UTFT8setPixelEj>
    9bb4:	ec 89       	ldd	r30, Y+20	; 0x14
    9bb6:	fd 89       	ldd	r31, Y+21	; 0x15
    9bb8:	90 81       	ld	r25, Z
    9bba:	88 a1       	ldd	r24, Y+32	; 0x20
    9bbc:	89 2b       	or	r24, r25
    9bbe:	80 83       	st	Z, r24
    9bc0:	ce 01       	movw	r24, r28
    9bc2:	df 91       	pop	r29
    9bc4:	cf 91       	pop	r28
    9bc6:	1f 91       	pop	r17
    9bc8:	0f 91       	pop	r16
    9bca:	b4 cd       	rjmp	.-1176   	; 0x9734 <_ZN4UTFT5clrXYEv>

00009bcc <_ZN4UTFT9drawHLineEiii>:
    9bcc:	ef 92       	push	r14
    9bce:	ff 92       	push	r15
    9bd0:	0f 93       	push	r16
    9bd2:	1f 93       	push	r17
    9bd4:	cf 93       	push	r28
    9bd6:	df 93       	push	r29
    9bd8:	ec 01       	movw	r28, r24
    9bda:	79 01       	movw	r14, r18
    9bdc:	37 ff       	sbrs	r19, 7
    9bde:	05 c0       	rjmp	.+10     	; 0x9bea <_ZN4UTFT9drawHLineEiii+0x1e>
    9be0:	62 0f       	add	r22, r18
    9be2:	73 1f       	adc	r23, r19
    9be4:	f1 94       	neg	r15
    9be6:	e1 94       	neg	r14
    9be8:	f1 08       	sbc	r15, r1
    9bea:	ec 89       	ldd	r30, Y+20	; 0x14
    9bec:	fd 89       	ldd	r31, Y+21	; 0x15
    9bee:	90 81       	ld	r25, Z
    9bf0:	88 a1       	ldd	r24, Y+32	; 0x20
    9bf2:	80 95       	com	r24
    9bf4:	89 23       	and	r24, r25
    9bf6:	80 83       	st	Z, r24
    9bf8:	9b 01       	movw	r18, r22
    9bfa:	2e 0d       	add	r18, r14
    9bfc:	3f 1d       	adc	r19, r15
    9bfe:	8a 01       	movw	r16, r20
    9c00:	ce 01       	movw	r24, r28
    9c02:	36 dd       	rcall	.-1428   	; 0x9670 <_ZN4UTFT5setXYEjjjj>
    9c04:	8e 85       	ldd	r24, Y+14	; 0x0e
    9c06:	80 31       	cpi	r24, 0x10	; 16
    9c08:	91 f4       	brne	.+36     	; 0x9c2e <_ZN4UTFT9drawHLineEiii+0x62>
    9c0a:	e8 89       	ldd	r30, Y+16	; 0x10
    9c0c:	f9 89       	ldd	r31, Y+17	; 0x11
    9c0e:	90 81       	ld	r25, Z
    9c10:	8e 8d       	ldd	r24, Y+30	; 0x1e
    9c12:	89 2b       	or	r24, r25
    9c14:	80 83       	st	Z, r24
    9c16:	87 01       	movw	r16, r14
    9c18:	ff 0c       	add	r15, r15
    9c1a:	22 0b       	sbc	r18, r18
    9c1c:	33 0b       	sbc	r19, r19
    9c1e:	49 81       	ldd	r20, Y+1	; 0x01
    9c20:	50 e0       	ldi	r21, 0x00	; 0
    9c22:	68 81       	ld	r22, Y
    9c24:	70 e0       	ldi	r23, 0x00	; 0
    9c26:	ce 01       	movw	r24, r28
    9c28:	0e 94 d6 44 	call	0x89ac	; 0x89ac <_ZN4UTFT13_fast_fill_16Eiil>
    9c2c:	21 c0       	rjmp	.+66     	; 0x9c70 <_ZN4UTFT9drawHLineEiii+0xa4>
    9c2e:	88 30       	cpi	r24, 0x08	; 8
    9c30:	a1 f4       	brne	.+40     	; 0x9c5a <_ZN4UTFT9drawHLineEiii+0x8e>
    9c32:	98 81       	ld	r25, Y
    9c34:	89 81       	ldd	r24, Y+1	; 0x01
    9c36:	98 13       	cpse	r25, r24
    9c38:	10 c0       	rjmp	.+32     	; 0x9c5a <_ZN4UTFT9drawHLineEiii+0x8e>
    9c3a:	e8 89       	ldd	r30, Y+16	; 0x10
    9c3c:	f9 89       	ldd	r31, Y+17	; 0x11
    9c3e:	90 81       	ld	r25, Z
    9c40:	8e 8d       	ldd	r24, Y+30	; 0x1e
    9c42:	89 2b       	or	r24, r25
    9c44:	80 83       	st	Z, r24
    9c46:	97 01       	movw	r18, r14
    9c48:	ff 0c       	add	r15, r15
    9c4a:	44 0b       	sbc	r20, r20
    9c4c:	55 0b       	sbc	r21, r21
    9c4e:	68 81       	ld	r22, Y
    9c50:	70 e0       	ldi	r23, 0x00	; 0
    9c52:	ce 01       	movw	r24, r28
    9c54:	0e 94 08 46 	call	0x8c10	; 0x8c10 <_ZN4UTFT12_fast_fill_8Eil>
    9c58:	0b c0       	rjmp	.+22     	; 0x9c70 <_ZN4UTFT9drawHLineEiii+0xa4>
    9c5a:	00 e0       	ldi	r16, 0x00	; 0
    9c5c:	10 e0       	ldi	r17, 0x00	; 0
    9c5e:	49 81       	ldd	r20, Y+1	; 0x01
    9c60:	68 81       	ld	r22, Y
    9c62:	ce 01       	movw	r24, r28
    9c64:	ce db       	rcall	.-2148   	; 0x9402 <_ZN4UTFT14LCD_Write_DATAEcc>
    9c66:	0f 5f       	subi	r16, 0xFF	; 255
    9c68:	1f 4f       	sbci	r17, 0xFF	; 255
    9c6a:	e0 16       	cp	r14, r16
    9c6c:	f1 06       	cpc	r15, r17
    9c6e:	bc f7       	brge	.-18     	; 0x9c5e <_ZN4UTFT9drawHLineEiii+0x92>
    9c70:	ec 89       	ldd	r30, Y+20	; 0x14
    9c72:	fd 89       	ldd	r31, Y+21	; 0x15
    9c74:	90 81       	ld	r25, Z
    9c76:	88 a1       	ldd	r24, Y+32	; 0x20
    9c78:	89 2b       	or	r24, r25
    9c7a:	80 83       	st	Z, r24
    9c7c:	ce 01       	movw	r24, r28
    9c7e:	df 91       	pop	r29
    9c80:	cf 91       	pop	r28
    9c82:	1f 91       	pop	r17
    9c84:	0f 91       	pop	r16
    9c86:	ff 90       	pop	r15
    9c88:	ef 90       	pop	r14
    9c8a:	54 cd       	rjmp	.-1368   	; 0x9734 <_ZN4UTFT5clrXYEv>

00009c8c <_ZN4UTFT13fillRoundRectEiiii>:
    9c8c:	2f 92       	push	r2
    9c8e:	3f 92       	push	r3
    9c90:	4f 92       	push	r4
    9c92:	5f 92       	push	r5
    9c94:	6f 92       	push	r6
    9c96:	7f 92       	push	r7
    9c98:	8f 92       	push	r8
    9c9a:	9f 92       	push	r9
    9c9c:	af 92       	push	r10
    9c9e:	bf 92       	push	r11
    9ca0:	cf 92       	push	r12
    9ca2:	df 92       	push	r13
    9ca4:	ef 92       	push	r14
    9ca6:	ff 92       	push	r15
    9ca8:	0f 93       	push	r16
    9caa:	1f 93       	push	r17
    9cac:	cf 93       	push	r28
    9cae:	df 93       	push	r29
    9cb0:	cd b7       	in	r28, 0x3d	; 61
    9cb2:	de b7       	in	r29, 0x3e	; 62
    9cb4:	2a 97       	sbiw	r28, 0x0a	; 10
    9cb6:	0f b6       	in	r0, 0x3f	; 63
    9cb8:	f8 94       	cli
    9cba:	de bf       	out	0x3e, r29	; 62
    9cbc:	0f be       	out	0x3f, r0	; 63
    9cbe:	cd bf       	out	0x3d, r28	; 61
    9cc0:	5c 01       	movw	r10, r24
    9cc2:	7b 01       	movw	r14, r22
    9cc4:	6a 01       	movw	r12, r20
    9cc6:	26 17       	cp	r18, r22
    9cc8:	37 07       	cpc	r19, r23
    9cca:	24 f4       	brge	.+8      	; 0x9cd4 <_ZN4UTFT13fillRoundRectEiiii+0x48>
    9ccc:	8f 2d       	mov	r24, r15
    9cce:	79 01       	movw	r14, r18
    9cd0:	26 2f       	mov	r18, r22
    9cd2:	38 2f       	mov	r19, r24
    9cd4:	0c 15       	cp	r16, r12
    9cd6:	1d 05       	cpc	r17, r13
    9cd8:	2c f4       	brge	.+10     	; 0x9ce4 <_ZN4UTFT13fillRoundRectEiiii+0x58>
    9cda:	9c 2d       	mov	r25, r12
    9cdc:	8d 2d       	mov	r24, r13
    9cde:	68 01       	movw	r12, r16
    9ce0:	09 2f       	mov	r16, r25
    9ce2:	18 2f       	mov	r17, r24
    9ce4:	c9 01       	movw	r24, r18
    9ce6:	8e 19       	sub	r24, r14
    9ce8:	9f 09       	sbc	r25, r15
    9cea:	9a 87       	std	Y+10, r25	; 0x0a
    9cec:	89 87       	std	Y+9, r24	; 0x09
    9cee:	05 97       	sbiw	r24, 0x05	; 5
    9cf0:	0c f4       	brge	.+2      	; 0x9cf4 <_ZN4UTFT13fillRoundRectEiiii+0x68>
    9cf2:	5f c0       	rjmp	.+190    	; 0x9db2 <_ZN4UTFT13fillRoundRectEiiii+0x126>
    9cf4:	c8 01       	movw	r24, r16
    9cf6:	8c 19       	sub	r24, r12
    9cf8:	9d 09       	sbc	r25, r13
    9cfa:	85 30       	cpi	r24, 0x05	; 5
    9cfc:	91 05       	cpc	r25, r1
    9cfe:	0c f4       	brge	.+2      	; 0x9d02 <_ZN4UTFT13fillRoundRectEiiii+0x76>
    9d00:	58 c0       	rjmp	.+176    	; 0x9db2 <_ZN4UTFT13fillRoundRectEiiii+0x126>
    9d02:	fc 01       	movw	r30, r24
    9d04:	f5 95       	asr	r31
    9d06:	e7 95       	ror	r30
    9d08:	fc 83       	std	Y+4, r31	; 0x04
    9d0a:	eb 83       	std	Y+3, r30	; 0x03
    9d0c:	81 2c       	mov	r8, r1
    9d0e:	91 2c       	mov	r9, r1
    9d10:	29 85       	ldd	r18, Y+9	; 0x09
    9d12:	3a 85       	ldd	r19, Y+10	; 0x0a
    9d14:	24 50       	subi	r18, 0x04	; 4
    9d16:	31 09       	sbc	r19, r1
    9d18:	3a 83       	std	Y+2, r19	; 0x02
    9d1a:	29 83       	std	Y+1, r18	; 0x01
    9d1c:	17 01       	movw	r2, r14
    9d1e:	32 e0       	ldi	r19, 0x02	; 2
    9d20:	23 0e       	add	r2, r19
    9d22:	31 1c       	adc	r3, r1
    9d24:	49 84       	ldd	r4, Y+9	; 0x09
    9d26:	5a 84       	ldd	r5, Y+10	; 0x0a
    9d28:	82 e0       	ldi	r24, 0x02	; 2
    9d2a:	48 1a       	sub	r4, r24
    9d2c:	51 08       	sbc	r5, r1
    9d2e:	37 01       	movw	r6, r14
    9d30:	9f ef       	ldi	r25, 0xFF	; 255
    9d32:	69 1a       	sub	r6, r25
    9d34:	79 0a       	sbc	r7, r25
    9d36:	f6 01       	movw	r30, r12
    9d38:	31 96       	adiw	r30, 0x01	; 1
    9d3a:	fe 83       	std	Y+6, r31	; 0x06
    9d3c:	ed 83       	std	Y+5, r30	; 0x05
    9d3e:	98 01       	movw	r18, r16
    9d40:	21 50       	subi	r18, 0x01	; 1
    9d42:	31 09       	sbc	r19, r1
    9d44:	38 87       	std	Y+8, r19	; 0x08
    9d46:	2f 83       	std	Y+7, r18	; 0x07
    9d48:	81 14       	cp	r8, r1
    9d4a:	91 04       	cpc	r9, r1
    9d4c:	79 f0       	breq	.+30     	; 0x9d6c <_ZN4UTFT13fillRoundRectEiiii+0xe0>
    9d4e:	31 e0       	ldi	r19, 0x01	; 1
    9d50:	83 16       	cp	r8, r19
    9d52:	91 04       	cpc	r9, r1
    9d54:	b1 f4       	brne	.+44     	; 0x9d82 <_ZN4UTFT13fillRoundRectEiiii+0xf6>
    9d56:	92 01       	movw	r18, r4
    9d58:	4d 81       	ldd	r20, Y+5	; 0x05
    9d5a:	5e 81       	ldd	r21, Y+6	; 0x06
    9d5c:	b3 01       	movw	r22, r6
    9d5e:	c5 01       	movw	r24, r10
    9d60:	35 df       	rcall	.-406    	; 0x9bcc <_ZN4UTFT9drawHLineEiii>
    9d62:	92 01       	movw	r18, r4
    9d64:	4f 81       	ldd	r20, Y+7	; 0x07
    9d66:	58 85       	ldd	r21, Y+8	; 0x08
    9d68:	b3 01       	movw	r22, r6
    9d6a:	19 c0       	rjmp	.+50     	; 0x9d9e <_ZN4UTFT13fillRoundRectEiiii+0x112>
    9d6c:	29 81       	ldd	r18, Y+1	; 0x01
    9d6e:	3a 81       	ldd	r19, Y+2	; 0x02
    9d70:	a6 01       	movw	r20, r12
    9d72:	b1 01       	movw	r22, r2
    9d74:	c5 01       	movw	r24, r10
    9d76:	2a df       	rcall	.-428    	; 0x9bcc <_ZN4UTFT9drawHLineEiii>
    9d78:	29 81       	ldd	r18, Y+1	; 0x01
    9d7a:	3a 81       	ldd	r19, Y+2	; 0x02
    9d7c:	a8 01       	movw	r20, r16
    9d7e:	b1 01       	movw	r22, r2
    9d80:	0e c0       	rjmp	.+28     	; 0x9d9e <_ZN4UTFT13fillRoundRectEiiii+0x112>
    9d82:	29 85       	ldd	r18, Y+9	; 0x09
    9d84:	3a 85       	ldd	r19, Y+10	; 0x0a
    9d86:	a4 01       	movw	r20, r8
    9d88:	4c 0d       	add	r20, r12
    9d8a:	5d 1d       	adc	r21, r13
    9d8c:	b7 01       	movw	r22, r14
    9d8e:	c5 01       	movw	r24, r10
    9d90:	1d df       	rcall	.-454    	; 0x9bcc <_ZN4UTFT9drawHLineEiii>
    9d92:	29 85       	ldd	r18, Y+9	; 0x09
    9d94:	3a 85       	ldd	r19, Y+10	; 0x0a
    9d96:	a8 01       	movw	r20, r16
    9d98:	48 19       	sub	r20, r8
    9d9a:	59 09       	sbc	r21, r9
    9d9c:	b7 01       	movw	r22, r14
    9d9e:	c5 01       	movw	r24, r10
    9da0:	15 df       	rcall	.-470    	; 0x9bcc <_ZN4UTFT9drawHLineEiii>
    9da2:	8f ef       	ldi	r24, 0xFF	; 255
    9da4:	88 1a       	sub	r8, r24
    9da6:	98 0a       	sbc	r9, r24
    9da8:	eb 81       	ldd	r30, Y+3	; 0x03
    9daa:	fc 81       	ldd	r31, Y+4	; 0x04
    9dac:	e8 15       	cp	r30, r8
    9dae:	f9 05       	cpc	r31, r9
    9db0:	5c f6       	brge	.-106    	; 0x9d48 <_ZN4UTFT13fillRoundRectEiiii+0xbc>
    9db2:	2a 96       	adiw	r28, 0x0a	; 10
    9db4:	0f b6       	in	r0, 0x3f	; 63
    9db6:	f8 94       	cli
    9db8:	de bf       	out	0x3e, r29	; 62
    9dba:	0f be       	out	0x3f, r0	; 63
    9dbc:	cd bf       	out	0x3d, r28	; 61
    9dbe:	df 91       	pop	r29
    9dc0:	cf 91       	pop	r28
    9dc2:	1f 91       	pop	r17
    9dc4:	0f 91       	pop	r16
    9dc6:	ff 90       	pop	r15
    9dc8:	ef 90       	pop	r14
    9dca:	df 90       	pop	r13
    9dcc:	cf 90       	pop	r12
    9dce:	bf 90       	pop	r11
    9dd0:	af 90       	pop	r10
    9dd2:	9f 90       	pop	r9
    9dd4:	8f 90       	pop	r8
    9dd6:	7f 90       	pop	r7
    9dd8:	6f 90       	pop	r6
    9dda:	5f 90       	pop	r5
    9ddc:	4f 90       	pop	r4
    9dde:	3f 90       	pop	r3
    9de0:	2f 90       	pop	r2
    9de2:	08 95       	ret

00009de4 <_ZN4UTFT10fillCircleEiii>:
    9de4:	4f 92       	push	r4
    9de6:	5f 92       	push	r5
    9de8:	6f 92       	push	r6
    9dea:	7f 92       	push	r7
    9dec:	8f 92       	push	r8
    9dee:	9f 92       	push	r9
    9df0:	af 92       	push	r10
    9df2:	bf 92       	push	r11
    9df4:	cf 92       	push	r12
    9df6:	df 92       	push	r13
    9df8:	ef 92       	push	r14
    9dfa:	ff 92       	push	r15
    9dfc:	0f 93       	push	r16
    9dfe:	1f 93       	push	r17
    9e00:	cf 93       	push	r28
    9e02:	df 93       	push	r29
    9e04:	6c 01       	movw	r12, r24
    9e06:	4b 01       	movw	r8, r22
    9e08:	5a 01       	movw	r10, r20
    9e0a:	66 24       	eor	r6, r6
    9e0c:	77 24       	eor	r7, r7
    9e0e:	62 1a       	sub	r6, r18
    9e10:	73 0a       	sbc	r7, r19
    9e12:	22 9f       	mul	r18, r18
    9e14:	20 01       	movw	r4, r0
    9e16:	23 9f       	mul	r18, r19
    9e18:	50 0c       	add	r5, r0
    9e1a:	50 0c       	add	r5, r0
    9e1c:	11 24       	eor	r1, r1
    9e1e:	83 01       	movw	r16, r6
    9e20:	10 16       	cp	r1, r16
    9e22:	11 06       	cpc	r1, r17
    9e24:	8c f1       	brlt	.+98     	; 0x9e88 <_ZN4UTFT10fillCircleEiii+0xa4>
    9e26:	00 9f       	mul	r16, r16
    9e28:	90 01       	movw	r18, r0
    9e2a:	01 9f       	mul	r16, r17
    9e2c:	30 0d       	add	r19, r0
    9e2e:	30 0d       	add	r19, r0
    9e30:	11 24       	eor	r1, r1
    9e32:	e3 01       	movw	r28, r6
    9e34:	1c 16       	cp	r1, r28
    9e36:	1d 06       	cpc	r1, r29
    9e38:	24 f1       	brlt	.+72     	; 0x9e82 <_ZN4UTFT10fillCircleEiii+0x9e>
    9e3a:	cc 9f       	mul	r28, r28
    9e3c:	c0 01       	movw	r24, r0
    9e3e:	cd 9f       	mul	r28, r29
    9e40:	90 0d       	add	r25, r0
    9e42:	90 0d       	add	r25, r0
    9e44:	11 24       	eor	r1, r1
    9e46:	82 0f       	add	r24, r18
    9e48:	93 1f       	adc	r25, r19
    9e4a:	48 16       	cp	r4, r24
    9e4c:	59 06       	cpc	r5, r25
    9e4e:	bc f0       	brlt	.+46     	; 0x9e7e <_ZN4UTFT10fillCircleEiii+0x9a>
    9e50:	ee 24       	eor	r14, r14
    9e52:	ff 24       	eor	r15, r15
    9e54:	ec 1a       	sub	r14, r28
    9e56:	fd 0a       	sbc	r15, r29
    9e58:	ee 0c       	add	r14, r14
    9e5a:	ff 1c       	adc	r15, r15
    9e5c:	c8 0d       	add	r28, r8
    9e5e:	d9 1d       	adc	r29, r9
    9e60:	97 01       	movw	r18, r14
    9e62:	a8 01       	movw	r20, r16
    9e64:	4a 0d       	add	r20, r10
    9e66:	5b 1d       	adc	r21, r11
    9e68:	be 01       	movw	r22, r28
    9e6a:	c6 01       	movw	r24, r12
    9e6c:	af de       	rcall	.-674    	; 0x9bcc <_ZN4UTFT9drawHLineEiii>
    9e6e:	97 01       	movw	r18, r14
    9e70:	a5 01       	movw	r20, r10
    9e72:	40 1b       	sub	r20, r16
    9e74:	51 0b       	sbc	r21, r17
    9e76:	be 01       	movw	r22, r28
    9e78:	c6 01       	movw	r24, r12
    9e7a:	a8 de       	rcall	.-688    	; 0x9bcc <_ZN4UTFT9drawHLineEiii>
    9e7c:	02 c0       	rjmp	.+4      	; 0x9e82 <_ZN4UTFT10fillCircleEiii+0x9e>
    9e7e:	21 96       	adiw	r28, 0x01	; 1
    9e80:	d9 cf       	rjmp	.-78     	; 0x9e34 <_ZN4UTFT10fillCircleEiii+0x50>
    9e82:	0f 5f       	subi	r16, 0xFF	; 255
    9e84:	1f 4f       	sbci	r17, 0xFF	; 255
    9e86:	cc cf       	rjmp	.-104    	; 0x9e20 <_ZN4UTFT10fillCircleEiii+0x3c>
    9e88:	df 91       	pop	r29
    9e8a:	cf 91       	pop	r28
    9e8c:	1f 91       	pop	r17
    9e8e:	0f 91       	pop	r16
    9e90:	ff 90       	pop	r15
    9e92:	ef 90       	pop	r14
    9e94:	df 90       	pop	r13
    9e96:	cf 90       	pop	r12
    9e98:	bf 90       	pop	r11
    9e9a:	af 90       	pop	r10
    9e9c:	9f 90       	pop	r9
    9e9e:	8f 90       	pop	r8
    9ea0:	7f 90       	pop	r7
    9ea2:	6f 90       	pop	r6
    9ea4:	5f 90       	pop	r5
    9ea6:	4f 90       	pop	r4
    9ea8:	08 95       	ret

00009eaa <_ZN4UTFT9drawVLineEiii>:
    9eaa:	ef 92       	push	r14
    9eac:	ff 92       	push	r15
    9eae:	0f 93       	push	r16
    9eb0:	1f 93       	push	r17
    9eb2:	cf 93       	push	r28
    9eb4:	df 93       	push	r29
    9eb6:	ec 01       	movw	r28, r24
    9eb8:	79 01       	movw	r14, r18
    9eba:	37 ff       	sbrs	r19, 7
    9ebc:	05 c0       	rjmp	.+10     	; 0x9ec8 <_ZN4UTFT9drawVLineEiii+0x1e>
    9ebe:	42 0f       	add	r20, r18
    9ec0:	53 1f       	adc	r21, r19
    9ec2:	f1 94       	neg	r15
    9ec4:	e1 94       	neg	r14
    9ec6:	f1 08       	sbc	r15, r1
    9ec8:	ec 89       	ldd	r30, Y+20	; 0x14
    9eca:	fd 89       	ldd	r31, Y+21	; 0x15
    9ecc:	90 81       	ld	r25, Z
    9ece:	88 a1       	ldd	r24, Y+32	; 0x20
    9ed0:	80 95       	com	r24
    9ed2:	89 23       	and	r24, r25
    9ed4:	80 83       	st	Z, r24
    9ed6:	8a 01       	movw	r16, r20
    9ed8:	0e 0d       	add	r16, r14
    9eda:	1f 1d       	adc	r17, r15
    9edc:	9b 01       	movw	r18, r22
    9ede:	ce 01       	movw	r24, r28
    9ee0:	c7 db       	rcall	.-2162   	; 0x9670 <_ZN4UTFT5setXYEjjjj>
    9ee2:	8e 85       	ldd	r24, Y+14	; 0x0e
    9ee4:	80 31       	cpi	r24, 0x10	; 16
    9ee6:	91 f4       	brne	.+36     	; 0x9f0c <_ZN4UTFT9drawVLineEiii+0x62>
    9ee8:	e8 89       	ldd	r30, Y+16	; 0x10
    9eea:	f9 89       	ldd	r31, Y+17	; 0x11
    9eec:	90 81       	ld	r25, Z
    9eee:	8e 8d       	ldd	r24, Y+30	; 0x1e
    9ef0:	89 2b       	or	r24, r25
    9ef2:	80 83       	st	Z, r24
    9ef4:	87 01       	movw	r16, r14
    9ef6:	ff 0c       	add	r15, r15
    9ef8:	22 0b       	sbc	r18, r18
    9efa:	33 0b       	sbc	r19, r19
    9efc:	49 81       	ldd	r20, Y+1	; 0x01
    9efe:	50 e0       	ldi	r21, 0x00	; 0
    9f00:	68 81       	ld	r22, Y
    9f02:	70 e0       	ldi	r23, 0x00	; 0
    9f04:	ce 01       	movw	r24, r28
    9f06:	0e 94 d6 44 	call	0x89ac	; 0x89ac <_ZN4UTFT13_fast_fill_16Eiil>
    9f0a:	21 c0       	rjmp	.+66     	; 0x9f4e <_ZN4UTFT9drawVLineEiii+0xa4>
    9f0c:	88 30       	cpi	r24, 0x08	; 8
    9f0e:	a1 f4       	brne	.+40     	; 0x9f38 <_ZN4UTFT9drawVLineEiii+0x8e>
    9f10:	98 81       	ld	r25, Y
    9f12:	89 81       	ldd	r24, Y+1	; 0x01
    9f14:	98 13       	cpse	r25, r24
    9f16:	10 c0       	rjmp	.+32     	; 0x9f38 <_ZN4UTFT9drawVLineEiii+0x8e>
    9f18:	e8 89       	ldd	r30, Y+16	; 0x10
    9f1a:	f9 89       	ldd	r31, Y+17	; 0x11
    9f1c:	90 81       	ld	r25, Z
    9f1e:	8e 8d       	ldd	r24, Y+30	; 0x1e
    9f20:	89 2b       	or	r24, r25
    9f22:	80 83       	st	Z, r24
    9f24:	97 01       	movw	r18, r14
    9f26:	ff 0c       	add	r15, r15
    9f28:	44 0b       	sbc	r20, r20
    9f2a:	55 0b       	sbc	r21, r21
    9f2c:	68 81       	ld	r22, Y
    9f2e:	70 e0       	ldi	r23, 0x00	; 0
    9f30:	ce 01       	movw	r24, r28
    9f32:	0e 94 08 46 	call	0x8c10	; 0x8c10 <_ZN4UTFT12_fast_fill_8Eil>
    9f36:	0b c0       	rjmp	.+22     	; 0x9f4e <_ZN4UTFT9drawVLineEiii+0xa4>
    9f38:	00 e0       	ldi	r16, 0x00	; 0
    9f3a:	10 e0       	ldi	r17, 0x00	; 0
    9f3c:	49 81       	ldd	r20, Y+1	; 0x01
    9f3e:	68 81       	ld	r22, Y
    9f40:	ce 01       	movw	r24, r28
    9f42:	5f da       	rcall	.-2882   	; 0x9402 <_ZN4UTFT14LCD_Write_DATAEcc>
    9f44:	0f 5f       	subi	r16, 0xFF	; 255
    9f46:	1f 4f       	sbci	r17, 0xFF	; 255
    9f48:	e0 16       	cp	r14, r16
    9f4a:	f1 06       	cpc	r15, r17
    9f4c:	bc f7       	brge	.-18     	; 0x9f3c <_ZN4UTFT9drawVLineEiii+0x92>
    9f4e:	ec 89       	ldd	r30, Y+20	; 0x14
    9f50:	fd 89       	ldd	r31, Y+21	; 0x15
    9f52:	90 81       	ld	r25, Z
    9f54:	88 a1       	ldd	r24, Y+32	; 0x20
    9f56:	89 2b       	or	r24, r25
    9f58:	80 83       	st	Z, r24
    9f5a:	ce 01       	movw	r24, r28
    9f5c:	df 91       	pop	r29
    9f5e:	cf 91       	pop	r28
    9f60:	1f 91       	pop	r17
    9f62:	0f 91       	pop	r16
    9f64:	ff 90       	pop	r15
    9f66:	ef 90       	pop	r14
    9f68:	e5 cb       	rjmp	.-2102   	; 0x9734 <_ZN4UTFT5clrXYEv>

00009f6a <_ZN4UTFT8drawRectEiiii>:
    9f6a:	8f 92       	push	r8
    9f6c:	9f 92       	push	r9
    9f6e:	af 92       	push	r10
    9f70:	bf 92       	push	r11
    9f72:	cf 92       	push	r12
    9f74:	df 92       	push	r13
    9f76:	ef 92       	push	r14
    9f78:	ff 92       	push	r15
    9f7a:	0f 93       	push	r16
    9f7c:	1f 93       	push	r17
    9f7e:	cf 93       	push	r28
    9f80:	df 93       	push	r29
    9f82:	5c 01       	movw	r10, r24
    9f84:	7b 01       	movw	r14, r22
    9f86:	ea 01       	movw	r28, r20
    9f88:	69 01       	movw	r12, r18
    9f8a:	26 17       	cp	r18, r22
    9f8c:	37 07       	cpc	r19, r23
    9f8e:	24 f4       	brge	.+8      	; 0x9f98 <_ZN4UTFT8drawRectEiiii+0x2e>
    9f90:	8f 2d       	mov	r24, r15
    9f92:	79 01       	movw	r14, r18
    9f94:	c6 2e       	mov	r12, r22
    9f96:	d8 2e       	mov	r13, r24
    9f98:	0c 17       	cp	r16, r28
    9f9a:	1d 07       	cpc	r17, r29
    9f9c:	2c f4       	brge	.+10     	; 0x9fa8 <_ZN4UTFT8drawRectEiiii+0x3e>
    9f9e:	9c 2f       	mov	r25, r28
    9fa0:	8d 2f       	mov	r24, r29
    9fa2:	e8 01       	movw	r28, r16
    9fa4:	09 2f       	mov	r16, r25
    9fa6:	18 2f       	mov	r17, r24
    9fa8:	46 01       	movw	r8, r12
    9faa:	8e 18       	sub	r8, r14
    9fac:	9f 08       	sbc	r9, r15
    9fae:	94 01       	movw	r18, r8
    9fb0:	ae 01       	movw	r20, r28
    9fb2:	b7 01       	movw	r22, r14
    9fb4:	c5 01       	movw	r24, r10
    9fb6:	0a de       	rcall	.-1004   	; 0x9bcc <_ZN4UTFT9drawHLineEiii>
    9fb8:	94 01       	movw	r18, r8
    9fba:	a8 01       	movw	r20, r16
    9fbc:	b7 01       	movw	r22, r14
    9fbe:	c5 01       	movw	r24, r10
    9fc0:	05 de       	rcall	.-1014   	; 0x9bcc <_ZN4UTFT9drawHLineEiii>
    9fc2:	0c 1b       	sub	r16, r28
    9fc4:	1d 0b       	sbc	r17, r29
    9fc6:	98 01       	movw	r18, r16
    9fc8:	ae 01       	movw	r20, r28
    9fca:	b7 01       	movw	r22, r14
    9fcc:	c5 01       	movw	r24, r10
    9fce:	6d df       	rcall	.-294    	; 0x9eaa <_ZN4UTFT9drawVLineEiii>
    9fd0:	98 01       	movw	r18, r16
    9fd2:	ae 01       	movw	r20, r28
    9fd4:	b6 01       	movw	r22, r12
    9fd6:	c5 01       	movw	r24, r10
    9fd8:	df 91       	pop	r29
    9fda:	cf 91       	pop	r28
    9fdc:	1f 91       	pop	r17
    9fde:	0f 91       	pop	r16
    9fe0:	ff 90       	pop	r15
    9fe2:	ef 90       	pop	r14
    9fe4:	df 90       	pop	r13
    9fe6:	cf 90       	pop	r12
    9fe8:	bf 90       	pop	r11
    9fea:	af 90       	pop	r10
    9fec:	9f 90       	pop	r9
    9fee:	8f 90       	pop	r8
    9ff0:	5c cf       	rjmp	.-328    	; 0x9eaa <_ZN4UTFT9drawVLineEiii>

00009ff2 <_ZN4UTFT13drawRoundRectEiiii>:
    9ff2:	2f 92       	push	r2
    9ff4:	3f 92       	push	r3
    9ff6:	4f 92       	push	r4
    9ff8:	5f 92       	push	r5
    9ffa:	6f 92       	push	r6
    9ffc:	7f 92       	push	r7
    9ffe:	8f 92       	push	r8
    a000:	9f 92       	push	r9
    a002:	af 92       	push	r10
    a004:	bf 92       	push	r11
    a006:	cf 92       	push	r12
    a008:	df 92       	push	r13
    a00a:	ef 92       	push	r14
    a00c:	ff 92       	push	r15
    a00e:	0f 93       	push	r16
    a010:	1f 93       	push	r17
    a012:	cf 93       	push	r28
    a014:	df 93       	push	r29
    a016:	00 d0       	rcall	.+0      	; 0xa018 <_ZN4UTFT13drawRoundRectEiiii+0x26>
    a018:	1f 92       	push	r1
    a01a:	cd b7       	in	r28, 0x3d	; 61
    a01c:	de b7       	in	r29, 0x3e	; 62
    a01e:	7c 01       	movw	r14, r24
    a020:	6b 01       	movw	r12, r22
    a022:	5c 83       	std	Y+4, r21	; 0x04
    a024:	4b 83       	std	Y+3, r20	; 0x03
    a026:	39 01       	movw	r6, r18
    a028:	26 17       	cp	r18, r22
    a02a:	37 07       	cpc	r19, r23
    a02c:	24 f4       	brge	.+8      	; 0xa036 <_ZN4UTFT13drawRoundRectEiiii+0x44>
    a02e:	8d 2d       	mov	r24, r13
    a030:	69 01       	movw	r12, r18
    a032:	66 2e       	mov	r6, r22
    a034:	78 2e       	mov	r7, r24
    a036:	2b 81       	ldd	r18, Y+3	; 0x03
    a038:	3c 81       	ldd	r19, Y+4	; 0x04
    a03a:	02 17       	cp	r16, r18
    a03c:	13 07       	cpc	r17, r19
    a03e:	34 f4       	brge	.+12     	; 0xa04c <_ZN4UTFT13drawRoundRectEiiii+0x5a>
    a040:	9b 81       	ldd	r25, Y+3	; 0x03
    a042:	8c 81       	ldd	r24, Y+4	; 0x04
    a044:	1c 83       	std	Y+4, r17	; 0x04
    a046:	0b 83       	std	Y+3, r16	; 0x03
    a048:	09 2f       	mov	r16, r25
    a04a:	18 2f       	mov	r17, r24
    a04c:	13 01       	movw	r2, r6
    a04e:	2c 18       	sub	r2, r12
    a050:	3d 08       	sbc	r3, r13
    a052:	35 e0       	ldi	r19, 0x05	; 5
    a054:	23 16       	cp	r2, r19
    a056:	31 04       	cpc	r3, r1
    a058:	0c f4       	brge	.+2      	; 0xa05c <_ZN4UTFT13drawRoundRectEiiii+0x6a>
    a05a:	66 c0       	rjmp	.+204    	; 0xa128 <_ZN4UTFT13drawRoundRectEiiii+0x136>
    a05c:	c8 01       	movw	r24, r16
    a05e:	eb 81       	ldd	r30, Y+3	; 0x03
    a060:	fc 81       	ldd	r31, Y+4	; 0x04
    a062:	8e 1b       	sub	r24, r30
    a064:	9f 0b       	sbc	r25, r31
    a066:	9a 83       	std	Y+2, r25	; 0x02
    a068:	89 83       	std	Y+1, r24	; 0x01
    a06a:	05 97       	sbiw	r24, 0x05	; 5
    a06c:	0c f4       	brge	.+2      	; 0xa070 <_ZN4UTFT13drawRoundRectEiiii+0x7e>
    a06e:	5c c0       	rjmp	.+184    	; 0xa128 <_ZN4UTFT13drawRoundRectEiiii+0x136>
    a070:	5f 01       	movw	r10, r30
    a072:	ff ef       	ldi	r31, 0xFF	; 255
    a074:	af 1a       	sub	r10, r31
    a076:	bf 0a       	sbc	r11, r31
    a078:	46 01       	movw	r8, r12
    a07a:	2f ef       	ldi	r18, 0xFF	; 255
    a07c:	82 1a       	sub	r8, r18
    a07e:	92 0a       	sbc	r9, r18
    a080:	a5 01       	movw	r20, r10
    a082:	b4 01       	movw	r22, r8
    a084:	c7 01       	movw	r24, r14
    a086:	7e dd       	rcall	.-1284   	; 0x9b84 <_ZN4UTFT9drawPixelEii>
    a088:	23 01       	movw	r4, r6
    a08a:	31 e0       	ldi	r19, 0x01	; 1
    a08c:	43 1a       	sub	r4, r19
    a08e:	51 08       	sbc	r5, r1
    a090:	a5 01       	movw	r20, r10
    a092:	b2 01       	movw	r22, r4
    a094:	c7 01       	movw	r24, r14
    a096:	76 dd       	rcall	.-1300   	; 0x9b84 <_ZN4UTFT9drawPixelEii>
    a098:	58 01       	movw	r10, r16
    a09a:	81 e0       	ldi	r24, 0x01	; 1
    a09c:	a8 1a       	sub	r10, r24
    a09e:	b1 08       	sbc	r11, r1
    a0a0:	a5 01       	movw	r20, r10
    a0a2:	b4 01       	movw	r22, r8
    a0a4:	c7 01       	movw	r24, r14
    a0a6:	6e dd       	rcall	.-1316   	; 0x9b84 <_ZN4UTFT9drawPixelEii>
    a0a8:	a5 01       	movw	r20, r10
    a0aa:	b2 01       	movw	r22, r4
    a0ac:	c7 01       	movw	r24, r14
    a0ae:	6a dd       	rcall	.-1324   	; 0x9b84 <_ZN4UTFT9drawPixelEii>
    a0b0:	51 01       	movw	r10, r2
    a0b2:	94 e0       	ldi	r25, 0x04	; 4
    a0b4:	a9 1a       	sub	r10, r25
    a0b6:	b1 08       	sbc	r11, r1
    a0b8:	46 01       	movw	r8, r12
    a0ba:	e2 e0       	ldi	r30, 0x02	; 2
    a0bc:	8e 0e       	add	r8, r30
    a0be:	91 1c       	adc	r9, r1
    a0c0:	95 01       	movw	r18, r10
    a0c2:	4b 81       	ldd	r20, Y+3	; 0x03
    a0c4:	5c 81       	ldd	r21, Y+4	; 0x04
    a0c6:	b4 01       	movw	r22, r8
    a0c8:	c7 01       	movw	r24, r14
    a0ca:	80 dd       	rcall	.-1280   	; 0x9bcc <_ZN4UTFT9drawHLineEiii>
    a0cc:	95 01       	movw	r18, r10
    a0ce:	a8 01       	movw	r20, r16
    a0d0:	b4 01       	movw	r22, r8
    a0d2:	c7 01       	movw	r24, r14
    a0d4:	7b dd       	rcall	.-1290   	; 0x9bcc <_ZN4UTFT9drawHLineEiii>
    a0d6:	09 81       	ldd	r16, Y+1	; 0x01
    a0d8:	1a 81       	ldd	r17, Y+2	; 0x02
    a0da:	04 50       	subi	r16, 0x04	; 4
    a0dc:	11 09       	sbc	r17, r1
    a0de:	ab 80       	ldd	r10, Y+3	; 0x03
    a0e0:	bc 80       	ldd	r11, Y+4	; 0x04
    a0e2:	f2 e0       	ldi	r31, 0x02	; 2
    a0e4:	af 0e       	add	r10, r31
    a0e6:	b1 1c       	adc	r11, r1
    a0e8:	98 01       	movw	r18, r16
    a0ea:	a5 01       	movw	r20, r10
    a0ec:	b6 01       	movw	r22, r12
    a0ee:	c7 01       	movw	r24, r14
    a0f0:	dc de       	rcall	.-584    	; 0x9eaa <_ZN4UTFT9drawVLineEiii>
    a0f2:	98 01       	movw	r18, r16
    a0f4:	a5 01       	movw	r20, r10
    a0f6:	b3 01       	movw	r22, r6
    a0f8:	c7 01       	movw	r24, r14
    a0fa:	0f 90       	pop	r0
    a0fc:	0f 90       	pop	r0
    a0fe:	0f 90       	pop	r0
    a100:	0f 90       	pop	r0
    a102:	df 91       	pop	r29
    a104:	cf 91       	pop	r28
    a106:	1f 91       	pop	r17
    a108:	0f 91       	pop	r16
    a10a:	ff 90       	pop	r15
    a10c:	ef 90       	pop	r14
    a10e:	df 90       	pop	r13
    a110:	cf 90       	pop	r12
    a112:	bf 90       	pop	r11
    a114:	af 90       	pop	r10
    a116:	9f 90       	pop	r9
    a118:	8f 90       	pop	r8
    a11a:	7f 90       	pop	r7
    a11c:	6f 90       	pop	r6
    a11e:	5f 90       	pop	r5
    a120:	4f 90       	pop	r4
    a122:	3f 90       	pop	r3
    a124:	2f 90       	pop	r2
    a126:	c1 ce       	rjmp	.-638    	; 0x9eaa <_ZN4UTFT9drawVLineEiii>
    a128:	0f 90       	pop	r0
    a12a:	0f 90       	pop	r0
    a12c:	0f 90       	pop	r0
    a12e:	0f 90       	pop	r0
    a130:	df 91       	pop	r29
    a132:	cf 91       	pop	r28
    a134:	1f 91       	pop	r17
    a136:	0f 91       	pop	r16
    a138:	ff 90       	pop	r15
    a13a:	ef 90       	pop	r14
    a13c:	df 90       	pop	r13
    a13e:	cf 90       	pop	r12
    a140:	bf 90       	pop	r11
    a142:	af 90       	pop	r10
    a144:	9f 90       	pop	r9
    a146:	8f 90       	pop	r8
    a148:	7f 90       	pop	r7
    a14a:	6f 90       	pop	r6
    a14c:	5f 90       	pop	r5
    a14e:	4f 90       	pop	r4
    a150:	3f 90       	pop	r3
    a152:	2f 90       	pop	r2
    a154:	08 95       	ret

0000a156 <_ZN4UTFT8fillRectEiiii>:
    a156:	6f 92       	push	r6
    a158:	7f 92       	push	r7
    a15a:	8f 92       	push	r8
    a15c:	9f 92       	push	r9
    a15e:	af 92       	push	r10
    a160:	bf 92       	push	r11
    a162:	cf 92       	push	r12
    a164:	df 92       	push	r13
    a166:	ef 92       	push	r14
    a168:	ff 92       	push	r15
    a16a:	0f 93       	push	r16
    a16c:	1f 93       	push	r17
    a16e:	cf 93       	push	r28
    a170:	df 93       	push	r29
    a172:	ec 01       	movw	r28, r24
    a174:	5b 01       	movw	r10, r22
    a176:	4a 01       	movw	r8, r20
    a178:	79 01       	movw	r14, r18
    a17a:	68 01       	movw	r12, r16
    a17c:	26 17       	cp	r18, r22
    a17e:	37 07       	cpc	r19, r23
    a180:	24 f4       	brge	.+8      	; 0xa18a <_ZN4UTFT8fillRectEiiii+0x34>
    a182:	8b 2d       	mov	r24, r11
    a184:	59 01       	movw	r10, r18
    a186:	e6 2e       	mov	r14, r22
    a188:	f8 2e       	mov	r15, r24
    a18a:	c8 14       	cp	r12, r8
    a18c:	d9 04       	cpc	r13, r9
    a18e:	2c f4       	brge	.+10     	; 0xa19a <_ZN4UTFT8fillRectEiiii+0x44>
    a190:	98 2d       	mov	r25, r8
    a192:	89 2d       	mov	r24, r9
    a194:	46 01       	movw	r8, r12
    a196:	c9 2e       	mov	r12, r25
    a198:	d8 2e       	mov	r13, r24
    a19a:	8e 85       	ldd	r24, Y+14	; 0x0e
    a19c:	80 31       	cpi	r24, 0x10	; 16
    a19e:	d1 f5       	brne	.+116    	; 0xa214 <_ZN4UTFT8fillRectEiiii+0xbe>
    a1a0:	ec 89       	ldd	r30, Y+20	; 0x14
    a1a2:	fd 89       	ldd	r31, Y+21	; 0x15
    a1a4:	90 81       	ld	r25, Z
    a1a6:	88 a1       	ldd	r24, Y+32	; 0x20
    a1a8:	80 95       	com	r24
    a1aa:	89 23       	and	r24, r25
    a1ac:	80 83       	st	Z, r24
    a1ae:	86 01       	movw	r16, r12
    a1b0:	97 01       	movw	r18, r14
    a1b2:	a4 01       	movw	r20, r8
    a1b4:	b5 01       	movw	r22, r10
    a1b6:	ce 01       	movw	r24, r28
    a1b8:	5b da       	rcall	.-2890   	; 0x9670 <_ZN4UTFT5setXYEjjjj>
    a1ba:	e8 89       	ldd	r30, Y+16	; 0x10
    a1bc:	f9 89       	ldd	r31, Y+17	; 0x11
    a1be:	90 81       	ld	r25, Z
    a1c0:	8e 8d       	ldd	r24, Y+30	; 0x1e
    a1c2:	89 2b       	or	r24, r25
    a1c4:	80 83       	st	Z, r24
    a1c6:	97 01       	movw	r18, r14
    a1c8:	2a 19       	sub	r18, r10
    a1ca:	3b 09       	sbc	r19, r11
    a1cc:	c9 01       	movw	r24, r18
    a1ce:	33 0f       	add	r19, r19
    a1d0:	aa 0b       	sbc	r26, r26
    a1d2:	bb 0b       	sbc	r27, r27
    a1d4:	9c 01       	movw	r18, r24
    a1d6:	ad 01       	movw	r20, r26
    a1d8:	2f 5f       	subi	r18, 0xFF	; 255
    a1da:	3f 4f       	sbci	r19, 0xFF	; 255
    a1dc:	4f 4f       	sbci	r20, 0xFF	; 255
    a1de:	5f 4f       	sbci	r21, 0xFF	; 255
    a1e0:	b6 01       	movw	r22, r12
    a1e2:	68 19       	sub	r22, r8
    a1e4:	79 09       	sbc	r23, r9
    a1e6:	cb 01       	movw	r24, r22
    a1e8:	77 0f       	add	r23, r23
    a1ea:	aa 0b       	sbc	r26, r26
    a1ec:	bb 0b       	sbc	r27, r27
    a1ee:	bc 01       	movw	r22, r24
    a1f0:	cd 01       	movw	r24, r26
    a1f2:	6f 5f       	subi	r22, 0xFF	; 255
    a1f4:	7f 4f       	sbci	r23, 0xFF	; 255
    a1f6:	8f 4f       	sbci	r24, 0xFF	; 255
    a1f8:	9f 4f       	sbci	r25, 0xFF	; 255
    a1fa:	0e 94 93 59 	call	0xb326	; 0xb326 <__mulsi3>
    a1fe:	8b 01       	movw	r16, r22
    a200:	9c 01       	movw	r18, r24
    a202:	49 81       	ldd	r20, Y+1	; 0x01
    a204:	50 e0       	ldi	r21, 0x00	; 0
    a206:	88 81       	ld	r24, Y
    a208:	68 2f       	mov	r22, r24
    a20a:	70 e0       	ldi	r23, 0x00	; 0
    a20c:	ce 01       	movw	r24, r28
    a20e:	0e 94 d6 44 	call	0x89ac	; 0x89ac <_ZN4UTFT13_fast_fill_16Eiil>
    a212:	3e c0       	rjmp	.+124    	; 0xa290 <_ZN4UTFT8fillRectEiiii+0x13a>
    a214:	88 30       	cpi	r24, 0x08	; 8
    a216:	09 f0       	breq	.+2      	; 0xa21a <_ZN4UTFT8fillRectEiiii+0xc4>
    a218:	42 c0       	rjmp	.+132    	; 0xa29e <_ZN4UTFT8fillRectEiiii+0x148>
    a21a:	98 81       	ld	r25, Y
    a21c:	89 81       	ldd	r24, Y+1	; 0x01
    a21e:	98 13       	cpse	r25, r24
    a220:	3e c0       	rjmp	.+124    	; 0xa29e <_ZN4UTFT8fillRectEiiii+0x148>
    a222:	ec 89       	ldd	r30, Y+20	; 0x14
    a224:	fd 89       	ldd	r31, Y+21	; 0x15
    a226:	90 81       	ld	r25, Z
    a228:	88 a1       	ldd	r24, Y+32	; 0x20
    a22a:	80 95       	com	r24
    a22c:	89 23       	and	r24, r25
    a22e:	80 83       	st	Z, r24
    a230:	86 01       	movw	r16, r12
    a232:	97 01       	movw	r18, r14
    a234:	a4 01       	movw	r20, r8
    a236:	b5 01       	movw	r22, r10
    a238:	ce 01       	movw	r24, r28
    a23a:	1a da       	rcall	.-3020   	; 0x9670 <_ZN4UTFT5setXYEjjjj>
    a23c:	e8 89       	ldd	r30, Y+16	; 0x10
    a23e:	f9 89       	ldd	r31, Y+17	; 0x11
    a240:	90 81       	ld	r25, Z
    a242:	8e 8d       	ldd	r24, Y+30	; 0x1e
    a244:	89 2b       	or	r24, r25
    a246:	80 83       	st	Z, r24
    a248:	97 01       	movw	r18, r14
    a24a:	2a 19       	sub	r18, r10
    a24c:	3b 09       	sbc	r19, r11
    a24e:	c9 01       	movw	r24, r18
    a250:	33 0f       	add	r19, r19
    a252:	aa 0b       	sbc	r26, r26
    a254:	bb 0b       	sbc	r27, r27
    a256:	9c 01       	movw	r18, r24
    a258:	ad 01       	movw	r20, r26
    a25a:	2f 5f       	subi	r18, 0xFF	; 255
    a25c:	3f 4f       	sbci	r19, 0xFF	; 255
    a25e:	4f 4f       	sbci	r20, 0xFF	; 255
    a260:	5f 4f       	sbci	r21, 0xFF	; 255
    a262:	b6 01       	movw	r22, r12
    a264:	68 19       	sub	r22, r8
    a266:	79 09       	sbc	r23, r9
    a268:	cb 01       	movw	r24, r22
    a26a:	77 0f       	add	r23, r23
    a26c:	aa 0b       	sbc	r26, r26
    a26e:	bb 0b       	sbc	r27, r27
    a270:	bc 01       	movw	r22, r24
    a272:	cd 01       	movw	r24, r26
    a274:	6f 5f       	subi	r22, 0xFF	; 255
    a276:	7f 4f       	sbci	r23, 0xFF	; 255
    a278:	8f 4f       	sbci	r24, 0xFF	; 255
    a27a:	9f 4f       	sbci	r25, 0xFF	; 255
    a27c:	0e 94 93 59 	call	0xb326	; 0xb326 <__mulsi3>
    a280:	9b 01       	movw	r18, r22
    a282:	ac 01       	movw	r20, r24
    a284:	88 81       	ld	r24, Y
    a286:	68 2f       	mov	r22, r24
    a288:	70 e0       	ldi	r23, 0x00	; 0
    a28a:	ce 01       	movw	r24, r28
    a28c:	0e 94 08 46 	call	0x8c10	; 0x8c10 <_ZN4UTFT12_fast_fill_8Eil>
    a290:	ec 89       	ldd	r30, Y+20	; 0x14
    a292:	fd 89       	ldd	r31, Y+21	; 0x15
    a294:	90 81       	ld	r25, Z
    a296:	88 a1       	ldd	r24, Y+32	; 0x20
    a298:	89 2b       	or	r24, r25
    a29a:	80 83       	st	Z, r24
    a29c:	48 c0       	rjmp	.+144    	; 0xa32e <_ZN4UTFT8fillRectEiiii+0x1d8>
    a29e:	8c 81       	ldd	r24, Y+4	; 0x04
    a2a0:	88 23       	and	r24, r24
    a2a2:	79 f0       	breq	.+30     	; 0xa2c2 <_ZN4UTFT8fillRectEiiii+0x16c>
    a2a4:	37 01       	movw	r6, r14
    a2a6:	6a 18       	sub	r6, r10
    a2a8:	7b 08       	sbc	r7, r11
    a2aa:	77 fe       	sbrs	r7, 7
    a2ac:	03 c0       	rjmp	.+6      	; 0xa2b4 <_ZN4UTFT8fillRectEiiii+0x15e>
    a2ae:	8f ef       	ldi	r24, 0xFF	; 255
    a2b0:	68 1a       	sub	r6, r24
    a2b2:	78 0a       	sbc	r7, r24
    a2b4:	75 94       	asr	r7
    a2b6:	67 94       	ror	r6
    a2b8:	00 e0       	ldi	r16, 0x00	; 0
    a2ba:	10 e0       	ldi	r17, 0x00	; 0
    a2bc:	c8 18       	sub	r12, r8
    a2be:	d9 08       	sbc	r13, r9
    a2c0:	22 c0       	rjmp	.+68     	; 0xa306 <_ZN4UTFT8fillRectEiiii+0x1b0>
    a2c2:	36 01       	movw	r6, r12
    a2c4:	68 18       	sub	r6, r8
    a2c6:	79 08       	sbc	r7, r9
    a2c8:	77 fe       	sbrs	r7, 7
    a2ca:	03 c0       	rjmp	.+6      	; 0xa2d2 <_ZN4UTFT8fillRectEiiii+0x17c>
    a2cc:	8f ef       	ldi	r24, 0xFF	; 255
    a2ce:	68 1a       	sub	r6, r24
    a2d0:	78 0a       	sbc	r7, r24
    a2d2:	75 94       	asr	r7
    a2d4:	67 94       	ror	r6
    a2d6:	00 e0       	ldi	r16, 0x00	; 0
    a2d8:	10 e0       	ldi	r17, 0x00	; 0
    a2da:	ea 18       	sub	r14, r10
    a2dc:	fb 08       	sbc	r15, r11
    a2de:	60 16       	cp	r6, r16
    a2e0:	71 06       	cpc	r7, r17
    a2e2:	2c f1       	brlt	.+74     	; 0xa32e <_ZN4UTFT8fillRectEiiii+0x1d8>
    a2e4:	a8 01       	movw	r20, r16
    a2e6:	48 0d       	add	r20, r8
    a2e8:	59 1d       	adc	r21, r9
    a2ea:	97 01       	movw	r18, r14
    a2ec:	b5 01       	movw	r22, r10
    a2ee:	ce 01       	movw	r24, r28
    a2f0:	6d dc       	rcall	.-1830   	; 0x9bcc <_ZN4UTFT9drawHLineEiii>
    a2f2:	a6 01       	movw	r20, r12
    a2f4:	40 1b       	sub	r20, r16
    a2f6:	51 0b       	sbc	r21, r17
    a2f8:	97 01       	movw	r18, r14
    a2fa:	b5 01       	movw	r22, r10
    a2fc:	ce 01       	movw	r24, r28
    a2fe:	66 dc       	rcall	.-1844   	; 0x9bcc <_ZN4UTFT9drawHLineEiii>
    a300:	0f 5f       	subi	r16, 0xFF	; 255
    a302:	1f 4f       	sbci	r17, 0xFF	; 255
    a304:	ec cf       	rjmp	.-40     	; 0xa2de <_ZN4UTFT8fillRectEiiii+0x188>
    a306:	60 16       	cp	r6, r16
    a308:	71 06       	cpc	r7, r17
    a30a:	8c f0       	brlt	.+34     	; 0xa32e <_ZN4UTFT8fillRectEiiii+0x1d8>
    a30c:	b8 01       	movw	r22, r16
    a30e:	6a 0d       	add	r22, r10
    a310:	7b 1d       	adc	r23, r11
    a312:	96 01       	movw	r18, r12
    a314:	a4 01       	movw	r20, r8
    a316:	ce 01       	movw	r24, r28
    a318:	c8 dd       	rcall	.-1136   	; 0x9eaa <_ZN4UTFT9drawVLineEiii>
    a31a:	b7 01       	movw	r22, r14
    a31c:	60 1b       	sub	r22, r16
    a31e:	71 0b       	sbc	r23, r17
    a320:	96 01       	movw	r18, r12
    a322:	a4 01       	movw	r20, r8
    a324:	ce 01       	movw	r24, r28
    a326:	c1 dd       	rcall	.-1150   	; 0x9eaa <_ZN4UTFT9drawVLineEiii>
    a328:	0f 5f       	subi	r16, 0xFF	; 255
    a32a:	1f 4f       	sbci	r17, 0xFF	; 255
    a32c:	ec cf       	rjmp	.-40     	; 0xa306 <_ZN4UTFT8fillRectEiiii+0x1b0>
    a32e:	df 91       	pop	r29
    a330:	cf 91       	pop	r28
    a332:	1f 91       	pop	r17
    a334:	0f 91       	pop	r16
    a336:	ff 90       	pop	r15
    a338:	ef 90       	pop	r14
    a33a:	df 90       	pop	r13
    a33c:	cf 90       	pop	r12
    a33e:	bf 90       	pop	r11
    a340:	af 90       	pop	r10
    a342:	9f 90       	pop	r9
    a344:	8f 90       	pop	r8
    a346:	7f 90       	pop	r7
    a348:	6f 90       	pop	r6
    a34a:	08 95       	ret

0000a34c <_ZN4UTFT8drawLineEiiii>:
    a34c:	2f 92       	push	r2
    a34e:	3f 92       	push	r3
    a350:	4f 92       	push	r4
    a352:	5f 92       	push	r5
    a354:	6f 92       	push	r6
    a356:	7f 92       	push	r7
    a358:	8f 92       	push	r8
    a35a:	9f 92       	push	r9
    a35c:	af 92       	push	r10
    a35e:	bf 92       	push	r11
    a360:	cf 92       	push	r12
    a362:	df 92       	push	r13
    a364:	ef 92       	push	r14
    a366:	ff 92       	push	r15
    a368:	0f 93       	push	r16
    a36a:	1f 93       	push	r17
    a36c:	cf 93       	push	r28
    a36e:	df 93       	push	r29
    a370:	00 d0       	rcall	.+0      	; 0xa372 <_ZN4UTFT8drawLineEiiii+0x26>
    a372:	1f 92       	push	r1
    a374:	cd b7       	in	r28, 0x3d	; 61
    a376:	de b7       	in	r29, 0x3e	; 62
    a378:	6c 01       	movw	r12, r24
    a37a:	7b 01       	movw	r14, r22
    a37c:	5c 83       	std	Y+4, r21	; 0x04
    a37e:	4b 83       	std	Y+3, r20	; 0x03
    a380:	59 01       	movw	r10, r18
    a382:	48 01       	movw	r8, r16
    a384:	40 17       	cp	r20, r16
    a386:	51 07       	cpc	r21, r17
    a388:	21 f4       	brne	.+8      	; 0xa392 <_ZN4UTFT8drawLineEiiii+0x46>
    a38a:	26 1b       	sub	r18, r22
    a38c:	37 0b       	sbc	r19, r23
    a38e:	1e dc       	rcall	.-1988   	; 0x9bcc <_ZN4UTFT9drawHLineEiii>
    a390:	9a c0       	rjmp	.+308    	; 0xa4c6 <_ZN4UTFT8drawLineEiiii+0x17a>
    a392:	62 17       	cp	r22, r18
    a394:	73 07       	cpc	r23, r19
    a396:	49 f4       	brne	.+18     	; 0xa3aa <_ZN4UTFT8drawLineEiiii+0x5e>
    a398:	98 01       	movw	r18, r16
    a39a:	8b 81       	ldd	r24, Y+3	; 0x03
    a39c:	9c 81       	ldd	r25, Y+4	; 0x04
    a39e:	28 1b       	sub	r18, r24
    a3a0:	39 0b       	sbc	r19, r25
    a3a2:	ac 01       	movw	r20, r24
    a3a4:	c6 01       	movw	r24, r12
    a3a6:	81 dd       	rcall	.-1278   	; 0x9eaa <_ZN4UTFT9drawVLineEiii>
    a3a8:	8e c0       	rjmp	.+284    	; 0xa4c6 <_ZN4UTFT8drawLineEiiii+0x17a>
    a3aa:	62 17       	cp	r22, r18
    a3ac:	73 07       	cpc	r23, r19
    a3ae:	24 f4       	brge	.+8      	; 0xa3b8 <_ZN4UTFT8drawLineEiiii+0x6c>
    a3b0:	29 01       	movw	r4, r18
    a3b2:	46 1a       	sub	r4, r22
    a3b4:	57 0a       	sbc	r5, r23
    a3b6:	03 c0       	rjmp	.+6      	; 0xa3be <_ZN4UTFT8drawLineEiiii+0x72>
    a3b8:	2b 01       	movw	r4, r22
    a3ba:	42 1a       	sub	r4, r18
    a3bc:	53 0a       	sbc	r5, r19
    a3be:	ea 14       	cp	r14, r10
    a3c0:	fb 04       	cpc	r15, r11
    a3c2:	24 f0       	brlt	.+8      	; 0xa3cc <_ZN4UTFT8drawLineEiiii+0x80>
    a3c4:	22 24       	eor	r2, r2
    a3c6:	2a 94       	dec	r2
    a3c8:	32 2c       	mov	r3, r2
    a3ca:	03 c0       	rjmp	.+6      	; 0xa3d2 <_ZN4UTFT8drawLineEiiii+0x86>
    a3cc:	22 24       	eor	r2, r2
    a3ce:	23 94       	inc	r2
    a3d0:	31 2c       	mov	r3, r1
    a3d2:	ab 81       	ldd	r26, Y+3	; 0x03
    a3d4:	bc 81       	ldd	r27, Y+4	; 0x04
    a3d6:	a8 15       	cp	r26, r8
    a3d8:	b9 05       	cpc	r27, r9
    a3da:	24 f4       	brge	.+8      	; 0xa3e4 <_ZN4UTFT8drawLineEiiii+0x98>
    a3dc:	34 01       	movw	r6, r8
    a3de:	6a 1a       	sub	r6, r26
    a3e0:	7b 0a       	sbc	r7, r27
    a3e2:	04 c0       	rjmp	.+8      	; 0xa3ec <_ZN4UTFT8drawLineEiiii+0xa0>
    a3e4:	6b 80       	ldd	r6, Y+3	; 0x03
    a3e6:	7c 80       	ldd	r7, Y+4	; 0x04
    a3e8:	68 18       	sub	r6, r8
    a3ea:	79 08       	sbc	r7, r9
    a3ec:	eb 81       	ldd	r30, Y+3	; 0x03
    a3ee:	fc 81       	ldd	r31, Y+4	; 0x04
    a3f0:	e8 15       	cp	r30, r8
    a3f2:	f9 05       	cpc	r31, r9
    a3f4:	2c f0       	brlt	.+10     	; 0xa400 <_ZN4UTFT8drawLineEiiii+0xb4>
    a3f6:	2f ef       	ldi	r18, 0xFF	; 255
    a3f8:	3f ef       	ldi	r19, 0xFF	; 255
    a3fa:	3a 83       	std	Y+2, r19	; 0x02
    a3fc:	29 83       	std	Y+1, r18	; 0x01
    a3fe:	04 c0       	rjmp	.+8      	; 0xa408 <_ZN4UTFT8drawLineEiiii+0xbc>
    a400:	81 e0       	ldi	r24, 0x01	; 1
    a402:	90 e0       	ldi	r25, 0x00	; 0
    a404:	9a 83       	std	Y+2, r25	; 0x02
    a406:	89 83       	std	Y+1, r24	; 0x01
    a408:	d6 01       	movw	r26, r12
    a40a:	54 96       	adiw	r26, 0x14	; 20
    a40c:	ed 91       	ld	r30, X+
    a40e:	fc 91       	ld	r31, X
    a410:	55 97       	sbiw	r26, 0x15	; 21
    a412:	90 81       	ld	r25, Z
    a414:	90 96       	adiw	r26, 0x20	; 32
    a416:	8c 91       	ld	r24, X
    a418:	80 95       	com	r24
    a41a:	89 23       	and	r24, r25
    a41c:	80 83       	st	Z, r24
    a41e:	46 14       	cp	r4, r6
    a420:	57 04       	cpc	r5, r7
    a422:	40 f5       	brcc	.+80     	; 0xa474 <_ZN4UTFT8drawLineEiiii+0x128>
    a424:	53 01       	movw	r10, r6
    a426:	b6 94       	lsr	r11
    a428:	a7 94       	ror	r10
    a42a:	b1 94       	neg	r11
    a42c:	a1 94       	neg	r10
    a42e:	b1 08       	sbc	r11, r1
    a430:	0b 81       	ldd	r16, Y+3	; 0x03
    a432:	1c 81       	ldd	r17, Y+4	; 0x04
    a434:	97 01       	movw	r18, r14
    a436:	a8 01       	movw	r20, r16
    a438:	b7 01       	movw	r22, r14
    a43a:	c6 01       	movw	r24, r12
    a43c:	19 d9       	rcall	.-3534   	; 0x9670 <_ZN4UTFT5setXYEjjjj>
    a43e:	f6 01       	movw	r30, r12
    a440:	41 81       	ldd	r20, Z+1	; 0x01
    a442:	60 81       	ld	r22, Z
    a444:	c6 01       	movw	r24, r12
    a446:	0e 94 01 4a 	call	0x9402	; 0x9402 <_ZN4UTFT14LCD_Write_DATAEcc>
    a44a:	2b 81       	ldd	r18, Y+3	; 0x03
    a44c:	3c 81       	ldd	r19, Y+4	; 0x04
    a44e:	28 15       	cp	r18, r8
    a450:	39 05       	cpc	r19, r9
    a452:	09 f4       	brne	.+2      	; 0xa456 <_ZN4UTFT8drawLineEiiii+0x10a>
    a454:	50 c0       	rjmp	.+160    	; 0xa4f6 <_ZN4UTFT8drawLineEiiii+0x1aa>
    a456:	89 81       	ldd	r24, Y+1	; 0x01
    a458:	9a 81       	ldd	r25, Y+2	; 0x02
    a45a:	28 0f       	add	r18, r24
    a45c:	39 1f       	adc	r19, r25
    a45e:	3c 83       	std	Y+4, r19	; 0x04
    a460:	2b 83       	std	Y+3, r18	; 0x03
    a462:	a4 0c       	add	r10, r4
    a464:	b5 1c       	adc	r11, r5
    a466:	b7 fc       	sbrc	r11, 7
    a468:	e3 cf       	rjmp	.-58     	; 0xa430 <_ZN4UTFT8drawLineEiiii+0xe4>
    a46a:	e2 0c       	add	r14, r2
    a46c:	f3 1c       	adc	r15, r3
    a46e:	a6 18       	sub	r10, r6
    a470:	b7 08       	sbc	r11, r7
    a472:	de cf       	rjmp	.-68     	; 0xa430 <_ZN4UTFT8drawLineEiiii+0xe4>
    a474:	42 01       	movw	r8, r4
    a476:	96 94       	lsr	r9
    a478:	87 94       	ror	r8
    a47a:	91 94       	neg	r9
    a47c:	81 94       	neg	r8
    a47e:	91 08       	sbc	r9, r1
    a480:	0b 81       	ldd	r16, Y+3	; 0x03
    a482:	1c 81       	ldd	r17, Y+4	; 0x04
    a484:	97 01       	movw	r18, r14
    a486:	a8 01       	movw	r20, r16
    a488:	b7 01       	movw	r22, r14
    a48a:	c6 01       	movw	r24, r12
    a48c:	f1 d8       	rcall	.-3614   	; 0x9670 <_ZN4UTFT5setXYEjjjj>
    a48e:	d6 01       	movw	r26, r12
    a490:	11 96       	adiw	r26, 0x01	; 1
    a492:	4c 91       	ld	r20, X
    a494:	11 97       	sbiw	r26, 0x01	; 1
    a496:	6c 91       	ld	r22, X
    a498:	c6 01       	movw	r24, r12
    a49a:	0e 94 01 4a 	call	0x9402	; 0x9402 <_ZN4UTFT14LCD_Write_DATAEcc>
    a49e:	ea 14       	cp	r14, r10
    a4a0:	fb 04       	cpc	r15, r11
    a4a2:	49 f1       	breq	.+82     	; 0xa4f6 <_ZN4UTFT8drawLineEiiii+0x1aa>
    a4a4:	e2 0c       	add	r14, r2
    a4a6:	f3 1c       	adc	r15, r3
    a4a8:	86 0c       	add	r8, r6
    a4aa:	97 1c       	adc	r9, r7
    a4ac:	97 fc       	sbrc	r9, 7
    a4ae:	e8 cf       	rjmp	.-48     	; 0xa480 <_ZN4UTFT8drawLineEiiii+0x134>
    a4b0:	eb 81       	ldd	r30, Y+3	; 0x03
    a4b2:	fc 81       	ldd	r31, Y+4	; 0x04
    a4b4:	29 81       	ldd	r18, Y+1	; 0x01
    a4b6:	3a 81       	ldd	r19, Y+2	; 0x02
    a4b8:	e2 0f       	add	r30, r18
    a4ba:	f3 1f       	adc	r31, r19
    a4bc:	fc 83       	std	Y+4, r31	; 0x04
    a4be:	eb 83       	std	Y+3, r30	; 0x03
    a4c0:	84 18       	sub	r8, r4
    a4c2:	95 08       	sbc	r9, r5
    a4c4:	dd cf       	rjmp	.-70     	; 0xa480 <_ZN4UTFT8drawLineEiiii+0x134>
    a4c6:	c6 01       	movw	r24, r12
    a4c8:	0f 90       	pop	r0
    a4ca:	0f 90       	pop	r0
    a4cc:	0f 90       	pop	r0
    a4ce:	0f 90       	pop	r0
    a4d0:	df 91       	pop	r29
    a4d2:	cf 91       	pop	r28
    a4d4:	1f 91       	pop	r17
    a4d6:	0f 91       	pop	r16
    a4d8:	ff 90       	pop	r15
    a4da:	ef 90       	pop	r14
    a4dc:	df 90       	pop	r13
    a4de:	cf 90       	pop	r12
    a4e0:	bf 90       	pop	r11
    a4e2:	af 90       	pop	r10
    a4e4:	9f 90       	pop	r9
    a4e6:	8f 90       	pop	r8
    a4e8:	7f 90       	pop	r7
    a4ea:	6f 90       	pop	r6
    a4ec:	5f 90       	pop	r5
    a4ee:	4f 90       	pop	r4
    a4f0:	3f 90       	pop	r3
    a4f2:	2f 90       	pop	r2
    a4f4:	1f c9       	rjmp	.-3522   	; 0x9734 <_ZN4UTFT5clrXYEv>
    a4f6:	0f 90       	pop	r0
    a4f8:	0f 90       	pop	r0
    a4fa:	0f 90       	pop	r0
    a4fc:	0f 90       	pop	r0
    a4fe:	df 91       	pop	r29
    a500:	cf 91       	pop	r28
    a502:	1f 91       	pop	r17
    a504:	0f 91       	pop	r16
    a506:	ff 90       	pop	r15
    a508:	ef 90       	pop	r14
    a50a:	df 90       	pop	r13
    a50c:	cf 90       	pop	r12
    a50e:	bf 90       	pop	r11
    a510:	af 90       	pop	r10
    a512:	9f 90       	pop	r9
    a514:	8f 90       	pop	r8
    a516:	7f 90       	pop	r7
    a518:	6f 90       	pop	r6
    a51a:	5f 90       	pop	r5
    a51c:	4f 90       	pop	r4
    a51e:	3f 90       	pop	r3
    a520:	2f 90       	pop	r2
    a522:	08 95       	ret

0000a524 <_ZN4UTFT9printCharEhii>:
    a524:	2f 92       	push	r2
    a526:	3f 92       	push	r3
    a528:	4f 92       	push	r4
    a52a:	5f 92       	push	r5
    a52c:	6f 92       	push	r6
    a52e:	7f 92       	push	r7
    a530:	8f 92       	push	r8
    a532:	9f 92       	push	r9
    a534:	af 92       	push	r10
    a536:	bf 92       	push	r11
    a538:	cf 92       	push	r12
    a53a:	df 92       	push	r13
    a53c:	ef 92       	push	r14
    a53e:	ff 92       	push	r15
    a540:	0f 93       	push	r16
    a542:	1f 93       	push	r17
    a544:	cf 93       	push	r28
    a546:	df 93       	push	r29
    a548:	cd b7       	in	r28, 0x3d	; 61
    a54a:	de b7       	in	r29, 0x3e	; 62
    a54c:	28 97       	sbiw	r28, 0x08	; 8
    a54e:	0f b6       	in	r0, 0x3f	; 63
    a550:	f8 94       	cli
    a552:	de bf       	out	0x3e, r29	; 62
    a554:	0f be       	out	0x3f, r0	; 63
    a556:	cd bf       	out	0x3d, r28	; 61
    a558:	98 87       	std	Y+8, r25	; 0x08
    a55a:	8f 83       	std	Y+7, r24	; 0x07
    a55c:	2a 01       	movw	r4, r20
    a55e:	19 01       	movw	r2, r18
    a560:	dc 01       	movw	r26, r24
    a562:	54 96       	adiw	r26, 0x14	; 20
    a564:	ed 91       	ld	r30, X+
    a566:	fc 91       	ld	r31, X
    a568:	55 97       	sbiw	r26, 0x15	; 21
    a56a:	90 81       	ld	r25, Z
    a56c:	90 96       	adiw	r26, 0x20	; 32
    a56e:	8c 91       	ld	r24, X
    a570:	90 97       	sbiw	r26, 0x20	; 32
    a572:	80 95       	com	r24
    a574:	89 23       	and	r24, r25
    a576:	80 83       	st	Z, r24
    a578:	d0 96       	adiw	r26, 0x30	; 48
    a57a:	2c 91       	ld	r18, X
    a57c:	d0 97       	sbiw	r26, 0x30	; 48
    a57e:	9d 96       	adiw	r26, 0x2d	; 45
    a580:	9c 91       	ld	r25, X
    a582:	9d 97       	sbiw	r26, 0x2d	; 45
    a584:	9c 96       	adiw	r26, 0x2c	; 44
    a586:	8c 91       	ld	r24, X
    a588:	9c 97       	sbiw	r26, 0x2c	; 44
    a58a:	e6 2e       	mov	r14, r22
    a58c:	f1 2c       	mov	r15, r1
    a58e:	21 11       	cpse	r18, r1
    a590:	2d c1       	rjmp	.+602    	; 0xa7ec <_ZN4UTFT9printCharEhii+0x2c8>
    a592:	14 96       	adiw	r26, 0x04	; 4
    a594:	2c 91       	ld	r18, X
    a596:	14 97       	sbiw	r26, 0x04	; 4
    a598:	21 11       	cpse	r18, r1
    a59a:	99 c0       	rjmp	.+306    	; 0xa6ce <_ZN4UTFT9printCharEhii+0x1aa>
    a59c:	81 01       	movw	r16, r2
    a59e:	09 0f       	add	r16, r25
    a5a0:	11 1d       	adc	r17, r1
    a5a2:	01 50       	subi	r16, 0x01	; 1
    a5a4:	11 09       	sbc	r17, r1
    a5a6:	9a 01       	movw	r18, r20
    a5a8:	28 0f       	add	r18, r24
    a5aa:	31 1d       	adc	r19, r1
    a5ac:	21 50       	subi	r18, 0x01	; 1
    a5ae:	31 09       	sbc	r19, r1
    a5b0:	a1 01       	movw	r20, r2
    a5b2:	b2 01       	movw	r22, r4
    a5b4:	cd 01       	movw	r24, r26
    a5b6:	5c d8       	rcall	.-3912   	; 0x9670 <_ZN4UTFT5setXYEjjjj>
    a5b8:	ef 81       	ldd	r30, Y+7	; 0x07
    a5ba:	f8 85       	ldd	r31, Y+8	; 0x08
    a5bc:	84 a5       	ldd	r24, Z+44	; 0x2c
    a5be:	86 95       	lsr	r24
    a5c0:	86 95       	lsr	r24
    a5c2:	86 95       	lsr	r24
    a5c4:	95 a5       	ldd	r25, Z+45	; 0x2d
    a5c6:	26 a5       	ldd	r18, Z+46	; 0x2e
    a5c8:	e2 1a       	sub	r14, r18
    a5ca:	f1 08       	sbc	r15, r1
    a5cc:	89 9f       	mul	r24, r25
    a5ce:	c0 01       	movw	r24, r0
    a5d0:	11 24       	eor	r1, r1
    a5d2:	e8 9e       	mul	r14, r24
    a5d4:	90 01       	movw	r18, r0
    a5d6:	e9 9e       	mul	r14, r25
    a5d8:	30 0d       	add	r19, r0
    a5da:	f8 9e       	mul	r15, r24
    a5dc:	30 0d       	add	r19, r0
    a5de:	11 24       	eor	r1, r1
    a5e0:	79 01       	movw	r14, r18
    a5e2:	f4 e0       	ldi	r31, 0x04	; 4
    a5e4:	ef 0e       	add	r14, r31
    a5e6:	f1 1c       	adc	r15, r1
    a5e8:	a1 2c       	mov	r10, r1
    a5ea:	b1 2c       	mov	r11, r1
    a5ec:	af 81       	ldd	r26, Y+7	; 0x07
    a5ee:	b8 85       	ldd	r27, Y+8	; 0x08
    a5f0:	9c 96       	adiw	r26, 0x2c	; 44
    a5f2:	8c 91       	ld	r24, X
    a5f4:	9c 97       	sbiw	r26, 0x2c	; 44
    a5f6:	86 95       	lsr	r24
    a5f8:	86 95       	lsr	r24
    a5fa:	86 95       	lsr	r24
    a5fc:	9d 96       	adiw	r26, 0x2d	; 45
    a5fe:	9c 91       	ld	r25, X
    a600:	89 9f       	mul	r24, r25
    a602:	c0 01       	movw	r24, r0
    a604:	11 24       	eor	r1, r1
    a606:	a8 16       	cp	r10, r24
    a608:	b9 06       	cpc	r11, r25
    a60a:	08 f0       	brcs	.+2      	; 0xa60e <_ZN4UTFT9printCharEhii+0xea>
    a60c:	3a c0       	rjmp	.+116    	; 0xa682 <_ZN4UTFT9printCharEhii+0x15e>
    a60e:	af 81       	ldd	r26, Y+7	; 0x07
    a610:	b8 85       	ldd	r27, Y+8	; 0x08
    a612:	9a 96       	adiw	r26, 0x2a	; 42
    a614:	ed 91       	ld	r30, X+
    a616:	fc 91       	ld	r31, X
    a618:	9b 97       	sbiw	r26, 0x2b	; 43
    a61a:	ee 0d       	add	r30, r14
    a61c:	ff 1d       	adc	r31, r15
    a61e:	e4 91       	lpm	r30, Z
    a620:	67 e0       	ldi	r22, 0x07	; 7
    a622:	c6 2e       	mov	r12, r22
    a624:	d1 2c       	mov	r13, r1
    a626:	0e 2f       	mov	r16, r30
    a628:	10 e0       	ldi	r17, 0x00	; 0
    a62a:	c8 01       	movw	r24, r16
    a62c:	0c 2c       	mov	r0, r12
    a62e:	02 c0       	rjmp	.+4      	; 0xa634 <_ZN4UTFT9printCharEhii+0x110>
    a630:	95 95       	asr	r25
    a632:	87 95       	ror	r24
    a634:	0a 94       	dec	r0
    a636:	e2 f7       	brpl	.-8      	; 0xa630 <_ZN4UTFT9printCharEhii+0x10c>
    a638:	80 ff       	sbrs	r24, 0
    a63a:	0a c0       	rjmp	.+20     	; 0xa650 <_ZN4UTFT9printCharEhii+0x12c>
    a63c:	ef 81       	ldd	r30, Y+7	; 0x07
    a63e:	f8 85       	ldd	r31, Y+8	; 0x08
    a640:	60 81       	ld	r22, Z
    a642:	70 e0       	ldi	r23, 0x00	; 0
    a644:	76 2f       	mov	r23, r22
    a646:	66 27       	eor	r22, r22
    a648:	81 81       	ldd	r24, Z+1	; 0x01
    a64a:	68 2b       	or	r22, r24
    a64c:	cf 01       	movw	r24, r30
    a64e:	0d c0       	rjmp	.+26     	; 0xa66a <_ZN4UTFT9printCharEhii+0x146>
    a650:	af 81       	ldd	r26, Y+7	; 0x07
    a652:	b8 85       	ldd	r27, Y+8	; 0x08
    a654:	12 96       	adiw	r26, 0x02	; 2
    a656:	6c 91       	ld	r22, X
    a658:	12 97       	sbiw	r26, 0x02	; 2
    a65a:	70 e0       	ldi	r23, 0x00	; 0
    a65c:	76 2f       	mov	r23, r22
    a65e:	66 27       	eor	r22, r22
    a660:	13 96       	adiw	r26, 0x03	; 3
    a662:	8c 91       	ld	r24, X
    a664:	13 97       	sbiw	r26, 0x03	; 3
    a666:	68 2b       	or	r22, r24
    a668:	cd 01       	movw	r24, r26
    a66a:	89 da       	rcall	.-2798   	; 0x9b7e <_ZN4UTFT8setPixelEj>
    a66c:	b1 e0       	ldi	r27, 0x01	; 1
    a66e:	cb 1a       	sub	r12, r27
    a670:	d1 08       	sbc	r13, r1
    a672:	d8 f6       	brcc	.-74     	; 0xa62a <_ZN4UTFT9printCharEhii+0x106>
    a674:	ff ef       	ldi	r31, 0xFF	; 255
    a676:	ef 1a       	sub	r14, r31
    a678:	ff 0a       	sbc	r15, r31
    a67a:	8f ef       	ldi	r24, 0xFF	; 255
    a67c:	a8 1a       	sub	r10, r24
    a67e:	b8 0a       	sbc	r11, r24
    a680:	b5 cf       	rjmp	.-150    	; 0xa5ec <_ZN4UTFT9printCharEhii+0xc8>
    a682:	af 81       	ldd	r26, Y+7	; 0x07
    a684:	b8 85       	ldd	r27, Y+8	; 0x08
    a686:	54 96       	adiw	r26, 0x14	; 20
    a688:	ed 91       	ld	r30, X+
    a68a:	fc 91       	ld	r31, X
    a68c:	55 97       	sbiw	r26, 0x15	; 21
    a68e:	90 81       	ld	r25, Z
    a690:	90 96       	adiw	r26, 0x20	; 32
    a692:	8c 91       	ld	r24, X
    a694:	90 97       	sbiw	r26, 0x20	; 32
    a696:	89 2b       	or	r24, r25
    a698:	80 83       	st	Z, r24
    a69a:	cd 01       	movw	r24, r26
    a69c:	28 96       	adiw	r28, 0x08	; 8
    a69e:	0f b6       	in	r0, 0x3f	; 63
    a6a0:	f8 94       	cli
    a6a2:	de bf       	out	0x3e, r29	; 62
    a6a4:	0f be       	out	0x3f, r0	; 63
    a6a6:	cd bf       	out	0x3d, r28	; 61
    a6a8:	df 91       	pop	r29
    a6aa:	cf 91       	pop	r28
    a6ac:	1f 91       	pop	r17
    a6ae:	0f 91       	pop	r16
    a6b0:	ff 90       	pop	r15
    a6b2:	ef 90       	pop	r14
    a6b4:	df 90       	pop	r13
    a6b6:	cf 90       	pop	r12
    a6b8:	bf 90       	pop	r11
    a6ba:	af 90       	pop	r10
    a6bc:	9f 90       	pop	r9
    a6be:	8f 90       	pop	r8
    a6c0:	7f 90       	pop	r7
    a6c2:	6f 90       	pop	r6
    a6c4:	5f 90       	pop	r5
    a6c6:	4f 90       	pop	r4
    a6c8:	3f 90       	pop	r3
    a6ca:	2f 90       	pop	r2
    a6cc:	33 c8       	rjmp	.-3994   	; 0x9734 <_ZN4UTFT5clrXYEv>
    a6ce:	86 95       	lsr	r24
    a6d0:	86 95       	lsr	r24
    a6d2:	86 95       	lsr	r24
    a6d4:	ef 81       	ldd	r30, Y+7	; 0x07
    a6d6:	f8 85       	ldd	r31, Y+8	; 0x08
    a6d8:	26 a5       	ldd	r18, Z+46	; 0x2e
    a6da:	e2 1a       	sub	r14, r18
    a6dc:	f1 08       	sbc	r15, r1
    a6de:	89 9f       	mul	r24, r25
    a6e0:	c0 01       	movw	r24, r0
    a6e2:	11 24       	eor	r1, r1
    a6e4:	e8 9e       	mul	r14, r24
    a6e6:	90 01       	movw	r18, r0
    a6e8:	e9 9e       	mul	r14, r25
    a6ea:	30 0d       	add	r19, r0
    a6ec:	f8 9e       	mul	r15, r24
    a6ee:	30 0d       	add	r19, r0
    a6f0:	11 24       	eor	r1, r1
    a6f2:	79 01       	movw	r14, r18
    a6f4:	f4 e0       	ldi	r31, 0x04	; 4
    a6f6:	ef 0e       	add	r14, r31
    a6f8:	f1 1c       	adc	r15, r1
    a6fa:	c1 2c       	mov	r12, r1
    a6fc:	d1 2c       	mov	r13, r1
    a6fe:	ef 81       	ldd	r30, Y+7	; 0x07
    a700:	f8 85       	ldd	r31, Y+8	; 0x08
    a702:	24 a5       	ldd	r18, Z+44	; 0x2c
    a704:	62 2f       	mov	r22, r18
    a706:	66 95       	lsr	r22
    a708:	66 95       	lsr	r22
    a70a:	66 95       	lsr	r22
    a70c:	85 a5       	ldd	r24, Z+45	; 0x2d
    a70e:	68 9f       	mul	r22, r24
    a710:	c0 01       	movw	r24, r0
    a712:	11 24       	eor	r1, r1
    a714:	c8 16       	cp	r12, r24
    a716:	d9 06       	cpc	r13, r25
    a718:	08 f0       	brcs	.+2      	; 0xa71c <_ZN4UTFT9printCharEhii+0x1f8>
    a71a:	b3 cf       	rjmp	.-154    	; 0xa682 <_ZN4UTFT9printCharEhii+0x15e>
    a71c:	70 e0       	ldi	r23, 0x00	; 0
    a71e:	c6 01       	movw	r24, r12
    a720:	1d d6       	rcall	.+3130   	; 0xb35c <__udivmodhi4>
    a722:	ab 01       	movw	r20, r22
    a724:	42 0d       	add	r20, r2
    a726:	53 1d       	adc	r21, r3
    a728:	c2 01       	movw	r24, r4
    a72a:	82 0f       	add	r24, r18
    a72c:	91 1d       	adc	r25, r1
    a72e:	9c 01       	movw	r18, r24
    a730:	21 50       	subi	r18, 0x01	; 1
    a732:	31 09       	sbc	r19, r1
    a734:	8a 01       	movw	r16, r20
    a736:	b2 01       	movw	r22, r4
    a738:	8f 81       	ldd	r24, Y+7	; 0x07
    a73a:	98 85       	ldd	r25, Y+8	; 0x08
    a73c:	0e 94 38 4b 	call	0x9670	; 0x9670 <_ZN4UTFT5setXYEjjjj>
    a740:	af 81       	ldd	r26, Y+7	; 0x07
    a742:	b8 85       	ldd	r27, Y+8	; 0x08
    a744:	9c 96       	adiw	r26, 0x2c	; 44
    a746:	6c 90       	ld	r6, X
    a748:	66 94       	lsr	r6
    a74a:	66 94       	lsr	r6
    a74c:	66 94       	lsr	r6
    a74e:	71 2c       	mov	r7, r1
    a750:	47 01       	movw	r8, r14
    a752:	b1 e0       	ldi	r27, 0x01	; 1
    a754:	8b 1a       	sub	r8, r27
    a756:	91 08       	sbc	r9, r1
    a758:	af 81       	ldd	r26, Y+7	; 0x07
    a75a:	b8 85       	ldd	r27, Y+8	; 0x08
    a75c:	61 14       	cp	r6, r1
    a75e:	71 04       	cpc	r7, r1
    a760:	d1 f1       	breq	.+116    	; 0xa7d6 <_ZN4UTFT9printCharEhii+0x2b2>
    a762:	9a 96       	adiw	r26, 0x2a	; 42
    a764:	ed 91       	ld	r30, X+
    a766:	fc 91       	ld	r31, X
    a768:	9b 97       	sbiw	r26, 0x2b	; 43
    a76a:	c4 01       	movw	r24, r8
    a76c:	86 0d       	add	r24, r6
    a76e:	97 1d       	adc	r25, r7
    a770:	e8 0f       	add	r30, r24
    a772:	f9 1f       	adc	r31, r25
    a774:	e4 91       	lpm	r30, Z
    a776:	a1 2c       	mov	r10, r1
    a778:	b1 2c       	mov	r11, r1
    a77a:	0e 2f       	mov	r16, r30
    a77c:	10 e0       	ldi	r17, 0x00	; 0
    a77e:	c8 01       	movw	r24, r16
    a780:	0a 2c       	mov	r0, r10
    a782:	02 c0       	rjmp	.+4      	; 0xa788 <_ZN4UTFT9printCharEhii+0x264>
    a784:	95 95       	asr	r25
    a786:	87 95       	ror	r24
    a788:	0a 94       	dec	r0
    a78a:	e2 f7       	brpl	.-8      	; 0xa784 <_ZN4UTFT9printCharEhii+0x260>
    a78c:	80 ff       	sbrs	r24, 0
    a78e:	0a c0       	rjmp	.+20     	; 0xa7a4 <_ZN4UTFT9printCharEhii+0x280>
    a790:	ef 81       	ldd	r30, Y+7	; 0x07
    a792:	f8 85       	ldd	r31, Y+8	; 0x08
    a794:	60 81       	ld	r22, Z
    a796:	70 e0       	ldi	r23, 0x00	; 0
    a798:	76 2f       	mov	r23, r22
    a79a:	66 27       	eor	r22, r22
    a79c:	81 81       	ldd	r24, Z+1	; 0x01
    a79e:	68 2b       	or	r22, r24
    a7a0:	cf 01       	movw	r24, r30
    a7a2:	0d c0       	rjmp	.+26     	; 0xa7be <_ZN4UTFT9printCharEhii+0x29a>
    a7a4:	af 81       	ldd	r26, Y+7	; 0x07
    a7a6:	b8 85       	ldd	r27, Y+8	; 0x08
    a7a8:	12 96       	adiw	r26, 0x02	; 2
    a7aa:	6c 91       	ld	r22, X
    a7ac:	12 97       	sbiw	r26, 0x02	; 2
    a7ae:	70 e0       	ldi	r23, 0x00	; 0
    a7b0:	76 2f       	mov	r23, r22
    a7b2:	66 27       	eor	r22, r22
    a7b4:	13 96       	adiw	r26, 0x03	; 3
    a7b6:	8c 91       	ld	r24, X
    a7b8:	13 97       	sbiw	r26, 0x03	; 3
    a7ba:	68 2b       	or	r22, r24
    a7bc:	cd 01       	movw	r24, r26
    a7be:	df d9       	rcall	.-3138   	; 0x9b7e <_ZN4UTFT8setPixelEj>
    a7c0:	bf ef       	ldi	r27, 0xFF	; 255
    a7c2:	ab 1a       	sub	r10, r27
    a7c4:	bb 0a       	sbc	r11, r27
    a7c6:	e8 e0       	ldi	r30, 0x08	; 8
    a7c8:	ae 16       	cp	r10, r30
    a7ca:	b1 04       	cpc	r11, r1
    a7cc:	c1 f6       	brne	.-80     	; 0xa77e <_ZN4UTFT9printCharEhii+0x25a>
    a7ce:	f1 e0       	ldi	r31, 0x01	; 1
    a7d0:	6f 1a       	sub	r6, r31
    a7d2:	71 08       	sbc	r7, r1
    a7d4:	c1 cf       	rjmp	.-126    	; 0xa758 <_ZN4UTFT9printCharEhii+0x234>
    a7d6:	9c 96       	adiw	r26, 0x2c	; 44
    a7d8:	8c 91       	ld	r24, X
    a7da:	86 95       	lsr	r24
    a7dc:	86 95       	lsr	r24
    a7de:	86 95       	lsr	r24
    a7e0:	90 e0       	ldi	r25, 0x00	; 0
    a7e2:	e8 0e       	add	r14, r24
    a7e4:	f9 1e       	adc	r15, r25
    a7e6:	c8 0e       	add	r12, r24
    a7e8:	d9 1e       	adc	r13, r25
    a7ea:	89 cf       	rjmp	.-238    	; 0xa6fe <_ZN4UTFT9printCharEhii+0x1da>
    a7ec:	86 95       	lsr	r24
    a7ee:	86 95       	lsr	r24
    a7f0:	86 95       	lsr	r24
    a7f2:	af 81       	ldd	r26, Y+7	; 0x07
    a7f4:	b8 85       	ldd	r27, Y+8	; 0x08
    a7f6:	9e 96       	adiw	r26, 0x2e	; 46
    a7f8:	2c 91       	ld	r18, X
    a7fa:	e2 1a       	sub	r14, r18
    a7fc:	f1 08       	sbc	r15, r1
    a7fe:	89 9f       	mul	r24, r25
    a800:	c0 01       	movw	r24, r0
    a802:	11 24       	eor	r1, r1
    a804:	e8 9e       	mul	r14, r24
    a806:	30 01       	movw	r6, r0
    a808:	e9 9e       	mul	r14, r25
    a80a:	70 0c       	add	r7, r0
    a80c:	f8 9e       	mul	r15, r24
    a80e:	70 0c       	add	r7, r0
    a810:	11 24       	eor	r1, r1
    a812:	b4 e0       	ldi	r27, 0x04	; 4
    a814:	6b 0e       	add	r6, r27
    a816:	71 1c       	adc	r7, r1
    a818:	71 01       	movw	r14, r2
    a81a:	ef 81       	ldd	r30, Y+7	; 0x07
    a81c:	f8 85       	ldd	r31, Y+8	; 0x08
    a81e:	85 a5       	ldd	r24, Z+45	; 0x2d
    a820:	90 e0       	ldi	r25, 0x00	; 0
    a822:	97 01       	movw	r18, r14
    a824:	22 19       	sub	r18, r2
    a826:	33 09       	sbc	r19, r3
    a828:	28 17       	cp	r18, r24
    a82a:	39 07       	cpc	r19, r25
    a82c:	08 f0       	brcs	.+2      	; 0xa830 <_ZN4UTFT9printCharEhii+0x30c>
    a82e:	29 cf       	rjmp	.-430    	; 0xa682 <_ZN4UTFT9printCharEhii+0x15e>
    a830:	81 2c       	mov	r8, r1
    a832:	91 2c       	mov	r9, r1
    a834:	c1 2c       	mov	r12, r1
    a836:	d1 2c       	mov	r13, r1
    a838:	f7 01       	movw	r30, r14
    a83a:	31 96       	adiw	r30, 0x01	; 1
    a83c:	fe 83       	std	Y+6, r31	; 0x06
    a83e:	ed 83       	std	Y+5, r30	; 0x05
    a840:	af 81       	ldd	r26, Y+7	; 0x07
    a842:	b8 85       	ldd	r27, Y+8	; 0x08
    a844:	9c 96       	adiw	r26, 0x2c	; 44
    a846:	8c 91       	ld	r24, X
    a848:	86 95       	lsr	r24
    a84a:	86 95       	lsr	r24
    a84c:	86 95       	lsr	r24
    a84e:	90 e0       	ldi	r25, 0x00	; 0
    a850:	c8 16       	cp	r12, r24
    a852:	d9 06       	cpc	r13, r25
    a854:	0c f0       	brlt	.+2      	; 0xa858 <_ZN4UTFT9printCharEhii+0x334>
    a856:	46 c0       	rjmp	.+140    	; 0xa8e4 <_ZN4UTFT9printCharEhii+0x3c0>
    a858:	af 81       	ldd	r26, Y+7	; 0x07
    a85a:	b8 85       	ldd	r27, Y+8	; 0x08
    a85c:	9a 96       	adiw	r26, 0x2a	; 42
    a85e:	ed 91       	ld	r30, X+
    a860:	fc 91       	ld	r31, X
    a862:	9b 97       	sbiw	r26, 0x2b	; 43
    a864:	c6 01       	movw	r24, r12
    a866:	86 0d       	add	r24, r6
    a868:	97 1d       	adc	r25, r7
    a86a:	e8 0f       	add	r30, r24
    a86c:	f9 1f       	adc	r31, r25
    a86e:	e4 91       	lpm	r30, Z
    a870:	b2 01       	movw	r22, r4
    a872:	68 0d       	add	r22, r8
    a874:	79 1d       	adc	r23, r9
    a876:	97 e0       	ldi	r25, 0x07	; 7
    a878:	a9 2e       	mov	r10, r25
    a87a:	b1 2c       	mov	r11, r1
    a87c:	8e 2f       	mov	r24, r30
    a87e:	90 e0       	ldi	r25, 0x00	; 0
    a880:	9c 83       	std	Y+4, r25	; 0x04
    a882:	8b 83       	std	Y+3, r24	; 0x03
    a884:	db 01       	movw	r26, r22
    a886:	11 96       	adiw	r26, 0x01	; 1
    a888:	ba 83       	std	Y+2, r27	; 0x02
    a88a:	a9 83       	std	Y+1, r26	; 0x01
    a88c:	8b 81       	ldd	r24, Y+3	; 0x03
    a88e:	9c 81       	ldd	r25, Y+4	; 0x04
    a890:	0a 2c       	mov	r0, r10
    a892:	02 c0       	rjmp	.+4      	; 0xa898 <_ZN4UTFT9printCharEhii+0x374>
    a894:	95 95       	asr	r25
    a896:	87 95       	ror	r24
    a898:	0a 94       	dec	r0
    a89a:	e2 f7       	brpl	.-8      	; 0xa894 <_ZN4UTFT9printCharEhii+0x370>
    a89c:	80 ff       	sbrs	r24, 0
    a89e:	12 c0       	rjmp	.+36     	; 0xa8c4 <_ZN4UTFT9printCharEhii+0x3a0>
    a8a0:	0d 81       	ldd	r16, Y+5	; 0x05
    a8a2:	1e 81       	ldd	r17, Y+6	; 0x06
    a8a4:	9d 01       	movw	r18, r26
    a8a6:	a7 01       	movw	r20, r14
    a8a8:	8f 81       	ldd	r24, Y+7	; 0x07
    a8aa:	98 85       	ldd	r25, Y+8	; 0x08
    a8ac:	0e 94 38 4b 	call	0x9670	; 0x9670 <_ZN4UTFT5setXYEjjjj>
    a8b0:	ef 81       	ldd	r30, Y+7	; 0x07
    a8b2:	f8 85       	ldd	r31, Y+8	; 0x08
    a8b4:	60 81       	ld	r22, Z
    a8b6:	70 e0       	ldi	r23, 0x00	; 0
    a8b8:	76 2f       	mov	r23, r22
    a8ba:	66 27       	eor	r22, r22
    a8bc:	81 81       	ldd	r24, Z+1	; 0x01
    a8be:	68 2b       	or	r22, r24
    a8c0:	cf 01       	movw	r24, r30
    a8c2:	5d d9       	rcall	.-3398   	; 0x9b7e <_ZN4UTFT8setPixelEj>
    a8c4:	f1 e0       	ldi	r31, 0x01	; 1
    a8c6:	af 1a       	sub	r10, r31
    a8c8:	b1 08       	sbc	r11, r1
    a8ca:	69 81       	ldd	r22, Y+1	; 0x01
    a8cc:	7a 81       	ldd	r23, Y+2	; 0x02
    a8ce:	8f ef       	ldi	r24, 0xFF	; 255
    a8d0:	a8 16       	cp	r10, r24
    a8d2:	b8 06       	cpc	r11, r24
    a8d4:	b9 f6       	brne	.-82     	; 0xa884 <_ZN4UTFT9printCharEhii+0x360>
    a8d6:	9f ef       	ldi	r25, 0xFF	; 255
    a8d8:	c9 1a       	sub	r12, r25
    a8da:	d9 0a       	sbc	r13, r25
    a8dc:	a8 e0       	ldi	r26, 0x08	; 8
    a8de:	8a 0e       	add	r8, r26
    a8e0:	91 1c       	adc	r9, r1
    a8e2:	ae cf       	rjmp	.-164    	; 0xa840 <_ZN4UTFT9printCharEhii+0x31c>
    a8e4:	68 0e       	add	r6, r24
    a8e6:	79 1e       	adc	r7, r25
    a8e8:	bf ef       	ldi	r27, 0xFF	; 255
    a8ea:	eb 1a       	sub	r14, r27
    a8ec:	fb 0a       	sbc	r15, r27
    a8ee:	95 cf       	rjmp	.-214    	; 0xa81a <_ZN4UTFT9printCharEhii+0x2f6>

0000a8f0 <_ZN4UTFT10rotateCharEhiiii>:
    a8f0:	2f 92       	push	r2
    a8f2:	3f 92       	push	r3
    a8f4:	4f 92       	push	r4
    a8f6:	5f 92       	push	r5
    a8f8:	6f 92       	push	r6
    a8fa:	7f 92       	push	r7
    a8fc:	8f 92       	push	r8
    a8fe:	9f 92       	push	r9
    a900:	af 92       	push	r10
    a902:	bf 92       	push	r11
    a904:	cf 92       	push	r12
    a906:	df 92       	push	r13
    a908:	ef 92       	push	r14
    a90a:	ff 92       	push	r15
    a90c:	0f 93       	push	r16
    a90e:	1f 93       	push	r17
    a910:	cf 93       	push	r28
    a912:	df 93       	push	r29
    a914:	cd b7       	in	r28, 0x3d	; 61
    a916:	de b7       	in	r29, 0x3e	; 62
    a918:	ad 97       	sbiw	r28, 0x2d	; 45
    a91a:	0f b6       	in	r0, 0x3f	; 63
    a91c:	f8 94       	cli
    a91e:	de bf       	out	0x3e, r29	; 62
    a920:	0f be       	out	0x3f, r0	; 63
    a922:	cd bf       	out	0x3d, r28	; 61
    a924:	9d a7       	std	Y+45, r25	; 0x2d
    a926:	8c a7       	std	Y+44, r24	; 0x2c
    a928:	96 2e       	mov	r9, r22
    a92a:	5a 01       	movw	r10, r20
    a92c:	69 01       	movw	r12, r18
    a92e:	1d 8f       	std	Y+29, r17	; 0x1d
    a930:	0c 8f       	std	Y+28, r16	; 0x1c
    a932:	b7 01       	movw	r22, r14
    a934:	ff 0c       	add	r15, r15
    a936:	88 0b       	sbc	r24, r24
    a938:	99 0b       	sbc	r25, r25
    a93a:	0e 94 e1 35 	call	0x6bc2	; 0x6bc2 <__floatsisf>
    a93e:	29 e2       	ldi	r18, 0x29	; 41
    a940:	3c e5       	ldi	r19, 0x5C	; 92
    a942:	4f e8       	ldi	r20, 0x8F	; 143
    a944:	5c e3       	ldi	r21, 0x3C	; 60
    a946:	0e 94 0a 37 	call	0x6e14	; 0x6e14 <__mulsf3>
    a94a:	2b 01       	movw	r4, r22
    a94c:	3c 01       	movw	r6, r24
    a94e:	ac a5       	ldd	r26, Y+44	; 0x2c
    a950:	bd a5       	ldd	r27, Y+45	; 0x2d
    a952:	54 96       	adiw	r26, 0x14	; 20
    a954:	ed 91       	ld	r30, X+
    a956:	fc 91       	ld	r31, X
    a958:	55 97       	sbiw	r26, 0x15	; 21
    a95a:	90 81       	ld	r25, Z
    a95c:	90 96       	adiw	r26, 0x20	; 32
    a95e:	8c 91       	ld	r24, X
    a960:	90 97       	sbiw	r26, 0x20	; 32
    a962:	80 95       	com	r24
    a964:	89 23       	and	r24, r25
    a966:	80 83       	st	Z, r24
    a968:	9c 96       	adiw	r26, 0x2c	; 44
    a96a:	8c 91       	ld	r24, X
    a96c:	9c 97       	sbiw	r26, 0x2c	; 44
    a96e:	86 95       	lsr	r24
    a970:	86 95       	lsr	r24
    a972:	86 95       	lsr	r24
    a974:	9d 96       	adiw	r26, 0x2d	; 45
    a976:	9c 91       	ld	r25, X
    a978:	9d 97       	sbiw	r26, 0x2d	; 45
    a97a:	29 2d       	mov	r18, r9
    a97c:	30 e0       	ldi	r19, 0x00	; 0
    a97e:	9e 96       	adiw	r26, 0x2e	; 46
    a980:	4c 91       	ld	r20, X
    a982:	24 1b       	sub	r18, r20
    a984:	31 09       	sbc	r19, r1
    a986:	89 9f       	mul	r24, r25
    a988:	c0 01       	movw	r24, r0
    a98a:	11 24       	eor	r1, r1
    a98c:	28 9f       	mul	r18, r24
    a98e:	a0 01       	movw	r20, r0
    a990:	29 9f       	mul	r18, r25
    a992:	50 0d       	add	r21, r0
    a994:	38 9f       	mul	r19, r24
    a996:	50 0d       	add	r21, r0
    a998:	11 24       	eor	r1, r1
    a99a:	fa 01       	movw	r30, r20
    a99c:	34 96       	adiw	r30, 0x04	; 4
    a99e:	f9 87       	std	Y+9, r31	; 0x09
    a9a0:	e8 87       	std	Y+8, r30	; 0x08
    a9a2:	19 82       	std	Y+1, r1	; 0x01
    a9a4:	95 01       	movw	r18, r10
    a9a6:	bb 0c       	add	r11, r11
    a9a8:	44 0b       	sbc	r20, r20
    a9aa:	55 0b       	sbc	r21, r21
    a9ac:	2c a3       	std	Y+36, r18	; 0x24
    a9ae:	3d a3       	std	Y+37, r19	; 0x25
    a9b0:	4e a3       	std	Y+38, r20	; 0x26
    a9b2:	5f a3       	std	Y+39, r21	; 0x27
    a9b4:	c6 01       	movw	r24, r12
    a9b6:	dd 0c       	add	r13, r13
    a9b8:	aa 0b       	sbc	r26, r26
    a9ba:	bb 0b       	sbc	r27, r27
    a9bc:	88 a7       	std	Y+40, r24	; 0x28
    a9be:	99 a7       	std	Y+41, r25	; 0x29
    a9c0:	aa a7       	std	Y+42, r26	; 0x2a
    a9c2:	bb a7       	std	Y+43, r27	; 0x2b
    a9c4:	ac a5       	ldd	r26, Y+44	; 0x2c
    a9c6:	bd a5       	ldd	r27, Y+45	; 0x2d
    a9c8:	9d 96       	adiw	r26, 0x2d	; 45
    a9ca:	8c 91       	ld	r24, X
    a9cc:	b9 81       	ldd	r27, Y+1	; 0x01
    a9ce:	b8 17       	cp	r27, r24
    a9d0:	08 f0       	brcs	.+2      	; 0xa9d4 <_ZN4UTFT10rotateCharEhiiii+0xe4>
    a9d2:	0c c1       	rjmp	.+536    	; 0xabec <_ZN4UTFT10rotateCharEhiiii+0x2fc>
    a9d4:	1b 86       	std	Y+11, r1	; 0x0b
    a9d6:	1a 86       	std	Y+10, r1	; 0x0a
    a9d8:	1b 82       	std	Y+3, r1	; 0x03
    a9da:	1a 82       	std	Y+2, r1	; 0x02
    a9dc:	39 81       	ldd	r19, Y+1	; 0x01
    a9de:	23 2f       	mov	r18, r19
    a9e0:	30 e0       	ldi	r19, 0x00	; 0
    a9e2:	40 e0       	ldi	r20, 0x00	; 0
    a9e4:	50 e0       	ldi	r21, 0x00	; 0
    a9e6:	28 a3       	std	Y+32, r18	; 0x20
    a9e8:	39 a3       	std	Y+33, r19	; 0x21
    a9ea:	4a a3       	std	Y+34, r20	; 0x22
    a9ec:	5b a3       	std	Y+35, r21	; 0x23
    a9ee:	ac a5       	ldd	r26, Y+44	; 0x2c
    a9f0:	bd a5       	ldd	r27, Y+45	; 0x2d
    a9f2:	9c 96       	adiw	r26, 0x2c	; 44
    a9f4:	8c 91       	ld	r24, X
    a9f6:	86 95       	lsr	r24
    a9f8:	86 95       	lsr	r24
    a9fa:	86 95       	lsr	r24
    a9fc:	90 e0       	ldi	r25, 0x00	; 0
    a9fe:	ea 81       	ldd	r30, Y+2	; 0x02
    aa00:	fb 81       	ldd	r31, Y+3	; 0x03
    aa02:	e8 17       	cp	r30, r24
    aa04:	f9 07       	cpc	r31, r25
    aa06:	0c f0       	brlt	.+2      	; 0xaa0a <_ZN4UTFT10rotateCharEhiiii+0x11a>
    aa08:	e7 c0       	rjmp	.+462    	; 0xabd8 <_ZN4UTFT10rotateCharEhiiii+0x2e8>
    aa0a:	ac a5       	ldd	r26, Y+44	; 0x2c
    aa0c:	bd a5       	ldd	r27, Y+45	; 0x2d
    aa0e:	9a 96       	adiw	r26, 0x2a	; 42
    aa10:	ed 91       	ld	r30, X+
    aa12:	fc 91       	ld	r31, X
    aa14:	9b 97       	sbiw	r26, 0x2b	; 43
    aa16:	8a 81       	ldd	r24, Y+2	; 0x02
    aa18:	9b 81       	ldd	r25, Y+3	; 0x03
    aa1a:	28 85       	ldd	r18, Y+8	; 0x08
    aa1c:	39 85       	ldd	r19, Y+9	; 0x09
    aa1e:	82 0f       	add	r24, r18
    aa20:	93 1f       	adc	r25, r19
    aa22:	e8 0f       	add	r30, r24
    aa24:	f9 1f       	adc	r31, r25
    aa26:	b4 90       	lpm	r11, Z
    aa28:	c3 01       	movw	r24, r6
    aa2a:	b2 01       	movw	r22, r4
    aa2c:	0e 94 43 35 	call	0x6a86	; 0x6a86 <cos>
    aa30:	6c 83       	std	Y+4, r22	; 0x04
    aa32:	7d 83       	std	Y+5, r23	; 0x05
    aa34:	8e 83       	std	Y+6, r24	; 0x06
    aa36:	9f 83       	std	Y+7, r25	; 0x07
    aa38:	68 a1       	ldd	r22, Y+32	; 0x20
    aa3a:	79 a1       	ldd	r23, Y+33	; 0x21
    aa3c:	8a a1       	ldd	r24, Y+34	; 0x22
    aa3e:	9b a1       	ldd	r25, Y+35	; 0x23
    aa40:	0e 94 e1 35 	call	0x6bc2	; 0x6bc2 <__floatsisf>
    aa44:	6b 01       	movw	r12, r22
    aa46:	7c 01       	movw	r14, r24
    aa48:	c3 01       	movw	r24, r6
    aa4a:	b2 01       	movw	r22, r4
    aa4c:	0e 94 6d 37 	call	0x6eda	; 0x6eda <sin>
    aa50:	68 8b       	std	Y+16, r22	; 0x10
    aa52:	79 8b       	std	Y+17, r23	; 0x11
    aa54:	8a 8b       	std	Y+18, r24	; 0x12
    aa56:	9b 8b       	std	Y+19, r25	; 0x13
    aa58:	9b 01       	movw	r18, r22
    aa5a:	ac 01       	movw	r20, r24
    aa5c:	c7 01       	movw	r24, r14
    aa5e:	b6 01       	movw	r22, r12
    aa60:	0e 94 0a 37 	call	0x6e14	; 0x6e14 <__mulsf3>
    aa64:	6c 8b       	std	Y+20, r22	; 0x14
    aa66:	7d 8b       	std	Y+21, r23	; 0x15
    aa68:	8e 8b       	std	Y+22, r24	; 0x16
    aa6a:	9f 8b       	std	Y+23, r25	; 0x17
    aa6c:	2c 81       	ldd	r18, Y+4	; 0x04
    aa6e:	3d 81       	ldd	r19, Y+5	; 0x05
    aa70:	4e 81       	ldd	r20, Y+6	; 0x06
    aa72:	5f 81       	ldd	r21, Y+7	; 0x07
    aa74:	c7 01       	movw	r24, r14
    aa76:	b6 01       	movw	r22, r12
    aa78:	0e 94 0a 37 	call	0x6e14	; 0x6e14 <__mulsf3>
    aa7c:	68 8f       	std	Y+24, r22	; 0x18
    aa7e:	79 8f       	std	Y+25, r23	; 0x19
    aa80:	8a 8f       	std	Y+26, r24	; 0x1a
    aa82:	9b 8f       	std	Y+27, r25	; 0x1b
    aa84:	21 2c       	mov	r2, r1
    aa86:	31 2c       	mov	r3, r1
    aa88:	4b 2d       	mov	r20, r11
    aa8a:	50 e0       	ldi	r21, 0x00	; 0
    aa8c:	5f 8f       	std	Y+31, r21	; 0x1f
    aa8e:	4e 8f       	std	Y+30, r20	; 0x1e
    aa90:	ac a5       	ldd	r26, Y+44	; 0x2c
    aa92:	bd a5       	ldd	r27, Y+45	; 0x2d
    aa94:	9c 96       	adiw	r26, 0x2c	; 44
    aa96:	2c 91       	ld	r18, X
    aa98:	ec 8d       	ldd	r30, Y+28	; 0x1c
    aa9a:	fd 8d       	ldd	r31, Y+29	; 0x1d
    aa9c:	2e 9f       	mul	r18, r30
    aa9e:	c0 01       	movw	r24, r0
    aaa0:	2f 9f       	mul	r18, r31
    aaa2:	90 0d       	add	r25, r0
    aaa4:	11 24       	eor	r1, r1
    aaa6:	6a 85       	ldd	r22, Y+10	; 0x0a
    aaa8:	7b 85       	ldd	r23, Y+11	; 0x0b
    aaaa:	62 0d       	add	r22, r2
    aaac:	73 1d       	adc	r23, r3
    aaae:	68 0f       	add	r22, r24
    aab0:	79 1f       	adc	r23, r25
    aab2:	07 2e       	mov	r0, r23
    aab4:	00 0c       	add	r0, r0
    aab6:	88 0b       	sbc	r24, r24
    aab8:	99 0b       	sbc	r25, r25
    aaba:	0e 94 e1 35 	call	0x6bc2	; 0x6bc2 <__floatsisf>
    aabe:	4b 01       	movw	r8, r22
    aac0:	5c 01       	movw	r10, r24
    aac2:	6c a1       	ldd	r22, Y+36	; 0x24
    aac4:	7d a1       	ldd	r23, Y+37	; 0x25
    aac6:	8e a1       	ldd	r24, Y+38	; 0x26
    aac8:	9f a1       	ldd	r25, Y+39	; 0x27
    aaca:	0e 94 e1 35 	call	0x6bc2	; 0x6bc2 <__floatsisf>
    aace:	6b 01       	movw	r12, r22
    aad0:	7c 01       	movw	r14, r24
    aad2:	2c 81       	ldd	r18, Y+4	; 0x04
    aad4:	3d 81       	ldd	r19, Y+5	; 0x05
    aad6:	4e 81       	ldd	r20, Y+6	; 0x06
    aad8:	5f 81       	ldd	r21, Y+7	; 0x07
    aada:	c5 01       	movw	r24, r10
    aadc:	b4 01       	movw	r22, r8
    aade:	0e 94 0a 37 	call	0x6e14	; 0x6e14 <__mulsf3>
    aae2:	2c 89       	ldd	r18, Y+20	; 0x14
    aae4:	3d 89       	ldd	r19, Y+21	; 0x15
    aae6:	4e 89       	ldd	r20, Y+22	; 0x16
    aae8:	5f 89       	ldd	r21, Y+23	; 0x17
    aaea:	0e 94 da 34 	call	0x69b4	; 0x69b4 <__subsf3>
    aaee:	9b 01       	movw	r18, r22
    aaf0:	ac 01       	movw	r20, r24
    aaf2:	c7 01       	movw	r24, r14
    aaf4:	b6 01       	movw	r22, r12
    aaf6:	0e 94 db 34 	call	0x69b6	; 0x69b6 <__addsf3>
    aafa:	0e 94 ae 35 	call	0x6b5c	; 0x6b5c <__fixsfsi>
    aafe:	6b 01       	movw	r12, r22
    ab00:	7c 01       	movw	r14, r24
    ab02:	68 a5       	ldd	r22, Y+40	; 0x28
    ab04:	79 a5       	ldd	r23, Y+41	; 0x29
    ab06:	8a a5       	ldd	r24, Y+42	; 0x2a
    ab08:	9b a5       	ldd	r25, Y+43	; 0x2b
    ab0a:	0e 94 e1 35 	call	0x6bc2	; 0x6bc2 <__floatsisf>
    ab0e:	6c 87       	std	Y+12, r22	; 0x0c
    ab10:	7d 87       	std	Y+13, r23	; 0x0d
    ab12:	8e 87       	std	Y+14, r24	; 0x0e
    ab14:	9f 87       	std	Y+15, r25	; 0x0f
    ab16:	28 89       	ldd	r18, Y+16	; 0x10
    ab18:	39 89       	ldd	r19, Y+17	; 0x11
    ab1a:	4a 89       	ldd	r20, Y+18	; 0x12
    ab1c:	5b 89       	ldd	r21, Y+19	; 0x13
    ab1e:	c5 01       	movw	r24, r10
    ab20:	b4 01       	movw	r22, r8
    ab22:	0e 94 0a 37 	call	0x6e14	; 0x6e14 <__mulsf3>
    ab26:	9b 01       	movw	r18, r22
    ab28:	ac 01       	movw	r20, r24
    ab2a:	68 8d       	ldd	r22, Y+24	; 0x18
    ab2c:	79 8d       	ldd	r23, Y+25	; 0x19
    ab2e:	8a 8d       	ldd	r24, Y+26	; 0x1a
    ab30:	9b 8d       	ldd	r25, Y+27	; 0x1b
    ab32:	0e 94 db 34 	call	0x69b6	; 0x69b6 <__addsf3>
    ab36:	9b 01       	movw	r18, r22
    ab38:	ac 01       	movw	r20, r24
    ab3a:	6c 85       	ldd	r22, Y+12	; 0x0c
    ab3c:	7d 85       	ldd	r23, Y+13	; 0x0d
    ab3e:	8e 85       	ldd	r24, Y+14	; 0x0e
    ab40:	9f 85       	ldd	r25, Y+15	; 0x0f
    ab42:	0e 94 db 34 	call	0x69b6	; 0x69b6 <__addsf3>
    ab46:	0e 94 ae 35 	call	0x6b5c	; 0x6b5c <__fixsfsi>
    ab4a:	8b 01       	movw	r16, r22
    ab4c:	0f 5f       	subi	r16, 0xFF	; 255
    ab4e:	1f 4f       	sbci	r17, 0xFF	; 255
    ab50:	96 01       	movw	r18, r12
    ab52:	2f 5f       	subi	r18, 0xFF	; 255
    ab54:	3f 4f       	sbci	r19, 0xFF	; 255
    ab56:	ab 01       	movw	r20, r22
    ab58:	b6 01       	movw	r22, r12
    ab5a:	8c a5       	ldd	r24, Y+44	; 0x2c
    ab5c:	9d a5       	ldd	r25, Y+45	; 0x2d
    ab5e:	0e 94 38 4b 	call	0x9670	; 0x9670 <_ZN4UTFT5setXYEjjjj>
    ab62:	87 e0       	ldi	r24, 0x07	; 7
    ab64:	90 e0       	ldi	r25, 0x00	; 0
    ab66:	82 19       	sub	r24, r2
    ab68:	93 09       	sbc	r25, r3
    ab6a:	2e 8d       	ldd	r18, Y+30	; 0x1e
    ab6c:	3f 8d       	ldd	r19, Y+31	; 0x1f
    ab6e:	02 c0       	rjmp	.+4      	; 0xab74 <_ZN4UTFT10rotateCharEhiiii+0x284>
    ab70:	35 95       	asr	r19
    ab72:	27 95       	ror	r18
    ab74:	8a 95       	dec	r24
    ab76:	e2 f7       	brpl	.-8      	; 0xab70 <_ZN4UTFT10rotateCharEhiiii+0x280>
    ab78:	20 ff       	sbrs	r18, 0
    ab7a:	0c c0       	rjmp	.+24     	; 0xab94 <_ZN4UTFT10rotateCharEhiiii+0x2a4>
    ab7c:	ac a5       	ldd	r26, Y+44	; 0x2c
    ab7e:	bd a5       	ldd	r27, Y+45	; 0x2d
    ab80:	6c 91       	ld	r22, X
    ab82:	70 e0       	ldi	r23, 0x00	; 0
    ab84:	76 2f       	mov	r23, r22
    ab86:	66 27       	eor	r22, r22
    ab88:	11 96       	adiw	r26, 0x01	; 1
    ab8a:	8c 91       	ld	r24, X
    ab8c:	11 97       	sbiw	r26, 0x01	; 1
    ab8e:	68 2b       	or	r22, r24
    ab90:	cd 01       	movw	r24, r26
    ab92:	0c c0       	rjmp	.+24     	; 0xabac <_ZN4UTFT10rotateCharEhiiii+0x2bc>
    ab94:	ec a5       	ldd	r30, Y+44	; 0x2c
    ab96:	fd a5       	ldd	r31, Y+45	; 0x2d
    ab98:	80 a9       	ldd	r24, Z+48	; 0x30
    ab9a:	81 11       	cpse	r24, r1
    ab9c:	09 c0       	rjmp	.+18     	; 0xabb0 <_ZN4UTFT10rotateCharEhiiii+0x2c0>
    ab9e:	62 81       	ldd	r22, Z+2	; 0x02
    aba0:	70 e0       	ldi	r23, 0x00	; 0
    aba2:	76 2f       	mov	r23, r22
    aba4:	66 27       	eor	r22, r22
    aba6:	83 81       	ldd	r24, Z+3	; 0x03
    aba8:	68 2b       	or	r22, r24
    abaa:	cf 01       	movw	r24, r30
    abac:	0e 94 bf 4d 	call	0x9b7e	; 0x9b7e <_ZN4UTFT8setPixelEj>
    abb0:	ff ef       	ldi	r31, 0xFF	; 255
    abb2:	2f 1a       	sub	r2, r31
    abb4:	3f 0a       	sbc	r3, r31
    abb6:	28 e0       	ldi	r18, 0x08	; 8
    abb8:	22 16       	cp	r2, r18
    abba:	31 04       	cpc	r3, r1
    abbc:	09 f0       	breq	.+2      	; 0xabc0 <_ZN4UTFT10rotateCharEhiiii+0x2d0>
    abbe:	68 cf       	rjmp	.-304    	; 0xaa90 <_ZN4UTFT10rotateCharEhiiii+0x1a0>
    abc0:	4a 81       	ldd	r20, Y+2	; 0x02
    abc2:	5b 81       	ldd	r21, Y+3	; 0x03
    abc4:	4f 5f       	subi	r20, 0xFF	; 255
    abc6:	5f 4f       	sbci	r21, 0xFF	; 255
    abc8:	5b 83       	std	Y+3, r21	; 0x03
    abca:	4a 83       	std	Y+2, r20	; 0x02
    abcc:	8a 85       	ldd	r24, Y+10	; 0x0a
    abce:	9b 85       	ldd	r25, Y+11	; 0x0b
    abd0:	08 96       	adiw	r24, 0x08	; 8
    abd2:	9b 87       	std	Y+11, r25	; 0x0b
    abd4:	8a 87       	std	Y+10, r24	; 0x0a
    abd6:	0b cf       	rjmp	.-490    	; 0xa9ee <_ZN4UTFT10rotateCharEhiiii+0xfe>
    abd8:	28 85       	ldd	r18, Y+8	; 0x08
    abda:	39 85       	ldd	r19, Y+9	; 0x09
    abdc:	28 0f       	add	r18, r24
    abde:	39 1f       	adc	r19, r25
    abe0:	39 87       	std	Y+9, r19	; 0x09
    abe2:	28 87       	std	Y+8, r18	; 0x08
    abe4:	39 81       	ldd	r19, Y+1	; 0x01
    abe6:	3f 5f       	subi	r19, 0xFF	; 255
    abe8:	39 83       	std	Y+1, r19	; 0x01
    abea:	ec ce       	rjmp	.-552    	; 0xa9c4 <_ZN4UTFT10rotateCharEhiiii+0xd4>
    abec:	ac a5       	ldd	r26, Y+44	; 0x2c
    abee:	bd a5       	ldd	r27, Y+45	; 0x2d
    abf0:	54 96       	adiw	r26, 0x14	; 20
    abf2:	ed 91       	ld	r30, X+
    abf4:	fc 91       	ld	r31, X
    abf6:	55 97       	sbiw	r26, 0x15	; 21
    abf8:	90 81       	ld	r25, Z
    abfa:	90 96       	adiw	r26, 0x20	; 32
    abfc:	8c 91       	ld	r24, X
    abfe:	90 97       	sbiw	r26, 0x20	; 32
    ac00:	89 2b       	or	r24, r25
    ac02:	80 83       	st	Z, r24
    ac04:	cd 01       	movw	r24, r26
    ac06:	ad 96       	adiw	r28, 0x2d	; 45
    ac08:	0f b6       	in	r0, 0x3f	; 63
    ac0a:	f8 94       	cli
    ac0c:	de bf       	out	0x3e, r29	; 62
    ac0e:	0f be       	out	0x3f, r0	; 63
    ac10:	cd bf       	out	0x3d, r28	; 61
    ac12:	df 91       	pop	r29
    ac14:	cf 91       	pop	r28
    ac16:	1f 91       	pop	r17
    ac18:	0f 91       	pop	r16
    ac1a:	ff 90       	pop	r15
    ac1c:	ef 90       	pop	r14
    ac1e:	df 90       	pop	r13
    ac20:	cf 90       	pop	r12
    ac22:	bf 90       	pop	r11
    ac24:	af 90       	pop	r10
    ac26:	9f 90       	pop	r9
    ac28:	8f 90       	pop	r8
    ac2a:	7f 90       	pop	r7
    ac2c:	6f 90       	pop	r6
    ac2e:	5f 90       	pop	r5
    ac30:	4f 90       	pop	r4
    ac32:	3f 90       	pop	r3
    ac34:	2f 90       	pop	r2
    ac36:	0c 94 9a 4b 	jmp	0x9734	; 0x9734 <_ZN4UTFT5clrXYEv>

0000ac3a <_ZN4UTFT5printEPciii>:
    ac3a:	2f 92       	push	r2
    ac3c:	3f 92       	push	r3
    ac3e:	4f 92       	push	r4
    ac40:	5f 92       	push	r5
    ac42:	6f 92       	push	r6
    ac44:	7f 92       	push	r7
    ac46:	8f 92       	push	r8
    ac48:	9f 92       	push	r9
    ac4a:	af 92       	push	r10
    ac4c:	bf 92       	push	r11
    ac4e:	cf 92       	push	r12
    ac50:	df 92       	push	r13
    ac52:	ef 92       	push	r14
    ac54:	ff 92       	push	r15
    ac56:	0f 93       	push	r16
    ac58:	1f 93       	push	r17
    ac5a:	cf 93       	push	r28
    ac5c:	df 93       	push	r29
    ac5e:	6c 01       	movw	r12, r24
    ac60:	2b 01       	movw	r4, r22
    ac62:	ea 01       	movw	r28, r20
    ac64:	39 01       	movw	r6, r18
    ac66:	18 01       	movw	r2, r16
    ac68:	fb 01       	movw	r30, r22
    ac6a:	01 90       	ld	r0, Z+
    ac6c:	00 20       	and	r0, r0
    ac6e:	e9 f7       	brne	.-6      	; 0xac6a <_ZN4UTFT5printEPciii+0x30>
    ac70:	31 97       	sbiw	r30, 0x01	; 1
    ac72:	5f 01       	movw	r10, r30
    ac74:	a6 1a       	sub	r10, r22
    ac76:	b7 0a       	sbc	r11, r23
    ac78:	fc 01       	movw	r30, r24
    ac7a:	84 81       	ldd	r24, Z+4	; 0x04
    ac7c:	81 11       	cpse	r24, r1
    ac7e:	19 c0       	rjmp	.+50     	; 0xacb2 <_ZN4UTFT5printEPciii+0x78>
    ac80:	4f 30       	cpi	r20, 0x0F	; 15
    ac82:	57 42       	sbci	r21, 0x27	; 39
    ac84:	61 f4       	brne	.+24     	; 0xac9e <_ZN4UTFT5printEPciii+0x64>
    ac86:	f6 01       	movw	r30, r12
    ac88:	c5 81       	ldd	r28, Z+5	; 0x05
    ac8a:	d6 81       	ldd	r29, Z+6	; 0x06
    ac8c:	21 96       	adiw	r28, 0x01	; 1
    ac8e:	24 a5       	ldd	r18, Z+44	; 0x2c
    ac90:	2a 9d       	mul	r18, r10
    ac92:	c0 01       	movw	r24, r0
    ac94:	2b 9d       	mul	r18, r11
    ac96:	90 0d       	add	r25, r0
    ac98:	11 24       	eor	r1, r1
    ac9a:	c8 1b       	sub	r28, r24
    ac9c:	d9 0b       	sbc	r29, r25
    ac9e:	ce 30       	cpi	r28, 0x0E	; 14
    aca0:	f7 e2       	ldi	r31, 0x27	; 39
    aca2:	df 07       	cpc	r29, r31
    aca4:	b9 f5       	brne	.+110    	; 0xad14 <_ZN4UTFT5printEPciii+0xda>
    aca6:	f6 01       	movw	r30, r12
    aca8:	85 81       	ldd	r24, Z+5	; 0x05
    acaa:	96 81       	ldd	r25, Z+6	; 0x06
    acac:	a7 81       	ldd	r26, Z+7	; 0x07
    acae:	b0 85       	ldd	r27, Z+8	; 0x08
    acb0:	18 c0       	rjmp	.+48     	; 0xace2 <_ZN4UTFT5printEPciii+0xa8>
    acb2:	4f 30       	cpi	r20, 0x0F	; 15
    acb4:	57 42       	sbci	r21, 0x27	; 39
    acb6:	61 f4       	brne	.+24     	; 0xacd0 <_ZN4UTFT5printEPciii+0x96>
    acb8:	f6 01       	movw	r30, r12
    acba:	c1 85       	ldd	r28, Z+9	; 0x09
    acbc:	d2 85       	ldd	r29, Z+10	; 0x0a
    acbe:	21 96       	adiw	r28, 0x01	; 1
    acc0:	24 a5       	ldd	r18, Z+44	; 0x2c
    acc2:	2a 9d       	mul	r18, r10
    acc4:	c0 01       	movw	r24, r0
    acc6:	2b 9d       	mul	r18, r11
    acc8:	90 0d       	add	r25, r0
    acca:	11 24       	eor	r1, r1
    accc:	c8 1b       	sub	r28, r24
    acce:	d9 0b       	sbc	r29, r25
    acd0:	ce 30       	cpi	r28, 0x0E	; 14
    acd2:	f7 e2       	ldi	r31, 0x27	; 39
    acd4:	df 07       	cpc	r29, r31
    acd6:	f1 f4       	brne	.+60     	; 0xad14 <_ZN4UTFT5printEPciii+0xda>
    acd8:	f6 01       	movw	r30, r12
    acda:	81 85       	ldd	r24, Z+9	; 0x09
    acdc:	92 85       	ldd	r25, Z+10	; 0x0a
    acde:	a3 85       	ldd	r26, Z+11	; 0x0b
    ace0:	b4 85       	ldd	r27, Z+12	; 0x0c
    ace2:	01 96       	adiw	r24, 0x01	; 1
    ace4:	a1 1d       	adc	r26, r1
    ace6:	b1 1d       	adc	r27, r1
    ace8:	24 a5       	ldd	r18, Z+44	; 0x2c
    acea:	2a 9d       	mul	r18, r10
    acec:	80 01       	movw	r16, r0
    acee:	2b 9d       	mul	r18, r11
    acf0:	10 0d       	add	r17, r0
    acf2:	11 24       	eor	r1, r1
    acf4:	01 2e       	mov	r0, r17
    acf6:	00 0c       	add	r0, r0
    acf8:	22 0b       	sbc	r18, r18
    acfa:	33 0b       	sbc	r19, r19
    acfc:	bc 01       	movw	r22, r24
    acfe:	cd 01       	movw	r24, r26
    ad00:	60 1b       	sub	r22, r16
    ad02:	71 0b       	sbc	r23, r17
    ad04:	82 0b       	sbc	r24, r18
    ad06:	93 0b       	sbc	r25, r19
    ad08:	22 e0       	ldi	r18, 0x02	; 2
    ad0a:	30 e0       	ldi	r19, 0x00	; 0
    ad0c:	40 e0       	ldi	r20, 0x00	; 0
    ad0e:	50 e0       	ldi	r21, 0x00	; 0
    ad10:	6e d3       	rcall	.+1756   	; 0xb3ee <__divmodsi4>
    ad12:	e9 01       	movw	r28, r18
    ad14:	81 2c       	mov	r8, r1
    ad16:	91 2c       	mov	r9, r1
    ad18:	8a 14       	cp	r8, r10
    ad1a:	9b 04       	cpc	r9, r11
    ad1c:	0c f5       	brge	.+66     	; 0xad60 <_ZN4UTFT5printEPciii+0x126>
    ad1e:	21 14       	cp	r2, r1
    ad20:	31 04       	cpc	r3, r1
    ad22:	79 f4       	brne	.+30     	; 0xad42 <_ZN4UTFT5printEPciii+0x108>
    ad24:	f6 01       	movw	r30, r12
    ad26:	84 a5       	ldd	r24, Z+44	; 0x2c
    ad28:	88 9d       	mul	r24, r8
    ad2a:	a0 01       	movw	r20, r0
    ad2c:	89 9d       	mul	r24, r9
    ad2e:	50 0d       	add	r21, r0
    ad30:	11 24       	eor	r1, r1
    ad32:	4c 0f       	add	r20, r28
    ad34:	5d 1f       	adc	r21, r29
    ad36:	93 01       	movw	r18, r6
    ad38:	f2 01       	movw	r30, r4
    ad3a:	60 81       	ld	r22, Z
    ad3c:	c6 01       	movw	r24, r12
    ad3e:	f2 db       	rcall	.-2076   	; 0xa524 <_ZN4UTFT9printCharEhii>
    ad40:	08 c0       	rjmp	.+16     	; 0xad52 <_ZN4UTFT5printEPciii+0x118>
    ad42:	71 01       	movw	r14, r2
    ad44:	84 01       	movw	r16, r8
    ad46:	93 01       	movw	r18, r6
    ad48:	ae 01       	movw	r20, r28
    ad4a:	f2 01       	movw	r30, r4
    ad4c:	60 81       	ld	r22, Z
    ad4e:	c6 01       	movw	r24, r12
    ad50:	cf dd       	rcall	.-1122   	; 0xa8f0 <_ZN4UTFT10rotateCharEhiiii>
    ad52:	ff ef       	ldi	r31, 0xFF	; 255
    ad54:	8f 1a       	sub	r8, r31
    ad56:	9f 0a       	sbc	r9, r31
    ad58:	8f ef       	ldi	r24, 0xFF	; 255
    ad5a:	48 1a       	sub	r4, r24
    ad5c:	58 0a       	sbc	r5, r24
    ad5e:	dc cf       	rjmp	.-72     	; 0xad18 <_ZN4UTFT5printEPciii+0xde>
    ad60:	df 91       	pop	r29
    ad62:	cf 91       	pop	r28
    ad64:	1f 91       	pop	r17
    ad66:	0f 91       	pop	r16
    ad68:	ff 90       	pop	r15
    ad6a:	ef 90       	pop	r14
    ad6c:	df 90       	pop	r13
    ad6e:	cf 90       	pop	r12
    ad70:	bf 90       	pop	r11
    ad72:	af 90       	pop	r10
    ad74:	9f 90       	pop	r9
    ad76:	8f 90       	pop	r8
    ad78:	7f 90       	pop	r7
    ad7a:	6f 90       	pop	r6
    ad7c:	5f 90       	pop	r5
    ad7e:	4f 90       	pop	r4
    ad80:	3f 90       	pop	r3
    ad82:	2f 90       	pop	r2
    ad84:	08 95       	ret

0000ad86 <_ZN4UTFT5printE6Stringiii>:
    ad86:	6f 92       	push	r6
    ad88:	7f 92       	push	r7
    ad8a:	8f 92       	push	r8
    ad8c:	9f 92       	push	r9
    ad8e:	af 92       	push	r10
    ad90:	bf 92       	push	r11
    ad92:	cf 92       	push	r12
    ad94:	df 92       	push	r13
    ad96:	ef 92       	push	r14
    ad98:	ff 92       	push	r15
    ad9a:	0f 93       	push	r16
    ad9c:	1f 93       	push	r17
    ad9e:	cf 93       	push	r28
    ada0:	df 93       	push	r29
    ada2:	cd b7       	in	r28, 0x3d	; 61
    ada4:	de b7       	in	r29, 0x3e	; 62
    ada6:	5c 01       	movw	r10, r24
    ada8:	cb 01       	movw	r24, r22
    adaa:	4a 01       	movw	r8, r20
    adac:	39 01       	movw	r6, r18
    adae:	cd b6       	in	r12, 0x3d	; 61
    adb0:	de b6       	in	r13, 0x3e	; 62
    adb2:	fb 01       	movw	r30, r22
    adb4:	44 81       	ldd	r20, Z+4	; 0x04
    adb6:	55 81       	ldd	r21, Z+5	; 0x05
    adb8:	4f 5f       	subi	r20, 0xFF	; 255
    adba:	5f 4f       	sbci	r21, 0xFF	; 255
    adbc:	2d b7       	in	r18, 0x3d	; 61
    adbe:	3e b7       	in	r19, 0x3e	; 62
    adc0:	24 1b       	sub	r18, r20
    adc2:	35 0b       	sbc	r19, r21
    adc4:	0f b6       	in	r0, 0x3f	; 63
    adc6:	f8 94       	cli
    adc8:	3e bf       	out	0x3e, r19	; 62
    adca:	0f be       	out	0x3f, r0	; 63
    adcc:	2d bf       	out	0x3d, r18	; 61
    adce:	ed b7       	in	r30, 0x3d	; 61
    add0:	fe b7       	in	r31, 0x3e	; 62
    add2:	31 96       	adiw	r30, 0x01	; 1
    add4:	7f 01       	movw	r14, r30
    add6:	20 e0       	ldi	r18, 0x00	; 0
    add8:	30 e0       	ldi	r19, 0x00	; 0
    adda:	bf 01       	movw	r22, r30
    addc:	0e 94 4e 3e 	call	0x7c9c	; 0x7c9c <_ZNK6String8getBytesEPhjj>
    ade0:	93 01       	movw	r18, r6
    ade2:	a4 01       	movw	r20, r8
    ade4:	b7 01       	movw	r22, r14
    ade6:	c5 01       	movw	r24, r10
    ade8:	28 df       	rcall	.-432    	; 0xac3a <_ZN4UTFT5printEPciii>
    adea:	0f b6       	in	r0, 0x3f	; 63
    adec:	f8 94       	cli
    adee:	de be       	out	0x3e, r13	; 62
    adf0:	0f be       	out	0x3f, r0	; 63
    adf2:	cd be       	out	0x3d, r12	; 61
    adf4:	df 91       	pop	r29
    adf6:	cf 91       	pop	r28
    adf8:	1f 91       	pop	r17
    adfa:	0f 91       	pop	r16
    adfc:	ff 90       	pop	r15
    adfe:	ef 90       	pop	r14
    ae00:	df 90       	pop	r13
    ae02:	cf 90       	pop	r12
    ae04:	bf 90       	pop	r11
    ae06:	af 90       	pop	r10
    ae08:	9f 90       	pop	r9
    ae0a:	8f 90       	pop	r8
    ae0c:	7f 90       	pop	r7
    ae0e:	6f 90       	pop	r6
    ae10:	08 95       	ret

0000ae12 <_ZN4UTFT9printNumIEliiic>:
    ae12:	2f 92       	push	r2
    ae14:	3f 92       	push	r3
    ae16:	4f 92       	push	r4
    ae18:	5f 92       	push	r5
    ae1a:	6f 92       	push	r6
    ae1c:	7f 92       	push	r7
    ae1e:	8f 92       	push	r8
    ae20:	9f 92       	push	r9
    ae22:	af 92       	push	r10
    ae24:	bf 92       	push	r11
    ae26:	cf 92       	push	r12
    ae28:	ef 92       	push	r14
    ae2a:	ff 92       	push	r15
    ae2c:	0f 93       	push	r16
    ae2e:	1f 93       	push	r17
    ae30:	cf 93       	push	r28
    ae32:	df 93       	push	r29
    ae34:	cd b7       	in	r28, 0x3d	; 61
    ae36:	de b7       	in	r29, 0x3e	; 62
    ae38:	ea 97       	sbiw	r28, 0x3a	; 58
    ae3a:	0f b6       	in	r0, 0x3f	; 63
    ae3c:	f8 94       	cli
    ae3e:	de bf       	out	0x3e, r29	; 62
    ae40:	0f be       	out	0x3f, r0	; 63
    ae42:	cd bf       	out	0x3d, r28	; 61
    ae44:	9e ab       	std	Y+54, r25	; 0x36
    ae46:	8d ab       	std	Y+53, r24	; 0x35
    ae48:	2a 01       	movw	r4, r20
    ae4a:	3b 01       	movw	r6, r22
    ae4c:	38 af       	std	Y+56, r19	; 0x38
    ae4e:	2f ab       	std	Y+55, r18	; 0x37
    ae50:	1a af       	std	Y+58, r17	; 0x3a
    ae52:	09 af       	std	Y+57, r16	; 0x39
    ae54:	41 15       	cp	r20, r1
    ae56:	51 05       	cpc	r21, r1
    ae58:	61 05       	cpc	r22, r1
    ae5a:	71 05       	cpc	r23, r1
    ae5c:	f1 f4       	brne	.+60     	; 0xae9a <_ZN4UTFT9printNumIEliiic+0x88>
    ae5e:	e1 14       	cp	r14, r1
    ae60:	f1 04       	cpc	r15, r1
    ae62:	b9 f0       	breq	.+46     	; 0xae92 <_ZN4UTFT9printNumIEliiic+0x80>
    ae64:	de 01       	movw	r26, r28
    ae66:	11 96       	adiw	r26, 0x01	; 1
    ae68:	80 e0       	ldi	r24, 0x00	; 0
    ae6a:	90 e0       	ldi	r25, 0x00	; 0
    ae6c:	fd 01       	movw	r30, r26
    ae6e:	21 e0       	ldi	r18, 0x01	; 1
    ae70:	e2 1a       	sub	r14, r18
    ae72:	f1 08       	sbc	r15, r1
    ae74:	8e 15       	cp	r24, r14
    ae76:	9f 05       	cpc	r25, r15
    ae78:	1c f4       	brge	.+6      	; 0xae80 <_ZN4UTFT9printNumIEliiic+0x6e>
    ae7a:	cd 92       	st	X+, r12
    ae7c:	01 96       	adiw	r24, 0x01	; 1
    ae7e:	fa cf       	rjmp	.-12     	; 0xae74 <_ZN4UTFT9printNumIEliiic+0x62>
    ae80:	e8 0f       	add	r30, r24
    ae82:	f9 1f       	adc	r31, r25
    ae84:	20 e3       	ldi	r18, 0x30	; 48
    ae86:	20 83       	st	Z, r18
    ae88:	fe 01       	movw	r30, r28
    ae8a:	e8 0f       	add	r30, r24
    ae8c:	f9 1f       	adc	r31, r25
    ae8e:	12 82       	std	Z+2, r1	; 0x02
    ae90:	84 c0       	rjmp	.+264    	; 0xaf9a <_ZN4UTFT9printNumIEliiic+0x188>
    ae92:	80 e3       	ldi	r24, 0x30	; 48
    ae94:	89 83       	std	Y+1, r24	; 0x01
    ae96:	1a 82       	std	Y+2, r1	; 0x02
    ae98:	80 c0       	rjmp	.+256    	; 0xaf9a <_ZN4UTFT9printNumIEliiic+0x188>
    ae9a:	77 ff       	sbrs	r23, 7
    ae9c:	0a c0       	rjmp	.+20     	; 0xaeb2 <_ZN4UTFT9printNumIEliiic+0xa0>
    ae9e:	70 94       	com	r7
    aea0:	60 94       	com	r6
    aea2:	50 94       	com	r5
    aea4:	40 94       	com	r4
    aea6:	41 1c       	adc	r4, r1
    aea8:	51 1c       	adc	r5, r1
    aeaa:	61 1c       	adc	r6, r1
    aeac:	71 1c       	adc	r7, r1
    aeae:	11 e0       	ldi	r17, 0x01	; 1
    aeb0:	01 c0       	rjmp	.+2      	; 0xaeb4 <_ZN4UTFT9printNumIEliiic+0xa2>
    aeb2:	10 e0       	ldi	r17, 0x00	; 0
    aeb4:	5e 01       	movw	r10, r28
    aeb6:	3c e1       	ldi	r19, 0x1C	; 28
    aeb8:	a3 0e       	add	r10, r19
    aeba:	b1 1c       	adc	r11, r1
    aebc:	15 01       	movw	r2, r10
    aebe:	c3 01       	movw	r24, r6
    aec0:	b2 01       	movw	r22, r4
    aec2:	2a e0       	ldi	r18, 0x0A	; 10
    aec4:	30 e0       	ldi	r19, 0x00	; 0
    aec6:	40 e0       	ldi	r20, 0x00	; 0
    aec8:	50 e0       	ldi	r21, 0x00	; 0
    aeca:	91 d2       	rcall	.+1314   	; 0xb3ee <__divmodsi4>
    aecc:	20 e3       	ldi	r18, 0x30	; 48
    aece:	26 0f       	add	r18, r22
    aed0:	f1 01       	movw	r30, r2
    aed2:	21 93       	st	Z+, r18
    aed4:	1f 01       	movw	r2, r30
    aed6:	4f 01       	movw	r8, r30
    aed8:	8a 18       	sub	r8, r10
    aeda:	9b 08       	sbc	r9, r11
    aedc:	a3 01       	movw	r20, r6
    aede:	92 01       	movw	r18, r4
    aee0:	26 1b       	sub	r18, r22
    aee2:	37 0b       	sbc	r19, r23
    aee4:	48 0b       	sbc	r20, r24
    aee6:	59 0b       	sbc	r21, r25
    aee8:	ca 01       	movw	r24, r20
    aeea:	b9 01       	movw	r22, r18
    aeec:	2a e0       	ldi	r18, 0x0A	; 10
    aeee:	30 e0       	ldi	r19, 0x00	; 0
    aef0:	40 e0       	ldi	r20, 0x00	; 0
    aef2:	50 e0       	ldi	r21, 0x00	; 0
    aef4:	7c d2       	rcall	.+1272   	; 0xb3ee <__divmodsi4>
    aef6:	29 01       	movw	r4, r18
    aef8:	3a 01       	movw	r6, r20
    aefa:	23 2b       	or	r18, r19
    aefc:	24 2b       	or	r18, r20
    aefe:	25 2b       	or	r18, r21
    af00:	f1 f6       	brne	.-68     	; 0xaebe <_ZN4UTFT9printNumIEliiic+0xac>
    af02:	f5 01       	movw	r30, r10
    af04:	e8 0d       	add	r30, r8
    af06:	f9 1d       	adc	r31, r9
    af08:	10 82       	st	Z, r1
    af0a:	11 23       	and	r17, r17
    af0c:	11 f0       	breq	.+4      	; 0xaf12 <_ZN4UTFT9printNumIEliiic+0x100>
    af0e:	8d e2       	ldi	r24, 0x2D	; 45
    af10:	89 83       	std	Y+1, r24	; 0x01
    af12:	81 2f       	mov	r24, r17
    af14:	90 e0       	ldi	r25, 0x00	; 0
    af16:	94 01       	movw	r18, r8
    af18:	28 0f       	add	r18, r24
    af1a:	39 1f       	adc	r19, r25
    af1c:	2e 15       	cp	r18, r14
    af1e:	3f 05       	cpc	r19, r15
    af20:	c4 f4       	brge	.+48     	; 0xaf52 <_ZN4UTFT9printNumIEliiic+0x140>
    af22:	40 e0       	ldi	r20, 0x00	; 0
    af24:	50 e0       	ldi	r21, 0x00	; 0
    af26:	e8 18       	sub	r14, r8
    af28:	f9 08       	sbc	r15, r9
    af2a:	e8 1a       	sub	r14, r24
    af2c:	f9 0a       	sbc	r15, r25
    af2e:	4e 15       	cp	r20, r14
    af30:	5f 05       	cpc	r21, r15
    af32:	6c f4       	brge	.+26     	; 0xaf4e <_ZN4UTFT9printNumIEliiic+0x13c>
    af34:	fa 01       	movw	r30, r20
    af36:	e8 0f       	add	r30, r24
    af38:	f9 1f       	adc	r31, r25
    af3a:	61 e0       	ldi	r22, 0x01	; 1
    af3c:	70 e0       	ldi	r23, 0x00	; 0
    af3e:	6c 0f       	add	r22, r28
    af40:	7d 1f       	adc	r23, r29
    af42:	e6 0f       	add	r30, r22
    af44:	f7 1f       	adc	r31, r23
    af46:	c0 82       	st	Z, r12
    af48:	4f 5f       	subi	r20, 0xFF	; 255
    af4a:	5f 4f       	sbci	r21, 0xFF	; 255
    af4c:	f0 cf       	rjmp	.-32     	; 0xaf2e <_ZN4UTFT9printNumIEliiic+0x11c>
    af4e:	f7 fe       	sbrs	r15, 7
    af50:	02 c0       	rjmp	.+4      	; 0xaf56 <_ZN4UTFT9printNumIEliiic+0x144>
    af52:	e1 2c       	mov	r14, r1
    af54:	f1 2c       	mov	r15, r1
    af56:	d5 01       	movw	r26, r10
    af58:	a8 0d       	add	r26, r8
    af5a:	b9 1d       	adc	r27, r9
    af5c:	40 e0       	ldi	r20, 0x00	; 0
    af5e:	50 e0       	ldi	r21, 0x00	; 0
    af60:	8e 0d       	add	r24, r14
    af62:	9f 1d       	adc	r25, r15
    af64:	48 15       	cp	r20, r8
    af66:	59 05       	cpc	r21, r9
    af68:	71 f0       	breq	.+28     	; 0xaf86 <_ZN4UTFT9printNumIEliiic+0x174>
    af6a:	fa 01       	movw	r30, r20
    af6c:	e8 0f       	add	r30, r24
    af6e:	f9 1f       	adc	r31, r25
    af70:	61 e0       	ldi	r22, 0x01	; 1
    af72:	70 e0       	ldi	r23, 0x00	; 0
    af74:	6c 0f       	add	r22, r28
    af76:	7d 1f       	adc	r23, r29
    af78:	e6 0f       	add	r30, r22
    af7a:	f7 1f       	adc	r31, r23
    af7c:	6e 91       	ld	r22, -X
    af7e:	60 83       	st	Z, r22
    af80:	4f 5f       	subi	r20, 0xFF	; 255
    af82:	5f 4f       	sbci	r21, 0xFF	; 255
    af84:	ef cf       	rjmp	.-34     	; 0xaf64 <_ZN4UTFT9printNumIEliiic+0x152>
    af86:	81 e0       	ldi	r24, 0x01	; 1
    af88:	90 e0       	ldi	r25, 0x00	; 0
    af8a:	8c 0f       	add	r24, r28
    af8c:	9d 1f       	adc	r25, r29
    af8e:	e8 0e       	add	r14, r24
    af90:	f9 1e       	adc	r15, r25
    af92:	f7 01       	movw	r30, r14
    af94:	e2 0f       	add	r30, r18
    af96:	f3 1f       	adc	r31, r19
    af98:	10 82       	st	Z, r1
    af9a:	00 e0       	ldi	r16, 0x00	; 0
    af9c:	10 e0       	ldi	r17, 0x00	; 0
    af9e:	29 ad       	ldd	r18, Y+57	; 0x39
    afa0:	3a ad       	ldd	r19, Y+58	; 0x3a
    afa2:	4f a9       	ldd	r20, Y+55	; 0x37
    afa4:	58 ad       	ldd	r21, Y+56	; 0x38
    afa6:	be 01       	movw	r22, r28
    afa8:	6f 5f       	subi	r22, 0xFF	; 255
    afaa:	7f 4f       	sbci	r23, 0xFF	; 255
    afac:	8d a9       	ldd	r24, Y+53	; 0x35
    afae:	9e a9       	ldd	r25, Y+54	; 0x36
    afb0:	44 de       	rcall	.-888    	; 0xac3a <_ZN4UTFT5printEPciii>
    afb2:	ea 96       	adiw	r28, 0x3a	; 58
    afb4:	0f b6       	in	r0, 0x3f	; 63
    afb6:	f8 94       	cli
    afb8:	de bf       	out	0x3e, r29	; 62
    afba:	0f be       	out	0x3f, r0	; 63
    afbc:	cd bf       	out	0x3d, r28	; 61
    afbe:	df 91       	pop	r29
    afc0:	cf 91       	pop	r28
    afc2:	1f 91       	pop	r17
    afc4:	0f 91       	pop	r16
    afc6:	ff 90       	pop	r15
    afc8:	ef 90       	pop	r14
    afca:	cf 90       	pop	r12
    afcc:	bf 90       	pop	r11
    afce:	af 90       	pop	r10
    afd0:	9f 90       	pop	r9
    afd2:	8f 90       	pop	r8
    afd4:	7f 90       	pop	r7
    afd6:	6f 90       	pop	r6
    afd8:	5f 90       	pop	r5
    afda:	4f 90       	pop	r4
    afdc:	3f 90       	pop	r3
    afde:	2f 90       	pop	r2
    afe0:	08 95       	ret

0000afe2 <_ZN4UTFT7setFontEPh>:

	print(st,x,y);
}

void UTFT::setFont(uint8_t* font)
{
    afe2:	dc 01       	movw	r26, r24
	cfont.font=font;
    afe4:	9b 96       	adiw	r26, 0x2b	; 43
    afe6:	7c 93       	st	X, r23
    afe8:	6e 93       	st	-X, r22
    afea:	9a 97       	sbiw	r26, 0x2a	; 42
	cfont.x_size=fontbyte(0);
    afec:	fb 01       	movw	r30, r22
    afee:	84 91       	lpm	r24, Z
    aff0:	9c 96       	adiw	r26, 0x2c	; 44
    aff2:	8c 93       	st	X, r24
    aff4:	9c 97       	sbiw	r26, 0x2c	; 44
	cfont.y_size=fontbyte(1);
    aff6:	31 96       	adiw	r30, 0x01	; 1
    aff8:	e4 91       	lpm	r30, Z
    affa:	9d 96       	adiw	r26, 0x2d	; 45
    affc:	ec 93       	st	X, r30
    affe:	9d 97       	sbiw	r26, 0x2d	; 45
	cfont.offset=fontbyte(2);
    b000:	fb 01       	movw	r30, r22
    b002:	32 96       	adiw	r30, 0x02	; 2
    b004:	e4 91       	lpm	r30, Z
    b006:	9e 96       	adiw	r26, 0x2e	; 46
    b008:	ec 93       	st	X, r30
    b00a:	9e 97       	sbiw	r26, 0x2e	; 46
	cfont.numchars=fontbyte(3);
    b00c:	fb 01       	movw	r30, r22
    b00e:	33 96       	adiw	r30, 0x03	; 3
    b010:	64 91       	lpm	r22, Z
    b012:	9f 96       	adiw	r26, 0x2f	; 47
    b014:	6c 93       	st	X, r22
    b016:	08 95       	ret

0000b018 <_ZN13UTFT_GeometryC1EP4UTFT>:
void UTFT_Geometry::drawTriangle(int x1, int y1, int x2, int y2, int x3, int y3)
{
	_UTFT->drawLine(x1, y1, x2, y2);
	_UTFT->drawLine(x2, y2, x3, y3);
	_UTFT->drawLine(x3, y3, x1, y1);
}
    b018:	fc 01       	movw	r30, r24
    b01a:	71 83       	std	Z+1, r23	; 0x01
    b01c:	60 83       	st	Z, r22
    b01e:	08 95       	ret

0000b020 <_ZN13UTFT_Geometry12fillTriangleEiiiiii>:

void UTFT_Geometry::fillTriangle(int x1, int y1, int x2, int y2, int x3, int y3)
{
    b020:	2f 92       	push	r2
    b022:	3f 92       	push	r3
    b024:	4f 92       	push	r4
    b026:	5f 92       	push	r5
    b028:	6f 92       	push	r6
    b02a:	7f 92       	push	r7
    b02c:	8f 92       	push	r8
    b02e:	9f 92       	push	r9
    b030:	af 92       	push	r10
    b032:	bf 92       	push	r11
    b034:	cf 92       	push	r12
    b036:	df 92       	push	r13
    b038:	ef 92       	push	r14
    b03a:	ff 92       	push	r15
    b03c:	0f 93       	push	r16
    b03e:	1f 93       	push	r17
    b040:	cf 93       	push	r28
    b042:	df 93       	push	r29
    b044:	cd b7       	in	r28, 0x3d	; 61
    b046:	de b7       	in	r29, 0x3e	; 62
    b048:	62 97       	sbiw	r28, 0x12	; 18
    b04a:	0f b6       	in	r0, 0x3f	; 63
    b04c:	f8 94       	cli
    b04e:	de bf       	out	0x3e, r29	; 62
    b050:	0f be       	out	0x3f, r0	; 63
    b052:	cd bf       	out	0x3d, r28	; 61
    b054:	9e 83       	std	Y+6, r25	; 0x06
    b056:	8d 83       	std	Y+5, r24	; 0x05
    b058:	2b 01       	movw	r4, r22
    b05a:	5a 8b       	std	Y+18, r21	; 0x12
    b05c:	49 8b       	std	Y+17, r20	; 0x11
    b05e:	39 01       	movw	r6, r18
    b060:	16 01       	movw	r2, r12
	int32_t xs, xe;
	int16_t y, ly;

	if (y1 > y2)
    b062:	04 17       	cp	r16, r20
    b064:	15 07       	cpc	r17, r21
    b066:	84 f4       	brge	.+32     	; 0xb088 <_ZN13UTFT_Geometry12fillTriangleEiiiiii+0x68>
    b068:	90 2f       	mov	r25, r16
    b06a:	81 2f       	mov	r24, r17
	{
		swap(y1, y2); 
		swap(x1, x2);
	}
	if (y2 > y3)
    b06c:	c4 16       	cp	r12, r20
    b06e:	d5 06       	cpc	r13, r21
    b070:	0c f0       	brlt	.+2      	; 0xb074 <_ZN13UTFT_Geometry12fillTriangleEiiiiii+0x54>
    b072:	36 c1       	rjmp	.+620    	; 0xb2e0 <_ZN13UTFT_Geometry12fillTriangleEiiiiii+0x2c0>
    b074:	86 01       	movw	r16, r12
    b076:	1a 01       	movw	r2, r20
    b078:	99 8b       	std	Y+17, r25	; 0x11
    b07a:	8a 8b       	std	Y+18, r24	; 0x12
    b07c:	87 2d       	mov	r24, r7
	{
		swap(y3, y2);
		swap(x3, x2);
    b07e:	37 01       	movw	r6, r14
	int16_t y, ly;

	if (y1 > y2)
	{
		swap(y1, y2); 
		swap(x1, x2);
    b080:	7b 01       	movw	r14, r22
    b082:	42 2e       	mov	r4, r18
    b084:	58 2e       	mov	r5, r24
    b086:	0d c0       	rjmp	.+26     	; 0xb0a2 <_ZN13UTFT_Geometry12fillTriangleEiiiiii+0x82>
	}
	if (y2 > y3)
    b088:	c0 16       	cp	r12, r16
    b08a:	d1 06       	cpc	r13, r17
    b08c:	d4 f4       	brge	.+52     	; 0xb0c2 <_ZN13UTFT_Geometry12fillTriangleEiiiiii+0xa2>
    b08e:	90 2f       	mov	r25, r16
    b090:	81 2f       	mov	r24, r17
    b092:	81 01       	movw	r16, r2
    b094:	29 2e       	mov	r2, r25
    b096:	38 2e       	mov	r3, r24
    b098:	96 2d       	mov	r25, r6
    b09a:	87 2d       	mov	r24, r7
	{
		swap(y3, y2);
		swap(x3, x2);
    b09c:	37 01       	movw	r6, r14
	if (y1 > y2)
	{
		swap(y1, y2); 
		swap(x1, x2);
	}
	if (y2 > y3)
    b09e:	e9 2e       	mov	r14, r25
    b0a0:	f8 2e       	mov	r15, r24
	{
		swap(y3, y2);
		swap(x3, x2);
	}
	if (y1 > y2)
    b0a2:	29 89       	ldd	r18, Y+17	; 0x11
    b0a4:	3a 89       	ldd	r19, Y+18	; 0x12
    b0a6:	02 17       	cp	r16, r18
    b0a8:	13 07       	cpc	r17, r19
    b0aa:	5c f4       	brge	.+22     	; 0xb0c2 <_ZN13UTFT_Geometry12fillTriangleEiiiiii+0xa2>
    b0ac:	99 89       	ldd	r25, Y+17	; 0x11
    b0ae:	8a 89       	ldd	r24, Y+18	; 0x12
    b0b0:	1a 8b       	std	Y+18, r17	; 0x12
    b0b2:	09 8b       	std	Y+17, r16	; 0x11
    b0b4:	09 2f       	mov	r16, r25
    b0b6:	18 2f       	mov	r17, r24
    b0b8:	94 2d       	mov	r25, r4
    b0ba:	85 2d       	mov	r24, r5
    b0bc:	23 01       	movw	r4, r6
    b0be:	69 2e       	mov	r6, r25
    b0c0:	78 2e       	mov	r7, r24
	{
		swap(y1, y2);
		swap(x1, x2);
	}
	
	if(y1 == y3)	// Single line triangles
    b0c2:	49 89       	ldd	r20, Y+17	; 0x11
    b0c4:	5a 89       	ldd	r21, Y+18	; 0x12
    b0c6:	42 15       	cp	r20, r2
    b0c8:	53 05       	cpc	r21, r3
    b0ca:	09 f0       	breq	.+2      	; 0xb0ce <_ZN13UTFT_Geometry12fillTriangleEiiiiii+0xae>
    b0cc:	4d c0       	rjmp	.+154    	; 0xb168 <_ZN13UTFT_Geometry12fillTriangleEiiiiii+0x148>
	{
		xs = xe = x1;
    b0ce:	c2 01       	movw	r24, r4
    b0d0:	55 0c       	add	r5, r5
    b0d2:	aa 0b       	sbc	r26, r26
    b0d4:	bb 0b       	sbc	r27, r27
		if(x2 < xs)			xs = x2;
    b0d6:	a3 01       	movw	r20, r6
    b0d8:	77 0c       	add	r7, r7
    b0da:	66 0b       	sbc	r22, r22
    b0dc:	77 0b       	sbc	r23, r23
    b0de:	48 17       	cp	r20, r24
    b0e0:	59 07       	cpc	r21, r25
    b0e2:	6a 07       	cpc	r22, r26
    b0e4:	7b 07       	cpc	r23, r27
    b0e6:	54 f0       	brlt	.+20     	; 0xb0fc <_ZN13UTFT_Geometry12fillTriangleEiiiiii+0xdc>
    b0e8:	f4 2f       	mov	r31, r20
    b0ea:	e5 2f       	mov	r30, r21
    b0ec:	36 2f       	mov	r19, r22
    b0ee:	27 2f       	mov	r18, r23
    b0f0:	ac 01       	movw	r20, r24
    b0f2:	bd 01       	movw	r22, r26
    b0f4:	8f 2f       	mov	r24, r31
    b0f6:	9e 2f       	mov	r25, r30
    b0f8:	a3 2f       	mov	r26, r19
    b0fa:	b2 2f       	mov	r27, r18
		else if(x2 > xe)	xe = x2;
		if(x3 < xs)			xs = x3;
    b0fc:	67 01       	movw	r12, r14
    b0fe:	ff 0c       	add	r15, r15
    b100:	ee 08       	sbc	r14, r14
    b102:	ff 08       	sbc	r15, r15
    b104:	c4 16       	cp	r12, r20
    b106:	d5 06       	cpc	r13, r21
    b108:	e6 06       	cpc	r14, r22
    b10a:	f7 06       	cpc	r15, r23
    b10c:	4c f0       	brlt	.+18     	; 0xb120 <_ZN13UTFT_Geometry12fillTriangleEiiiiii+0x100>
    b10e:	8c 15       	cp	r24, r12
    b110:	9d 05       	cpc	r25, r13
    b112:	ae 05       	cpc	r26, r14
    b114:	bf 05       	cpc	r27, r15
    b116:	14 f4       	brge	.+4      	; 0xb11c <_ZN13UTFT_Geometry12fillTriangleEiiiiii+0xfc>
    b118:	d7 01       	movw	r26, r14
    b11a:	c6 01       	movw	r24, r12
    b11c:	6a 01       	movw	r12, r20
    b11e:	7b 01       	movw	r14, r22
		else if(x3 > xe)	xe = x3;
		_UTFT->drawHLine(xs, y1, xe-xs);
    b120:	9c 01       	movw	r18, r24
    b122:	2c 19       	sub	r18, r12
    b124:	3d 09       	sbc	r19, r13
    b126:	49 89       	ldd	r20, Y+17	; 0x11
    b128:	5a 89       	ldd	r21, Y+18	; 0x12
    b12a:	b6 01       	movw	r22, r12
    b12c:	ad 81       	ldd	r26, Y+5	; 0x05
    b12e:	be 81       	ldd	r27, Y+6	; 0x06
    b130:	8d 91       	ld	r24, X+
    b132:	9c 91       	ld	r25, X
	{
		xs = x2 + (x3 - x2) * (y - y2) / (y3 - y2);
		xe = x1 + (x3 - x1) * (y - y1) / (y3 - y1);
		_UTFT->drawHLine(xs, y, xe-xs);
	}
}
    b134:	62 96       	adiw	r28, 0x12	; 18
    b136:	0f b6       	in	r0, 0x3f	; 63
    b138:	f8 94       	cli
    b13a:	de bf       	out	0x3e, r29	; 62
    b13c:	0f be       	out	0x3f, r0	; 63
    b13e:	cd bf       	out	0x3d, r28	; 61
    b140:	df 91       	pop	r29
    b142:	cf 91       	pop	r28
    b144:	1f 91       	pop	r17
    b146:	0f 91       	pop	r16
    b148:	ff 90       	pop	r15
    b14a:	ef 90       	pop	r14
    b14c:	df 90       	pop	r13
    b14e:	cf 90       	pop	r12
    b150:	bf 90       	pop	r11
    b152:	af 90       	pop	r10
    b154:	9f 90       	pop	r9
    b156:	8f 90       	pop	r8
    b158:	7f 90       	pop	r7
    b15a:	6f 90       	pop	r6
    b15c:	5f 90       	pop	r5
    b15e:	4f 90       	pop	r4
    b160:	3f 90       	pop	r3
    b162:	2f 90       	pop	r2
		xs = xe = x1;
		if(x2 < xs)			xs = x2;
		else if(x2 > xe)	xe = x2;
		if(x3 < xs)			xs = x3;
		else if(x3 > xe)	xe = x3;
		_UTFT->drawHLine(xs, y1, xe-xs);
    b164:	0c 94 e6 4d 	jmp	0x9bcc	; 0x9bcc <_ZN4UTFT9drawHLineEiii>
		return;
	}
	
	// Upper part
	if (y2 == y3) ly = y2;
    b168:	02 15       	cp	r16, r2
    b16a:	13 05       	cpc	r17, r3
    b16c:	29 f0       	breq	.+10     	; 0xb178 <_ZN13UTFT_Geometry12fillTriangleEiiiiii+0x158>
	else          ly = y2-1;
    b16e:	f8 01       	movw	r30, r16
    b170:	31 97       	sbiw	r30, 0x01	; 1
    b172:	fc 83       	std	Y+4, r31	; 0x04
    b174:	eb 83       	std	Y+3, r30	; 0x03
    b176:	02 c0       	rjmp	.+4      	; 0xb17c <_ZN13UTFT_Geometry12fillTriangleEiiiiii+0x15c>
    b178:	1c 83       	std	Y+4, r17	; 0x04
    b17a:	0b 83       	std	Y+3, r16	; 0x03
    b17c:	93 01       	movw	r18, r6
    b17e:	24 19       	sub	r18, r4
    b180:	35 09       	sbc	r19, r5
    b182:	3a 87       	std	Y+10, r19	; 0x0a
    b184:	29 87       	std	Y+9, r18	; 0x09
    b186:	a7 01       	movw	r20, r14
    b188:	44 19       	sub	r20, r4
    b18a:	55 09       	sbc	r21, r5
    b18c:	58 87       	std	Y+8, r21	; 0x08
    b18e:	4f 83       	std	Y+7, r20	; 0x07
	
	for(y=y1; y<=ly; y++)
    b190:	c9 88       	ldd	r12, Y+17	; 0x11
    b192:	da 88       	ldd	r13, Y+18	; 0x12
    b194:	a1 2c       	mov	r10, r1
    b196:	b1 2c       	mov	r11, r1
    b198:	81 2c       	mov	r8, r1
    b19a:	91 2c       	mov	r9, r1
    b19c:	c2 01       	movw	r24, r4
    b19e:	8e 19       	sub	r24, r14
    b1a0:	9f 09       	sbc	r25, r15
    b1a2:	9a 83       	std	Y+2, r25	; 0x02
    b1a4:	89 83       	std	Y+1, r24	; 0x01
    b1a6:	d2 01       	movw	r26, r4
    b1a8:	a6 19       	sub	r26, r6
    b1aa:	b7 09       	sbc	r27, r7
    b1ac:	bc 87       	std	Y+12, r27	; 0x0c
    b1ae:	ab 87       	std	Y+11, r26	; 0x0b
	{
		xs = x1 + (x2 - x1) * (y - y1) / (y2 - y1);
    b1b0:	f8 01       	movw	r30, r16
    b1b2:	ec 19       	sub	r30, r12
    b1b4:	fd 09       	sbc	r31, r13
    b1b6:	fe 87       	std	Y+14, r31	; 0x0e
    b1b8:	ed 87       	std	Y+13, r30	; 0x0d
		xe = x1 + (x3 - x1) * (y - y1) / (y3 - y1);
    b1ba:	91 01       	movw	r18, r2
    b1bc:	2c 19       	sub	r18, r12
    b1be:	3d 09       	sbc	r19, r13
    b1c0:	38 8b       	std	Y+16, r19	; 0x10
    b1c2:	2f 87       	std	Y+15, r18	; 0x0f
    b1c4:	e9 85       	ldd	r30, Y+9	; 0x09
    b1c6:	fa 85       	ldd	r31, Y+10	; 0x0a
    b1c8:	8e 0e       	add	r8, r30
    b1ca:	9f 1e       	adc	r9, r31
    b1cc:	2f 81       	ldd	r18, Y+7	; 0x07
    b1ce:	38 85       	ldd	r19, Y+8	; 0x08
    b1d0:	a2 0e       	add	r10, r18
    b1d2:	b3 1e       	adc	r11, r19
	
	// Upper part
	if (y2 == y3) ly = y2;
	else          ly = y2-1;
	
	for(y=y1; y<=ly; y++)
    b1d4:	4b 81       	ldd	r20, Y+3	; 0x03
    b1d6:	5c 81       	ldd	r21, Y+4	; 0x04
    b1d8:	4c 15       	cp	r20, r12
    b1da:	5d 05       	cpc	r21, r13
    b1dc:	0c f1       	brlt	.+66     	; 0xb220 <_ZN13UTFT_Geometry12fillTriangleEiiiiii+0x200>
    b1de:	8b 85       	ldd	r24, Y+11	; 0x0b
    b1e0:	9c 85       	ldd	r25, Y+12	; 0x0c
    b1e2:	88 0d       	add	r24, r8
    b1e4:	99 1d       	adc	r25, r9
	{
		xs = x1 + (x2 - x1) * (y - y1) / (y2 - y1);
    b1e6:	6d 85       	ldd	r22, Y+13	; 0x0d
    b1e8:	7e 85       	ldd	r23, Y+14	; 0x0e
    b1ea:	cc d0       	rcall	.+408    	; 0xb384 <__divmodhi4>
    b1ec:	fb 01       	movw	r30, r22
    b1ee:	89 81       	ldd	r24, Y+1	; 0x01
    b1f0:	9a 81       	ldd	r25, Y+2	; 0x02
    b1f2:	8a 0d       	add	r24, r10
    b1f4:	9b 1d       	adc	r25, r11
		xe = x1 + (x3 - x1) * (y - y1) / (y3 - y1);
    b1f6:	6f 85       	ldd	r22, Y+15	; 0x0f
    b1f8:	78 89       	ldd	r23, Y+16	; 0x10
    b1fa:	c4 d0       	rcall	.+392    	; 0xb384 <__divmodhi4>
    b1fc:	c2 01       	movw	r24, r4
    b1fe:	8e 0f       	add	r24, r30
    b200:	9f 1f       	adc	r25, r31
		_UTFT->drawHLine(xs, y, xe-xs);
    b202:	9b 01       	movw	r18, r22
    b204:	2e 1b       	sub	r18, r30
    b206:	3f 0b       	sbc	r19, r31
    b208:	a6 01       	movw	r20, r12
    b20a:	bc 01       	movw	r22, r24
    b20c:	ad 81       	ldd	r26, Y+5	; 0x05
    b20e:	be 81       	ldd	r27, Y+6	; 0x06
    b210:	8d 91       	ld	r24, X+
    b212:	9c 91       	ld	r25, X
    b214:	0e 94 e6 4d 	call	0x9bcc	; 0x9bcc <_ZN4UTFT9drawHLineEiii>
	
	// Upper part
	if (y2 == y3) ly = y2;
	else          ly = y2-1;
	
	for(y=y1; y<=ly; y++)
    b218:	bf ef       	ldi	r27, 0xFF	; 255
    b21a:	cb 1a       	sub	r12, r27
    b21c:	db 0a       	sbc	r13, r27
    b21e:	d2 cf       	rjmp	.-92     	; 0xb1c4 <_ZN13UTFT_Geometry12fillTriangleEiiiiii+0x1a4>
    b220:	47 01       	movw	r8, r14
    b222:	86 18       	sub	r8, r6
    b224:	97 08       	sbc	r9, r7
    b226:	93 01       	movw	r18, r6
    b228:	2e 19       	sub	r18, r14
    b22a:	3f 09       	sbc	r19, r15
    b22c:	a6 01       	movw	r20, r12
    b22e:	40 1b       	sub	r20, r16
    b230:	51 0b       	sbc	r21, r17
    b232:	48 9d       	mul	r20, r8
    b234:	c0 01       	movw	r24, r0
    b236:	49 9d       	mul	r20, r9
    b238:	90 0d       	add	r25, r0
    b23a:	58 9d       	mul	r21, r8
    b23c:	90 0d       	add	r25, r0
    b23e:	11 24       	eor	r1, r1
    b240:	d9 01       	movw	r26, r18
    b242:	a8 0f       	add	r26, r24
    b244:	b9 1f       	adc	r27, r25
    b246:	bc 83       	std	Y+4, r27	; 0x04
    b248:	ab 83       	std	Y+3, r26	; 0x03
    b24a:	96 01       	movw	r18, r12
    b24c:	e9 89       	ldd	r30, Y+17	; 0x11
    b24e:	fa 89       	ldd	r31, Y+18	; 0x12
    b250:	2e 1b       	sub	r18, r30
    b252:	3f 0b       	sbc	r19, r31
    b254:	e4 18       	sub	r14, r4
    b256:	f5 08       	sbc	r15, r5
    b258:	2e 9d       	mul	r18, r14
    b25a:	c0 01       	movw	r24, r0
    b25c:	2f 9d       	mul	r18, r15
    b25e:	90 0d       	add	r25, r0
    b260:	3e 9d       	mul	r19, r14
    b262:	90 0d       	add	r25, r0
    b264:	11 24       	eor	r1, r1
    b266:	29 81       	ldd	r18, Y+1	; 0x01
    b268:	3a 81       	ldd	r19, Y+2	; 0x02
    b26a:	28 0f       	add	r18, r24
    b26c:	39 1f       	adc	r19, r25
    b26e:	3a 83       	std	Y+2, r19	; 0x02
    b270:	29 83       	std	Y+1, r18	; 0x01
    b272:	e1 2c       	mov	r14, r1
    b274:	f1 2c       	mov	r15, r1
    b276:	a1 2c       	mov	r10, r1
    b278:	b1 2c       	mov	r11, r1
	}
	
	// Lower part
	for(; y<=y3; y++)
	{
		xs = x2 + (x3 - x2) * (y - y2) / (y3 - y2);
    b27a:	a1 01       	movw	r20, r2
    b27c:	40 1b       	sub	r20, r16
    b27e:	51 0b       	sbc	r21, r17
    b280:	8a 01       	movw	r16, r20
		xe = x1 + (x3 - x1) * (y - y1) / (y3 - y1);
    b282:	c1 01       	movw	r24, r2
    b284:	8e 1b       	sub	r24, r30
    b286:	9f 0b       	sbc	r25, r31
    b288:	9a 87       	std	Y+10, r25	; 0x0a
    b28a:	89 87       	std	Y+9, r24	; 0x09
    b28c:	a8 0c       	add	r10, r8
    b28e:	b9 1c       	adc	r11, r9
    b290:	ef 81       	ldd	r30, Y+7	; 0x07
    b292:	f8 85       	ldd	r31, Y+8	; 0x08
    b294:	ee 0e       	add	r14, r30
    b296:	ff 1e       	adc	r15, r31
		xe = x1 + (x3 - x1) * (y - y1) / (y3 - y1);
		_UTFT->drawHLine(xs, y, xe-xs);
	}
	
	// Lower part
	for(; y<=y3; y++)
    b298:	2c 14       	cp	r2, r12
    b29a:	3d 04       	cpc	r3, r13
    b29c:	54 f1       	brlt	.+84     	; 0xb2f2 <_ZN13UTFT_Geometry12fillTriangleEiiiiii+0x2d2>
    b29e:	8b 81       	ldd	r24, Y+3	; 0x03
    b2a0:	9c 81       	ldd	r25, Y+4	; 0x04
    b2a2:	8a 0d       	add	r24, r10
    b2a4:	9b 1d       	adc	r25, r11
	{
		xs = x2 + (x3 - x2) * (y - y2) / (y3 - y2);
    b2a6:	b8 01       	movw	r22, r16
    b2a8:	6d d0       	rcall	.+218    	; 0xb384 <__divmodhi4>
    b2aa:	f3 01       	movw	r30, r6
    b2ac:	e6 0f       	add	r30, r22
    b2ae:	f7 1f       	adc	r31, r23
    b2b0:	89 81       	ldd	r24, Y+1	; 0x01
    b2b2:	9a 81       	ldd	r25, Y+2	; 0x02
    b2b4:	8e 0d       	add	r24, r14
    b2b6:	9f 1d       	adc	r25, r15
		xe = x1 + (x3 - x1) * (y - y1) / (y3 - y1);
    b2b8:	69 85       	ldd	r22, Y+9	; 0x09
    b2ba:	7a 85       	ldd	r23, Y+10	; 0x0a
    b2bc:	63 d0       	rcall	.+198    	; 0xb384 <__divmodhi4>
    b2be:	92 01       	movw	r18, r4
    b2c0:	26 0f       	add	r18, r22
    b2c2:	37 1f       	adc	r19, r23
		_UTFT->drawHLine(xs, y, xe-xs);
    b2c4:	2e 1b       	sub	r18, r30
    b2c6:	3f 0b       	sbc	r19, r31
    b2c8:	a6 01       	movw	r20, r12
    b2ca:	bf 01       	movw	r22, r30
    b2cc:	ad 81       	ldd	r26, Y+5	; 0x05
    b2ce:	be 81       	ldd	r27, Y+6	; 0x06
    b2d0:	8d 91       	ld	r24, X+
    b2d2:	9c 91       	ld	r25, X
    b2d4:	0e 94 e6 4d 	call	0x9bcc	; 0x9bcc <_ZN4UTFT9drawHLineEiii>
		xe = x1 + (x3 - x1) * (y - y1) / (y3 - y1);
		_UTFT->drawHLine(xs, y, xe-xs);
	}
	
	// Lower part
	for(; y<=y3; y++)
    b2d8:	bf ef       	ldi	r27, 0xFF	; 255
    b2da:	cb 1a       	sub	r12, r27
    b2dc:	db 0a       	sbc	r13, r27
    b2de:	d6 cf       	rjmp	.-84     	; 0xb28c <_ZN13UTFT_Geometry12fillTriangleEiiiiii+0x26c>
    b2e0:	09 89       	ldd	r16, Y+17	; 0x11
    b2e2:	1a 89       	ldd	r17, Y+18	; 0x12
    b2e4:	99 8b       	std	Y+17, r25	; 0x11
    b2e6:	8a 8b       	std	Y+18, r24	; 0x12
    b2e8:	87 2d       	mov	r24, r7
	int16_t y, ly;

	if (y1 > y2)
	{
		swap(y1, y2); 
		swap(x1, x2);
    b2ea:	3b 01       	movw	r6, r22
    b2ec:	42 2e       	mov	r4, r18
    b2ee:	58 2e       	mov	r5, r24
    b2f0:	e8 ce       	rjmp	.-560    	; 0xb0c2 <_ZN13UTFT_Geometry12fillTriangleEiiiiii+0xa2>
	{
		xs = x2 + (x3 - x2) * (y - y2) / (y3 - y2);
		xe = x1 + (x3 - x1) * (y - y1) / (y3 - y1);
		_UTFT->drawHLine(xs, y, xe-xs);
	}
}
    b2f2:	62 96       	adiw	r28, 0x12	; 18
    b2f4:	0f b6       	in	r0, 0x3f	; 63
    b2f6:	f8 94       	cli
    b2f8:	de bf       	out	0x3e, r29	; 62
    b2fa:	0f be       	out	0x3f, r0	; 63
    b2fc:	cd bf       	out	0x3d, r28	; 61
    b2fe:	df 91       	pop	r29
    b300:	cf 91       	pop	r28
    b302:	1f 91       	pop	r17
    b304:	0f 91       	pop	r16
    b306:	ff 90       	pop	r15
    b308:	ef 90       	pop	r14
    b30a:	df 90       	pop	r13
    b30c:	cf 90       	pop	r12
    b30e:	bf 90       	pop	r11
    b310:	af 90       	pop	r10
    b312:	9f 90       	pop	r9
    b314:	8f 90       	pop	r8
    b316:	7f 90       	pop	r7
    b318:	6f 90       	pop	r6
    b31a:	5f 90       	pop	r5
    b31c:	4f 90       	pop	r4
    b31e:	3f 90       	pop	r3
    b320:	2f 90       	pop	r2
    b322:	08 95       	ret

0000b324 <yield>:
 * libraries or sketches that supports cooperative threads.
 *
 * Its defined as a weak symbol and it can be redefined to implement a
 * real cooperative scheduler.
 */
static void __empty() {
    b324:	08 95       	ret

0000b326 <__mulsi3>:
    b326:	db 01       	movw	r26, r22
    b328:	8f 93       	push	r24
    b32a:	9f 93       	push	r25
    b32c:	84 d0       	rcall	.+264    	; 0xb436 <__muluhisi3>
    b32e:	bf 91       	pop	r27
    b330:	af 91       	pop	r26
    b332:	a2 9f       	mul	r26, r18
    b334:	80 0d       	add	r24, r0
    b336:	91 1d       	adc	r25, r1
    b338:	a3 9f       	mul	r26, r19
    b33a:	90 0d       	add	r25, r0
    b33c:	b2 9f       	mul	r27, r18
    b33e:	90 0d       	add	r25, r0
    b340:	11 24       	eor	r1, r1
    b342:	08 95       	ret

0000b344 <__udivmodqi4>:
    b344:	99 1b       	sub	r25, r25
    b346:	79 e0       	ldi	r23, 0x09	; 9
    b348:	04 c0       	rjmp	.+8      	; 0xb352 <__udivmodqi4_ep>

0000b34a <__udivmodqi4_loop>:
    b34a:	99 1f       	adc	r25, r25
    b34c:	96 17       	cp	r25, r22
    b34e:	08 f0       	brcs	.+2      	; 0xb352 <__udivmodqi4_ep>
    b350:	96 1b       	sub	r25, r22

0000b352 <__udivmodqi4_ep>:
    b352:	88 1f       	adc	r24, r24
    b354:	7a 95       	dec	r23
    b356:	c9 f7       	brne	.-14     	; 0xb34a <__udivmodqi4_loop>
    b358:	80 95       	com	r24
    b35a:	08 95       	ret

0000b35c <__udivmodhi4>:
    b35c:	aa 1b       	sub	r26, r26
    b35e:	bb 1b       	sub	r27, r27
    b360:	51 e1       	ldi	r21, 0x11	; 17
    b362:	07 c0       	rjmp	.+14     	; 0xb372 <__udivmodhi4_ep>

0000b364 <__udivmodhi4_loop>:
    b364:	aa 1f       	adc	r26, r26
    b366:	bb 1f       	adc	r27, r27
    b368:	a6 17       	cp	r26, r22
    b36a:	b7 07       	cpc	r27, r23
    b36c:	10 f0       	brcs	.+4      	; 0xb372 <__udivmodhi4_ep>
    b36e:	a6 1b       	sub	r26, r22
    b370:	b7 0b       	sbc	r27, r23

0000b372 <__udivmodhi4_ep>:
    b372:	88 1f       	adc	r24, r24
    b374:	99 1f       	adc	r25, r25
    b376:	5a 95       	dec	r21
    b378:	a9 f7       	brne	.-22     	; 0xb364 <__udivmodhi4_loop>
    b37a:	80 95       	com	r24
    b37c:	90 95       	com	r25
    b37e:	bc 01       	movw	r22, r24
    b380:	cd 01       	movw	r24, r26
    b382:	08 95       	ret

0000b384 <__divmodhi4>:
    b384:	97 fb       	bst	r25, 7
    b386:	07 2e       	mov	r0, r23
    b388:	16 f4       	brtc	.+4      	; 0xb38e <__divmodhi4+0xa>
    b38a:	00 94       	com	r0
    b38c:	06 d0       	rcall	.+12     	; 0xb39a <__divmodhi4_neg1>
    b38e:	77 fd       	sbrc	r23, 7
    b390:	08 d0       	rcall	.+16     	; 0xb3a2 <__divmodhi4_neg2>
    b392:	e4 df       	rcall	.-56     	; 0xb35c <__udivmodhi4>
    b394:	07 fc       	sbrc	r0, 7
    b396:	05 d0       	rcall	.+10     	; 0xb3a2 <__divmodhi4_neg2>
    b398:	3e f4       	brtc	.+14     	; 0xb3a8 <__divmodhi4_exit>

0000b39a <__divmodhi4_neg1>:
    b39a:	90 95       	com	r25
    b39c:	81 95       	neg	r24
    b39e:	9f 4f       	sbci	r25, 0xFF	; 255
    b3a0:	08 95       	ret

0000b3a2 <__divmodhi4_neg2>:
    b3a2:	70 95       	com	r23
    b3a4:	61 95       	neg	r22
    b3a6:	7f 4f       	sbci	r23, 0xFF	; 255

0000b3a8 <__divmodhi4_exit>:
    b3a8:	08 95       	ret

0000b3aa <__udivmodsi4>:
    b3aa:	a1 e2       	ldi	r26, 0x21	; 33
    b3ac:	1a 2e       	mov	r1, r26
    b3ae:	aa 1b       	sub	r26, r26
    b3b0:	bb 1b       	sub	r27, r27
    b3b2:	fd 01       	movw	r30, r26
    b3b4:	0d c0       	rjmp	.+26     	; 0xb3d0 <__udivmodsi4_ep>

0000b3b6 <__udivmodsi4_loop>:
    b3b6:	aa 1f       	adc	r26, r26
    b3b8:	bb 1f       	adc	r27, r27
    b3ba:	ee 1f       	adc	r30, r30
    b3bc:	ff 1f       	adc	r31, r31
    b3be:	a2 17       	cp	r26, r18
    b3c0:	b3 07       	cpc	r27, r19
    b3c2:	e4 07       	cpc	r30, r20
    b3c4:	f5 07       	cpc	r31, r21
    b3c6:	20 f0       	brcs	.+8      	; 0xb3d0 <__udivmodsi4_ep>
    b3c8:	a2 1b       	sub	r26, r18
    b3ca:	b3 0b       	sbc	r27, r19
    b3cc:	e4 0b       	sbc	r30, r20
    b3ce:	f5 0b       	sbc	r31, r21

0000b3d0 <__udivmodsi4_ep>:
    b3d0:	66 1f       	adc	r22, r22
    b3d2:	77 1f       	adc	r23, r23
    b3d4:	88 1f       	adc	r24, r24
    b3d6:	99 1f       	adc	r25, r25
    b3d8:	1a 94       	dec	r1
    b3da:	69 f7       	brne	.-38     	; 0xb3b6 <__udivmodsi4_loop>
    b3dc:	60 95       	com	r22
    b3de:	70 95       	com	r23
    b3e0:	80 95       	com	r24
    b3e2:	90 95       	com	r25
    b3e4:	9b 01       	movw	r18, r22
    b3e6:	ac 01       	movw	r20, r24
    b3e8:	bd 01       	movw	r22, r26
    b3ea:	cf 01       	movw	r24, r30
    b3ec:	08 95       	ret

0000b3ee <__divmodsi4>:
    b3ee:	05 2e       	mov	r0, r21
    b3f0:	97 fb       	bst	r25, 7
    b3f2:	16 f4       	brtc	.+4      	; 0xb3f8 <__divmodsi4+0xa>
    b3f4:	00 94       	com	r0
    b3f6:	0f d0       	rcall	.+30     	; 0xb416 <__negsi2>
    b3f8:	57 fd       	sbrc	r21, 7
    b3fa:	05 d0       	rcall	.+10     	; 0xb406 <__divmodsi4_neg2>
    b3fc:	d6 df       	rcall	.-84     	; 0xb3aa <__udivmodsi4>
    b3fe:	07 fc       	sbrc	r0, 7
    b400:	02 d0       	rcall	.+4      	; 0xb406 <__divmodsi4_neg2>
    b402:	46 f4       	brtc	.+16     	; 0xb414 <__divmodsi4_exit>
    b404:	08 c0       	rjmp	.+16     	; 0xb416 <__negsi2>

0000b406 <__divmodsi4_neg2>:
    b406:	50 95       	com	r21
    b408:	40 95       	com	r20
    b40a:	30 95       	com	r19
    b40c:	21 95       	neg	r18
    b40e:	3f 4f       	sbci	r19, 0xFF	; 255
    b410:	4f 4f       	sbci	r20, 0xFF	; 255
    b412:	5f 4f       	sbci	r21, 0xFF	; 255

0000b414 <__divmodsi4_exit>:
    b414:	08 95       	ret

0000b416 <__negsi2>:
    b416:	90 95       	com	r25
    b418:	80 95       	com	r24
    b41a:	70 95       	com	r23
    b41c:	61 95       	neg	r22
    b41e:	7f 4f       	sbci	r23, 0xFF	; 255
    b420:	8f 4f       	sbci	r24, 0xFF	; 255
    b422:	9f 4f       	sbci	r25, 0xFF	; 255
    b424:	08 95       	ret

0000b426 <__tablejump2__>:
    b426:	ee 0f       	add	r30, r30
    b428:	ff 1f       	adc	r31, r31
    b42a:	88 1f       	adc	r24, r24
    b42c:	8b bf       	out	0x3b, r24	; 59
    b42e:	07 90       	elpm	r0, Z+
    b430:	f6 91       	elpm	r31, Z
    b432:	e0 2d       	mov	r30, r0
    b434:	19 94       	eijmp

0000b436 <__muluhisi3>:
    b436:	09 d0       	rcall	.+18     	; 0xb44a <__umulhisi3>
    b438:	a5 9f       	mul	r26, r21
    b43a:	90 0d       	add	r25, r0
    b43c:	b4 9f       	mul	r27, r20
    b43e:	90 0d       	add	r25, r0
    b440:	a4 9f       	mul	r26, r20
    b442:	80 0d       	add	r24, r0
    b444:	91 1d       	adc	r25, r1
    b446:	11 24       	eor	r1, r1
    b448:	08 95       	ret

0000b44a <__umulhisi3>:
    b44a:	a2 9f       	mul	r26, r18
    b44c:	b0 01       	movw	r22, r0
    b44e:	b3 9f       	mul	r27, r19
    b450:	c0 01       	movw	r24, r0
    b452:	a3 9f       	mul	r26, r19
    b454:	70 0d       	add	r23, r0
    b456:	81 1d       	adc	r24, r1
    b458:	11 24       	eor	r1, r1
    b45a:	91 1d       	adc	r25, r1
    b45c:	b2 9f       	mul	r27, r18
    b45e:	70 0d       	add	r23, r0
    b460:	81 1d       	adc	r24, r1
    b462:	11 24       	eor	r1, r1
    b464:	91 1d       	adc	r25, r1
    b466:	08 95       	ret

0000b468 <malloc>:
    b468:	cf 93       	push	r28
    b46a:	df 93       	push	r29
    b46c:	82 30       	cpi	r24, 0x02	; 2
    b46e:	91 05       	cpc	r25, r1
    b470:	10 f4       	brcc	.+4      	; 0xb476 <malloc+0xe>
    b472:	82 e0       	ldi	r24, 0x02	; 2
    b474:	90 e0       	ldi	r25, 0x00	; 0
    b476:	e0 91 01 0c 	lds	r30, 0x0C01	; 0x800c01 <__flp>
    b47a:	f0 91 02 0c 	lds	r31, 0x0C02	; 0x800c02 <__flp+0x1>
    b47e:	20 e0       	ldi	r18, 0x00	; 0
    b480:	30 e0       	ldi	r19, 0x00	; 0
    b482:	c0 e0       	ldi	r28, 0x00	; 0
    b484:	d0 e0       	ldi	r29, 0x00	; 0
    b486:	30 97       	sbiw	r30, 0x00	; 0
    b488:	11 f1       	breq	.+68     	; 0xb4ce <malloc+0x66>
    b48a:	40 81       	ld	r20, Z
    b48c:	51 81       	ldd	r21, Z+1	; 0x01
    b48e:	48 17       	cp	r20, r24
    b490:	59 07       	cpc	r21, r25
    b492:	c0 f0       	brcs	.+48     	; 0xb4c4 <malloc+0x5c>
    b494:	48 17       	cp	r20, r24
    b496:	59 07       	cpc	r21, r25
    b498:	61 f4       	brne	.+24     	; 0xb4b2 <malloc+0x4a>
    b49a:	82 81       	ldd	r24, Z+2	; 0x02
    b49c:	93 81       	ldd	r25, Z+3	; 0x03
    b49e:	20 97       	sbiw	r28, 0x00	; 0
    b4a0:	19 f0       	breq	.+6      	; 0xb4a8 <malloc+0x40>
    b4a2:	9b 83       	std	Y+3, r25	; 0x03
    b4a4:	8a 83       	std	Y+2, r24	; 0x02
    b4a6:	2b c0       	rjmp	.+86     	; 0xb4fe <malloc+0x96>
    b4a8:	90 93 02 0c 	sts	0x0C02, r25	; 0x800c02 <__flp+0x1>
    b4ac:	80 93 01 0c 	sts	0x0C01, r24	; 0x800c01 <__flp>
    b4b0:	26 c0       	rjmp	.+76     	; 0xb4fe <malloc+0x96>
    b4b2:	21 15       	cp	r18, r1
    b4b4:	31 05       	cpc	r19, r1
    b4b6:	19 f0       	breq	.+6      	; 0xb4be <malloc+0x56>
    b4b8:	42 17       	cp	r20, r18
    b4ba:	53 07       	cpc	r21, r19
    b4bc:	18 f4       	brcc	.+6      	; 0xb4c4 <malloc+0x5c>
    b4be:	9a 01       	movw	r18, r20
    b4c0:	be 01       	movw	r22, r28
    b4c2:	df 01       	movw	r26, r30
    b4c4:	ef 01       	movw	r28, r30
    b4c6:	02 80       	ldd	r0, Z+2	; 0x02
    b4c8:	f3 81       	ldd	r31, Z+3	; 0x03
    b4ca:	e0 2d       	mov	r30, r0
    b4cc:	dc cf       	rjmp	.-72     	; 0xb486 <malloc+0x1e>
    b4ce:	21 15       	cp	r18, r1
    b4d0:	31 05       	cpc	r19, r1
    b4d2:	09 f1       	breq	.+66     	; 0xb516 <malloc+0xae>
    b4d4:	28 1b       	sub	r18, r24
    b4d6:	39 0b       	sbc	r19, r25
    b4d8:	24 30       	cpi	r18, 0x04	; 4
    b4da:	31 05       	cpc	r19, r1
    b4dc:	90 f4       	brcc	.+36     	; 0xb502 <malloc+0x9a>
    b4de:	12 96       	adiw	r26, 0x02	; 2
    b4e0:	8d 91       	ld	r24, X+
    b4e2:	9c 91       	ld	r25, X
    b4e4:	13 97       	sbiw	r26, 0x03	; 3
    b4e6:	61 15       	cp	r22, r1
    b4e8:	71 05       	cpc	r23, r1
    b4ea:	21 f0       	breq	.+8      	; 0xb4f4 <malloc+0x8c>
    b4ec:	fb 01       	movw	r30, r22
    b4ee:	93 83       	std	Z+3, r25	; 0x03
    b4f0:	82 83       	std	Z+2, r24	; 0x02
    b4f2:	04 c0       	rjmp	.+8      	; 0xb4fc <malloc+0x94>
    b4f4:	90 93 02 0c 	sts	0x0C02, r25	; 0x800c02 <__flp+0x1>
    b4f8:	80 93 01 0c 	sts	0x0C01, r24	; 0x800c01 <__flp>
    b4fc:	fd 01       	movw	r30, r26
    b4fe:	32 96       	adiw	r30, 0x02	; 2
    b500:	44 c0       	rjmp	.+136    	; 0xb58a <malloc+0x122>
    b502:	fd 01       	movw	r30, r26
    b504:	e2 0f       	add	r30, r18
    b506:	f3 1f       	adc	r31, r19
    b508:	81 93       	st	Z+, r24
    b50a:	91 93       	st	Z+, r25
    b50c:	22 50       	subi	r18, 0x02	; 2
    b50e:	31 09       	sbc	r19, r1
    b510:	2d 93       	st	X+, r18
    b512:	3c 93       	st	X, r19
    b514:	3a c0       	rjmp	.+116    	; 0xb58a <malloc+0x122>
    b516:	20 91 ff 0b 	lds	r18, 0x0BFF	; 0x800bff <__brkval>
    b51a:	30 91 00 0c 	lds	r19, 0x0C00	; 0x800c00 <__brkval+0x1>
    b51e:	23 2b       	or	r18, r19
    b520:	41 f4       	brne	.+16     	; 0xb532 <malloc+0xca>
    b522:	20 91 02 02 	lds	r18, 0x0202	; 0x800202 <__malloc_heap_start>
    b526:	30 91 03 02 	lds	r19, 0x0203	; 0x800203 <__malloc_heap_start+0x1>
    b52a:	30 93 00 0c 	sts	0x0C00, r19	; 0x800c00 <__brkval+0x1>
    b52e:	20 93 ff 0b 	sts	0x0BFF, r18	; 0x800bff <__brkval>
    b532:	20 91 00 02 	lds	r18, 0x0200	; 0x800200 <__data_start>
    b536:	30 91 01 02 	lds	r19, 0x0201	; 0x800201 <__data_start+0x1>
    b53a:	21 15       	cp	r18, r1
    b53c:	31 05       	cpc	r19, r1
    b53e:	41 f4       	brne	.+16     	; 0xb550 <malloc+0xe8>
    b540:	2d b7       	in	r18, 0x3d	; 61
    b542:	3e b7       	in	r19, 0x3e	; 62
    b544:	40 91 04 02 	lds	r20, 0x0204	; 0x800204 <__malloc_margin>
    b548:	50 91 05 02 	lds	r21, 0x0205	; 0x800205 <__malloc_margin+0x1>
    b54c:	24 1b       	sub	r18, r20
    b54e:	35 0b       	sbc	r19, r21
    b550:	e0 91 ff 0b 	lds	r30, 0x0BFF	; 0x800bff <__brkval>
    b554:	f0 91 00 0c 	lds	r31, 0x0C00	; 0x800c00 <__brkval+0x1>
    b558:	e2 17       	cp	r30, r18
    b55a:	f3 07       	cpc	r31, r19
    b55c:	a0 f4       	brcc	.+40     	; 0xb586 <malloc+0x11e>
    b55e:	2e 1b       	sub	r18, r30
    b560:	3f 0b       	sbc	r19, r31
    b562:	28 17       	cp	r18, r24
    b564:	39 07       	cpc	r19, r25
    b566:	78 f0       	brcs	.+30     	; 0xb586 <malloc+0x11e>
    b568:	ac 01       	movw	r20, r24
    b56a:	4e 5f       	subi	r20, 0xFE	; 254
    b56c:	5f 4f       	sbci	r21, 0xFF	; 255
    b56e:	24 17       	cp	r18, r20
    b570:	35 07       	cpc	r19, r21
    b572:	48 f0       	brcs	.+18     	; 0xb586 <malloc+0x11e>
    b574:	4e 0f       	add	r20, r30
    b576:	5f 1f       	adc	r21, r31
    b578:	50 93 00 0c 	sts	0x0C00, r21	; 0x800c00 <__brkval+0x1>
    b57c:	40 93 ff 0b 	sts	0x0BFF, r20	; 0x800bff <__brkval>
    b580:	81 93       	st	Z+, r24
    b582:	91 93       	st	Z+, r25
    b584:	02 c0       	rjmp	.+4      	; 0xb58a <malloc+0x122>
    b586:	e0 e0       	ldi	r30, 0x00	; 0
    b588:	f0 e0       	ldi	r31, 0x00	; 0
    b58a:	cf 01       	movw	r24, r30
    b58c:	df 91       	pop	r29
    b58e:	cf 91       	pop	r28
    b590:	08 95       	ret

0000b592 <free>:
    b592:	0f 93       	push	r16
    b594:	1f 93       	push	r17
    b596:	cf 93       	push	r28
    b598:	df 93       	push	r29
    b59a:	00 97       	sbiw	r24, 0x00	; 0
    b59c:	09 f4       	brne	.+2      	; 0xb5a0 <free+0xe>
    b59e:	8c c0       	rjmp	.+280    	; 0xb6b8 <free+0x126>
    b5a0:	fc 01       	movw	r30, r24
    b5a2:	32 97       	sbiw	r30, 0x02	; 2
    b5a4:	13 82       	std	Z+3, r1	; 0x03
    b5a6:	12 82       	std	Z+2, r1	; 0x02
    b5a8:	00 91 01 0c 	lds	r16, 0x0C01	; 0x800c01 <__flp>
    b5ac:	10 91 02 0c 	lds	r17, 0x0C02	; 0x800c02 <__flp+0x1>
    b5b0:	01 15       	cp	r16, r1
    b5b2:	11 05       	cpc	r17, r1
    b5b4:	81 f4       	brne	.+32     	; 0xb5d6 <free+0x44>
    b5b6:	20 81       	ld	r18, Z
    b5b8:	31 81       	ldd	r19, Z+1	; 0x01
    b5ba:	82 0f       	add	r24, r18
    b5bc:	93 1f       	adc	r25, r19
    b5be:	20 91 ff 0b 	lds	r18, 0x0BFF	; 0x800bff <__brkval>
    b5c2:	30 91 00 0c 	lds	r19, 0x0C00	; 0x800c00 <__brkval+0x1>
    b5c6:	28 17       	cp	r18, r24
    b5c8:	39 07       	cpc	r19, r25
    b5ca:	79 f5       	brne	.+94     	; 0xb62a <free+0x98>
    b5cc:	f0 93 00 0c 	sts	0x0C00, r31	; 0x800c00 <__brkval+0x1>
    b5d0:	e0 93 ff 0b 	sts	0x0BFF, r30	; 0x800bff <__brkval>
    b5d4:	71 c0       	rjmp	.+226    	; 0xb6b8 <free+0x126>
    b5d6:	d8 01       	movw	r26, r16
    b5d8:	40 e0       	ldi	r20, 0x00	; 0
    b5da:	50 e0       	ldi	r21, 0x00	; 0
    b5dc:	ae 17       	cp	r26, r30
    b5de:	bf 07       	cpc	r27, r31
    b5e0:	50 f4       	brcc	.+20     	; 0xb5f6 <free+0x64>
    b5e2:	12 96       	adiw	r26, 0x02	; 2
    b5e4:	2d 91       	ld	r18, X+
    b5e6:	3c 91       	ld	r19, X
    b5e8:	13 97       	sbiw	r26, 0x03	; 3
    b5ea:	ad 01       	movw	r20, r26
    b5ec:	21 15       	cp	r18, r1
    b5ee:	31 05       	cpc	r19, r1
    b5f0:	09 f1       	breq	.+66     	; 0xb634 <free+0xa2>
    b5f2:	d9 01       	movw	r26, r18
    b5f4:	f3 cf       	rjmp	.-26     	; 0xb5dc <free+0x4a>
    b5f6:	9d 01       	movw	r18, r26
    b5f8:	da 01       	movw	r26, r20
    b5fa:	33 83       	std	Z+3, r19	; 0x03
    b5fc:	22 83       	std	Z+2, r18	; 0x02
    b5fe:	60 81       	ld	r22, Z
    b600:	71 81       	ldd	r23, Z+1	; 0x01
    b602:	86 0f       	add	r24, r22
    b604:	97 1f       	adc	r25, r23
    b606:	82 17       	cp	r24, r18
    b608:	93 07       	cpc	r25, r19
    b60a:	69 f4       	brne	.+26     	; 0xb626 <free+0x94>
    b60c:	ec 01       	movw	r28, r24
    b60e:	28 81       	ld	r18, Y
    b610:	39 81       	ldd	r19, Y+1	; 0x01
    b612:	26 0f       	add	r18, r22
    b614:	37 1f       	adc	r19, r23
    b616:	2e 5f       	subi	r18, 0xFE	; 254
    b618:	3f 4f       	sbci	r19, 0xFF	; 255
    b61a:	31 83       	std	Z+1, r19	; 0x01
    b61c:	20 83       	st	Z, r18
    b61e:	8a 81       	ldd	r24, Y+2	; 0x02
    b620:	9b 81       	ldd	r25, Y+3	; 0x03
    b622:	93 83       	std	Z+3, r25	; 0x03
    b624:	82 83       	std	Z+2, r24	; 0x02
    b626:	45 2b       	or	r20, r21
    b628:	29 f4       	brne	.+10     	; 0xb634 <free+0xa2>
    b62a:	f0 93 02 0c 	sts	0x0C02, r31	; 0x800c02 <__flp+0x1>
    b62e:	e0 93 01 0c 	sts	0x0C01, r30	; 0x800c01 <__flp>
    b632:	42 c0       	rjmp	.+132    	; 0xb6b8 <free+0x126>
    b634:	13 96       	adiw	r26, 0x03	; 3
    b636:	fc 93       	st	X, r31
    b638:	ee 93       	st	-X, r30
    b63a:	12 97       	sbiw	r26, 0x02	; 2
    b63c:	ed 01       	movw	r28, r26
    b63e:	49 91       	ld	r20, Y+
    b640:	59 91       	ld	r21, Y+
    b642:	9e 01       	movw	r18, r28
    b644:	24 0f       	add	r18, r20
    b646:	35 1f       	adc	r19, r21
    b648:	e2 17       	cp	r30, r18
    b64a:	f3 07       	cpc	r31, r19
    b64c:	71 f4       	brne	.+28     	; 0xb66a <free+0xd8>
    b64e:	80 81       	ld	r24, Z
    b650:	91 81       	ldd	r25, Z+1	; 0x01
    b652:	84 0f       	add	r24, r20
    b654:	95 1f       	adc	r25, r21
    b656:	02 96       	adiw	r24, 0x02	; 2
    b658:	11 96       	adiw	r26, 0x01	; 1
    b65a:	9c 93       	st	X, r25
    b65c:	8e 93       	st	-X, r24
    b65e:	82 81       	ldd	r24, Z+2	; 0x02
    b660:	93 81       	ldd	r25, Z+3	; 0x03
    b662:	13 96       	adiw	r26, 0x03	; 3
    b664:	9c 93       	st	X, r25
    b666:	8e 93       	st	-X, r24
    b668:	12 97       	sbiw	r26, 0x02	; 2
    b66a:	e0 e0       	ldi	r30, 0x00	; 0
    b66c:	f0 e0       	ldi	r31, 0x00	; 0
    b66e:	d8 01       	movw	r26, r16
    b670:	12 96       	adiw	r26, 0x02	; 2
    b672:	8d 91       	ld	r24, X+
    b674:	9c 91       	ld	r25, X
    b676:	13 97       	sbiw	r26, 0x03	; 3
    b678:	00 97       	sbiw	r24, 0x00	; 0
    b67a:	19 f0       	breq	.+6      	; 0xb682 <free+0xf0>
    b67c:	f8 01       	movw	r30, r16
    b67e:	8c 01       	movw	r16, r24
    b680:	f6 cf       	rjmp	.-20     	; 0xb66e <free+0xdc>
    b682:	8d 91       	ld	r24, X+
    b684:	9c 91       	ld	r25, X
    b686:	98 01       	movw	r18, r16
    b688:	2e 5f       	subi	r18, 0xFE	; 254
    b68a:	3f 4f       	sbci	r19, 0xFF	; 255
    b68c:	82 0f       	add	r24, r18
    b68e:	93 1f       	adc	r25, r19
    b690:	20 91 ff 0b 	lds	r18, 0x0BFF	; 0x800bff <__brkval>
    b694:	30 91 00 0c 	lds	r19, 0x0C00	; 0x800c00 <__brkval+0x1>
    b698:	28 17       	cp	r18, r24
    b69a:	39 07       	cpc	r19, r25
    b69c:	69 f4       	brne	.+26     	; 0xb6b8 <free+0x126>
    b69e:	30 97       	sbiw	r30, 0x00	; 0
    b6a0:	29 f4       	brne	.+10     	; 0xb6ac <free+0x11a>
    b6a2:	10 92 02 0c 	sts	0x0C02, r1	; 0x800c02 <__flp+0x1>
    b6a6:	10 92 01 0c 	sts	0x0C01, r1	; 0x800c01 <__flp>
    b6aa:	02 c0       	rjmp	.+4      	; 0xb6b0 <free+0x11e>
    b6ac:	13 82       	std	Z+3, r1	; 0x03
    b6ae:	12 82       	std	Z+2, r1	; 0x02
    b6b0:	10 93 00 0c 	sts	0x0C00, r17	; 0x800c00 <__brkval+0x1>
    b6b4:	00 93 ff 0b 	sts	0x0BFF, r16	; 0x800bff <__brkval>
    b6b8:	df 91       	pop	r29
    b6ba:	cf 91       	pop	r28
    b6bc:	1f 91       	pop	r17
    b6be:	0f 91       	pop	r16
    b6c0:	08 95       	ret

0000b6c2 <realloc>:
    b6c2:	6f 92       	push	r6
    b6c4:	7f 92       	push	r7
    b6c6:	8f 92       	push	r8
    b6c8:	9f 92       	push	r9
    b6ca:	af 92       	push	r10
    b6cc:	bf 92       	push	r11
    b6ce:	cf 92       	push	r12
    b6d0:	df 92       	push	r13
    b6d2:	ef 92       	push	r14
    b6d4:	ff 92       	push	r15
    b6d6:	0f 93       	push	r16
    b6d8:	1f 93       	push	r17
    b6da:	cf 93       	push	r28
    b6dc:	df 93       	push	r29
    b6de:	ec 01       	movw	r28, r24
    b6e0:	00 97       	sbiw	r24, 0x00	; 0
    b6e2:	81 f4       	brne	.+32     	; 0xb704 <realloc+0x42>
    b6e4:	cb 01       	movw	r24, r22
    b6e6:	df 91       	pop	r29
    b6e8:	cf 91       	pop	r28
    b6ea:	1f 91       	pop	r17
    b6ec:	0f 91       	pop	r16
    b6ee:	ff 90       	pop	r15
    b6f0:	ef 90       	pop	r14
    b6f2:	df 90       	pop	r13
    b6f4:	cf 90       	pop	r12
    b6f6:	bf 90       	pop	r11
    b6f8:	af 90       	pop	r10
    b6fa:	9f 90       	pop	r9
    b6fc:	8f 90       	pop	r8
    b6fe:	7f 90       	pop	r7
    b700:	6f 90       	pop	r6
    b702:	b2 ce       	rjmp	.-668    	; 0xb468 <malloc>
    b704:	fc 01       	movw	r30, r24
    b706:	e6 0f       	add	r30, r22
    b708:	f7 1f       	adc	r31, r23
    b70a:	9c 01       	movw	r18, r24
    b70c:	22 50       	subi	r18, 0x02	; 2
    b70e:	31 09       	sbc	r19, r1
    b710:	e2 17       	cp	r30, r18
    b712:	f3 07       	cpc	r31, r19
    b714:	08 f4       	brcc	.+2      	; 0xb718 <realloc+0x56>
    b716:	a8 c0       	rjmp	.+336    	; 0xb868 <realloc+0x1a6>
    b718:	d9 01       	movw	r26, r18
    b71a:	0d 91       	ld	r16, X+
    b71c:	1c 91       	ld	r17, X
    b71e:	11 97       	sbiw	r26, 0x01	; 1
    b720:	06 17       	cp	r16, r22
    b722:	17 07       	cpc	r17, r23
    b724:	a8 f0       	brcs	.+42     	; 0xb750 <realloc+0x8e>
    b726:	05 30       	cpi	r16, 0x05	; 5
    b728:	11 05       	cpc	r17, r1
    b72a:	08 f4       	brcc	.+2      	; 0xb72e <realloc+0x6c>
    b72c:	9b c0       	rjmp	.+310    	; 0xb864 <realloc+0x1a2>
    b72e:	c8 01       	movw	r24, r16
    b730:	04 97       	sbiw	r24, 0x04	; 4
    b732:	86 17       	cp	r24, r22
    b734:	97 07       	cpc	r25, r23
    b736:	08 f4       	brcc	.+2      	; 0xb73a <realloc+0x78>
    b738:	95 c0       	rjmp	.+298    	; 0xb864 <realloc+0x1a2>
    b73a:	02 50       	subi	r16, 0x02	; 2
    b73c:	11 09       	sbc	r17, r1
    b73e:	06 1b       	sub	r16, r22
    b740:	17 0b       	sbc	r17, r23
    b742:	01 93       	st	Z+, r16
    b744:	11 93       	st	Z+, r17
    b746:	6d 93       	st	X+, r22
    b748:	7c 93       	st	X, r23
    b74a:	cf 01       	movw	r24, r30
    b74c:	22 df       	rcall	.-444    	; 0xb592 <free>
    b74e:	8a c0       	rjmp	.+276    	; 0xb864 <realloc+0x1a2>
    b750:	5b 01       	movw	r10, r22
    b752:	a0 1a       	sub	r10, r16
    b754:	b1 0a       	sbc	r11, r17
    b756:	4c 01       	movw	r8, r24
    b758:	80 0e       	add	r8, r16
    b75a:	91 1e       	adc	r9, r17
    b75c:	a0 91 01 0c 	lds	r26, 0x0C01	; 0x800c01 <__flp>
    b760:	b0 91 02 0c 	lds	r27, 0x0C02	; 0x800c02 <__flp+0x1>
    b764:	40 e0       	ldi	r20, 0x00	; 0
    b766:	50 e0       	ldi	r21, 0x00	; 0
    b768:	e1 2c       	mov	r14, r1
    b76a:	f1 2c       	mov	r15, r1
    b76c:	10 97       	sbiw	r26, 0x00	; 0
    b76e:	09 f4       	brne	.+2      	; 0xb772 <realloc+0xb0>
    b770:	4a c0       	rjmp	.+148    	; 0xb806 <realloc+0x144>
    b772:	a8 15       	cp	r26, r8
    b774:	b9 05       	cpc	r27, r9
    b776:	d1 f5       	brne	.+116    	; 0xb7ec <realloc+0x12a>
    b778:	6d 90       	ld	r6, X+
    b77a:	7c 90       	ld	r7, X
    b77c:	11 97       	sbiw	r26, 0x01	; 1
    b77e:	63 01       	movw	r12, r6
    b780:	82 e0       	ldi	r24, 0x02	; 2
    b782:	c8 0e       	add	r12, r24
    b784:	d1 1c       	adc	r13, r1
    b786:	ca 14       	cp	r12, r10
    b788:	db 04       	cpc	r13, r11
    b78a:	80 f1       	brcs	.+96     	; 0xb7ec <realloc+0x12a>
    b78c:	a3 01       	movw	r20, r6
    b78e:	4a 19       	sub	r20, r10
    b790:	5b 09       	sbc	r21, r11
    b792:	6a 01       	movw	r12, r20
    b794:	82 e0       	ldi	r24, 0x02	; 2
    b796:	c8 0e       	add	r12, r24
    b798:	d1 1c       	adc	r13, r1
    b79a:	12 96       	adiw	r26, 0x02	; 2
    b79c:	bc 90       	ld	r11, X
    b79e:	12 97       	sbiw	r26, 0x02	; 2
    b7a0:	13 96       	adiw	r26, 0x03	; 3
    b7a2:	ac 91       	ld	r26, X
    b7a4:	b5 e0       	ldi	r27, 0x05	; 5
    b7a6:	cb 16       	cp	r12, r27
    b7a8:	d1 04       	cpc	r13, r1
    b7aa:	40 f0       	brcs	.+16     	; 0xb7bc <realloc+0xfa>
    b7ac:	b2 82       	std	Z+2, r11	; 0x02
    b7ae:	a3 83       	std	Z+3, r26	; 0x03
    b7b0:	51 83       	std	Z+1, r21	; 0x01
    b7b2:	40 83       	st	Z, r20
    b7b4:	d9 01       	movw	r26, r18
    b7b6:	6d 93       	st	X+, r22
    b7b8:	7c 93       	st	X, r23
    b7ba:	0a c0       	rjmp	.+20     	; 0xb7d0 <realloc+0x10e>
    b7bc:	0e 5f       	subi	r16, 0xFE	; 254
    b7be:	1f 4f       	sbci	r17, 0xFF	; 255
    b7c0:	c3 01       	movw	r24, r6
    b7c2:	80 0f       	add	r24, r16
    b7c4:	91 1f       	adc	r25, r17
    b7c6:	f9 01       	movw	r30, r18
    b7c8:	91 83       	std	Z+1, r25	; 0x01
    b7ca:	80 83       	st	Z, r24
    b7cc:	eb 2d       	mov	r30, r11
    b7ce:	fa 2f       	mov	r31, r26
    b7d0:	e1 14       	cp	r14, r1
    b7d2:	f1 04       	cpc	r15, r1
    b7d4:	31 f0       	breq	.+12     	; 0xb7e2 <realloc+0x120>
    b7d6:	d7 01       	movw	r26, r14
    b7d8:	13 96       	adiw	r26, 0x03	; 3
    b7da:	fc 93       	st	X, r31
    b7dc:	ee 93       	st	-X, r30
    b7de:	12 97       	sbiw	r26, 0x02	; 2
    b7e0:	41 c0       	rjmp	.+130    	; 0xb864 <realloc+0x1a2>
    b7e2:	f0 93 02 0c 	sts	0x0C02, r31	; 0x800c02 <__flp+0x1>
    b7e6:	e0 93 01 0c 	sts	0x0C01, r30	; 0x800c01 <__flp>
    b7ea:	3c c0       	rjmp	.+120    	; 0xb864 <realloc+0x1a2>
    b7ec:	8d 91       	ld	r24, X+
    b7ee:	9c 91       	ld	r25, X
    b7f0:	11 97       	sbiw	r26, 0x01	; 1
    b7f2:	48 17       	cp	r20, r24
    b7f4:	59 07       	cpc	r21, r25
    b7f6:	08 f4       	brcc	.+2      	; 0xb7fa <realloc+0x138>
    b7f8:	ac 01       	movw	r20, r24
    b7fa:	7d 01       	movw	r14, r26
    b7fc:	12 96       	adiw	r26, 0x02	; 2
    b7fe:	0d 90       	ld	r0, X+
    b800:	bc 91       	ld	r27, X
    b802:	a0 2d       	mov	r26, r0
    b804:	b3 cf       	rjmp	.-154    	; 0xb76c <realloc+0xaa>
    b806:	80 91 ff 0b 	lds	r24, 0x0BFF	; 0x800bff <__brkval>
    b80a:	90 91 00 0c 	lds	r25, 0x0C00	; 0x800c00 <__brkval+0x1>
    b80e:	88 15       	cp	r24, r8
    b810:	99 05       	cpc	r25, r9
    b812:	e1 f4       	brne	.+56     	; 0xb84c <realloc+0x18a>
    b814:	46 17       	cp	r20, r22
    b816:	57 07       	cpc	r21, r23
    b818:	c8 f4       	brcc	.+50     	; 0xb84c <realloc+0x18a>
    b81a:	80 91 00 02 	lds	r24, 0x0200	; 0x800200 <__data_start>
    b81e:	90 91 01 02 	lds	r25, 0x0201	; 0x800201 <__data_start+0x1>
    b822:	00 97       	sbiw	r24, 0x00	; 0
    b824:	41 f4       	brne	.+16     	; 0xb836 <realloc+0x174>
    b826:	8d b7       	in	r24, 0x3d	; 61
    b828:	9e b7       	in	r25, 0x3e	; 62
    b82a:	40 91 04 02 	lds	r20, 0x0204	; 0x800204 <__malloc_margin>
    b82e:	50 91 05 02 	lds	r21, 0x0205	; 0x800205 <__malloc_margin+0x1>
    b832:	84 1b       	sub	r24, r20
    b834:	95 0b       	sbc	r25, r21
    b836:	e8 17       	cp	r30, r24
    b838:	f9 07       	cpc	r31, r25
    b83a:	b0 f4       	brcc	.+44     	; 0xb868 <realloc+0x1a6>
    b83c:	f0 93 00 0c 	sts	0x0C00, r31	; 0x800c00 <__brkval+0x1>
    b840:	e0 93 ff 0b 	sts	0x0BFF, r30	; 0x800bff <__brkval>
    b844:	f9 01       	movw	r30, r18
    b846:	71 83       	std	Z+1, r23	; 0x01
    b848:	60 83       	st	Z, r22
    b84a:	0c c0       	rjmp	.+24     	; 0xb864 <realloc+0x1a2>
    b84c:	cb 01       	movw	r24, r22
    b84e:	0c de       	rcall	.-1000   	; 0xb468 <malloc>
    b850:	7c 01       	movw	r14, r24
    b852:	00 97       	sbiw	r24, 0x00	; 0
    b854:	49 f0       	breq	.+18     	; 0xb868 <realloc+0x1a6>
    b856:	a8 01       	movw	r20, r16
    b858:	be 01       	movw	r22, r28
    b85a:	17 d0       	rcall	.+46     	; 0xb88a <memcpy>
    b85c:	ce 01       	movw	r24, r28
    b85e:	99 de       	rcall	.-718    	; 0xb592 <free>
    b860:	c7 01       	movw	r24, r14
    b862:	04 c0       	rjmp	.+8      	; 0xb86c <realloc+0x1aa>
    b864:	ce 01       	movw	r24, r28
    b866:	02 c0       	rjmp	.+4      	; 0xb86c <realloc+0x1aa>
    b868:	80 e0       	ldi	r24, 0x00	; 0
    b86a:	90 e0       	ldi	r25, 0x00	; 0
    b86c:	df 91       	pop	r29
    b86e:	cf 91       	pop	r28
    b870:	1f 91       	pop	r17
    b872:	0f 91       	pop	r16
    b874:	ff 90       	pop	r15
    b876:	ef 90       	pop	r14
    b878:	df 90       	pop	r13
    b87a:	cf 90       	pop	r12
    b87c:	bf 90       	pop	r11
    b87e:	af 90       	pop	r10
    b880:	9f 90       	pop	r9
    b882:	8f 90       	pop	r8
    b884:	7f 90       	pop	r7
    b886:	6f 90       	pop	r6
    b888:	08 95       	ret

0000b88a <memcpy>:
    b88a:	fb 01       	movw	r30, r22
    b88c:	dc 01       	movw	r26, r24
    b88e:	02 c0       	rjmp	.+4      	; 0xb894 <memcpy+0xa>
    b890:	01 90       	ld	r0, Z+
    b892:	0d 92       	st	X+, r0
    b894:	41 50       	subi	r20, 0x01	; 1
    b896:	50 40       	sbci	r21, 0x00	; 0
    b898:	d8 f7       	brcc	.-10     	; 0xb890 <memcpy+0x6>
    b89a:	08 95       	ret

0000b89c <strcat>:
    b89c:	fb 01       	movw	r30, r22
    b89e:	dc 01       	movw	r26, r24
    b8a0:	0d 90       	ld	r0, X+
    b8a2:	00 20       	and	r0, r0
    b8a4:	e9 f7       	brne	.-6      	; 0xb8a0 <strcat+0x4>
    b8a6:	11 97       	sbiw	r26, 0x01	; 1
    b8a8:	01 90       	ld	r0, Z+
    b8aa:	0d 92       	st	X+, r0
    b8ac:	00 20       	and	r0, r0
    b8ae:	e1 f7       	brne	.-8      	; 0xb8a8 <strcat+0xc>
    b8b0:	08 95       	ret

0000b8b2 <strcpy>:
    b8b2:	fb 01       	movw	r30, r22
    b8b4:	dc 01       	movw	r26, r24
    b8b6:	01 90       	ld	r0, Z+
    b8b8:	0d 92       	st	X+, r0
    b8ba:	00 20       	and	r0, r0
    b8bc:	e1 f7       	brne	.-8      	; 0xb8b6 <strcpy+0x4>
    b8be:	08 95       	ret

0000b8c0 <strncpy>:
    b8c0:	fb 01       	movw	r30, r22
    b8c2:	dc 01       	movw	r26, r24
    b8c4:	41 50       	subi	r20, 0x01	; 1
    b8c6:	50 40       	sbci	r21, 0x00	; 0
    b8c8:	48 f0       	brcs	.+18     	; 0xb8dc <strncpy+0x1c>
    b8ca:	01 90       	ld	r0, Z+
    b8cc:	0d 92       	st	X+, r0
    b8ce:	00 20       	and	r0, r0
    b8d0:	c9 f7       	brne	.-14     	; 0xb8c4 <strncpy+0x4>
    b8d2:	01 c0       	rjmp	.+2      	; 0xb8d6 <strncpy+0x16>
    b8d4:	1d 92       	st	X+, r1
    b8d6:	41 50       	subi	r20, 0x01	; 1
    b8d8:	50 40       	sbci	r21, 0x00	; 0
    b8da:	e0 f7       	brcc	.-8      	; 0xb8d4 <strncpy+0x14>
    b8dc:	08 95       	ret

0000b8de <__itoa_ncheck>:
    b8de:	bb 27       	eor	r27, r27
    b8e0:	4a 30       	cpi	r20, 0x0A	; 10
    b8e2:	31 f4       	brne	.+12     	; 0xb8f0 <__itoa_ncheck+0x12>
    b8e4:	99 23       	and	r25, r25
    b8e6:	22 f4       	brpl	.+8      	; 0xb8f0 <__itoa_ncheck+0x12>
    b8e8:	bd e2       	ldi	r27, 0x2D	; 45
    b8ea:	90 95       	com	r25
    b8ec:	81 95       	neg	r24
    b8ee:	9f 4f       	sbci	r25, 0xFF	; 255
    b8f0:	01 c0       	rjmp	.+2      	; 0xb8f4 <__utoa_common>

0000b8f2 <__utoa_ncheck>:
    b8f2:	bb 27       	eor	r27, r27

0000b8f4 <__utoa_common>:
    b8f4:	fb 01       	movw	r30, r22
    b8f6:	55 27       	eor	r21, r21
    b8f8:	aa 27       	eor	r26, r26
    b8fa:	88 0f       	add	r24, r24
    b8fc:	99 1f       	adc	r25, r25
    b8fe:	aa 1f       	adc	r26, r26
    b900:	a4 17       	cp	r26, r20
    b902:	10 f0       	brcs	.+4      	; 0xb908 <__utoa_common+0x14>
    b904:	a4 1b       	sub	r26, r20
    b906:	83 95       	inc	r24
    b908:	50 51       	subi	r21, 0x10	; 16
    b90a:	b9 f7       	brne	.-18     	; 0xb8fa <__utoa_common+0x6>
    b90c:	a0 5d       	subi	r26, 0xD0	; 208
    b90e:	aa 33       	cpi	r26, 0x3A	; 58
    b910:	08 f0       	brcs	.+2      	; 0xb914 <__utoa_common+0x20>
    b912:	a9 5d       	subi	r26, 0xD9	; 217
    b914:	a1 93       	st	Z+, r26
    b916:	00 97       	sbiw	r24, 0x00	; 0
    b918:	79 f7       	brne	.-34     	; 0xb8f8 <__utoa_common+0x4>
    b91a:	b1 11       	cpse	r27, r1
    b91c:	b1 93       	st	Z+, r27
    b91e:	11 92       	st	Z+, r1
    b920:	cb 01       	movw	r24, r22
    b922:	00 c0       	rjmp	.+0      	; 0xb924 <strrev>

0000b924 <strrev>:
    b924:	dc 01       	movw	r26, r24
    b926:	fc 01       	movw	r30, r24
    b928:	67 2f       	mov	r22, r23
    b92a:	71 91       	ld	r23, Z+
    b92c:	77 23       	and	r23, r23
    b92e:	e1 f7       	brne	.-8      	; 0xb928 <strrev+0x4>
    b930:	32 97       	sbiw	r30, 0x02	; 2
    b932:	04 c0       	rjmp	.+8      	; 0xb93c <strrev+0x18>
    b934:	7c 91       	ld	r23, X
    b936:	6d 93       	st	X+, r22
    b938:	70 83       	st	Z, r23
    b93a:	62 91       	ld	r22, -Z
    b93c:	ae 17       	cp	r26, r30
    b93e:	bf 07       	cpc	r27, r31
    b940:	c8 f3       	brcs	.-14     	; 0xb934 <strrev+0x10>
    b942:	08 95       	ret

0000b944 <eeprom_read_byte>:
    b944:	f9 99       	sbic	0x1f, 1	; 31
    b946:	fe cf       	rjmp	.-4      	; 0xb944 <eeprom_read_byte>
    b948:	92 bd       	out	0x22, r25	; 34
    b94a:	81 bd       	out	0x21, r24	; 33
    b94c:	f8 9a       	sbi	0x1f, 0	; 31
    b94e:	99 27       	eor	r25, r25
    b950:	80 b5       	in	r24, 0x20	; 32
    b952:	08 95       	ret

0000b954 <__do_global_dtors>:
    b954:	19 e1       	ldi	r17, 0x19	; 25
    b956:	c5 e3       	ldi	r28, 0x35	; 53
    b958:	d9 e1       	ldi	r29, 0x19	; 25
    b95a:	00 e0       	ldi	r16, 0x00	; 0
    b95c:	05 c0       	rjmp	.+10     	; 0xb968 <__do_global_dtors+0x14>
    b95e:	80 2f       	mov	r24, r16
    b960:	fe 01       	movw	r30, r28
    b962:	61 dd       	rcall	.-1342   	; 0xb426 <__tablejump2__>
    b964:	21 96       	adiw	r28, 0x01	; 1
    b966:	01 1d       	adc	r16, r1
    b968:	c6 33       	cpi	r28, 0x36	; 54
    b96a:	d1 07       	cpc	r29, r17
    b96c:	80 e0       	ldi	r24, 0x00	; 0
    b96e:	08 07       	cpc	r16, r24
    b970:	b1 f7       	brne	.-20     	; 0xb95e <__do_global_dtors+0xa>
    b972:	f8 94       	cli

0000b974 <__stop_program>:
    b974:	ff cf       	rjmp	.-2      	; 0xb974 <__stop_program>
