
fernbedienung.elf:     file format elf32-avr

Sections:
Idx Name          Size      VMA       LMA       File off  Algn
  0 .data         000002b8  00800200  00009bf0  00009c84  2**0
                  CONTENTS, ALLOC, LOAD, DATA
  1 .text         00009bf0  00000000  00000000  00000094  2**1
                  CONTENTS, ALLOC, LOAD, READONLY, CODE
  2 .bss          0000061e  008004b8  008004b8  00009f3c  2**0
                  ALLOC
  3 .comment      00000030  00000000  00000000  00009f3c  2**0
                  CONTENTS, READONLY
  4 .note.gnu.avr.deviceinfo 00000040  00000000  00000000  00009f6c  2**2
                  CONTENTS, READONLY
  5 .debug_aranges 000007e8  00000000  00000000  00009fac  2**0
                  CONTENTS, READONLY, DEBUGGING
  6 .debug_info   00013f78  00000000  00000000  0000a794  2**0
                  CONTENTS, READONLY, DEBUGGING
  7 .debug_abbrev 00001cdf  00000000  00000000  0001e70c  2**0
                  CONTENTS, READONLY, DEBUGGING
  8 .debug_line   00005243  00000000  00000000  000203eb  2**0
                  CONTENTS, READONLY, DEBUGGING
  9 .debug_frame  00002200  00000000  00000000  00025630  2**2
                  CONTENTS, READONLY, DEBUGGING
 10 .debug_str    00002600  00000000  00000000  00027830  2**0
                  CONTENTS, READONLY, DEBUGGING
 11 .debug_loc    0000edb1  00000000  00000000  00029e30  2**0
                  CONTENTS, READONLY, DEBUGGING
 12 .debug_ranges 000009b8  00000000  00000000  00038be1  2**0
                  CONTENTS, READONLY, DEBUGGING

Disassembly of section .text:

00000000 <__vectors>:
       0:	0c 94 21 19 	jmp	0x3242	; 0x3242 <__dtors_end>
       4:	0c 94 52 19 	jmp	0x32a4	; 0x32a4 <__bad_interrupt>
       8:	0c 94 52 19 	jmp	0x32a4	; 0x32a4 <__bad_interrupt>
       c:	0c 94 52 19 	jmp	0x32a4	; 0x32a4 <__bad_interrupt>
      10:	0c 94 52 19 	jmp	0x32a4	; 0x32a4 <__bad_interrupt>
      14:	0c 94 52 19 	jmp	0x32a4	; 0x32a4 <__bad_interrupt>
      18:	0c 94 52 19 	jmp	0x32a4	; 0x32a4 <__bad_interrupt>
      1c:	0c 94 52 19 	jmp	0x32a4	; 0x32a4 <__bad_interrupt>
      20:	0c 94 52 19 	jmp	0x32a4	; 0x32a4 <__bad_interrupt>
      24:	0c 94 52 19 	jmp	0x32a4	; 0x32a4 <__bad_interrupt>
      28:	0c 94 52 19 	jmp	0x32a4	; 0x32a4 <__bad_interrupt>
      2c:	0c 94 52 19 	jmp	0x32a4	; 0x32a4 <__bad_interrupt>
      30:	0c 94 52 19 	jmp	0x32a4	; 0x32a4 <__bad_interrupt>
      34:	0c 94 52 19 	jmp	0x32a4	; 0x32a4 <__bad_interrupt>
      38:	0c 94 52 19 	jmp	0x32a4	; 0x32a4 <__bad_interrupt>
      3c:	0c 94 52 19 	jmp	0x32a4	; 0x32a4 <__bad_interrupt>
      40:	0c 94 52 19 	jmp	0x32a4	; 0x32a4 <__bad_interrupt>
      44:	0c 94 41 2b 	jmp	0x5682	; 0x5682 <__vector_17>
      48:	0c 94 52 19 	jmp	0x32a4	; 0x32a4 <__bad_interrupt>
      4c:	0c 94 52 19 	jmp	0x32a4	; 0x32a4 <__bad_interrupt>
      50:	0c 94 52 19 	jmp	0x32a4	; 0x32a4 <__bad_interrupt>
      54:	0c 94 52 19 	jmp	0x32a4	; 0x32a4 <__bad_interrupt>
      58:	0c 94 52 19 	jmp	0x32a4	; 0x32a4 <__bad_interrupt>
      5c:	0c 94 b9 2e 	jmp	0x5d72	; 0x5d72 <__vector_23>
      60:	0c 94 52 19 	jmp	0x32a4	; 0x32a4 <__bad_interrupt>
      64:	0c 94 52 19 	jmp	0x32a4	; 0x32a4 <__bad_interrupt>
      68:	0c 94 52 19 	jmp	0x32a4	; 0x32a4 <__bad_interrupt>
      6c:	0c 94 52 19 	jmp	0x32a4	; 0x32a4 <__bad_interrupt>
      70:	0c 94 52 19 	jmp	0x32a4	; 0x32a4 <__bad_interrupt>
      74:	0c 94 52 19 	jmp	0x32a4	; 0x32a4 <__bad_interrupt>
      78:	0c 94 52 19 	jmp	0x32a4	; 0x32a4 <__bad_interrupt>
      7c:	0c 94 52 19 	jmp	0x32a4	; 0x32a4 <__bad_interrupt>
      80:	0c 94 52 19 	jmp	0x32a4	; 0x32a4 <__bad_interrupt>
      84:	0c 94 52 19 	jmp	0x32a4	; 0x32a4 <__bad_interrupt>
      88:	0c 94 52 19 	jmp	0x32a4	; 0x32a4 <__bad_interrupt>
      8c:	0c 94 52 19 	jmp	0x32a4	; 0x32a4 <__bad_interrupt>
      90:	0c 94 f0 2c 	jmp	0x59e0	; 0x59e0 <__vector_36>
      94:	0c 94 52 19 	jmp	0x32a4	; 0x32a4 <__bad_interrupt>
      98:	0c 94 c4 2c 	jmp	0x5988	; 0x5988 <__vector_38>
      9c:	0c 94 52 19 	jmp	0x32a4	; 0x32a4 <__bad_interrupt>
      a0:	0c 94 52 19 	jmp	0x32a4	; 0x32a4 <__bad_interrupt>
      a4:	0c 94 52 19 	jmp	0x32a4	; 0x32a4 <__bad_interrupt>
      a8:	0c 94 52 19 	jmp	0x32a4	; 0x32a4 <__bad_interrupt>
      ac:	0c 94 52 19 	jmp	0x32a4	; 0x32a4 <__bad_interrupt>
      b0:	0c 94 52 19 	jmp	0x32a4	; 0x32a4 <__bad_interrupt>
      b4:	0c 94 52 19 	jmp	0x32a4	; 0x32a4 <__bad_interrupt>
      b8:	0c 94 52 19 	jmp	0x32a4	; 0x32a4 <__bad_interrupt>
      bc:	0c 94 52 19 	jmp	0x32a4	; 0x32a4 <__bad_interrupt>
      c0:	0c 94 52 19 	jmp	0x32a4	; 0x32a4 <__bad_interrupt>
      c4:	0c 94 52 19 	jmp	0x32a4	; 0x32a4 <__bad_interrupt>
      c8:	0c 94 52 19 	jmp	0x32a4	; 0x32a4 <__bad_interrupt>
      cc:	0c 94 52 19 	jmp	0x32a4	; 0x32a4 <__bad_interrupt>
      d0:	0c 94 52 19 	jmp	0x32a4	; 0x32a4 <__bad_interrupt>
      d4:	0c 94 52 19 	jmp	0x32a4	; 0x32a4 <__bad_interrupt>
      d8:	0c 94 52 19 	jmp	0x32a4	; 0x32a4 <__bad_interrupt>
      dc:	0c 94 52 19 	jmp	0x32a4	; 0x32a4 <__bad_interrupt>
      e0:	0c 94 52 19 	jmp	0x32a4	; 0x32a4 <__bad_interrupt>
      e4:	65 49       	sbci	r22, 0x95	; 149
      e6:	68 49       	sbci	r22, 0x98	; 152
      e8:	57 49       	sbci	r21, 0x97	; 151
      ea:	5b 49       	sbci	r21, 0x9B	; 155
      ec:	61 49       	sbci	r22, 0x91	; 145
      ee:	9f 49       	sbci	r25, 0x9F	; 159
      f0:	6c 49       	sbci	r22, 0x9C	; 156
      f2:	70 49       	sbci	r23, 0x90	; 144
      f4:	76 49       	sbci	r23, 0x96	; 150
      f6:	7a 49       	sbci	r23, 0x9A	; 154
      f8:	7e 49       	sbci	r23, 0x9E	; 158
      fa:	84 49       	sbci	r24, 0x94	; 148
      fc:	88 49       	sbci	r24, 0x98	; 152
      fe:	8c 49       	sbci	r24, 0x9C	; 156
     100:	9f 49       	sbci	r25, 0x9F	; 159
     102:	92 49       	sbci	r25, 0x92	; 146
     104:	96 49       	sbci	r25, 0x96	; 150
     106:	9a 49       	sbci	r25, 0x9A	; 154
     108:	05 a8       	ldd	r0, Z+53	; 0x35
     10a:	4c cd       	rjmp	.-1384   	; 0xfffffba4 <__eeprom_end+0xff7efba4>
     10c:	b2 d4       	rcall	.+2404   	; 0xa72 <__FUSE_REGION_LENGTH__+0x672>
     10e:	4e b9       	out	0x0e, r20	; 14
     110:	38 36       	cpi	r19, 0x68	; 104
     112:	a9 02       	muls	r26, r25
     114:	0c 50       	subi	r16, 0x0C	; 12
     116:	b9 91       	ld	r27, Y+
     118:	86 88       	ldd	r8, Z+22	; 0x16
     11a:	08 3c       	cpi	r16, 0xC8	; 200
     11c:	a6 aa       	std	Z+54, r10	; 0x36
     11e:	aa 2a       	or	r10, r26
     120:	be 00       	.word	0x00be	; ????
     122:	00 00       	nop
     124:	80 3f       	cpi	r24, 0xF0	; 240

00000126 <__trampolines_end>:
     126:	10 10       	cpse	r1, r0
     128:	20 5f       	subi	r18, 0xF0	; 240
	...
     152:	01 00       	.word	0x0001	; ????
     154:	01 00       	.word	0x0001	; ????
     156:	01 00       	.word	0x0001	; ????
     158:	0f e0       	ldi	r16, 0x0F	; 15
     15a:	01 00       	.word	0x0001	; ????
     15c:	01 00       	.word	0x0001	; ????
     15e:	01 00       	.word	0x0001	; ????
     160:	00 00       	nop
     162:	00 00       	nop
     164:	0f e0       	ldi	r16, 0x0F	; 15
     166:	00 00       	nop
     168:	00 00       	nop
     16a:	00 00       	nop
     16c:	00 06       	cpc	r0, r16
     16e:	03 e4       	ldi	r16, 0x43	; 67
     170:	0f f8       	.word	0xf80f	; ????
     172:	1f 1c       	adc	r1, r15
     174:	1c 2e       	mov	r1, r28
     176:	3c 4e       	sbci	r19, 0xEC	; 236
     178:	38 8e       	std	Y+24, r3	; 0x18
     17a:	39 8e       	std	Y+25, r3	; 0x19
     17c:	39 1e       	adc	r3, r25
     17e:	3a 3c       	cpi	r19, 0xCA	; 202
     180:	1c 7c       	andi	r17, 0xCC	; 204
     182:	0f f8       	.word	0xf80f	; ????
     184:	13 e0       	ldi	r17, 0x03	; 3
     186:	30 00       	.word	0x0030	; ????
	...
     1a0:	0c cc       	rjmp	.-2024   	; 0xfffff9ba <__eeprom_end+0xff7ef9ba>
     1a2:	0c cc       	rjmp	.-2024   	; 0xfffff9bc <__eeprom_end+0xff7ef9bc>
     1a4:	0c cc       	rjmp	.-2024   	; 0xfffff9be <__eeprom_end+0xff7ef9be>
	...
     1ae:	00 00       	nop
     1b0:	30 80       	ld	r3, Z
     1b2:	69 00       	.word	0x0069	; ????
     1b4:	4b 00       	.word	0x004b	; ????
     1b6:	5a 00       	.word	0x005a	; ????
     1b8:	36 00       	.word	0x0036	; ????
     1ba:	04 00       	.word	0x0004	; ????
     1bc:	0d 8c       	ldd	r0, Y+29	; 0x1d
     1be:	0b 5a       	subi	r16, 0xAB	; 171
     1c0:	12 52       	subi	r17, 0x22	; 34
     1c2:	12 d6       	rcall	.+3108   	; 0xde8 <arial_bold+0xde>
     1c4:	21 8c       	ldd	r2, Z+25	; 0x19
	...
     1ce:	00 00       	nop
     1d0:	1e 18       	sub	r1, r14
     1d2:	33 30       	cpi	r19, 0x03	; 3
     1d4:	63 60       	ori	r22, 0x03	; 3
     1d6:	63 40       	sbci	r22, 0x03	; 3
     1d8:	66 c0       	rjmp	.+204    	; 0x2a6 <__trampolines_end+0x180>
     1da:	3d bc       	out	0x2d, r3	; 45
     1dc:	03 66       	ori	r16, 0x63	; 99
     1de:	02 c6       	rjmp	.+3076   	; 0xde4 <arial_bold+0xda>
     1e0:	06 c6       	rjmp	.+3084   	; 0xdee <arial_bold+0xe4>
     1e2:	0c cc       	rjmp	.-2024   	; 0xfffff9fc <__eeprom_end+0xff7ef9fc>
     1e4:	18 78       	andi	r17, 0x88	; 136
	...
     1ee:	00 00       	nop
     1f0:	03 e0       	ldi	r16, 0x03	; 3
     1f2:	06 60       	ori	r16, 0x06	; 6
     1f4:	0c c0       	rjmp	.+24     	; 0x20e <__trampolines_end+0xe8>
     1f6:	0d c0       	rjmp	.+26     	; 0x212 <__trampolines_end+0xec>
     1f8:	06 e0       	ldi	r16, 0x06	; 6
	...
     20e:	03 e0       	ldi	r16, 0x03	; 3
     210:	00 30       	cpi	r16, 0x00	; 0
     212:	00 30       	cpi	r16, 0x00	; 0
     214:	00 70       	andi	r16, 0x00	; 0
     216:	01 c0       	rjmp	.+2      	; 0x21a <__trampolines_end+0xf4>
     218:	07 00       	.word	0x0007	; ????
     21a:	07 e0       	ldi	r16, 0x07	; 7
	...
     22c:	00 00       	nop
     22e:	07 c0       	rjmp	.+14     	; 0x23e <__trampolines_end+0x118>
     230:	00 c0       	rjmp	.+0      	; 0x232 <__trampolines_end+0x10c>
     232:	03 80       	ldd	r0, Z+3	; 0x03
     234:	06 00       	.word	0x0006	; ????
     236:	01 c0       	rjmp	.+2      	; 0x23a <__trampolines_end+0x114>
     238:	00 c0       	rjmp	.+0      	; 0x23a <__trampolines_end+0x114>
     23a:	0f 80       	ldd	r0, Y+7	; 0x07
	...
     24c:	00 00       	nop
     24e:	01 80       	ldd	r0, Z+1	; 0x01
     250:	03 80       	ldd	r0, Z+3	; 0x03
     252:	1f f0       	brie	.+6      	; 0x25a <__trampolines_end+0x134>
     254:	03 00       	.word	0x0003	; ????
     256:	03 00       	.word	0x0003	; ????
     258:	3f e0       	ldi	r19, 0x0F	; 15
     25a:	07 00       	.word	0x0007	; ????
     25c:	06 00       	.word	0x0006	; ????
     25e:	0e 00       	.word	0x000e	; ????
     260:	0e 00       	.word	0x000e	; ????
	...
     272:	00 30       	cpi	r16, 0x00	; 0
     274:	00 70       	andi	r16, 0x00	; 0
     276:	00 60       	ori	r16, 0x00	; 0
     278:	00 00       	nop
     27a:	0f fe       	.word	0xfe0f	; ????
     27c:	0f fe       	.word	0xfe0f	; ????
     27e:	00 00       	nop
     280:	00 c0       	rjmp	.+0      	; 0x282 <__trampolines_end+0x15c>
     282:	01 c0       	rjmp	.+2      	; 0x286 <__trampolines_end+0x160>
     284:	01 80       	ldd	r0, Z+1	; 0x01
	...
     28e:	00 30       	cpi	r16, 0x00	; 0
     290:	00 e0       	ldi	r16, 0x00	; 0
     292:	00 e0       	ldi	r16, 0x00	; 0
     294:	00 60       	ori	r16, 0x00	; 0
     296:	00 60       	ori	r16, 0x00	; 0
     298:	00 c0       	rjmp	.+0      	; 0x29a <__trampolines_end+0x174>
     29a:	00 c0       	rjmp	.+0      	; 0x29c <__trampolines_end+0x176>
     29c:	00 c0       	rjmp	.+0      	; 0x29e <__trampolines_end+0x178>
	...
     2ae:	00 00       	nop
     2b0:	38 1c       	adc	r3, r8
     2b2:	1c 3c       	cpi	r17, 0xCC	; 204
     2b4:	1c 18       	sub	r1, r12
     2b6:	0e 30       	cpi	r16, 0x0E	; 14
     2b8:	1e 78       	andi	r17, 0x8E	; 142
     2ba:	03 c0       	rjmp	.+6      	; 0x2c2 <__trampolines_end+0x19c>
     2bc:	03 c0       	rjmp	.+6      	; 0x2c4 <__trampolines_end+0x19e>
     2be:	3f f8       	.word	0xf83f	; ????
     2c0:	03 00       	.word	0x0003	; ????
     2c2:	07 00       	.word	0x0007	; ????
     2c4:	07 00       	.word	0x0007	; ????
	...
     2ce:	00 f8       	bld	r0, 0
     2d0:	03 f8       	bld	r0, 3
     2d2:	03 00       	.word	0x0003	; ????
     2d4:	03 80       	ldd	r0, Z+3	; 0x03
     2d6:	07 f0       	brie	.+0      	; 0x2d8 <__trampolines_end+0x1b2>
     2d8:	0c f8       	.word	0xf80c	; ????
     2da:	0e 18       	sub	r0, r14
     2dc:	0f 98       	cbi	0x01, 7	; 1
     2de:	03 e0       	ldi	r16, 0x03	; 3
     2e0:	00 f0       	brcs	.+0      	; 0x2e2 <__trampolines_end+0x1bc>
     2e2:	08 30       	cpi	r16, 0x08	; 8
     2e4:	0f f0       	brie	.+2      	; 0x2e8 <__trampolines_end+0x1c2>
     2e6:	07 c0       	rjmp	.+14     	; 0x2f6 <__trampolines_end+0x1d0>
	...
     2f8:	01 80       	ldd	r0, Z+1	; 0x01
     2fa:	03 c0       	rjmp	.+6      	; 0x302 <__trampolines_end+0x1dc>
     2fc:	03 c0       	rjmp	.+6      	; 0x304 <__trampolines_end+0x1de>
     2fe:	01 80       	ldd	r0, Z+1	; 0x01
	...
     30c:	00 00       	nop
     30e:	00 10       	cpse	r0, r0
     310:	00 7c       	andi	r16, 0xC0	; 192
     312:	00 fc       	sbrc	r0, 0
     314:	01 d0       	rcall	.+2      	; 0x318 <__trampolines_end+0x1f2>
     316:	03 a0       	ldd	r0, Z+35	; 0x23
     318:	03 a0       	ldd	r0, Z+35	; 0x23
     31a:	03 a0       	ldd	r0, Z+35	; 0x23
     31c:	03 a0       	ldd	r0, Z+35	; 0x23
     31e:	01 f8       	bld	r0, 1
     320:	00 f0       	brcs	.+0      	; 0x322 <__trampolines_end+0x1fc>
     322:	00 40       	sbci	r16, 0x00	; 0
     324:	00 40       	sbci	r16, 0x00	; 0
	...
     32e:	03 c0       	rjmp	.+6      	; 0x336 <__trampolines_end+0x210>
     330:	0f f0       	brie	.+2      	; 0x334 <__trampolines_end+0x20e>
     332:	1c 38       	cpi	r17, 0x8C	; 140
     334:	1d b8       	out	0x0d, r1	; 13
     336:	39 9c       	mul	r3, r9
     338:	39 9c       	mul	r3, r9
     33a:	39 9c       	mul	r3, r9
     33c:	39 9c       	mul	r3, r9
     33e:	1d b8       	out	0x0d, r1	; 13
     340:	1c 38       	cpi	r17, 0x8C	; 140
     342:	0f f0       	brie	.+2      	; 0x346 <__trampolines_end+0x220>
     344:	03 c0       	rjmp	.+6      	; 0x34c <__trampolines_end+0x226>
	...
     34e:	03 c0       	rjmp	.+6      	; 0x356 <__trampolines_end+0x230>
     350:	0f f0       	brie	.+2      	; 0x354 <__trampolines_end+0x22e>
     352:	1f 38       	cpi	r17, 0x8F	; 143
     354:	1e 38       	cpi	r17, 0x8E	; 142
     356:	3f 3c       	cpi	r19, 0xCF	; 207
     358:	3f 3c       	cpi	r19, 0xCF	; 207
     35a:	3f 3c       	cpi	r19, 0xCF	; 207
     35c:	3f 3c       	cpi	r19, 0xCF	; 207
     35e:	1f 38       	cpi	r17, 0x8F	; 143
     360:	1f f8       	.word	0xf81f	; ????
     362:	0f f0       	brie	.+2      	; 0x366 <__trampolines_end+0x240>
     364:	03 c0       	rjmp	.+6      	; 0x36c <__trampolines_end+0x246>
	...
     36e:	03 c0       	rjmp	.+6      	; 0x376 <__trampolines_end+0x250>
     370:	0f f0       	brie	.+2      	; 0x374 <__trampolines_end+0x24e>
     372:	1e 38       	cpi	r17, 0x8E	; 142
     374:	1d 98       	cbi	0x03, 5	; 3
     376:	3f 9c       	mul	r3, r15
     378:	3f 3c       	cpi	r19, 0xCF	; 207
     37a:	3e 7c       	andi	r19, 0xCE	; 206
     37c:	3c fc       	.word	0xfc3c	; ????
     37e:	1c 18       	sub	r1, r12
     380:	1f f8       	.word	0xf81f	; ????
     382:	0f f0       	brie	.+2      	; 0x386 <__trampolines_end+0x260>
     384:	03 c0       	rjmp	.+6      	; 0x38c <__trampolines_end+0x266>
	...
     38e:	03 c0       	rjmp	.+6      	; 0x396 <__trampolines_end+0x270>
     390:	0f f0       	brie	.+2      	; 0x394 <__trampolines_end+0x26e>
     392:	1c 38       	cpi	r17, 0x8C	; 140
     394:	1f 98       	cbi	0x03, 7	; 3
     396:	3f 9c       	mul	r3, r15
     398:	3e 7c       	andi	r19, 0xCE	; 206
     39a:	3f 9c       	mul	r3, r15
     39c:	3f 9c       	mul	r3, r15
     39e:	1f 98       	cbi	0x03, 7	; 3
     3a0:	1c 38       	cpi	r17, 0x8C	; 140
     3a2:	0f f0       	brie	.+2      	; 0x3a6 <__trampolines_end+0x280>
     3a4:	03 c0       	rjmp	.+6      	; 0x3ac <__trampolines_end+0x286>
	...
     3ae:	03 c0       	rjmp	.+6      	; 0x3b6 <__trampolines_end+0x290>
     3b0:	0f f0       	brie	.+2      	; 0x3b4 <__trampolines_end+0x28e>
     3b2:	1f 78       	andi	r17, 0x8F	; 143
     3b4:	1e 78       	andi	r17, 0x8E	; 142
     3b6:	3d 7c       	andi	r19, 0xCD	; 205
     3b8:	3d 7c       	andi	r19, 0xCD	; 205
     3ba:	3b 7c       	andi	r19, 0xCB	; 203
     3bc:	38 3c       	cpi	r19, 0xC8	; 200
     3be:	1f 78       	andi	r17, 0x8F	; 143
     3c0:	1f 78       	andi	r17, 0x8F	; 143
     3c2:	0f f0       	brie	.+2      	; 0x3c6 <__trampolines_end+0x2a0>
     3c4:	03 c0       	rjmp	.+6      	; 0x3cc <__trampolines_end+0x2a6>
	...
     3ce:	03 c0       	rjmp	.+6      	; 0x3d6 <__trampolines_end+0x2b0>
     3d0:	0f f0       	brie	.+2      	; 0x3d4 <__trampolines_end+0x2ae>
     3d2:	1f f8       	.word	0xf81f	; ????
     3d4:	1c 38       	cpi	r17, 0x8C	; 140
     3d6:	3d fc       	.word	0xfc3d	; ????
     3d8:	3d fc       	.word	0xfc3d	; ????
     3da:	3c 7c       	andi	r19, 0xCC	; 204
     3dc:	3f 3c       	cpi	r19, 0xCF	; 207
     3de:	1f 38       	cpi	r17, 0x8F	; 143
     3e0:	1c 78       	andi	r17, 0x8C	; 140
     3e2:	0f f0       	brie	.+2      	; 0x3e6 <__trampolines_end+0x2c0>
     3e4:	03 c0       	rjmp	.+6      	; 0x3ec <__trampolines_end+0x2c6>
	...
     3ee:	03 c0       	rjmp	.+6      	; 0x3f6 <__trampolines_end+0x2d0>
     3f0:	0f f0       	brie	.+2      	; 0x3f4 <__trampolines_end+0x2ce>
     3f2:	1e 18       	sub	r1, r14
     3f4:	1c f8       	.word	0xf81c	; ????
     3f6:	39 fc       	.word	0xfc39	; ????
     3f8:	38 3c       	cpi	r19, 0xC8	; 200
     3fa:	39 9c       	mul	r3, r9
     3fc:	39 9c       	mul	r3, r9
     3fe:	1d 98       	cbi	0x03, 5	; 3
     400:	1c 38       	cpi	r17, 0x8C	; 140
     402:	0f f0       	brie	.+2      	; 0x406 <__FUSE_REGION_LENGTH__+0x6>
     404:	03 c0       	rjmp	.+6      	; 0x40c <__FUSE_REGION_LENGTH__+0xc>
	...
     40e:	03 c0       	rjmp	.+6      	; 0x416 <__FUSE_REGION_LENGTH__+0x16>
     410:	0f f0       	brie	.+2      	; 0x414 <__FUSE_REGION_LENGTH__+0x14>
     412:	1f f8       	.word	0xf81f	; ????
     414:	1c 18       	sub	r1, r12
     416:	3f dc       	rcall	.-1922   	; 0xfffffc96 <__eeprom_end+0xff7efc96>
     418:	3f bc       	out	0x2f, r3	; 47
     41a:	3f 7c       	andi	r19, 0xCF	; 207
     41c:	3e fc       	.word	0xfc3e	; ????
     41e:	1c f8       	.word	0xf81c	; ????
     420:	1f f8       	.word	0xf81f	; ????
     422:	0f f0       	brie	.+2      	; 0x426 <__FUSE_REGION_LENGTH__+0x26>
     424:	03 c0       	rjmp	.+6      	; 0x42c <__FUSE_REGION_LENGTH__+0x2c>
	...
     42e:	03 c0       	rjmp	.+6      	; 0x436 <__FUSE_REGION_LENGTH__+0x36>
     430:	0f f0       	brie	.+2      	; 0x434 <__FUSE_REGION_LENGTH__+0x34>
     432:	1c 38       	cpi	r17, 0x8C	; 140
     434:	1b d8       	rcall	.-4042   	; 0xfffff46c <__eeprom_end+0xff7ef46c>
     436:	39 dc       	rcall	.-1934   	; 0xfffffcaa <__eeprom_end+0xff7efcaa>
     438:	3c 7c       	andi	r19, 0xCC	; 204
     43a:	3f 3c       	cpi	r19, 0xCF	; 207
     43c:	3b dc       	rcall	.-1930   	; 0xfffffcb4 <__eeprom_end+0xff7efcb4>
     43e:	1b d8       	rcall	.-4042   	; 0xfffff476 <__eeprom_end+0xff7ef476>
     440:	1c 38       	cpi	r17, 0x8C	; 140
     442:	0f f0       	brie	.+2      	; 0x446 <__FUSE_REGION_LENGTH__+0x46>
     444:	03 c0       	rjmp	.+6      	; 0x44c <__FUSE_REGION_LENGTH__+0x4c>
	...
     44e:	03 e0       	ldi	r16, 0x03	; 3
     450:	0f f8       	.word	0xf80f	; ????
     452:	1c 3c       	cpi	r17, 0xCC	; 204
     454:	19 dc       	rcall	.-1998   	; 0xfffffc88 <__eeprom_end+0xff7efc88>
     456:	39 ce       	rjmp	.-910    	; 0xca <__SREG__+0x8b>
     458:	39 ce       	rjmp	.-910    	; 0xcc <__SREG__+0x8d>
     45a:	3c 4e       	sbci	r19, 0xEC	; 236
     45c:	3f ce       	rjmp	.-898    	; 0xdc <__SREG__+0x9d>
     45e:	1f 9c       	mul	r1, r15
     460:	1c 3c       	cpi	r17, 0xCC	; 204
     462:	0f f8       	.word	0xf80f	; ????
     464:	03 e0       	ldi	r16, 0x03	; 3
	...
     46e:	00 00       	nop
     470:	0f fc       	.word	0xfc0f	; ????
     472:	0f fc       	.word	0xfc0f	; ????
     474:	0f fc       	.word	0xfc0f	; ????
     476:	0f fc       	.word	0xfc0f	; ????
     478:	0f fc       	.word	0xfc0f	; ????
     47a:	0f fc       	.word	0xfc0f	; ????
     47c:	0f fc       	.word	0xfc0f	; ????
     47e:	0f fc       	.word	0xfc0f	; ????
     480:	0f fc       	.word	0xfc0f	; ????
     482:	0f fc       	.word	0xfc0f	; ????
	...
     48c:	00 00       	nop
     48e:	03 c0       	rjmp	.+6      	; 0x496 <__FUSE_REGION_LENGTH__+0x96>
     490:	0f f0       	brie	.+2      	; 0x494 <__FUSE_REGION_LENGTH__+0x94>
     492:	1c 38       	cpi	r17, 0x8C	; 140
     494:	18 18       	sub	r1, r8
     496:	30 0c       	add	r3, r0
     498:	30 0c       	add	r3, r0
     49a:	30 0c       	add	r3, r0
     49c:	30 0c       	add	r3, r0
     49e:	18 18       	sub	r1, r8
     4a0:	1c 38       	cpi	r17, 0x8C	; 140
     4a2:	0f f0       	brie	.+2      	; 0x4a6 <__FUSE_REGION_LENGTH__+0xa6>
     4a4:	03 c0       	rjmp	.+6      	; 0x4ac <__FUSE_REGION_LENGTH__+0xac>
	...
     4ae:	3f fc       	.word	0xfc3f	; ????
     4b0:	28 14       	cp	r2, r8
     4b2:	28 14       	cp	r2, r8
     4b4:	28 14       	cp	r2, r8
     4b6:	28 14       	cp	r2, r8
     4b8:	28 14       	cp	r2, r8
     4ba:	2f f4       	brid	.+10     	; 0x4c6 <__FUSE_REGION_LENGTH__+0xc6>
     4bc:	27 e4       	ldi	r18, 0x47	; 71
     4be:	24 e4       	ldi	r18, 0x44	; 68
     4c0:	24 e4       	ldi	r18, 0x44	; 68
     4c2:	24 e4       	ldi	r18, 0x44	; 68
     4c4:	1f fc       	.word	0xfc1f	; ????
	...
     4ce:	00 c0       	rjmp	.+0      	; 0x4d0 <__FUSE_REGION_LENGTH__+0xd0>
     4d0:	01 40       	sbci	r16, 0x01	; 1
     4d2:	01 20       	and	r0, r1
     4d4:	02 10       	cpse	r0, r2
     4d6:	02 10       	cpse	r0, r2
     4d8:	04 08       	sbc	r0, r4
     4da:	08 08       	sbc	r0, r8
     4dc:	08 04       	cpc	r0, r8
     4de:	10 02       	muls	r17, r16
     4e0:	10 02       	muls	r17, r16
     4e2:	3f ff       	.word	0xff3f	; ????
	...
     4ec:	00 00       	nop
     4ee:	3f ff       	.word	0xff3f	; ????
     4f0:	10 02       	muls	r17, r16
     4f2:	10 02       	muls	r17, r16
     4f4:	08 04       	cpc	r0, r8
     4f6:	08 08       	sbc	r0, r8
     4f8:	04 08       	sbc	r0, r4
     4fa:	02 10       	cpse	r0, r2
     4fc:	02 10       	cpse	r0, r2
     4fe:	01 20       	and	r0, r1
     500:	01 40       	sbci	r16, 0x01	; 1
     502:	00 c0       	rjmp	.+0      	; 0x504 <__FUSE_REGION_LENGTH__+0x104>
	...
     50c:	00 04       	cpc	r0, r0
     50e:	00 1c       	adc	r0, r0
     510:	00 24       	eor	r0, r0
     512:	00 c4       	rjmp	.+2048   	; 0xd14 <arial_bold+0xa>
     514:	03 04       	cpc	r0, r3
     516:	04 04       	cpc	r0, r4
     518:	18 04       	cpc	r1, r8
     51a:	10 04       	cpc	r1, r0
     51c:	0c 04       	cpc	r0, r12
     51e:	03 04       	cpc	r0, r3
     520:	00 84       	ldd	r0, Z+8	; 0x08
     522:	00 64       	ori	r16, 0x40	; 64
     524:	00 1c       	adc	r0, r0
     526:	00 04       	cpc	r0, r0
     528:	00 00       	nop
     52a:	00 00       	nop
     52c:	00 00       	nop
     52e:	3f fc       	.word	0xfc3f	; ????
     530:	3f fc       	.word	0xfc3f	; ????
     532:	30 0c       	add	r3, r0
     534:	32 6c       	ori	r19, 0xC2	; 194
     536:	32 ec       	ldi	r19, 0xC2	; 194
     538:	33 cc       	rjmp	.-1946   	; 0xfffffda0 <__eeprom_end+0xff7efda0>
     53a:	31 8c       	ldd	r3, Z+25	; 0x19
     53c:	33 ec       	ldi	r19, 0xC3	; 195
     53e:	36 6c       	ori	r19, 0xC6	; 198
     540:	36 0c       	add	r3, r6
     542:	3f fc       	.word	0xfc3f	; ????
     544:	3f fc       	.word	0xfc3f	; ????
     546:	00 00       	nop
     548:	00 00       	nop
     54a:	00 00       	nop
     54c:	00 02       	muls	r16, r16
     54e:	3f fc       	.word	0xfc3f	; ????
     550:	3f fc       	.word	0xfc3f	; ????
     552:	30 1c       	adc	r3, r0
     554:	30 2c       	mov	r3, r0
     556:	30 4c       	sbci	r19, 0xC0	; 192
     558:	34 cc       	rjmp	.-1944   	; 0xfffffdc2 <__eeprom_end+0xff7efdc2>
     55a:	3f 8c       	ldd	r3, Y+31	; 0x1f
     55c:	33 0c       	add	r3, r3
     55e:	33 0c       	add	r3, r3
     560:	30 0c       	add	r3, r0
     562:	3f fc       	.word	0xfc3f	; ????
     564:	3f fc       	.word	0xfc3f	; ????
	...
     572:	00 00       	nop
     574:	3f fe       	.word	0xfe3f	; ????
     576:	28 06       	cpc	r2, r24
     578:	26 1a       	sub	r2, r22
     57a:	23 62       	ori	r18, 0x23	; 35
     57c:	26 b2       	in	r2, 0x16	; 22
     57e:	38 0e       	add	r3, r24
     580:	30 06       	cpc	r3, r16
     582:	3f fe       	.word	0xfe3f	; ????
	...
     58c:	00 00       	nop
     58e:	3f fc       	.word	0xfc3f	; ????
     590:	3f fc       	.word	0xfc3f	; ????
     592:	30 0c       	add	r3, r0
     594:	30 0c       	add	r3, r0
     596:	30 0c       	add	r3, r0
     598:	30 0c       	add	r3, r0
     59a:	30 0c       	add	r3, r0
     59c:	30 0c       	add	r3, r0
     59e:	30 0c       	add	r3, r0
     5a0:	30 0c       	add	r3, r0
     5a2:	3f fc       	.word	0xfc3f	; ????
     5a4:	3f fc       	.word	0xfc3f	; ????
     5a6:	00 00       	nop
     5a8:	00 00       	nop
     5aa:	00 00       	nop
     5ac:	00 60       	ori	r16, 0x00	; 0
     5ae:	01 fc       	sbrc	r0, 1
     5b0:	02 06       	cpc	r0, r18
     5b2:	04 00       	.word	0x0004	; ????
     5b4:	08 00       	.word	0x0008	; ????
     5b6:	3f f8       	.word	0xf83f	; ????
     5b8:	08 00       	.word	0x0008	; ????
     5ba:	1f f8       	.word	0xf81f	; ????
     5bc:	08 00       	.word	0x0008	; ????
     5be:	0c 00       	.word	0x000c	; ????
     5c0:	04 00       	.word	0x0004	; ????
     5c2:	03 04       	cpc	r0, r3
     5c4:	01 f8       	bld	r0, 1
     5c6:	00 00       	nop
     5c8:	00 00       	nop
     5ca:	00 00       	nop
     5cc:	00 38       	cpi	r16, 0x80	; 128
     5ce:	00 70       	andi	r16, 0x00	; 0
     5d0:	00 e0       	ldi	r16, 0x00	; 0
     5d2:	00 c0       	rjmp	.+0      	; 0x5d4 <__FUSE_REGION_LENGTH__+0x1d4>
     5d4:	01 80       	ldd	r0, Z+1	; 0x01
     5d6:	03 10       	cpse	r0, r3
     5d8:	03 e0       	ldi	r16, 0x03	; 3
     5da:	06 c0       	rjmp	.+12     	; 0x5e8 <__FUSE_REGION_LENGTH__+0x1e8>
     5dc:	00 80       	ld	r0, Z
     5de:	01 80       	ldd	r0, Z+1	; 0x01
     5e0:	0b 00       	.word	0x000b	; ????
     5e2:	0a 00       	.word	0x000a	; ????
     5e4:	0f 80       	ldd	r0, Y+7	; 0x07
     5e6:	0c 00       	.word	0x000c	; ????
     5e8:	00 00       	nop
     5ea:	00 00       	nop
     5ec:	00 00       	nop
     5ee:	1c 60       	ori	r17, 0x0C	; 12
     5f0:	38 c0       	rjmp	.+112    	; 0x662 <__FUSE_REGION_LENGTH__+0x262>
     5f2:	18 80       	ld	r1, Y
     5f4:	19 80       	ldd	r1, Y+1	; 0x01
     5f6:	13 38       	cpi	r17, 0x83	; 131
     5f8:	32 70       	andi	r19, 0x02	; 2
     5fa:	36 60       	ori	r19, 0x06	; 6
     5fc:	0c cc       	rjmp	.-2024   	; 0xfffffe16 <__eeprom_end+0xff7efe16>
     5fe:	08 fc       	.word	0xfc08	; ????
     600:	10 18       	sub	r1, r0
     602:	30 18       	sub	r3, r0
	...
     60c:	00 00       	nop
     60e:	0c 30       	cpi	r16, 0x0C	; 12
     610:	38 60       	ori	r19, 0x08	; 8
     612:	18 40       	sbci	r17, 0x08	; 8
     614:	18 80       	ld	r1, Y
     616:	31 fc       	sbrc	r3, 1
     618:	33 06       	cpc	r3, r19
     61a:	02 06       	cpc	r0, r18
     61c:	04 1c       	adc	r0, r4
     61e:	0c 70       	andi	r16, 0x0C	; 12
     620:	18 fc       	.word	0xfc18	; ????
	...
     62e:	00 00       	nop
     630:	7c 18       	sub	r7, r12
     632:	0c 30       	cpi	r16, 0x0C	; 12
     634:	38 20       	and	r3, r8
     636:	70 60       	ori	r23, 0x00	; 0
     638:	0c dc       	rcall	.-2024   	; 0xfffffe52 <__eeprom_end+0xff7efe52>
     63a:	0c b8       	out	0x0c, r0	; 12
     63c:	f9 30       	cpi	r31, 0x09	; 9
     63e:	03 66       	ori	r16, 0x63	; 99
     640:	02 7e       	andi	r16, 0xE2	; 226
     642:	04 0c       	add	r0, r4
     644:	0c 0c       	add	r0, r12
	...
     64e:	00 00       	nop
     650:	00 60       	ori	r16, 0x00	; 0
     652:	00 e0       	ldi	r16, 0x00	; 0
     654:	00 e0       	ldi	r16, 0x00	; 0
     656:	00 00       	nop
     658:	00 c0       	rjmp	.+0      	; 0x65a <__FUSE_REGION_LENGTH__+0x25a>
     65a:	01 c0       	rjmp	.+2      	; 0x65e <__FUSE_REGION_LENGTH__+0x25e>
     65c:	07 80       	ldd	r0, Z+7	; 0x07
     65e:	0f 00       	.word	0x000f	; ????
     660:	0e 00       	.word	0x000e	; ????
     662:	0e 10       	cpse	r0, r14
     664:	07 f0       	brie	.+0      	; 0x666 <__FUSE_REGION_LENGTH__+0x266>
     666:	03 e0       	ldi	r16, 0x03	; 3
     668:	00 00       	nop
     66a:	00 00       	nop
     66c:	00 00       	nop
     66e:	01 90       	ld	r0, Z+
     670:	02 70       	andi	r16, 0x02	; 2
     672:	00 00       	nop
     674:	0c 60       	ori	r16, 0x0C	; 12
     676:	1d f0       	brhs	.+6      	; 0x67e <__FUSE_REGION_LENGTH__+0x27e>
     678:	1f 70       	andi	r17, 0x0F	; 15
     67a:	1e 70       	andi	r17, 0x0E	; 14
     67c:	1c e0       	ldi	r17, 0x0C	; 12
     67e:	1c e0       	ldi	r17, 0x0C	; 12
     680:	38 e0       	ldi	r19, 0x08	; 8
     682:	38 f0       	brcs	.+14     	; 0x692 <__FUSE_REGION_LENGTH__+0x292>
	...
     68c:	07 c0       	rjmp	.+14     	; 0x69c <__FUSE_REGION_LENGTH__+0x29c>
     68e:	18 30       	cpi	r17, 0x08	; 8
     690:	30 18       	sub	r3, r0
     692:	2c 68       	ori	r18, 0x8C	; 140
     694:	4c 64       	ori	r20, 0x4C	; 76
     696:	40 04       	cpc	r4, r0
     698:	40 04       	cpc	r4, r0
     69a:	48 24       	eor	r4, r8
     69c:	48 24       	eor	r4, r8
     69e:	24 48       	sbci	r18, 0x84	; 132
     6a0:	33 98       	cbi	0x06, 3	; 6
     6a2:	18 30       	cpi	r17, 0x08	; 8
     6a4:	07 c0       	rjmp	.+14     	; 0x6b4 <__FUSE_REGION_LENGTH__+0x2b4>
     6a6:	00 00       	nop
     6a8:	00 00       	nop
     6aa:	00 00       	nop
     6ac:	03 e0       	ldi	r16, 0x03	; 3
     6ae:	0c 18       	sub	r0, r12
     6b0:	18 0c       	add	r1, r8
     6b2:	16 34       	cpi	r17, 0x46	; 70
     6b4:	26 32       	cpi	r18, 0x26	; 38
     6b6:	20 02       	muls	r18, r16
     6b8:	21 c2       	rjmp	.+1090   	; 0xafc <__FUSE_REGION_LENGTH__+0x6fc>
     6ba:	22 22       	and	r2, r18
     6bc:	24 12       	cpse	r2, r20
     6be:	14 14       	cp	r1, r4
     6c0:	18 0c       	add	r1, r8
     6c2:	0c 18       	sub	r0, r12
     6c4:	03 e0       	ldi	r16, 0x03	; 3
	...
     6ce:	07 c0       	rjmp	.+14     	; 0x6de <__FUSE_REGION_LENGTH__+0x2de>
     6d0:	18 30       	cpi	r17, 0x08	; 8
     6d2:	30 18       	sub	r3, r0
     6d4:	26 c8       	rjmp	.-4020   	; 0xfffff722 <__eeprom_end+0xff7ef722>
     6d6:	46 c4       	rjmp	.+2188   	; 0xf64 <arial_bold+0x25a>
     6d8:	40 04       	cpc	r4, r0
     6da:	40 04       	cpc	r4, r0
     6dc:	4f e4       	ldi	r20, 0x4F	; 79
     6de:	20 08       	sbc	r2, r0
     6e0:	30 18       	sub	r3, r0
     6e2:	18 30       	cpi	r17, 0x08	; 8
     6e4:	07 c0       	rjmp	.+14     	; 0x6f4 <__FUSE_REGION_LENGTH__+0x2f4>
	...
     6ee:	01 e0       	ldi	r16, 0x01	; 1
     6f0:	03 f0       	brvs	.+0      	; 0x6f2 <__FUSE_REGION_LENGTH__+0x2f2>
     6f2:	03 f0       	brvs	.+0      	; 0x6f4 <__FUSE_REGION_LENGTH__+0x2f4>
     6f4:	02 d0       	rcall	.+4      	; 0x6fa <__FUSE_REGION_LENGTH__+0x2fa>
     6f6:	01 20       	and	r0, r1
     6f8:	00 c0       	rjmp	.+0      	; 0x6fa <__FUSE_REGION_LENGTH__+0x2fa>
     6fa:	00 c0       	rjmp	.+0      	; 0x6fc <__FUSE_REGION_LENGTH__+0x2fc>
     6fc:	0c 08       	sbc	r0, r12
     6fe:	0f 38       	cpi	r16, 0x8F	; 143
     700:	00 c0       	rjmp	.+0      	; 0x702 <__FUSE_REGION_LENGTH__+0x302>
     702:	03 30       	cpi	r16, 0x03	; 3
     704:	0e 18       	sub	r0, r14
     706:	00 00       	nop
     708:	00 00       	nop
     70a:	00 00       	nop
     70c:	00 80       	ld	r0, Z
     70e:	01 c0       	rjmp	.+2      	; 0x712 <__FUSE_REGION_LENGTH__+0x312>
     710:	03 e0       	ldi	r16, 0x03	; 3
     712:	07 f0       	brie	.+0      	; 0x714 <__FUSE_REGION_LENGTH__+0x314>
     714:	0f f8       	.word	0xf80f	; ????
     716:	1f fc       	.word	0xfc1f	; ????
     718:	3d de       	rcall	.-902    	; 0x394 <__trampolines_end+0x26e>
     71a:	31 c6       	rjmp	.+3170   	; 0x137e <arial_bold+0x674>
     71c:	21 c2       	rjmp	.+1090   	; 0xb60 <__FUSE_REGION_LENGTH__+0x760>
     71e:	01 c0       	rjmp	.+2      	; 0x722 <__FUSE_REGION_LENGTH__+0x322>
     720:	01 c0       	rjmp	.+2      	; 0x724 <__FUSE_REGION_LENGTH__+0x324>
     722:	01 c0       	rjmp	.+2      	; 0x726 <__FUSE_REGION_LENGTH__+0x326>
     724:	01 c0       	rjmp	.+2      	; 0x728 <__FUSE_REGION_LENGTH__+0x328>
     726:	01 c0       	rjmp	.+2      	; 0x72a <__FUSE_REGION_LENGTH__+0x32a>
     728:	01 c0       	rjmp	.+2      	; 0x72c <__FUSE_REGION_LENGTH__+0x32c>
     72a:	00 00       	nop
     72c:	01 c0       	rjmp	.+2      	; 0x730 <__FUSE_REGION_LENGTH__+0x330>
     72e:	01 c0       	rjmp	.+2      	; 0x732 <__FUSE_REGION_LENGTH__+0x332>
     730:	01 c0       	rjmp	.+2      	; 0x734 <__FUSE_REGION_LENGTH__+0x334>
     732:	01 c0       	rjmp	.+2      	; 0x736 <__FUSE_REGION_LENGTH__+0x336>
     734:	01 c0       	rjmp	.+2      	; 0x738 <__FUSE_REGION_LENGTH__+0x338>
     736:	01 c0       	rjmp	.+2      	; 0x73a <__FUSE_REGION_LENGTH__+0x33a>
     738:	21 c2       	rjmp	.+1090   	; 0xb7c <__FUSE_REGION_LENGTH__+0x77c>
     73a:	31 c6       	rjmp	.+3170   	; 0x139e <arial_bold+0x694>
     73c:	3d de       	rcall	.-902    	; 0x3b8 <__trampolines_end+0x292>
     73e:	1f fc       	.word	0xfc1f	; ????
     740:	0f f8       	.word	0xf80f	; ????
     742:	07 f0       	brie	.+0      	; 0x744 <__FUSE_REGION_LENGTH__+0x344>
     744:	03 e0       	ldi	r16, 0x03	; 3
     746:	01 c0       	rjmp	.+2      	; 0x74a <__FUSE_REGION_LENGTH__+0x34a>
     748:	00 80       	ld	r0, Z
     74a:	00 00       	nop
     74c:	03 80       	ldd	r0, Z+3	; 0x03
     74e:	07 00       	.word	0x0007	; ????
     750:	0e 00       	.word	0x000e	; ????
     752:	1e 00       	.word	0x001e	; ????
     754:	3c 00       	.word	0x003c	; ????
     756:	7f fe       	.word	0xfe7f	; ????
     758:	ff fe       	.word	0xfeff	; ????
     75a:	7f fe       	.word	0xfe7f	; ????
     75c:	3c 00       	.word	0x003c	; ????
     75e:	1e 00       	.word	0x001e	; ????
     760:	0e 00       	.word	0x000e	; ????
     762:	07 00       	.word	0x0007	; ????
     764:	03 80       	ldd	r0, Z+3	; 0x03
     766:	00 00       	nop
     768:	00 00       	nop
     76a:	00 00       	nop
     76c:	01 c0       	rjmp	.+2      	; 0x770 <__FUSE_REGION_LENGTH__+0x370>
     76e:	00 e0       	ldi	r16, 0x00	; 0
     770:	00 70       	andi	r16, 0x00	; 0
     772:	00 78       	andi	r16, 0x80	; 128
     774:	00 3c       	cpi	r16, 0xC0	; 192
     776:	7f fe       	.word	0xfe7f	; ????
     778:	7f ff       	.word	0xff7f	; ????
     77a:	7f fe       	.word	0xfe7f	; ????
     77c:	00 3c       	cpi	r16, 0xC0	; 192
     77e:	00 78       	andi	r16, 0x80	; 128
     780:	00 70       	andi	r16, 0x00	; 0
     782:	00 e0       	ldi	r16, 0x00	; 0
     784:	01 c0       	rjmp	.+2      	; 0x788 <__FUSE_REGION_LENGTH__+0x388>
     786:	00 00       	nop
     788:	00 00       	nop
     78a:	00 00       	nop
     78c:	00 08       	sbc	r0, r0
     78e:	00 10       	cpse	r0, r0
     790:	00 20       	and	r0, r0
     792:	00 40       	sbci	r16, 0x00	; 0
     794:	00 80       	ld	r0, Z
     796:	01 80       	ldd	r0, Z+1	; 0x01
     798:	33 00       	.word	0x0033	; ????
     79a:	1a 00       	.word	0x001a	; ????
     79c:	0e 00       	.word	0x000e	; ????
     79e:	0c 00       	.word	0x000c	; ????
     7a0:	08 00       	.word	0x0008	; ????
	...
     7aa:	00 00       	nop
     7ac:	20 00       	.word	0x0020	; ????
     7ae:	38 00       	.word	0x0038	; ????
     7b0:	24 00       	.word	0x0024	; ????
     7b2:	23 00       	.word	0x0023	; ????
     7b4:	20 c0       	rjmp	.+64     	; 0x7f6 <__FUSE_REGION_LENGTH__+0x3f6>
     7b6:	20 20       	and	r2, r0
     7b8:	20 18       	sub	r2, r0
     7ba:	20 08       	sbc	r2, r0
     7bc:	20 30       	cpi	r18, 0x00	; 0
     7be:	20 c0       	rjmp	.+64     	; 0x800 <__FUSE_REGION_LENGTH__+0x400>
     7c0:	21 00       	.word	0x0021	; ????
     7c2:	26 00       	.word	0x0026	; ????
     7c4:	38 00       	.word	0x0038	; ????
     7c6:	20 00       	.word	0x0020	; ????
     7c8:	00 00       	nop
     7ca:	00 00       	nop
     7cc:	00 00       	nop
     7ce:	00 38       	cpi	r16, 0x80	; 128
     7d0:	00 38       	cpi	r16, 0x80	; 128
     7d2:	10 38       	cpi	r17, 0x80	; 128
     7d4:	10 2c       	mov	r1, r0
     7d6:	20 04       	cpc	r2, r0
     7d8:	20 04       	cpc	r2, r0
     7da:	20 04       	cpc	r2, r0
     7dc:	20 04       	cpc	r2, r0
     7de:	10 08       	sbc	r1, r0
     7e0:	10 08       	sbc	r1, r0
     7e2:	0c 30       	cpi	r16, 0x0C	; 12
     7e4:	03 c0       	rjmp	.+6      	; 0x7ec <__FUSE_REGION_LENGTH__+0x3ec>
	...
     7ee:	1c 00       	.word	0x001c	; ????
     7f0:	1c 00       	.word	0x001c	; ????
     7f2:	1c 08       	sbc	r1, r12
     7f4:	34 08       	sbc	r3, r4
     7f6:	20 04       	cpc	r2, r0
     7f8:	20 04       	cpc	r2, r0
     7fa:	20 04       	cpc	r2, r0
     7fc:	20 04       	cpc	r2, r0
     7fe:	10 08       	sbc	r1, r0
     800:	10 08       	sbc	r1, r0
     802:	0c 30       	cpi	r16, 0x0C	; 12
     804:	03 c0       	rjmp	.+6      	; 0x80c <__FUSE_REGION_LENGTH__+0x40c>
	...
     80e:	1c 70       	andi	r17, 0x0C	; 12
     810:	32 98       	cbi	0x06, 2	; 6
     812:	21 08       	sbc	r2, r1
     814:	21 08       	sbc	r2, r1
     816:	20 08       	sbc	r2, r0
     818:	20 08       	sbc	r2, r0
     81a:	10 10       	cpse	r1, r0
     81c:	10 10       	cpse	r1, r0
     81e:	08 20       	and	r0, r8
     820:	04 40       	sbci	r16, 0x04	; 4
     822:	02 80       	ldd	r0, Z+2	; 0x02
     824:	03 00       	.word	0x0003	; ????
     826:	01 00       	.word	0x0001	; ????
     828:	00 00       	nop
     82a:	00 00       	nop
     82c:	00 00       	nop
     82e:	07 f0       	brie	.+0      	; 0x830 <__FUSE_REGION_LENGTH__+0x430>
     830:	08 08       	sbc	r0, r8
     832:	13 e4       	ldi	r17, 0x43	; 67
     834:	24 12       	cpse	r2, r20
     836:	24 02       	muls	r18, r20
     838:	24 02       	muls	r18, r20
     83a:	24 02       	muls	r18, r20
     83c:	24 12       	cpse	r2, r20
     83e:	23 e2       	ldi	r18, 0x23	; 35
     840:	10 04       	cpc	r1, r0
     842:	08 08       	sbc	r0, r8
     844:	07 f0       	brie	.+0      	; 0x846 <__FUSE_REGION_LENGTH__+0x446>
	...
     84e:	07 e0       	ldi	r16, 0x07	; 7
     850:	08 10       	cpse	r0, r8
     852:	17 c8       	rjmp	.-4050   	; 0xfffff882 <__eeprom_end+0xff7ef882>
     854:	24 24       	eor	r2, r4
     856:	24 24       	eor	r2, r4
     858:	27 c4       	rjmp	.+2126   	; 0x10a8 <arial_bold+0x39e>
     85a:	24 84       	ldd	r2, Z+12	; 0x0c
     85c:	24 44       	sbci	r18, 0x44	; 68
     85e:	24 24       	eor	r2, r4
     860:	10 08       	sbc	r1, r0
     862:	08 10       	cpse	r0, r8
     864:	07 e0       	ldi	r16, 0x07	; 7
	...
     86e:	07 c0       	rjmp	.+14     	; 0x87e <__FUSE_REGION_LENGTH__+0x47e>
     870:	08 20       	and	r0, r8
     872:	10 10       	cpse	r1, r0
     874:	20 08       	sbc	r2, r0
     876:	20 08       	sbc	r2, r0
     878:	20 08       	sbc	r2, r0
     87a:	20 08       	sbc	r2, r0
     87c:	20 08       	sbc	r2, r0
     87e:	10 10       	cpse	r1, r0
     880:	10 10       	cpse	r1, r0
     882:	0c 60       	ori	r16, 0x0C	; 12
     884:	3e f8       	.word	0xf83e	; ????
	...
     88e:	00 00       	nop
     890:	01 80       	ldd	r0, Z+1	; 0x01
     892:	02 80       	ldd	r0, Z+2	; 0x02
     894:	02 80       	ldd	r0, Z+2	; 0x02
     896:	02 80       	ldd	r0, Z+2	; 0x02
     898:	03 00       	.word	0x0003	; ????
     89a:	02 00       	.word	0x0002	; ????
     89c:	02 00       	.word	0x0002	; ????
     89e:	06 00       	.word	0x0006	; ????
     8a0:	02 00       	.word	0x0002	; ????
     8a2:	02 80       	ldd	r0, Z+2	; 0x02
     8a4:	03 80       	ldd	r0, Z+3	; 0x03
	...
     8b6:	06 70       	andi	r16, 0x06	; 6
     8b8:	09 88       	ldd	r0, Y+17	; 0x11
     8ba:	08 88       	ldd	r0, Y+16	; 0x10
     8bc:	09 88       	ldd	r0, Y+17	; 0x11
     8be:	06 70       	andi	r16, 0x06	; 6
	...
     8d0:	40 80       	ld	r4, Z
     8d2:	40 80       	ld	r4, Z
     8d4:	60 9c       	mul	r6, r0
     8d6:	50 a2       	std	Z+32, r5	; 0x20
     8d8:	48 a2       	std	Y+32, r4	; 0x20
     8da:	48 a2       	std	Y+32, r4	; 0x20
     8dc:	44 a2       	std	Z+36, r4	; 0x24
     8de:	42 9c       	mul	r4, r2
     8e0:	41 80       	ldd	r4, Z+1	; 0x01
     8e2:	40 be       	out	0x30, r4	; 48
     8e4:	40 80       	ld	r4, Z
     8e6:	00 00       	nop
     8e8:	00 00       	nop
     8ea:	00 80       	ld	r0, Z
     8ec:	01 c0       	rjmp	.+2      	; 0x8f0 <__FUSE_REGION_LENGTH__+0x4f0>
     8ee:	01 40       	sbci	r16, 0x01	; 1
     8f0:	02 20       	and	r0, r2
     8f2:	04 10       	cpse	r0, r4
	...
     928:	ff ff       	.word	0xffff	; ????
     92a:	00 00       	nop
     92c:	00 00       	nop
     92e:	00 7c       	andi	r16, 0xC0	; 192
     930:	00 e6       	ldi	r16, 0x60	; 96
     932:	00 c6       	rjmp	.+3072   	; 0x1534 <arial_bold+0x82a>
     934:	00 ce       	rjmp	.-1024   	; 0x536 <__FUSE_REGION_LENGTH__+0x136>
     936:	00 7c       	andi	r16, 0xC0	; 192
	...
     94c:	00 00       	nop
     94e:	00 7c       	andi	r16, 0xC0	; 192
     950:	00 fe       	sbrs	r0, 0
     952:	01 c2       	rjmp	.+1026   	; 0xd56 <arial_bold+0x4c>
     954:	03 80       	ldd	r0, Z+3	; 0x03
     956:	03 80       	ldd	r0, Z+3	; 0x03
     958:	03 f8       	bld	r0, 3
     95a:	03 f8       	bld	r0, 3
     95c:	07 00       	.word	0x0007	; ????
     95e:	06 00       	.word	0x0006	; ????
     960:	0f fc       	.word	0xfc0f	; ????
     962:	07 fc       	sbrc	r0, 7
	...
     970:	00 00       	nop
     972:	03 30       	cpi	r16, 0x03	; 3
     974:	03 30       	cpi	r16, 0x03	; 3
     976:	02 20       	and	r0, r2
     978:	06 60       	ori	r16, 0x06	; 6
     97a:	06 68       	ori	r16, 0x86	; 134
     97c:	06 e8       	ldi	r16, 0x86	; 134
     97e:	07 b0       	in	r0, 0x07	; 7
     980:	04 00       	.word	0x0004	; ????
     982:	0c 00       	.word	0x000c	; ????
     984:	0c 00       	.word	0x000c	; ????
     986:	0c 00       	.word	0x000c	; ????
     988:	00 00       	nop
     98a:	00 00       	nop
     98c:	03 f8       	bld	r0, 3
     98e:	06 18       	sub	r0, r6
     990:	0c 08       	sbc	r0, r12
     992:	0c 00       	.word	0x000c	; ????
     994:	1f f0       	brie	.+6      	; 0x99c <__FUSE_REGION_LENGTH__+0x59c>
     996:	1f f0       	brie	.+6      	; 0x99e <__FUSE_REGION_LENGTH__+0x59e>
     998:	08 00       	.word	0x0008	; ????
     99a:	1f e0       	ldi	r17, 0x0F	; 15
     99c:	0c 00       	.word	0x000c	; ????
     99e:	0c 08       	sbc	r0, r12
     9a0:	07 18       	sub	r0, r7
     9a2:	03 f0       	brvs	.+0      	; 0x9a4 <__FUSE_REGION_LENGTH__+0x5a4>
	...
     9b0:	00 80       	ld	r0, Z
     9b2:	01 80       	ldd	r0, Z+1	; 0x01
     9b4:	03 80       	ldd	r0, Z+3	; 0x03
     9b6:	07 80       	ldd	r0, Z+7	; 0x07
     9b8:	0f 80       	ldd	r0, Y+7	; 0x07
     9ba:	0f 80       	ldd	r0, Y+7	; 0x07
     9bc:	07 80       	ldd	r0, Z+7	; 0x07
     9be:	03 80       	ldd	r0, Z+3	; 0x03
     9c0:	01 80       	ldd	r0, Z+1	; 0x01
     9c2:	00 80       	ld	r0, Z
	...
     9d0:	02 00       	.word	0x0002	; ????
     9d2:	03 00       	.word	0x0003	; ????
     9d4:	03 80       	ldd	r0, Z+3	; 0x03
     9d6:	03 c0       	rjmp	.+6      	; 0x9de <__FUSE_REGION_LENGTH__+0x5de>
     9d8:	03 e0       	ldi	r16, 0x03	; 3
     9da:	03 e0       	ldi	r16, 0x03	; 3
     9dc:	03 c0       	rjmp	.+6      	; 0x9e4 <__FUSE_REGION_LENGTH__+0x5e4>
     9de:	03 80       	ldd	r0, Z+3	; 0x03
     9e0:	03 00       	.word	0x0003	; ????
     9e2:	02 00       	.word	0x0002	; ????
	...
     9f0:	00 00       	nop
     9f2:	03 00       	.word	0x0003	; ????
     9f4:	07 80       	ldd	r0, Z+7	; 0x07
     9f6:	0f c0       	rjmp	.+30     	; 0xa16 <__FUSE_REGION_LENGTH__+0x616>
     9f8:	1f e0       	ldi	r17, 0x0F	; 15
     9fa:	3f f0       	brie	.+14     	; 0xa0a <__FUSE_REGION_LENGTH__+0x60a>
	...
     a14:	3f f0       	brie	.+14     	; 0xa24 <__FUSE_REGION_LENGTH__+0x624>
     a16:	1f e0       	ldi	r17, 0x0F	; 15
     a18:	0f c0       	rjmp	.+30     	; 0xa38 <__FUSE_REGION_LENGTH__+0x638>
     a1a:	07 80       	ldd	r0, Z+7	; 0x07
     a1c:	03 00       	.word	0x0003	; ????
	...
     a32:	02 10       	cpse	r0, r2
     a34:	06 30       	cpi	r16, 0x06	; 6
     a36:	0e 70       	andi	r16, 0x0E	; 14
     a38:	1e f0       	brts	.+6      	; 0xa40 <__FUSE_REGION_LENGTH__+0x640>
     a3a:	3f f0       	brie	.+14     	; 0xa4a <__FUSE_REGION_LENGTH__+0x64a>
     a3c:	3f f0       	brie	.+14     	; 0xa4c <__FUSE_REGION_LENGTH__+0x64c>
     a3e:	1e f0       	brts	.+6      	; 0xa46 <__FUSE_REGION_LENGTH__+0x646>
     a40:	0e 70       	andi	r16, 0x0E	; 14
     a42:	06 30       	cpi	r16, 0x06	; 6
     a44:	02 10       	cpse	r0, r2
     a46:	00 00       	nop
     a48:	00 00       	nop
     a4a:	00 00       	nop
     a4c:	7f fc       	.word	0xfc7f	; ????
     a4e:	43 82       	std	Z+3, r4	; 0x03
     a50:	43 c2       	rjmp	.+1158   	; 0xed8 <arial_bold+0x1ce>
     a52:	47 c2       	rjmp	.+1166   	; 0xee2 <arial_bold+0x1d8>
     a54:	43 82       	std	Z+3, r4	; 0x03
     a56:	40 02       	muls	r20, r16
     a58:	47 c2       	rjmp	.+1166   	; 0xee8 <arial_bold+0x1de>
     a5a:	43 c2       	rjmp	.+1158   	; 0xee2 <arial_bold+0x1d8>
     a5c:	43 c2       	rjmp	.+1158   	; 0xee4 <arial_bold+0x1da>
     a5e:	43 c2       	rjmp	.+1158   	; 0xee6 <arial_bold+0x1dc>
     a60:	43 c2       	rjmp	.+1158   	; 0xee8 <arial_bold+0x1de>
     a62:	43 c2       	rjmp	.+1158   	; 0xeea <arial_bold+0x1e0>
     a64:	40 02       	muls	r20, r16
     a66:	7f fc       	.word	0xfc7f	; ????
	...
     a70:	08 40       	sbci	r16, 0x08	; 8
     a72:	0c 60       	ori	r16, 0x0C	; 12
     a74:	0e 70       	andi	r16, 0x0E	; 14
     a76:	0f 78       	andi	r16, 0x8F	; 143
     a78:	0f fc       	.word	0xfc0f	; ????
     a7a:	0f fc       	.word	0xfc0f	; ????
     a7c:	0f 78       	andi	r16, 0x8F	; 143
     a7e:	0e 70       	andi	r16, 0x0E	; 14
     a80:	0c 60       	ori	r16, 0x0C	; 12
     a82:	08 40       	sbci	r16, 0x08	; 8
	...
     a90:	00 00       	nop
     a92:	30 84       	ldd	r3, Z+8	; 0x08
     a94:	31 8c       	ldd	r3, Z+25	; 0x19
     a96:	33 9c       	mul	r3, r3
     a98:	37 bc       	out	0x27, r3	; 39
     a9a:	3f fc       	.word	0xfc3f	; ????
     a9c:	3f fc       	.word	0xfc3f	; ????
     a9e:	37 bc       	out	0x27, r3	; 39
     aa0:	33 9c       	mul	r3, r3
     aa2:	31 8c       	ldd	r3, Z+25	; 0x19
     aa4:	30 84       	ldd	r3, Z+8	; 0x08
	...
     ab2:	21 0c       	add	r2, r1
     ab4:	31 8c       	ldd	r3, Z+25	; 0x19
     ab6:	39 cc       	rjmp	.-1934   	; 0x32a <__trampolines_end+0x204>
     ab8:	3d ec       	ldi	r19, 0xCD	; 205
     aba:	3f fc       	.word	0xfc3f	; ????
     abc:	3f fc       	.word	0xfc3f	; ????
     abe:	3d ec       	ldi	r19, 0xCD	; 205
     ac0:	39 cc       	rjmp	.-1934   	; 0x334 <__trampolines_end+0x20e>
     ac2:	31 8c       	ldd	r3, Z+25	; 0x19
     ac4:	21 0c       	add	r2, r1
	...
     ace:	00 00       	nop
     ad0:	0c c0       	rjmp	.+24     	; 0xaea <__FUSE_REGION_LENGTH__+0x6ea>
     ad2:	0c c0       	rjmp	.+24     	; 0xaec <__FUSE_REGION_LENGTH__+0x6ec>
     ad4:	0c c0       	rjmp	.+24     	; 0xaee <__FUSE_REGION_LENGTH__+0x6ee>
     ad6:	0c c0       	rjmp	.+24     	; 0xaf0 <__FUSE_REGION_LENGTH__+0x6f0>
     ad8:	0c c0       	rjmp	.+24     	; 0xaf2 <__FUSE_REGION_LENGTH__+0x6f2>
     ada:	0c c0       	rjmp	.+24     	; 0xaf4 <__FUSE_REGION_LENGTH__+0x6f4>
     adc:	0c c0       	rjmp	.+24     	; 0xaf6 <__FUSE_REGION_LENGTH__+0x6f6>
     ade:	0c c0       	rjmp	.+24     	; 0xaf8 <__FUSE_REGION_LENGTH__+0x6f8>
     ae0:	0c c0       	rjmp	.+24     	; 0xafa <__FUSE_REGION_LENGTH__+0x6fa>
     ae2:	0c c0       	rjmp	.+24     	; 0xafc <__FUSE_REGION_LENGTH__+0x6fc>
     ae4:	0c c0       	rjmp	.+24     	; 0xafe <__FUSE_REGION_LENGTH__+0x6fe>
	...
     aee:	00 00       	nop
     af0:	0f fc       	.word	0xfc0f	; ????
     af2:	0f fc       	.word	0xfc0f	; ????
     af4:	0f fc       	.word	0xfc0f	; ????
     af6:	0f fc       	.word	0xfc0f	; ????
     af8:	0f fc       	.word	0xfc0f	; ????
     afa:	0f fc       	.word	0xfc0f	; ????
     afc:	0f fc       	.word	0xfc0f	; ????
     afe:	0f fc       	.word	0xfc0f	; ????
     b00:	0f fc       	.word	0xfc0f	; ????
     b02:	0f fc       	.word	0xfc0f	; ????
	...
     b10:	01 e0       	ldi	r16, 0x01	; 1
     b12:	07 f8       	bld	r0, 7
     b14:	07 f8       	bld	r0, 7
     b16:	0f fc       	.word	0xfc0f	; ????
     b18:	0f fc       	.word	0xfc0f	; ????
     b1a:	0f fc       	.word	0xfc0f	; ????
     b1c:	0f fc       	.word	0xfc0f	; ????
     b1e:	07 f8       	bld	r0, 7
     b20:	07 f8       	bld	r0, 7
     b22:	01 e0       	ldi	r16, 0x01	; 1
	...
     b2c:	08 00       	.word	0x0008	; ????
     b2e:	0c 00       	.word	0x000c	; ????
     b30:	0e 00       	.word	0x000e	; ????
     b32:	0f 00       	.word	0x000f	; ????
     b34:	0f c0       	rjmp	.+30     	; 0xb54 <__FUSE_REGION_LENGTH__+0x754>
     b36:	0f c0       	rjmp	.+30     	; 0xb56 <__FUSE_REGION_LENGTH__+0x756>
     b38:	0f c0       	rjmp	.+30     	; 0xb58 <__FUSE_REGION_LENGTH__+0x758>
     b3a:	0f c0       	rjmp	.+30     	; 0xb5a <__FUSE_REGION_LENGTH__+0x75a>
     b3c:	0f c0       	rjmp	.+30     	; 0xb5c <__FUSE_REGION_LENGTH__+0x75c>
     b3e:	0f 00       	.word	0x000f	; ????
     b40:	0e 00       	.word	0x000e	; ????
     b42:	0c 00       	.word	0x000c	; ????
     b44:	08 00       	.word	0x0008	; ????
     b46:	00 00       	nop
     b48:	00 00       	nop
     b4a:	00 00       	nop
     b4c:	00 08       	sbc	r0, r0
     b4e:	00 38       	cpi	r16, 0x80	; 128
     b50:	00 78       	andi	r16, 0x80	; 128
     b52:	01 e8       	ldi	r16, 0x81	; 129
     b54:	03 c8       	rjmp	.-4090   	; 0xfffffb5c <__eeprom_end+0xff7efb5c>
     b56:	03 08       	sbc	r0, r3
     b58:	02 08       	sbc	r0, r2
     b5a:	02 78       	andi	r16, 0x82	; 130
     b5c:	02 f8       	bld	r0, 2
     b5e:	02 f0       	brmi	.+0      	; 0xb60 <__FUSE_REGION_LENGTH__+0x760>
     b60:	1e 00       	.word	0x001e	; ????
     b62:	3e 00       	.word	0x003e	; ????
     b64:	3c 00       	.word	0x003c	; ????
     b66:	00 00       	nop
     b68:	00 00       	nop
     b6a:	00 00       	nop
     b6c:	04 20       	and	r0, r4
     b6e:	1c 70       	andi	r17, 0x0C	; 12
     b70:	1c 30       	cpi	r17, 0x0C	; 12
     b72:	1c 38       	cpi	r17, 0x8C	; 140
     b74:	30 18       	sub	r3, r0
     b76:	30 18       	sub	r3, r0
     b78:	30 18       	sub	r3, r0
     b7a:	30 18       	sub	r3, r0
     b7c:	38 70       	andi	r19, 0x08	; 8
     b7e:	18 70       	andi	r17, 0x08	; 8
     b80:	1c 70       	andi	r17, 0x0C	; 12
     b82:	08 40       	sbci	r16, 0x08	; 8
	...
     b8c:	00 00       	nop
     b8e:	01 80       	ldd	r0, Z+1	; 0x01
     b90:	03 80       	ldd	r0, Z+3	; 0x03
     b92:	03 80       	ldd	r0, Z+3	; 0x03
     b94:	03 00       	.word	0x0003	; ????
     b96:	02 00       	.word	0x0002	; ????
     b98:	02 00       	.word	0x0002	; ????
     b9a:	02 00       	.word	0x0002	; ????
     b9c:	02 00       	.word	0x0002	; ????
     b9e:	03 00       	.word	0x0003	; ????
     ba0:	03 80       	ldd	r0, Z+3	; 0x03
     ba2:	03 80       	ldd	r0, Z+3	; 0x03
     ba4:	01 80       	ldd	r0, Z+1	; 0x01
     ba6:	00 00       	nop
     ba8:	00 00       	nop
     baa:	00 00       	nop
     bac:	06 00       	.word	0x0006	; ????
     bae:	1c 18       	sub	r1, r12
     bb0:	38 20       	and	r3, r8
     bb2:	34 3a       	cpi	r19, 0xA4	; 164
     bb4:	6e 7c       	andi	r22, 0xCE	; 206
     bb6:	e7 70       	andi	r30, 0x07	; 7
     bb8:	43 e0       	ldi	r20, 0x03	; 3
     bba:	01 c0       	rjmp	.+2      	; 0xbbe <__FUSE_REGION_LENGTH__+0x7be>
     bbc:	03 e0       	ldi	r16, 0x03	; 3
     bbe:	07 70       	andi	r16, 0x07	; 7
     bc0:	1e 38       	cpi	r17, 0x8E	; 142
     bc2:	2c 1c       	adc	r2, r12
     bc4:	04 0e       	add	r0, r20
     bc6:	18 04       	cpc	r1, r8
     bc8:	00 00       	nop
     bca:	03 00       	.word	0x0003	; ????
     bcc:	07 80       	ldd	r0, Z+7	; 0x07
     bce:	0f c0       	rjmp	.+30     	; 0xbee <__FUSE_REGION_LENGTH__+0x7ee>
     bd0:	1f e0       	ldi	r17, 0x0F	; 15
     bd2:	3f f0       	brie	.+14     	; 0xbe2 <__FUSE_REGION_LENGTH__+0x7e2>
     bd4:	7f f8       	.word	0xf87f	; ????
     bd6:	ff fc       	.word	0xfcff	; ????
     bd8:	ff fc       	.word	0xfcff	; ????
     bda:	7f f8       	.word	0xf87f	; ????
     bdc:	3f f0       	brie	.+14     	; 0xbec <__FUSE_REGION_LENGTH__+0x7ec>
     bde:	1f e0       	ldi	r17, 0x0F	; 15
     be0:	0f c0       	rjmp	.+30     	; 0xc00 <__FUSE_REGION_LENGTH__+0x800>
     be2:	07 80       	ldd	r0, Z+7	; 0x07
     be4:	03 00       	.word	0x0003	; ????
	...
     bf2:	00 00       	nop
     bf4:	06 70       	andi	r16, 0x06	; 6
     bf6:	0f f8       	.word	0xf80f	; ????
     bf8:	3f fe       	.word	0xfe3f	; ????
     bfa:	1c 1c       	adc	r1, r12
     bfc:	0f f8       	.word	0xf80f	; ????
     bfe:	03 e0       	ldi	r16, 0x03	; 3
	...
     c0c:	00 00       	nop
     c0e:	03 e0       	ldi	r16, 0x03	; 3
     c10:	0c 18       	sub	r0, r12
     c12:	18 0c       	add	r1, r8
     c14:	13 c4       	rjmp	.+2086   	; 0x143c <arial_bold+0x732>
     c16:	22 22       	and	r2, r18
     c18:	22 22       	and	r2, r18
     c1a:	22 22       	and	r2, r18
     c1c:	23 c2       	rjmp	.+1094   	; 0x1064 <arial_bold+0x35a>
     c1e:	22 02       	muls	r18, r18
     c20:	12 04       	cpc	r1, r2
     c22:	1a 0c       	add	r1, r10
     c24:	0c 18       	sub	r0, r12
     c26:	03 e0       	ldi	r16, 0x03	; 3
	...
     c30:	03 fc       	sbrc	r0, 3
     c32:	1f fe       	.word	0xfe1f	; ????
     c34:	1f ff       	.word	0xff1f	; ????
     c36:	3f ff       	.word	0xff3f	; ????
     c38:	3f ff       	.word	0xff3f	; ????
     c3a:	3f ff       	.word	0xff3f	; ????
     c3c:	1f ff       	.word	0xff1f	; ????
     c3e:	0f ff       	.word	0xff0f	; ????
     c40:	1f f8       	.word	0xf81f	; ????
     c42:	1c 00       	.word	0x001c	; ????
     c44:	38 00       	.word	0x0038	; ????
     c46:	00 00       	nop
     c48:	00 00       	nop
     c4a:	00 00       	nop
     c4c:	02 00       	.word	0x0002	; ????
     c4e:	01 00       	.word	0x0001	; ????
     c50:	01 c0       	rjmp	.+2      	; 0xc54 <__FUSE_REGION_LENGTH__+0x854>
     c52:	00 e0       	ldi	r16, 0x00	; 0
     c54:	20 e0       	ldi	r18, 0x00	; 0
     c56:	30 e0       	ldi	r19, 0x00	; 0
     c58:	bf ff       	.word	0xffbf	; ????
     c5a:	30 e0       	ldi	r19, 0x00	; 0
     c5c:	20 e0       	ldi	r18, 0x00	; 0
     c5e:	00 e0       	ldi	r16, 0x00	; 0
     c60:	01 80       	ldd	r0, Z+1	; 0x01
     c62:	01 c0       	rjmp	.+2      	; 0xc66 <__FUSE_REGION_LENGTH__+0x866>
     c64:	03 00       	.word	0x0003	; ????
	...
     c6e:	78 00       	.word	0x0078	; ????
     c70:	4e 00       	.word	0x004e	; ????
     c72:	b5 00       	.word	0x00b5	; ????
     c74:	ba c0       	rjmp	.+372    	; 0xdea <arial_bold+0xe0>
     c76:	89 b0       	in	r8, 0x09	; 9
     c78:	78 48       	sbci	r23, 0x88	; 136
     c7a:	26 38       	cpi	r18, 0x86	; 134
     c7c:	19 94       	eijmp
     c7e:	06 64       	ori	r16, 0x46	; 70
     c80:	01 a2       	std	Z+33, r0	; 0x21
     c82:	00 7e       	andi	r16, 0xE0	; 224
	...
     c8c:	01 80       	ldd	r0, Z+1	; 0x01
     c8e:	01 80       	ldd	r0, Z+1	; 0x01
     c90:	01 80       	ldd	r0, Z+1	; 0x01
     c92:	0f f0       	brie	.+2      	; 0xc96 <__FUSE_REGION_LENGTH__+0x896>
     c94:	0f f0       	brie	.+2      	; 0xc98 <__FUSE_REGION_LENGTH__+0x898>
     c96:	01 80       	ldd	r0, Z+1	; 0x01
     c98:	01 80       	ldd	r0, Z+1	; 0x01
     c9a:	01 80       	ldd	r0, Z+1	; 0x01
     c9c:	01 80       	ldd	r0, Z+1	; 0x01
     c9e:	01 80       	ldd	r0, Z+1	; 0x01
     ca0:	01 80       	ldd	r0, Z+1	; 0x01
     ca2:	01 80       	ldd	r0, Z+1	; 0x01
	...
     cb0:	c0 00       	.word	0x00c0	; ????
     cb2:	78 00       	.word	0x0078	; ????
     cb4:	3f 00       	.word	0x003f	; ????
     cb6:	1f e0       	ldi	r17, 0x0F	; 15
     cb8:	0f fc       	.word	0xfc0f	; ????
     cba:	08 0e       	add	r0, r24
     cbc:	10 70       	andi	r17, 0x00	; 0
     cbe:	23 80       	ldd	r2, Z+3	; 0x03
     cc0:	4c 00       	.word	0x004c	; ????
     cc2:	f0 00       	.word	0x00f0	; ????
	...
     cd0:	70 00       	.word	0x0070	; ????
     cd2:	50 0f       	add	r21, r16
     cd4:	78 7c       	andi	r23, 0xC8	; 200
     cd6:	07 e0       	ldi	r16, 0x07	; 7
     cd8:	03 80       	ldd	r0, Z+3	; 0x03
     cda:	07 e0       	ldi	r16, 0x07	; 7
     cdc:	78 7c       	andi	r23, 0xC8	; 200
     cde:	50 0f       	add	r21, r16
     ce0:	70 00       	.word	0x0070	; ????
	...
     cea:	00 00       	nop
     cec:	00 80       	ld	r0, Z
     cee:	00 c0       	rjmp	.+0      	; 0xcf0 <__FUSE_REGION_LENGTH__+0x8f0>
     cf0:	00 c0       	rjmp	.+0      	; 0xcf2 <__FUSE_REGION_LENGTH__+0x8f2>
     cf2:	01 e0       	ldi	r16, 0x01	; 1
     cf4:	03 30       	cpi	r16, 0x03	; 3
     cf6:	07 38       	cpi	r16, 0x87	; 135
     cf8:	1e 1e       	adc	r1, r30
     cfa:	20 03       	mulsu	r18, r16
     cfc:	1f 3c       	cpi	r17, 0xCF	; 207
     cfe:	03 30       	cpi	r16, 0x03	; 3
     d00:	01 a0       	ldd	r0, Z+33	; 0x21
     d02:	00 c0       	rjmp	.+0      	; 0xd04 <__FUSE_REGION_LENGTH__+0x904>
     d04:	00 c0       	rjmp	.+0      	; 0xd06 <__FUSE_REGION_LENGTH__+0x906>
     d06:	00 80       	ld	r0, Z
	...

00000d0a <arial_bold>:
     d0a:	10 10 20 5f 00 00 00 00 00 00 00 00 00 00 00 00     .. _............
	...
     d32:	03 00 03 00 03 00 03 00 03 00 03 00 03 00 03 00     ................
     d42:	03 00 00 00 03 00 03 00 00 00 00 00 00 00 00 00     ................
     d52:	06 60 06 60 06 60 06 60 00 00 00 00 00 00 00 00     .`.`.`.`........
	...
     d72:	03 60 03 60 06 c0 3f f0 3f f0 06 c0 0d 80 3f f0     .`.`..?.?.....?.
     d82:	3f f0 0d 80 1b 00 1b 00 00 00 00 00 00 00 01 00     ?...............
     d92:	03 80 07 c0 0d 60 0d 00 0f 00 07 80 03 c0 01 e0     .....`..........
     da2:	0d 60 0d 60 07 c0 03 80 01 00 00 00 00 00 00 00     .`.`............
     db2:	3c 18 66 30 66 30 66 60 66 c0 3c c0 01 9e 01 b3     <.f0f0f`f.<.....
     dc2:	03 33 03 33 06 33 0c 1e 00 00 00 00 00 00 00 00     .3.3.3..........
     dd2:	07 c0 0f e0 0c 60 0c 60 07 c0 07 80 0d 90 19 d8     .....`.`........
     de2:	18 f0 18 78 0f fc 07 88 00 00 00 00 00 00 00 00     ...x............
     df2:	01 80 01 80 01 80 01 80 00 00 00 00 00 00 00 00     ................
	...
     e0e:	00 00 01 80 03 00 03 00 06 00 06 00 06 00 06 00     ................
     e1e:	06 00 06 00 06 00 03 00 03 00 01 80 00 00 00 00     ................
     e2e:	00 00 06 00 03 00 03 00 01 80 01 80 01 80 01 80     ................
     e3e:	01 80 01 80 01 80 03 00 03 00 06 00 00 00 00 00     ................
	...
     e56:	03 80 03 80 33 98 3f f8 07 c0 07 c0 0e e0 1c 70     ....3.?........p
     e66:	04 40 00 00 00 00 00 00 00 00 00 00 00 00 00 00     .@..............
     e76:	00 00 00 c0 00 c0 00 c0 07 f8 07 f8 00 c0 00 c0     ................
     e86:	00 c0 00 00 00 00 00 00 00 00 00 00 00 00 00 00     ................
	...
     ea2:	03 00 03 00 01 00 01 00 02 00 00 00 00 00 00 00     ................
	...
     ebe:	03 e0 03 e0 00 00 00 00 00 00 00 00 00 00 00 00     ................
	...
     ee2:	00 00 03 00 03 00 00 00 00 00 00 00 00 00 00 00     ................
     ef2:	00 60 00 60 00 c0 00 c0 00 c0 00 c0 01 80 01 80     .`.`............
     f02:	01 80 01 80 03 00 03 00 00 00 00 00 00 00 00 00     ................
     f12:	03 c0 07 e0 0e 70 0c 30 0c 30 0c 30 0c 30 0c 30     .....p.0.0.0.0.0
     f22:	0c 30 0e 70 07 e0 03 c0 00 00 00 00 00 00 00 00     .0.p............
     f32:	01 80 03 80 07 80 0d 80 09 80 01 80 01 80 01 80     ................
     f42:	01 80 01 80 01 80 01 80 00 00 00 00 00 00 00 00     ................
     f52:	03 c0 07 e0 0e 30 0c 30 00 30 00 60 00 e0 01 c0     .....0.0.0.`....
     f62:	03 80 06 00 0f f0 0f f0 00 00 00 00 00 00 00 00     ................
     f72:	03 e0 07 f0 0e 30 00 30 01 e0 01 e0 00 70 00 30     .....0.0.....p.0
     f82:	0c 30 0e 70 07 e0 03 c0 00 00 00 00 00 00 00 00     .0.p............
     f92:	00 60 00 e0 00 e0 01 e0 03 60 03 60 06 60 0c 60     .`.......`.`.`.`
     fa2:	0f f0 0f f0 00 60 00 60 00 00 00 00 00 00 00 00     .....`.`........
     fb2:	07 e0 07 e0 06 00 0c 00 0f c0 0f e0 0c 70 00 30     .............p.0
     fc2:	0c 30 0e 70 07 e0 03 c0 00 00 00 00 00 00 00 00     .0.p............
     fd2:	03 e0 07 f0 06 30 0c 00 0d c0 0f e0 0e 70 0c 30     .....0.......p.0
     fe2:	0c 30 06 30 07 e0 03 c0 00 00 00 00 00 00 00 00     .0.0............
     ff2:	0f f0 0f f0 00 60 00 c0 00 c0 01 80 01 80 01 80     .....`..........
    1002:	03 80 03 00 03 00 03 00 00 00 00 00 00 00 00 00     ................
    1012:	03 c0 07 e0 0c 30 0c 30 0c 30 07 e0 07 e0 0c 30     .....0.0.0.....0
    1022:	0c 30 0c 30 07 e0 03 c0 00 00 00 00 00 00 00 00     .0.0............
    1032:	03 c0 07 e0 0c 60 0c 30 0c 30 0e 70 07 f0 03 b0     .....`.0.0.p....
    1042:	00 30 0c 60 0f e0 07 c0 00 00 00 00 00 00 00 00     .0.`............
    1052:	00 00 01 80 01 80 00 00 00 00 00 00 00 00 00 00     ................
    1062:	01 80 01 80 00 00 00 00 00 00 00 00 00 00 00 00     ................
    1072:	00 00 01 80 01 80 00 00 00 00 00 00 00 00 00 00     ................
    1082:	01 80 01 80 00 80 00 80 01 00 00 00 00 00 00 00     ................
    1092:	00 00 00 00 00 20 00 e0 03 c0 0f 00 1c 00 0f 00     ..... ..........
    10a2:	03 c0 00 e0 00 20 00 00 00 00 00 00 00 00 00 00     ..... ..........
    10b2:	00 00 00 00 1f f0 1f f0 00 00 00 00 1f f0 1f f0     ................
	...
    10d6:	08 00 0e 00 07 80 01 e0 00 70 01 e0 07 80 0e 00     .........p......
    10e6:	08 00 00 00 00 00 00 00 00 00 00 00 03 c0 07 e0     ................
    10f6:	0e 30 0c 30 00 70 00 e0 01 c0 01 80 01 80 00 00     .0.0.p..........
    1106:	01 80 01 80 00 00 00 00 00 00 07 c0 0c 30 13 78     .............0.x
    1116:	17 e8 2c c8 2c c8 2c c8 2f d0 26 e0 10 08 08 10     ..,.,.,./.&.....
    1126:	07 e0 00 00 00 00 00 00 00 00 00 00 03 80 03 80     ................
    1136:	06 c0 06 c0 06 c0 0c 60 0c 60 0f e0 1f f0 18 30     .......`.`.....0
    1146:	18 30 30 18 00 00 00 00 00 00 00 00 1f e0 1f f0     .00.............
    1156:	18 30 18 30 18 30 1f e0 1f f0 18 18 18 18 18 18     .0.0.0..........
    1166:	1f f0 1f e0 00 00 00 00 00 00 00 00 03 e0 0f f0     ................
    1176:	0c 38 1c 10 18 00 18 00 18 00 18 00 1c 10 0c 38     .8.............8
    1186:	0f f0 03 e0 00 00 00 00 00 00 00 00 1f c0 1f f0     ................
    1196:	18 30 18 18 18 18 18 18 18 18 18 18 18 18 18 30     .0.............0
    11a6:	1f f0 1f c0 00 00 00 00 00 00 00 00 0f f8 0f f8     ................
    11b6:	0c 00 0c 00 0c 00 0f f8 0f f8 0c 00 0c 00 0c 00     ................
    11c6:	0f f8 0f f8 00 00 00 00 00 00 00 00 0f f0 0f f0     ................
    11d6:	0c 00 0c 00 0c 00 0f e0 0f e0 0c 00 0c 00 0c 00     ................
    11e6:	0c 00 0c 00 00 00 00 00 00 00 00 00 07 e0 1f f0     ................
    11f6:	18 38 38 10 30 00 30 00 30 f8 30 f8 38 18 18 38     .88.0.0.0.0.8..8
    1206:	1f f8 07 e0 00 00 00 00 00 00 00 00 18 18 18 18     ................
    1216:	18 18 18 18 18 18 1f f8 1f f8 18 18 18 18 18 18     ................
    1226:	18 18 18 18 00 00 00 00 00 00 00 00 01 80 01 80     ................
    1236:	01 80 01 80 01 80 01 80 01 80 01 80 01 80 01 80     ................
    1246:	01 80 01 80 00 00 00 00 00 00 00 00 00 30 00 30     .............0.0
    1256:	00 30 00 30 00 30 00 30 00 30 00 30 0c 30 0e 70     .0.0.0.0.0.0.0.p
    1266:	07 e0 03 c0 00 00 00 00 00 00 00 00 18 18 18 30     ...............0
    1276:	18 60 18 c0 19 80 1b c0 1e c0 1c 60 18 70 18 30     .`.........`.p.0
    1286:	18 18 18 18 00 00 00 00 00 00 00 00 0c 00 0c 00     ................
    1296:	0c 00 0c 00 0c 00 0c 00 0c 00 0c 00 0c 00 0c 00     ................
    12a6:	0f f0 0f f0 00 00 00 00 00 00 00 00 38 38 38 38     ............8888
    12b6:	3c 78 3c 78 34 58 36 d8 36 d8 36 d8 33 98 33 98     <x<x4X6.6.6.3.3.
    12c6:	33 98 31 18 00 00 00 00 00 00 00 00 18 18 1c 18     3.1.............
    12d6:	1e 18 1e 18 1b 18 19 98 19 98 18 d8 18 78 18 78     .............x.x
    12e6:	18 38 18 18 00 00 00 00 00 00 00 00 07 c0 1f f0     .8..............
    12f6:	18 30 30 18 30 18 30 18 30 18 30 18 30 18 18 30     .00.0.0.0.0.0..0
    1306:	1f f0 07 c0 00 00 00 00 00 00 00 00 0f e0 0f f0     ................
    1316:	0c 38 0c 18 0c 38 0f f0 0f e0 0c 00 0c 00 0c 00     .8...8..........
    1326:	0c 00 0c 00 00 00 00 00 00 00 00 00 07 c0 1f f0     ................
    1336:	18 30 30 18 30 18 30 18 30 18 30 18 31 b8 18 f0     .00.0.0.0.0.1...
    1346:	1f f0 07 b0 00 18 00 00 00 00 00 00 1f e0 1f f0     ................
    1356:	18 38 18 18 18 38 1f f0 1f c0 18 e0 18 70 18 30     .8...8.......p.0
    1366:	18 38 18 1c 00 00 00 00 00 00 00 00 03 e0 07 f0     .8..............
    1376:	0e 38 0c 18 0f 00 07 e0 01 f0 00 38 0c 18 0e 38     .8.........8...8
    1386:	07 f0 03 e0 00 00 00 00 00 00 00 00 1f f8 1f f8     ................
    1396:	01 80 01 80 01 80 01 80 01 80 01 80 01 80 01 80     ................
    13a6:	01 80 01 80 00 00 00 00 00 00 00 00 18 18 18 18     ................
    13b6:	18 18 18 18 18 18 18 18 18 18 18 18 18 18 1c 38     ...............8
    13c6:	0f f0 07 e0 00 00 00 00 00 00 00 00 30 18 18 30     ............0..0
    13d6:	18 30 18 30 0c 60 0c 60 0e e0 06 c0 06 c0 03 80     .0.0.`.`........
    13e6:	03 80 03 80 00 00 00 00 00 00 00 00 31 c6 31 c6     ............1.1.
    13f6:	31 c6 1b 6c 1b 6c 1b 6c 1b 6c 1b 6c 0e 38 0e 38     1..l.l.l.l.l.8.8
    1406:	0e 38 0e 38 00 00 00 00 00 00 00 00 18 30 1c 70     .8.8.........0.p
    1416:	0c 60 06 c0 07 c0 03 80 03 80 07 c0 06 c0 0c 60     .`.............`
    1426:	1c 70 18 30 00 00 00 00 00 00 00 00 18 18 1c 38     .p.0...........8
    1436:	0c 30 06 60 06 60 03 c0 01 80 01 80 01 80 01 80     .0.`.`..........
    1446:	01 80 01 80 00 00 00 00 00 00 00 00 07 f8 07 f8     ................
    1456:	00 30 00 60 00 e0 00 c0 01 80 03 80 03 00 06 00     .0.`............
    1466:	0f f8 0f f8 00 00 00 00 00 00 03 c0 03 c0 03 00     ................
    1476:	03 00 03 00 03 00 03 00 03 00 03 00 03 00 03 00     ................
    1486:	03 00 03 c0 03 c0 00 00 00 00 00 00 03 00 03 00     ................
    1496:	01 80 01 80 01 80 01 80 00 c0 00 c0 00 c0 00 c0     ................
    14a6:	00 60 00 60 00 00 00 00 00 00 03 c0 03 c0 00 c0     .`.`............
    14b6:	00 c0 00 c0 00 c0 00 c0 00 c0 00 c0 00 c0 00 c0     ................
    14c6:	00 c0 03 c0 03 c0 00 00 00 00 01 80 03 c0 03 c0     ................
    14d6:	06 60 06 60 06 60 0c 30 00 00 00 00 00 00 00 00     .`.`.`.0........
	...
    1506:	00 00 ff ff ff ff 00 00 00 00 00 00 01 80 00 c0     ................
	...
    1536:	07 c0 0f e0 0c 60 01 e0 07 e0 0e 60 0c 60 0f e0     .....`.....`.`..
    1546:	07 b0 00 00 00 00 00 00 00 00 0c 00 0c 00 0c 00     ................
    1556:	0d c0 0f e0 0e 70 0c 30 0c 30 0c 30 0e 70 0f e0     .....p.0.0.0.p..
    1566:	0d c0 00 00 00 00 00 00 00 00 00 00 00 00 00 00     ................
    1576:	03 c0 07 e0 0e 60 0c 00 0c 00 0c 00 0e 60 07 e0     .....`.......`..
    1586:	03 c0 00 00 00 00 00 00 00 00 00 30 00 30 00 30     ...........0.0.0
    1596:	03 b0 07 f0 0e 70 0c 30 0c 30 0c 30 0e 70 07 f0     .....p.0.0.0.p..
    15a6:	03 b0 00 00 00 00 00 00 00 00 00 00 00 00 00 00     ................
    15b6:	03 80 07 c0 0c 60 0f e0 0f e0 0c 00 0e 60 07 c0     .....`.......`..
    15c6:	03 80 00 00 00 00 00 00 00 00 03 c0 07 c0 06 00     ................
    15d6:	0f 80 0f 80 06 00 06 00 06 00 06 00 06 00 06 00     ................
    15e6:	06 00 00 00 00 00 00 00 00 00 00 00 00 00 07 60     ...............`
    15f6:	0f e0 1c e0 18 60 18 60 18 60 1c e0 0f e0 07 60     .....`.`.`.....`
    1606:	18 60 1f e0 0f c0 00 00 00 00 0c 00 0c 00 0c 00     .`..............
    1616:	0d e0 0f f0 0e 30 0c 30 0c 30 0c 30 0c 30 0c 30     .....0.0.0.0.0.0
    1626:	0c 30 00 00 00 00 00 00 00 00 00 00 01 80 01 80     .0..............
    1636:	00 00 01 80 01 80 01 80 01 80 01 80 01 80 01 80     ................
    1646:	01 80 00 00 00 00 00 00 00 00 00 00 01 80 01 80     ................
    1656:	00 00 01 80 01 80 01 80 01 80 01 80 01 80 01 80     ................
    1666:	01 80 01 80 07 80 07 00 00 00 0c 00 0c 00 0c 00     ................
    1676:	0c 60 0c c0 0d 80 0f 80 0f c0 0e c0 0c c0 0c 60     .`.............`
    1686:	0c 60 00 00 00 00 00 00 00 00 01 80 01 80 01 80     .`..............
    1696:	01 80 01 80 01 80 01 80 01 80 01 80 01 80 01 80     ................
    16a6:	01 80 00 00 00 00 00 00 00 00 00 00 00 00 00 00     ................
    16b6:	37 38 3f fc 39 cc 31 8c 31 8c 31 8c 31 8c 31 8c     78?.9.1.1.1.1.1.
    16c6:	31 8c 00 00 00 00 00 00 00 00 00 00 00 00 00 00     1...............
    16d6:	0d e0 0f f0 0e 30 0c 30 0c 30 0c 30 0c 30 0c 30     .....0.0.0.0.0.0
    16e6:	0c 30 00 00 00 00 00 00 00 00 00 00 00 00 00 00     .0..............
    16f6:	03 c0 07 e0 0e 70 0c 30 0c 30 0c 30 0e 70 07 e0     .....p.0.0.0.p..
    1706:	03 c0 00 00 00 00 00 00 00 00 00 00 00 00 00 00     ................
    1716:	0d c0 0f e0 0e 70 0c 30 0c 30 0c 30 0e 70 0f e0     .....p.0.0.0.p..
    1726:	0d c0 0c 00 0c 00 0c 00 00 00 00 00 00 00 00 00     ................
    1736:	03 b0 07 f0 0e 70 0c 30 0c 30 0c 30 0e 70 07 f0     .....p.0.0.0.p..
    1746:	03 b0 00 30 00 30 00 30 00 00 00 00 00 00 00 00     ...0.0.0........
    1756:	03 70 03 f0 03 80 03 00 03 00 03 00 03 00 03 00     .p..............
    1766:	03 00 00 00 00 00 00 00 00 00 00 00 00 00 00 00     ................
    1776:	07 c0 0f e0 0c 60 0f 00 07 c0 00 e0 0c 60 0f e0     .....`.......`..
    1786:	07 c0 00 00 00 00 00 00 00 00 01 00 03 00 03 00     ................
    1796:	07 c0 07 c0 03 00 03 00 03 00 03 00 03 00 03 c0     ................
    17a6:	01 c0 00 00 00 00 00 00 00 00 00 00 00 00 00 00     ................
    17b6:	0c 30 0c 30 0c 30 0c 30 0c 30 0c 30 0c 70 0f f0     .0.0.0.0.0.0.p..
    17c6:	07 b0 00 00 00 00 00 00 00 00 00 00 00 00 00 00     ................
    17d6:	06 30 06 30 06 30 03 60 03 60 03 60 01 c0 01 c0     .0.0.0.`.`.`....
    17e6:	01 c0 00 00 00 00 00 00 00 00 00 00 00 00 00 00     ................
    17f6:	31 c6 31 c6 19 cc 1b 6c 1b 6c 1b 6c 0e 38 0e 38     1.1....l.l.l.8.8
    1806:	0e 38 00 00 00 00 00 00 00 00 00 00 00 00 00 00     .8..............
    1816:	06 30 07 70 03 60 01 c0 01 c0 01 c0 03 60 07 70     .0.p.`.......`.p
    1826:	06 30 00 00 00 00 00 00 00 00 00 00 00 00 00 00     .0..............
    1836:	0c 18 0c 18 06 30 06 30 03 60 03 60 03 e0 01 c0     .....0.0.`.`....
    1846:	01 c0 01 80 07 80 07 00 00 00 00 00 00 00 00 00     ................
    1856:	03 f8 03 f8 00 30 00 70 00 e0 01 c0 01 80 03 f8     .....0.p........
    1866:	03 f8 00 00 00 00 00 00 01 c0 03 c0 03 00 03 00     ................
    1876:	03 00 03 00 0e 00 0e 00 03 00 03 00 03 00 03 00     ................
    1886:	03 00 03 c0 01 c0 00 00 01 80 01 80 01 80 01 80     ................
    1896:	01 80 01 80 01 80 01 80 01 80 01 80 01 80 01 80     ................
    18a6:	01 80 01 80 01 80 01 80 03 80 03 c0 00 c0 00 c0     ................
    18b6:	00 c0 00 c0 00 70 00 70 00 c0 00 c0 00 c0 00 c0     .....p.p........
    18c6:	00 c0 03 c0 03 80 00 00 00 00 00 00 07 88 0f f8     ................
    18d6:	08 f0 00 00 00 00 00 00 00 00 00 00 00 00 00 00     ................
	...

000018ee <SevenSegNumFont>:
    18ee:	20 32 30 0a 00 00 00 00 00 00 00 00 00 ff fe 00      20.............
    18fe:	01 ff ff 00 03 ff ff 80 01 ff ff 60 0c ff fe f0     ...........`....
    190e:	1e 00 01 f8 3f 00 01 f8 3f 00 01 f8 3f 00 01 f8     ....?...?...?...
    191e:	3f 00 01 f8 3f 00 01 f8 3f 00 01 f8 3f 00 01 f8     ?...?...?...?...
    192e:	3f 00 01 f8 3f 00 01 f8 3f 00 01 f8 3f 00 01 f8     ?...?...?...?...
    193e:	3f 00 01 f8 3f 00 01 f8 3e 00 00 78 38 00 00 18     ?...?...>..x8...
    194e:	20 00 00 08 00 00 00 00 20 00 00 00 38 00 00 18      ....... ...8...
    195e:	3e 00 00 78 3f 00 01 f8 3f 00 01 f8 3f 00 01 f8     >..x?...?...?...
    196e:	3f 00 01 f8 3f 00 01 f8 3f 00 01 f8 3f 00 01 f8     ?...?...?...?...
    197e:	3f 00 01 f8 3f 00 01 f8 3f 00 01 f8 3f 00 01 f8     ?...?...?...?...
    198e:	3f 00 01 f8 3f 00 01 f8 3f 00 01 f8 1e 00 00 f0     ?...?...?.......
    199e:	0c ff fe 60 01 ff ff 00 03 ff ff 80 01 ff ff 00     ...`............
    19ae:	00 ff fe 00 00 00 00 00 00 00 00 00 00 00 00 00     ................
	...
    19ce:	00 00 00 60 00 00 00 f0 00 00 01 f8 00 00 01 f8     ...`............
    19de:	00 00 01 f8 00 00 01 f8 00 00 01 f8 00 00 01 f8     ................
    19ee:	00 00 01 f8 00 00 01 f8 00 00 01 f8 00 00 01 f8     ................
    19fe:	00 00 01 f8 00 00 01 f8 00 00 01 f8 00 00 01 f8     ................
    1a0e:	00 00 00 78 00 00 00 18 00 00 00 08 00 00 00 00     ...x............
    1a1e:	00 00 00 00 00 00 00 18 00 00 00 78 00 00 01 f8     ...........x....
    1a2e:	00 00 01 f8 00 00 01 f8 00 00 01 f8 00 00 01 f8     ................
    1a3e:	00 00 01 f8 00 00 01 f8 00 00 01 f8 00 00 01 f8     ................
    1a4e:	00 00 01 f8 00 00 01 f8 00 00 01 f8 00 00 01 f8     ................
    1a5e:	00 00 01 f8 00 00 00 f0 00 00 00 60 00 00 00 00     ...........`....
	...
    1a8a:	00 ff fe 00 01 ff ff 00 03 ff ff 80 01 ff ff 60     ...............`
    1a9a:	00 ff fe f0 00 00 01 f8 00 00 01 f8 00 00 01 f8     ................
    1aaa:	00 00 01 f8 00 00 01 f8 00 00 01 f8 00 00 01 f8     ................
    1aba:	00 00 01 f8 00 00 01 f8 00 00 01 f8 00 00 01 f8     ................
    1aca:	00 00 01 f8 00 00 01 f8 00 00 01 f8 00 00 00 78     ...............x
    1ada:	01 ff fe 18 03 ff ff 88 0f ff ff e0 27 ff ff c0     ............'...
    1aea:	39 ff ff 00 3e 00 00 00 3f 00 00 00 3f 00 00 00     9...>...?...?...
    1afa:	3f 00 00 00 3f 00 00 00 3f 00 00 00 3f 00 00 00     ?...?...?...?...
    1b0a:	3f 00 00 00 3f 00 00 00 3f 00 00 00 3f 00 00 00     ?...?...?...?...
    1b1a:	3f 00 00 00 3f 00 00 00 3f 00 00 00 3f 00 00 00     ?...?...?...?...
    1b2a:	1e 00 00 00 0c ff fe 00 01 ff ff 00 03 ff ff 80     ................
    1b3a:	01 ff ff 00 00 ff fe 00 00 00 00 00 00 00 00 00     ................
	...
    1b52:	00 ff fe 00 01 ff ff 00 03 ff ff 80 01 ff ff 60     ...............`
    1b62:	00 ff fe f0 00 00 01 f8 00 00 01 f8 00 00 01 f8     ................
    1b72:	00 00 01 f8 00 00 01 f8 00 00 01 f8 00 00 01 f8     ................
    1b82:	00 00 01 f8 00 00 01 f8 00 00 01 f8 00 00 01 f8     ................
    1b92:	00 00 01 f8 00 00 01 f8 00 00 01 f8 00 00 00 78     ...............x
    1ba2:	01 ff fe 18 03 ff ff 88 0f ff ff e0 07 ff ff c0     ................
    1bb2:	01 ff ff 18 00 00 00 78 00 00 01 f8 00 00 01 f8     .......x........
    1bc2:	00 00 01 f8 00 00 01 f8 00 00 01 f8 00 00 01 f8     ................
    1bd2:	00 00 01 f8 00 00 01 f8 00 00 01 f8 00 00 01 f8     ................
    1be2:	00 00 01 f8 00 00 01 f8 00 00 01 f8 00 00 01 f8     ................
    1bf2:	00 00 00 f0 00 ff fe 60 01 ff ff 00 03 ff ff 80     .......`........
    1c02:	01 ff ff 00 00 ff fe 00 00 00 00 00 00 00 00 00     ................
	...
    1c26:	00 00 00 60 0c 00 00 f0 1e 00 01 f8 3f 00 01 f8     ...`........?...
    1c36:	3f 00 01 f8 3f 00 01 f8 3f 00 01 f8 3f 00 01 f8     ?...?...?...?...
    1c46:	3f 00 01 f8 3f 00 01 f8 3f 00 01 f8 3f 00 01 f8     ?...?...?...?...
    1c56:	3f 00 01 f8 3f 00 01 f8 3f 00 01 f8 3f 00 01 f8     ?...?...?...?...
    1c66:	3e 00 00 78 39 ff fe 18 23 ff ff 88 0f ff ff e0     >..x9...#.......
    1c76:	07 ff ff c0 01 ff ff 18 00 00 00 78 00 00 01 f8     ...........x....
    1c86:	00 00 01 f8 00 00 01 f8 00 00 01 f8 00 00 01 f8     ................
    1c96:	00 00 01 f8 00 00 01 f8 00 00 01 f8 00 00 01 f8     ................
    1ca6:	00 00 01 f8 00 00 01 f8 00 00 01 f8 00 00 01 f8     ................
    1cb6:	00 00 01 f8 00 00 00 f0 00 00 00 60 00 00 00 00     ...........`....
	...
    1ce2:	00 ff fe 00 01 ff ff 00 03 ff ff 80 01 ff ff 00     ................
    1cf2:	0c ff fe 00 1e 00 00 00 3f 00 00 00 3f 00 00 00     ........?...?...
    1d02:	3f 00 00 00 3f 00 00 00 3f 00 00 00 3f 00 00 00     ?...?...?...?...
    1d12:	3f 00 00 00 3f 00 00 00 3f 00 00 00 3f 00 00 00     ?...?...?...?...
    1d22:	3f 00 00 00 3f 00 00 00 3f 00 00 00 3e 00 00 00     ?...?...?...>...
    1d32:	39 ff fe 00 23 ff ff 80 0f ff ff e0 07 ff ff c0     9...#...........
    1d42:	01 ff ff 18 00 00 00 78 00 00 01 f8 00 00 01 f8     .......x........
    1d52:	00 00 01 f8 00 00 01 f8 00 00 01 f8 00 00 01 f8     ................
    1d62:	00 00 01 f8 00 00 01 f8 00 00 01 f8 00 00 01 f8     ................
    1d72:	00 00 01 f8 00 00 01 f8 00 00 01 f8 00 00 01 f8     ................
    1d82:	00 00 00 f0 00 ff fe 60 01 ff ff 00 03 ff ff 80     .......`........
    1d92:	01 ff ff 00 00 ff fe 00 00 00 00 00 00 00 00 00     ................
	...
    1daa:	00 ff fe 00 01 ff ff 00 03 ff ff 80 01 ff ff 00     ................
    1dba:	0c ff fe 00 1e 00 00 00 3f 00 00 00 3f 00 00 00     ........?...?...
    1dca:	3f 00 00 00 3f 00 00 00 3f 00 00 00 3f 00 00 00     ?...?...?...?...
    1dda:	3f 00 00 00 3f 00 00 00 3f 00 00 00 3f 00 00 00     ?...?...?...?...
    1dea:	3f 00 00 00 3f 00 00 00 3f 00 00 00 3e 00 00 00     ?...?...?...>...
    1dfa:	39 ff fe 00 23 ff ff 80 0f ff ff e0 27 ff ff c0     9...#.......'...
    1e0a:	39 ff ff 18 3e 00 00 78 3f 00 01 f8 3f 00 01 f8     9...>..x?...?...
    1e1a:	3f 00 01 f8 3f 00 01 f8 3f 00 01 f8 3f 00 01 f8     ?...?...?...?...
    1e2a:	3f 00 01 f8 3f 00 01 f8 3f 00 01 f8 3f 00 01 f8     ?...?...?...?...
    1e3a:	3f 00 01 f8 3f 00 01 f8 3f 00 01 f8 3f 00 01 f8     ?...?...?...?...
    1e4a:	1e 00 00 f0 0c ff fe 60 01 ff ff 00 03 ff ff 80     .......`........
    1e5a:	01 ff ff 00 00 ff fe 00 00 00 00 00 00 00 00 00     ................
	...
    1e72:	00 ff fe 00 01 ff ff 00 03 ff ff 80 01 ff ff 60     ...............`
    1e82:	00 ff fe f0 00 00 01 f8 00 00 01 f8 00 00 01 f8     ................
    1e92:	00 00 01 f8 00 00 01 f8 00 00 01 f8 00 00 01 f8     ................
    1ea2:	00 00 01 f8 00 00 01 f8 00 00 01 f8 00 00 01 f8     ................
    1eb2:	00 00 01 f8 00 00 01 f8 00 00 01 f8 00 00 00 78     ...............x
    1ec2:	00 00 00 18 00 00 00 08 00 00 00 00 00 00 00 00     ................
    1ed2:	00 00 00 18 00 00 00 78 00 00 01 f8 00 00 01 f8     .......x........
    1ee2:	00 00 01 f8 00 00 01 f8 00 00 01 f8 00 00 01 f8     ................
    1ef2:	00 00 01 f8 00 00 01 f8 00 00 01 f8 00 00 01 f8     ................
    1f02:	00 00 01 f8 00 00 01 f8 00 00 01 f8 00 00 01 f8     ................
    1f12:	00 00 00 f0 00 00 00 60 00 00 00 00 00 00 00 00     .......`........
	...
    1f3a:	00 ff fe 00 01 ff ff 00 03 ff ff 80 01 ff ff 60     ...............`
    1f4a:	0c ff fe f0 1e 00 01 f8 3f 00 01 f8 3f 00 01 f8     ........?...?...
    1f5a:	3f 00 01 f8 3f 00 01 f8 3f 00 01 f8 3f 00 01 f8     ?...?...?...?...
    1f6a:	3f 00 01 f8 3f 00 01 f8 3f 00 01 f8 3f 00 01 f8     ?...?...?...?...
    1f7a:	3f 00 01 f8 3f 00 01 f8 3f 00 01 f8 3e 00 00 78     ?...?...?...>..x
    1f8a:	39 ff fe 18 23 ff ff 88 0f ff ff e0 27 ff ff c0     9...#.......'...
    1f9a:	39 ff ff 18 3e 00 00 78 3f 00 01 f8 3f 00 01 f8     9...>..x?...?...
    1faa:	3f 00 01 f8 3f 00 01 f8 3f 00 01 f8 3f 00 01 f8     ?...?...?...?...
    1fba:	3f 00 01 f8 3f 00 01 f8 3f 00 01 f8 3f 00 01 f8     ?...?...?...?...
    1fca:	3f 00 01 f8 3f 00 01 f8 3f 00 01 f8 3f 00 01 f8     ?...?...?...?...
    1fda:	1e 00 00 f0 0c ff fe 60 01 ff ff 00 03 ff ff 80     .......`........
    1fea:	01 ff ff 00 00 ff fe 00 00 00 00 00 00 00 00 00     ................
	...
    2002:	00 ff fe 00 01 ff ff 00 03 ff ff 80 01 ff ff 60     ...............`
    2012:	0c ff fe f0 1e 00 01 f8 3f 00 01 f8 3f 00 01 f8     ........?...?...
    2022:	3f 00 01 f8 3f 00 01 f8 3f 00 01 f8 3f 00 01 f8     ?...?...?...?...
    2032:	3f 00 01 f8 3f 00 01 f8 3f 00 01 f8 3f 00 01 f8     ?...?...?...?...
    2042:	3f 00 01 f8 3f 00 01 f8 3f 00 01 f8 3e 00 00 78     ?...?...?...>..x
    2052:	39 ff fe 18 23 ff ff 88 0f ff ff e0 07 ff ff c0     9...#...........
    2062:	01 ff ff 18 00 00 00 78 00 00 01 f8 00 00 01 f8     .......x........
    2072:	00 00 01 f8 00 00 01 f8 00 00 01 f8 00 00 01 f8     ................
    2082:	00 00 01 f8 00 00 01 f8 00 00 01 f8 00 00 01 f8     ................
    2092:	00 00 01 f8 00 00 01 f8 00 00 01 f8 00 00 01 f8     ................
    20a2:	00 00 00 f0 00 ff fe 60 01 ff ff 00 03 ff ff 80     .......`........
    20b2:	01 ff ff 00 00 ff fe 00 00 00 00 00 00 00 00 00     ................

000020c2 <BigFont>:
    20c2:	10 10 20 5f 00 00 00 00 00 00 00 00 00 00 00 00     .. _............
	...
    20ea:	07 00 0f 80 0f 80 0f 80 0f 80 0f 80 07 00 07 00     ................
    20fa:	00 00 00 00 07 00 07 00 07 00 00 00 00 00 0e 38     ...............8
    210a:	0e 38 0e 38 0e 38 06 30 00 00 00 00 00 00 00 00     .8.8.8.0........
	...
    2126:	00 00 0c 30 0c 30 0c 30 7f fe 7f fe 0c 30 0c 30     ...0.0.0.....0.0
    2136:	0c 30 0c 30 7f fe 7f fe 0c 30 0c 30 0c 30 00 00     .0.0.....0.0.0..
    2146:	00 00 02 40 02 40 0f f8 1f f8 1a 40 1a 40 1f f0     ...@.@.....@.@..
    2156:	0f f8 02 58 02 58 1f f8 1f f0 02 40 02 40 00 00     ...X.X.....@.@..
    2166:	00 00 00 00 00 00 0e 10 0e 30 0e 70 00 e0 01 c0     .........0.p....
    2176:	03 80 07 00 0e 70 0c 70 08 70 00 00 00 00 00 00     .....p.p.p......
    2186:	00 00 00 00 0f 00 19 80 19 80 19 80 0f 00 0f 08     ................
    2196:	0f 98 19 f8 18 f0 18 e0 19 f0 0f 98 00 00 00 00     ................
    21a6:	00 00 00 00 07 00 07 00 07 00 0e 00 00 00 00 00     ................
	...
    21ca:	00 f0 01 c0 03 80 07 00 0e 00 0e 00 0e 00 0e 00     ................
    21da:	07 00 03 80 01 c0 00 f0 00 00 00 00 00 00 00 00     ................
    21ea:	0f 00 03 80 01 c0 00 e0 00 70 00 70 00 70 00 70     .........p.p.p.p
    21fa:	00 e0 01 c0 03 80 0f 00 00 00 00 00 00 00 00 00     ................
    220a:	01 80 11 88 09 90 07 e0 07 e0 3f fc 3f fc 07 e0     ..........?.?...
    221a:	07 e0 09 90 11 88 01 80 00 00 00 00 00 00 00 00     ................
    222a:	00 00 00 00 01 80 01 80 01 80 0f f0 0f f0 01 80     ................
    223a:	01 80 01 80 00 00 00 00 00 00 00 00 00 00 00 00     ................
	...
    225a:	00 00 07 00 07 00 07 00 0e 00 00 00 00 00 00 00     ................
	...
    2272:	00 00 1f f8 1f f8 00 00 00 00 00 00 00 00 00 00     ................
	...
    229a:	00 00 07 00 07 00 07 00 00 00 00 00 00 00 00 00     ................
    22aa:	00 02 00 06 00 0e 00 1c 00 38 00 70 00 e0 01 c0     .........8.p....
    22ba:	03 80 07 00 0e 00 1c 00 00 00 00 00 00 00 00 00     ................
    22ca:	0f f0 1c 38 1c 78 1c f8 1c f8 1d b8 1d b8 1f 38     ...8.x.........8
    22da:	1f 38 1e 38 1c 38 0f f0 00 00 00 00 00 00 00 00     .8.8.8..........
    22ea:	01 80 01 80 03 80 1f 80 1f 80 03 80 03 80 03 80     ................
    22fa:	03 80 03 80 03 80 1f f0 00 00 00 00 00 00 00 00     ................
    230a:	0f e0 1c 70 1c 38 00 38 00 70 00 e0 01 c0 03 80     ...p.8.8.p......
    231a:	07 00 0e 38 1c 38 1f f8 00 00 00 00 00 00 00 00     ...8.8..........
    232a:	0f e0 1c 70 1c 38 00 38 00 70 03 c0 03 c0 00 70     ...p.8.8.p.....p
    233a:	00 38 1c 38 1c 70 0f e0 00 00 00 00 00 00 00 00     .8.8.p..........
    234a:	00 e0 01 e0 03 e0 06 e0 0c e0 18 e0 1f f8 1f f8     ................
    235a:	00 e0 00 e0 00 e0 03 f8 00 00 00 00 00 00 00 00     ................
    236a:	1f f8 1c 00 1c 00 1c 00 1c 00 1f e0 1f f0 00 78     ...............x
    237a:	00 38 1c 38 1c 70 0f e0 00 00 00 00 00 00 00 00     .8.8.p..........
    238a:	03 e0 07 00 0e 00 1c 00 1c 00 1f f0 1f f8 1c 38     ...............8
    239a:	1c 38 1c 38 1c 38 0f f0 00 00 00 00 00 00 00 00     .8.8.8..........
    23aa:	1f fc 1c 1c 1c 1c 1c 1c 00 1c 00 38 00 70 00 e0     ...........8.p..
    23ba:	01 c0 03 80 03 80 03 80 00 00 00 00 00 00 00 00     ................
    23ca:	0f f0 1c 38 1c 38 1c 38 1f 38 07 e0 07 e0 1c f8     ...8.8.8.8......
    23da:	1c 38 1c 38 1c 38 0f f0 00 00 00 00 00 00 00 00     .8.8.8..........
    23ea:	0f f0 1c 38 1c 38 1c 38 1c 38 1f f8 0f f8 00 38     ...8.8.8.8.....8
    23fa:	00 38 00 70 00 e0 07 c0 00 00 00 00 00 00 00 00     .8.p............
    240a:	00 00 00 00 03 80 03 80 03 80 00 00 00 00 03 80     ................
    241a:	03 80 03 80 00 00 00 00 00 00 00 00 00 00 00 00     ................
    242a:	00 00 00 00 03 80 03 80 03 80 00 00 00 00 03 80     ................
    243a:	03 80 03 80 07 00 00 00 00 00 00 00 00 00 00 70     ...............p
    244a:	00 e0 01 c0 03 80 07 00 0e 00 1c 00 1c 00 0e 00     ................
    245a:	07 00 03 80 01 c0 00 e0 00 70 00 00 00 00 00 00     .........p......
    246a:	00 00 00 00 00 00 3f fc 3f fc 00 00 00 00 3f fc     ......?.?.....?.
    247a:	3f fc 00 00 00 00 00 00 00 00 00 00 00 00 1c 00     ?...............
    248a:	0e 00 07 00 03 80 01 c0 00 e0 00 70 00 70 00 e0     ...........p.p..
    249a:	01 c0 03 80 07 00 0e 00 1c 00 00 00 00 00 03 c0     ................
    24aa:	0f f0 1e 78 18 38 00 38 00 70 00 e0 01 c0 01 c0     ...x.8.8.p......
    24ba:	00 00 00 00 01 c0 01 c0 01 c0 00 00 00 00 0f f8     ................
    24ca:	1c 1c 1c 1c 1c 1c 1c 1c 1c fc 1c fc 1c fc 1c fc     ................
    24da:	1c 00 1c 00 1c 00 1f f0 07 f8 00 00 00 00 00 00     ................
    24ea:	03 c0 07 e0 0e 70 1c 38 1c 38 1c 38 1c 38 1f f8     .....p.8.8.8.8..
    24fa:	1c 38 1c 38 1c 38 1c 38 00 00 00 00 00 00 00 00     .8.8.8.8........
    250a:	1f f0 0e 38 0e 38 0e 38 0e 38 0f f0 0f f0 0e 38     ...8.8.8.8.....8
    251a:	0e 38 0e 38 0e 38 1f f0 00 00 00 00 00 00 00 00     .8.8.8..........
    252a:	07 f0 0e 38 1c 38 1c 00 1c 00 1c 00 1c 00 1c 00     ...8.8..........
    253a:	1c 00 1c 38 0e 38 07 f0 00 00 00 00 00 00 00 00     ...8.8..........
    254a:	1f e0 0e 70 0e 38 0e 38 0e 38 0e 38 0e 38 0e 38     ...p.8.8.8.8.8.8
    255a:	0e 38 0e 38 0e 70 1f e0 00 00 00 00 00 00 00 00     .8.8.p..........
    256a:	1f f8 0e 18 0e 08 0e 00 0e 30 0f f0 0f f0 0e 30     .........0.....0
    257a:	0e 00 0e 08 0e 18 1f f8 00 00 00 00 00 00 00 00     ................
    258a:	1f f8 0e 18 0e 08 0e 00 0e 30 0f f0 0f f0 0e 30     .........0.....0
    259a:	0e 00 0e 00 0e 00 1f 00 00 00 00 00 00 00 00 00     ................
    25aa:	07 f0 0e 38 1c 38 1c 38 1c 00 1c 00 1c 00 1c f8     ...8.8.8........
    25ba:	1c 38 1c 38 0e 38 07 f8 00 00 00 00 00 00 00 00     .8.8.8..........
    25ca:	1c 70 1c 70 1c 70 1c 70 1c 70 1f f0 1f f0 1c 70     .p.p.p.p.p.....p
    25da:	1c 70 1c 70 1c 70 1c 70 00 00 00 00 00 00 00 00     .p.p.p.p........
    25ea:	0f e0 03 80 03 80 03 80 03 80 03 80 03 80 03 80     ................
    25fa:	03 80 03 80 03 80 0f e0 00 00 00 00 00 00 00 00     ................
    260a:	01 fc 00 70 00 70 00 70 00 70 00 70 00 70 38 70     ...p.p.p.p.p.p8p
    261a:	38 70 38 70 38 70 0f e0 00 00 00 00 00 00 00 00     8p8p8p..........
    262a:	1e 38 0e 38 0e 70 0e e0 0f c0 0f 80 0f 80 0f c0     .8.8.p..........
    263a:	0e e0 0e 70 0e 38 1e 38 00 00 00 00 00 00 00 00     ...p.8.8........
    264a:	1f 00 0e 00 0e 00 0e 00 0e 00 0e 00 0e 00 0e 00     ................
    265a:	0e 08 0e 18 0e 38 1f f8 00 00 00 00 00 00 00 00     .....8..........
    266a:	1c 1c 1e 3c 1f 7c 1f fc 1f fc 1d dc 1c 9c 1c 1c     ...<.|..........
    267a:	1c 1c 1c 1c 1c 1c 1c 1c 00 00 00 00 00 00 00 00     ................
    268a:	1c 1c 1c 1c 1e 1c 1f 1c 1f 9c 1d dc 1c fc 1c 7c     ...............|
    269a:	1c 3c 1c 1c 1c 1c 1c 1c 00 00 00 00 00 00 00 00     .<..............
    26aa:	03 e0 07 f0 0e 38 1c 1c 1c 1c 1c 1c 1c 1c 1c 1c     .....8..........
    26ba:	1c 1c 0e 38 07 f0 03 e0 00 00 00 00 00 00 00 00     ...8............
    26ca:	1f f0 0e 38 0e 38 0e 38 0e 38 0f f0 0f f0 0e 00     ...8.8.8.8......
    26da:	0e 00 0e 00 0e 00 1f 00 00 00 00 00 00 00 00 00     ................
    26ea:	03 e0 0f 78 0e 38 1c 1c 1c 1c 1c 1c 1c 1c 1c 7c     ...x.8.........|
    26fa:	1c fc 0f f8 0f f8 00 38 00 fc 00 00 00 00 00 00     .......8........
    270a:	1f f0 0e 38 0e 38 0e 38 0e 38 0f f0 0f f0 0e 70     ...8.8.8.8.....p
    271a:	0e 38 0e 38 0e 38 1e 38 00 00 00 00 00 00 00 00     .8.8.8.8........
    272a:	0f f0 1c 38 1c 38 1c 38 1c 00 0f e0 07 f0 00 38     ...8.8.8.......8
    273a:	1c 38 1c 38 1c 38 0f f0 00 00 00 00 00 00 00 00     .8.8.8..........
    274a:	1f fc 19 cc 11 c4 01 c0 01 c0 01 c0 01 c0 01 c0     ................
    275a:	01 c0 01 c0 01 c0 07 f0 00 00 00 00 00 00 00 00     ................
    276a:	1c 70 1c 70 1c 70 1c 70 1c 70 1c 70 1c 70 1c 70     .p.p.p.p.p.p.p.p
    277a:	1c 70 1c 70 1c 70 0f e0 00 00 00 00 00 00 00 00     .p.p.p..........
    278a:	1c 70 1c 70 1c 70 1c 70 1c 70 1c 70 1c 70 1c 70     .p.p.p.p.p.p.p.p
    279a:	1c 70 0e e0 07 c0 03 80 00 00 00 00 00 00 00 00     .p..............
    27aa:	1c 1c 1c 1c 1c 1c 1c 1c 1c 1c 1c 9c 1c 9c 1c 9c     ................
    27ba:	0f f8 0f f8 07 70 07 70 00 00 00 00 00 00 00 00     .....p.p........
    27ca:	1c 70 1c 70 1c 70 0e e0 07 c0 03 80 03 80 07 c0     .p.p.p..........
    27da:	0e e0 1c 70 1c 70 1c 70 00 00 00 00 00 00 00 00     ...p.p.p........
    27ea:	1c 70 1c 70 1c 70 1c 70 1c 70 0e e0 07 c0 03 80     .p.p.p.p.p......
    27fa:	03 80 03 80 03 80 0f e0 00 00 00 00 00 00 00 00     ................
    280a:	1f f8 1c 38 18 38 10 70 00 e0 01 c0 03 80 07 00     ...8.8.p........
    281a:	0e 08 1c 18 1c 38 1f f8 00 00 00 00 00 00 00 00     .....8..........
    282a:	07 f0 07 00 07 00 07 00 07 00 07 00 07 00 07 00     ................
    283a:	07 00 07 00 07 00 07 f0 00 00 00 00 00 00 00 00     ................
    284a:	10 00 18 00 1c 00 0e 00 07 00 03 80 01 c0 00 e0     ................
    285a:	00 70 00 38 00 1c 00 07 00 00 00 00 00 00 00 00     .p.8............
    286a:	07 f0 00 70 00 70 00 70 00 70 00 70 00 70 00 70     ...p.p.p.p.p.p.p
    287a:	00 70 00 70 00 70 07 f0 00 00 00 00 00 00 01 80     .p.p.p..........
    288a:	03 c0 07 e0 0e 70 1c 38 00 00 00 00 00 00 00 00     .....p.8........
	...
    28c2:	7f ff 7f ff 00 00 00 00 1c 00 1c 00 07 00 07 00     ................
	...
    28f2:	0f e0 00 70 00 70 0f f0 1c 70 1c 70 1c 70 0f d8     ...p.p...p.p.p..
	...
    290a:	1e 00 0e 00 0e 00 0e 00 0f f0 0e 38 0e 38 0e 38     ...........8.8.8
    291a:	0e 38 0e 38 0e 38 1b f0 00 00 00 00 00 00 00 00     .8.8.8..........
	...
    2932:	0f e0 1c 70 1c 70 1c 00 1c 00 1c 70 1c 70 0f e0     ...p.p.....p.p..
	...
    294a:	00 f8 00 70 00 70 00 70 0f f0 1c 70 1c 70 1c 70     ...p.p.p...p.p.p
    295a:	1c 70 1c 70 1c 70 0f d8 00 00 00 00 00 00 00 00     .p.p.p..........
	...
    2972:	0f e0 1c 70 1c 70 1f f0 1c 00 1c 70 1c 70 0f e0     ...p.p.....p.p..
	...
    298a:	03 e0 07 70 07 70 07 00 07 00 1f e0 1f e0 07 00     ...p.p..........
    299a:	07 00 07 00 07 00 1f c0 00 00 00 00 00 00 00 00     ................
	...
    29b2:	0f d8 1c 70 1c 70 1c 70 1c 70 0f f0 07 f0 00 70     ...p.p.p.p.....p
    29c2:	1c 70 0f e0 00 00 00 00 1e 00 0e 00 0e 00 0e 00     .p..............
    29d2:	0e f0 0f 38 0f 38 0e 38 0e 38 0e 38 0e 38 1e 38     ...8.8.8.8.8.8.8
	...
    29ea:	01 c0 01 c0 01 c0 00 00 0f c0 01 c0 01 c0 01 c0     ................
    29fa:	01 c0 01 c0 01 c0 0f f8 00 00 00 00 00 00 00 00     ................
    2a0a:	00 70 00 70 00 70 00 00 03 f0 00 70 00 70 00 70     .p.p.p.....p.p.p
    2a1a:	00 70 00 70 00 70 1c 70 0c f0 07 e0 00 00 00 00     .p.p.p.p........
    2a2a:	1e 00 0e 00 0e 00 0e 00 0e 38 0e 70 0e e0 0f c0     .........8.p....
    2a3a:	0e e0 0e 70 0e 38 1e 38 00 00 00 00 00 00 00 00     ...p.8.8........
    2a4a:	0f c0 01 c0 01 c0 01 c0 01 c0 01 c0 01 c0 01 c0     ................
    2a5a:	01 c0 01 c0 01 c0 0f f8 00 00 00 00 00 00 00 00     ................
	...
    2a72:	1f f8 1c 9c 1c 9c 1c 9c 1c 9c 1c 9c 1c 9c 1c 9c     ................
	...
    2a92:	1f e0 1c 70 1c 70 1c 70 1c 70 1c 70 1c 70 1c 70     ...p.p.p.p.p.p.p
	...
    2ab2:	0f e0 1c 70 1c 70 1c 70 1c 70 1c 70 1c 70 0f e0     ...p.p.p.p.p.p..
	...
    2ad2:	1b f0 0e 38 0e 38 0e 38 0e 38 0e 38 0f f0 0e 00     ...8.8.8.8.8....
    2ae2:	0e 00 1f 00 00 00 00 00 00 00 00 00 00 00 00 00     ................
    2af2:	1f b0 38 e0 38 e0 38 e0 38 e0 38 e0 1f e0 00 e0     ..8.8.8.8.8.....
    2b02:	00 e0 01 f0 00 00 00 00 00 00 00 00 00 00 00 00     ................
    2b12:	1e f0 0f f8 0f 38 0e 00 0e 00 0e 00 0e 00 1f 00     .....8..........
	...
    2b32:	0f e0 1c 30 1c 30 0f 80 03 e0 18 70 18 70 0f e0     ...0.0.....p.p..
	...
    2b4a:	00 00 01 00 03 00 07 00 1f f0 07 00 07 00 07 00     ................
    2b5a:	07 00 07 70 07 70 03 e0 00 00 00 00 00 00 00 00     ...p.p..........
	...
    2b72:	1c 70 1c 70 1c 70 1c 70 1c 70 1c 70 1c 70 0f d8     .p.p.p.p.p.p.p..
	...
    2b92:	1c 70 1c 70 1c 70 1c 70 1c 70 0e e0 07 c0 03 80     .p.p.p.p.p......
	...
    2bb2:	1c 1c 1c 1c 1c 1c 1c 9c 1c 9c 0f f8 07 70 07 70     .............p.p
	...
    2bd2:	1c e0 1c e0 0f c0 07 80 07 80 0f c0 1c e0 1c e0     ................
	...
    2bf2:	0e 38 0e 38 0e 38 0e 38 0e 38 07 f0 03 e0 00 e0     .8.8.8.8.8......
    2c02:	01 c0 1f 80 00 00 00 00 00 00 00 00 00 00 00 00     ................
    2c12:	1f e0 18 e0 11 c0 03 80 07 00 0e 20 1c 60 1f e0     ........... .`..
	...
    2c2a:	01 f8 03 80 03 80 03 80 07 00 1c 00 1c 00 07 00     ................
    2c3a:	03 80 03 80 03 80 01 f8 00 00 00 00 00 00 01 c0     ................
    2c4a:	01 c0 01 c0 01 c0 01 c0 01 c0 01 c0 01 c0 01 c0     ................
    2c5a:	01 c0 01 c0 01 c0 01 c0 01 c0 00 00 00 00 00 00     ................
    2c6a:	1f 80 01 c0 01 c0 01 c0 00 e0 00 38 00 38 00 e0     ...........8.8..
    2c7a:	01 c0 01 c0 01 c0 1f 80 00 00 00 00 00 00 00 00     ................
    2c8a:	1f 1c 3b 9c 39 dc 38 f8 00 00 00 00 00 00 00 00     ..;.9.8.........
	...

00002ca6 <SmallFont>:
    2ca6:	08 0c 20 5f 00 00 00 00 00 00 00 00 00 00 00 00     .. _............
    2cb6:	00 00 20 20 20 20 20 20 00 20 00 00 00 28 50 50     ..      . ...(PP
	...
    2cce:	00 00 28 28 fc 28 50 fc 50 50 00 00 00 20 78 a8     ..((.(P.PP... x.
    2cde:	a0 60 30 28 a8 f0 20 00 00 00 48 a8 b0 50 28 34     .`0(.. ...H..P(4
    2cee:	54 48 00 00 00 00 20 50 50 78 a8 a8 90 6c 00 00     TH.... PPx...l..
    2cfe:	00 40 40 80 00 00 00 00 00 00 00 00 00 04 08 10     .@@.............
    2d0e:	10 10 10 10 10 08 04 00 00 40 20 10 10 10 10 10     .........@ .....
    2d1e:	10 20 40 00 00 00 00 20 a8 70 70 a8 20 00 00 00     . @.... .pp. ...
    2d2e:	00 00 20 20 20 f8 20 20 20 00 00 00 00 00 00 00     ..   .   .......
    2d3e:	00 00 00 00 00 40 40 80 00 00 00 00 00 f8 00 00     .....@@.........
	...
    2d5a:	00 40 00 00 00 08 10 10 10 20 20 40 40 40 80 00     .@.......  @@@..
    2d6a:	00 00 70 88 88 88 88 88 88 70 00 00 00 00 20 60     ..p......p.... `
    2d7a:	20 20 20 20 20 70 00 00 00 00 70 88 88 10 20 40          p....p... @
    2d8a:	80 f8 00 00 00 00 70 88 08 30 08 08 88 70 00 00     ......p..0...p..
    2d9a:	00 00 10 30 50 50 90 78 10 18 00 00 00 00 f8 80     ...0PP.x........
    2daa:	80 f0 08 08 88 70 00 00 00 00 70 90 80 f0 88 88     .....p....p.....
    2dba:	88 70 00 00 00 00 f8 90 10 20 20 20 20 20 00 00     .p.......     ..
    2dca:	00 00 70 88 88 70 88 88 88 70 00 00 00 00 70 88     ..p..p...p....p.
    2dda:	88 88 78 08 48 70 00 00 00 00 00 00 20 00 00 00     ..x.Hp...... ...
    2dea:	00 20 00 00 00 00 00 00 00 20 00 00 00 20 20 00     . ....... ...  .
    2dfa:	00 04 08 10 20 40 20 10 08 04 00 00 00 00 00 00     .... @ .........
    2e0a:	f8 00 00 f8 00 00 00 00 00 40 20 10 08 04 08 10     .........@ .....
    2e1a:	20 40 00 00 00 00 70 88 88 10 20 20 00 20 00 00      @....p...  . ..
    2e2a:	00 00 70 88 98 a8 a8 b8 80 78 00 00 00 00 20 20     ..p......x....  
    2e3a:	30 50 50 78 48 cc 00 00 00 00 f0 48 48 70 48 48     0PPxH......HHpHH
    2e4a:	48 f0 00 00 00 00 78 88 80 80 80 80 88 70 00 00     H.....x......p..
    2e5a:	00 00 f0 48 48 48 48 48 48 f0 00 00 00 00 f8 48     ...HHHHHH......H
    2e6a:	50 70 50 40 48 f8 00 00 00 00 f8 48 50 70 50 40     PpP@H......HPpP@
    2e7a:	40 e0 00 00 00 00 38 48 80 80 9c 88 48 30 00 00     @.....8H....H0..
    2e8a:	00 00 cc 48 48 78 48 48 48 cc 00 00 00 00 f8 20     ...HHxHHH...... 
    2e9a:	20 20 20 20 20 f8 00 00 00 00 7c 10 10 10 10 10          .....|.....
    2eaa:	10 90 e0 00 00 00 ec 48 50 60 50 50 48 ec 00 00     .......HP`PPH...
    2eba:	00 00 e0 40 40 40 40 40 44 fc 00 00 00 00 d8 d8     ...@@@@@D.......
    2eca:	d8 d8 a8 a8 a8 a8 00 00 00 00 dc 48 68 68 58 58     ...........HhhXX
    2eda:	48 e8 00 00 00 00 70 88 88 88 88 88 88 70 00 00     H.....p......p..
    2eea:	00 00 f0 48 48 70 40 40 40 e0 00 00 00 00 70 88     ...HHp@@@.....p.
    2efa:	88 88 88 e8 98 70 18 00 00 00 f0 48 48 70 50 48     .....p.....HHpPH
    2f0a:	48 ec 00 00 00 00 78 88 80 60 10 08 88 f0 00 00     H.....x..`......
    2f1a:	00 00 f8 a8 20 20 20 20 20 70 00 00 00 00 cc 48     ....     p.....H
    2f2a:	48 48 48 48 48 30 00 00 00 00 cc 48 48 50 50 30     HHHHH0.....HHPP0
    2f3a:	20 20 00 00 00 00 a8 a8 a8 70 50 50 50 50 00 00       .......pPPPP..
    2f4a:	00 00 d8 50 50 20 20 50 50 d8 00 00 00 00 d8 50     ...PP  PP......P
    2f5a:	50 20 20 20 20 70 00 00 00 00 f8 90 10 20 20 40     P    p.......  @
    2f6a:	48 f8 00 00 00 38 20 20 20 20 20 20 20 20 38 00     H....8        8.
    2f7a:	00 40 40 40 20 20 10 10 10 08 00 00 00 70 10 10     .@@@  .......p..
    2f8a:	10 10 10 10 10 10 70 00 00 20 50 00 00 00 00 00     ......p.. P.....
	...
    2fa6:	00 00 00 fc 00 20 00 00 00 00 00 00 00 00 00 00     ..... ..........
    2fb6:	00 00 00 00 00 30 48 38 48 3c 00 00 00 00 c0 40     .....0H8H<.....@
    2fc6:	40 70 48 48 48 70 00 00 00 00 00 00 00 38 48 40     @pHHHp.......8H@
    2fd6:	40 38 00 00 00 00 18 08 08 38 48 48 48 3c 00 00     @8.......8HHH<..
    2fe6:	00 00 00 00 00 30 48 78 40 38 00 00 00 00 1c 20     .....0Hx@8..... 
    2ff6:	20 78 20 20 20 78 00 00 00 00 00 00 00 3c 48 30      x   x.......<H0
    3006:	40 78 44 38 00 00 c0 40 40 70 48 48 48 ec 00 00     @xD8...@@pHHH...
    3016:	00 00 20 00 00 60 20 20 20 70 00 00 00 00 10 00     .. ..`   p......
    3026:	00 30 10 10 10 10 10 e0 00 00 c0 40 40 5c 50 70     .0.........@@\Pp
    3036:	48 ec 00 00 00 00 e0 20 20 20 20 20 20 f8 00 00     H......      ...
    3046:	00 00 00 00 00 f0 a8 a8 a8 a8 00 00 00 00 00 00     ................
    3056:	00 f0 48 48 48 ec 00 00 00 00 00 00 00 30 48 48     ..HHH........0HH
    3066:	48 30 00 00 00 00 00 00 00 f0 48 48 48 70 40 e0     H0........HHHp@.
    3076:	00 00 00 00 00 38 48 48 48 38 08 1c 00 00 00 00     .....8HHH8......
    3086:	00 d8 60 40 40 e0 00 00 00 00 00 00 00 78 40 30     ..`@@........x@0
    3096:	08 78 00 00 00 00 00 20 20 70 20 20 20 18 00 00     .x.....  p   ...
    30a6:	00 00 00 00 00 d8 48 48 48 3c 00 00 00 00 00 00     ......HHH<......
    30b6:	00 ec 48 50 30 20 00 00 00 00 00 00 00 a8 a8 70     ..HP0 .........p
    30c6:	50 50 00 00 00 00 00 00 00 d8 50 20 50 d8 00 00     PP........P P...
    30d6:	00 00 00 00 00 ec 48 50 30 20 20 c0 00 00 00 00     ......HP0  .....
    30e6:	00 78 10 20 20 78 00 00 00 18 10 10 10 20 10 10     .x.  x....... ..
    30f6:	10 10 18 00 10 10 10 10 10 10 10 10 10 10 10 10     ................
    3106:	00 60 20 20 20 10 20 20 20 20 60 00 40 a4 18 00     .`   .    `.@...
	...

0000311e <digital_pin_to_timer_PGM>:
    311e:	00 00 0a 0b 02 09 0c 0d 0e 08 07 03 04 01 00 00     ................
	...
    314a:	12 11 10 00 00 00 00 00 00 00 00 00 00 00 00 00     ................
	...

00003164 <digital_pin_to_bit_mask_PGM>:
    3164:	01 02 10 20 20 08 08 10 20 40 10 20 40 80 02 01     ...  ... @. @...
    3174:	02 01 08 04 02 01 01 02 04 08 10 20 40 80 80 40     ........... @..@
    3184:	20 10 08 04 02 01 80 04 02 01 80 40 20 10 08 04      ..........@ ...
    3194:	02 01 08 04 02 01 01 02 04 08 10 20 40 80 01 02     ........... @...
    31a4:	04 08 10 20 40 80                                   ... @.

000031aa <digital_pin_to_port_PGM>:
    31aa:	05 05 05 05 07 05 08 08 08 08 02 02 02 02 0a 0a     ................
    31ba:	08 08 04 04 04 04 01 01 01 01 01 01 01 01 03 03     ................
    31ca:	03 03 03 03 03 03 04 07 07 07 0c 0c 0c 0c 0c 0c     ................
    31da:	0c 0c 02 02 02 02 06 06 06 06 06 06 06 06 0b 0b     ................
    31ea:	0b 0b 0b 0b 0b 0b                                   ......

000031f0 <port_to_input_PGM>:
    31f0:	00 00 20 00 23 00 26 00 29 00 2c 00 2f 00 32 00     .. .#.&.).,./.2.
    3200:	00 01 00 00 03 01 06 01 09 01                       ..........

0000320a <port_to_output_PGM>:
    320a:	00 00 22 00 25 00 28 00 2b 00 2e 00 31 00 34 00     ..".%.(.+...1.4.
    321a:	02 01 00 00 05 01 08 01 0b 01                       ..........

00003224 <port_to_mode_PGM>:
    3224:	00 00 21 00 24 00 27 00 2a 00 2d 00 30 00 33 00     ..!.$.'.*.-.0.3.
    3234:	01 01 00 00 04 01 07 01 0a 01                       ..........

0000323e <__ctors_start>:
    323e:	a8 2b       	or	r26, r24

00003240 <__ctors_end>:
    3240:	0d 2c       	mov	r0, r13

00003242 <__dtors_end>:
    3242:	11 24       	eor	r1, r1
    3244:	1f be       	out	0x3f, r1	; 63
    3246:	cf ef       	ldi	r28, 0xFF	; 255
    3248:	d1 e2       	ldi	r29, 0x21	; 33
    324a:	de bf       	out	0x3e, r29	; 62
    324c:	cd bf       	out	0x3d, r28	; 61
    324e:	00 e0       	ldi	r16, 0x00	; 0
    3250:	0c bf       	out	0x3c, r16	; 60

00003252 <__do_copy_data>:
    3252:	14 e0       	ldi	r17, 0x04	; 4
    3254:	a0 e0       	ldi	r26, 0x00	; 0
    3256:	b2 e0       	ldi	r27, 0x02	; 2
    3258:	e0 ef       	ldi	r30, 0xF0	; 240
    325a:	fb e9       	ldi	r31, 0x9B	; 155
    325c:	00 e0       	ldi	r16, 0x00	; 0
    325e:	0b bf       	out	0x3b, r16	; 59
    3260:	02 c0       	rjmp	.+4      	; 0x3266 <__do_copy_data+0x14>
    3262:	07 90       	elpm	r0, Z+
    3264:	0d 92       	st	X+, r0
    3266:	a8 3b       	cpi	r26, 0xB8	; 184
    3268:	b1 07       	cpc	r27, r17
    326a:	d9 f7       	brne	.-10     	; 0x3262 <__do_copy_data+0x10>

0000326c <__do_clear_bss>:
    326c:	2a e0       	ldi	r18, 0x0A	; 10
    326e:	a8 eb       	ldi	r26, 0xB8	; 184
    3270:	b4 e0       	ldi	r27, 0x04	; 4
    3272:	01 c0       	rjmp	.+2      	; 0x3276 <.do_clear_bss_start>

00003274 <.do_clear_bss_loop>:
    3274:	1d 92       	st	X+, r1

00003276 <.do_clear_bss_start>:
    3276:	a6 3d       	cpi	r26, 0xD6	; 214
    3278:	b2 07       	cpc	r27, r18
    327a:	e1 f7       	brne	.-8      	; 0x3274 <.do_clear_bss_loop>

0000327c <__do_global_ctors>:
    327c:	19 e1       	ldi	r17, 0x19	; 25
    327e:	c0 e2       	ldi	r28, 0x20	; 32
    3280:	d9 e1       	ldi	r29, 0x19	; 25
    3282:	00 e0       	ldi	r16, 0x00	; 0
    3284:	06 c0       	rjmp	.+12     	; 0x3292 <__do_global_ctors+0x16>
    3286:	21 97       	sbiw	r28, 0x01	; 1
    3288:	01 09       	sbc	r16, r1
    328a:	80 2f       	mov	r24, r16
    328c:	fe 01       	movw	r30, r28
    328e:	0e 94 58 4b 	call	0x96b0	; 0x96b0 <__tablejump2__>
    3292:	cf 31       	cpi	r28, 0x1F	; 31
    3294:	d1 07       	cpc	r29, r17
    3296:	80 e0       	ldi	r24, 0x00	; 0
    3298:	08 07       	cpc	r16, r24
    329a:	a9 f7       	brne	.-22     	; 0x3286 <__do_global_ctors+0xa>
    329c:	0e 94 ae 2e 	call	0x5d5c	; 0x5d5c <main>
    32a0:	0c 94 e7 4d 	jmp	0x9bce	; 0x9bce <__do_global_dtors>

000032a4 <__bad_interrupt>:
    32a4:	0c 94 00 00 	jmp	0	; 0x0 <__vectors>

000032a8 <recChar>:

void recChar(char c)
{
	static char Temp[100];
	static uint8_t charCounter=0;
	Temp[charCounter++]=c;
    32a8:	e0 91 1c 05 	lds	r30, 0x051C	; 0x80051c <charCounter.1686>
    32ac:	91 e0       	ldi	r25, 0x01	; 1
    32ae:	9e 0f       	add	r25, r30
    32b0:	90 93 1c 05 	sts	0x051C, r25	; 0x80051c <charCounter.1686>
    32b4:	f0 e0       	ldi	r31, 0x00	; 0
    32b6:	e8 54       	subi	r30, 0x48	; 72
    32b8:	fb 4f       	sbci	r31, 0xFB	; 251
    32ba:	80 83       	st	Z, r24
	if(c=='\n')
    32bc:	8a 30       	cpi	r24, 0x0A	; 10
    32be:	89 f4       	brne	.+34     	; 0x32e2 <recChar+0x3a>
	{
		if(MCallBack!=NULL)
    32c0:	80 91 1d 05 	lds	r24, 0x051D	; 0x80051d <MCallBack>
    32c4:	90 91 1e 05 	lds	r25, 0x051E	; 0x80051e <MCallBack+0x1>
    32c8:	89 2b       	or	r24, r25
    32ca:	39 f0       	breq	.+14     	; 0x32da <recChar+0x32>
			MCallBack(Temp);
    32cc:	e0 91 1d 05 	lds	r30, 0x051D	; 0x80051d <MCallBack>
    32d0:	f0 91 1e 05 	lds	r31, 0x051E	; 0x80051e <MCallBack+0x1>
    32d4:	88 eb       	ldi	r24, 0xB8	; 184
    32d6:	94 e0       	ldi	r25, 0x04	; 4
    32d8:	19 95       	eicall
		Temp[0]='\0';
    32da:	10 92 b8 04 	sts	0x04B8, r1	; 0x8004b8 <__data_end>
		charCounter=0;
    32de:	10 92 1c 05 	sts	0x051C, r1	; 0x80051c <charCounter.1686>
    32e2:	08 95       	ret

000032e4 <ESP8266_registerMessageCallback>:
volatile static MessageCallBackFunction MCallBack = NULL;


void ESP8266_registerMessageCallback(MessageCallBackFunction callBack)
{
	MCallBack=callBack;
    32e4:	90 93 1e 05 	sts	0x051E, r25	; 0x80051e <MCallBack+0x1>
    32e8:	80 93 1d 05 	sts	0x051D, r24	; 0x80051d <MCallBack>
    32ec:	08 95       	ret

000032ee <ESP8266_Init>:
		charCounter=0;
	}
}

void ESP8266_Init()
{
    32ee:	ef 92       	push	r14
    32f0:	0f 93       	push	r16
	uart1_init_x(BAUD_RATE,1,1,1,1);
    32f2:	ee 24       	eor	r14, r14
    32f4:	e3 94       	inc	r14
    32f6:	01 e0       	ldi	r16, 0x01	; 1
    32f8:	21 e0       	ldi	r18, 0x01	; 1
    32fa:	41 e0       	ldi	r20, 0x01	; 1
    32fc:	60 e0       	ldi	r22, 0x00	; 0
    32fe:	7d e2       	ldi	r23, 0x2D	; 45
    3300:	80 e0       	ldi	r24, 0x00	; 0
    3302:	90 e0       	ldi	r25, 0x00	; 0
    3304:	0e 94 8c 2c 	call	0x5918	; 0x5918 <uart1_init_x>
	uart1_registerCallBack(recChar);
    3308:	84 e5       	ldi	r24, 0x54	; 84
    330a:	99 e1       	ldi	r25, 0x19	; 25
}
    330c:	0f 91       	pop	r16
    330e:	ef 90       	pop	r14
}

void ESP8266_Init()
{
	uart1_init_x(BAUD_RATE,1,1,1,1);
	uart1_registerCallBack(recChar);
    3310:	0c 94 a2 2c 	jmp	0x5944	; 0x5944 <uart1_registerCallBack>

00003314 <ESP8266_sendMessage>:
}

void ESP8266_sendMessage(char Message[])
{
    3314:	cf 92       	push	r12
    3316:	df 92       	push	r13
    3318:	ef 92       	push	r14
    331a:	ff 92       	push	r15
    331c:	0f 93       	push	r16
    331e:	1f 93       	push	r17
    3320:	cf 93       	push	r28
    3322:	df 93       	push	r29
    3324:	cd b7       	in	r28, 0x3d	; 61
    3326:	de b7       	in	r29, 0x3e	; 62
    3328:	8c 01       	movw	r16, r24
	char temp[strlen(Message)+2];
	strcpy(temp,Message);
	temp[strlen(Message)+1]='<';
	uart1_puts(temp);
}
    332a:	ed b6       	in	r14, 0x3d	; 61
    332c:	fe b6       	in	r15, 0x3e	; 62
	uart1_registerCallBack(recChar);
}

void ESP8266_sendMessage(char Message[])
{
	char temp[strlen(Message)+2];
    332e:	fc 01       	movw	r30, r24
    3330:	01 90       	ld	r0, Z+
    3332:	00 20       	and	r0, r0
    3334:	e9 f7       	brne	.-6      	; 0x3330 <ESP8266_sendMessage+0x1c>
    3336:	cf 01       	movw	r24, r30
    3338:	80 1b       	sub	r24, r16
    333a:	91 0b       	sbc	r25, r17
    333c:	01 96       	adiw	r24, 0x01	; 1
    333e:	2d b7       	in	r18, 0x3d	; 61
    3340:	3e b7       	in	r19, 0x3e	; 62
    3342:	28 1b       	sub	r18, r24
    3344:	39 0b       	sbc	r19, r25
    3346:	0f b6       	in	r0, 0x3f	; 63
    3348:	f8 94       	cli
    334a:	3e bf       	out	0x3e, r19	; 62
    334c:	0f be       	out	0x3f, r0	; 63
    334e:	2d bf       	out	0x3d, r18	; 61
    3350:	8d b7       	in	r24, 0x3d	; 61
    3352:	9e b7       	in	r25, 0x3e	; 62
    3354:	01 96       	adiw	r24, 0x01	; 1
    3356:	6c 01       	movw	r12, r24
	strcpy(temp,Message);
    3358:	b8 01       	movw	r22, r16
    335a:	0e 94 9e 4d 	call	0x9b3c	; 0x9b3c <strcpy>
	temp[strlen(Message)+1]='<';
    335e:	f8 01       	movw	r30, r16
    3360:	01 90       	ld	r0, Z+
    3362:	00 20       	and	r0, r0
    3364:	e9 f7       	brne	.-6      	; 0x3360 <ESP8266_sendMessage+0x4c>
    3366:	31 97       	sbiw	r30, 0x01	; 1
    3368:	e0 1b       	sub	r30, r16
    336a:	f1 0b       	sbc	r31, r17
    336c:	ec 0d       	add	r30, r12
    336e:	fd 1d       	adc	r31, r13
    3370:	8c e3       	ldi	r24, 0x3C	; 60
    3372:	81 83       	std	Z+1, r24	; 0x01
	uart1_puts(temp);
    3374:	c6 01       	movw	r24, r12
    3376:	0e 94 b2 2c 	call	0x5964	; 0x5964 <uart1_puts>
}
    337a:	0f b6       	in	r0, 0x3f	; 63
    337c:	f8 94       	cli
    337e:	fe be       	out	0x3e, r15	; 62
    3380:	0f be       	out	0x3f, r0	; 63
    3382:	ed be       	out	0x3d, r14	; 61
    3384:	df 91       	pop	r29
    3386:	cf 91       	pop	r28
    3388:	1f 91       	pop	r17
    338a:	0f 91       	pop	r16
    338c:	ff 90       	pop	r15
    338e:	ef 90       	pop	r14
    3390:	df 90       	pop	r13
    3392:	cf 90       	pop	r12
    3394:	08 95       	ret

00003396 <ESP8266_isConnected>:

uint8_t ESP8266_isConnected()
{
	return 1;
    3396:	81 e0       	ldi	r24, 0x01	; 1
    3398:	08 95       	ret

0000339a <_Z6addLog6String>:
		myGLCD.fillRoundRect (175, 0, 145, 20);
	}else if(ActiveScreen==3)
	{
		drawMsgBox();
	}
}
    339a:	0f 93       	push	r16
    339c:	1f 93       	push	r17
    339e:	cf 93       	push	r28
    33a0:	df 93       	push	r29
    33a2:	ec 01       	movw	r28, r24
    33a4:	20 91 de 09 	lds	r18, 0x09DE	; 0x8009de <LogLength>
    33a8:	2f 30       	cpi	r18, 0x0F	; 15
    33aa:	98 f4       	brcc	.+38     	; 0x33d2 <_Z6addLog6String+0x38>
    33ac:	36 e0       	ldi	r19, 0x06	; 6
    33ae:	23 9f       	mul	r18, r19
    33b0:	c0 01       	movw	r24, r0
    33b2:	11 24       	eor	r1, r1
    33b4:	be 01       	movw	r22, r28
    33b6:	81 52       	subi	r24, 0x21	; 33
    33b8:	96 4f       	sbci	r25, 0xF6	; 246
    33ba:	0e 94 43 30 	call	0x6086	; 0x6086 <_ZN6StringaSERKS_>
    33be:	80 91 de 09 	lds	r24, 0x09DE	; 0x8009de <LogLength>
    33c2:	8f 5f       	subi	r24, 0xFF	; 255
    33c4:	80 93 de 09 	sts	0x09DE, r24	; 0x8009de <LogLength>
    33c8:	df 91       	pop	r29
    33ca:	cf 91       	pop	r28
    33cc:	1f 91       	pop	r17
    33ce:	0f 91       	pop	r16
    33d0:	08 95       	ret
    33d2:	8f ed       	ldi	r24, 0xDF	; 223
    33d4:	99 e0       	ldi	r25, 0x09	; 9
    33d6:	8c 01       	movw	r16, r24
    33d8:	0a 5f       	subi	r16, 0xFA	; 250
    33da:	1f 4f       	sbci	r17, 0xFF	; 255
    33dc:	b8 01       	movw	r22, r16
    33de:	0e 94 43 30 	call	0x6086	; 0x6086 <_ZN6StringaSERKS_>
    33e2:	c8 01       	movw	r24, r16
    33e4:	03 53       	subi	r16, 0x33	; 51
    33e6:	1a 40       	sbci	r17, 0x0A	; 10
    33e8:	b1 f7       	brne	.-20     	; 0x33d6 <_Z6addLog6String+0x3c>
    33ea:	be 01       	movw	r22, r28
    33ec:	83 e3       	ldi	r24, 0x33	; 51
    33ee:	9a e0       	ldi	r25, 0x0A	; 10
    33f0:	df 91       	pop	r29
    33f2:	cf 91       	pop	r28
    33f4:	1f 91       	pop	r17
    33f6:	0f 91       	pop	r16
    33f8:	0c 94 43 30 	jmp	0x6086	; 0x6086 <_ZN6StringaSERKS_>

000033fc <_Z12BoolCallBackab>:
    33fc:	1f 93       	push	r17
    33fe:	cf 93       	push	r28
    3400:	df 93       	push	r29
    3402:	cd b7       	in	r28, 0x3d	; 61
    3404:	de b7       	in	r29, 0x3e	; 62
    3406:	a0 97       	sbiw	r28, 0x20	; 32
    3408:	0f b6       	in	r0, 0x3f	; 63
    340a:	f8 94       	cli
    340c:	de bf       	out	0x3e, r29	; 62
    340e:	0f be       	out	0x3f, r0	; 63
    3410:	cd bf       	out	0x3d, r28	; 61
    3412:	18 2f       	mov	r17, r24
    3414:	87 e0       	ldi	r24, 0x07	; 7
    3416:	e6 e0       	ldi	r30, 0x06	; 6
    3418:	f2 e0       	ldi	r31, 0x02	; 2
    341a:	de 01       	movw	r26, r28
    341c:	11 96       	adiw	r26, 0x01	; 1
    341e:	01 90       	ld	r0, Z+
    3420:	0d 92       	st	X+, r0
    3422:	8a 95       	dec	r24
    3424:	e1 f7       	brne	.-8      	; 0x341e <_Z12BoolCallBackab+0x22>
    3426:	fe 01       	movw	r30, r28
    3428:	38 96       	adiw	r30, 0x08	; 8
    342a:	83 e1       	ldi	r24, 0x13	; 19
    342c:	df 01       	movw	r26, r30
    342e:	1d 92       	st	X+, r1
    3430:	8a 95       	dec	r24
    3432:	e9 f7       	brne	.-6      	; 0x342e <_Z12BoolCallBackab+0x32>
    3434:	80 e3       	ldi	r24, 0x30	; 48
    3436:	81 0f       	add	r24, r17
    3438:	8f 83       	std	Y+7, r24	; 0x07
    343a:	18 86       	std	Y+8, r1	; 0x08
    343c:	66 23       	and	r22, r22
    343e:	19 f0       	breq	.+6      	; 0x3446 <_Z12BoolCallBackab+0x4a>
    3440:	60 ec       	ldi	r22, 0xC0	; 192
    3442:	72 e0       	ldi	r23, 0x02	; 2
    3444:	02 c0       	rjmp	.+4      	; 0x344a <_Z12BoolCallBackab+0x4e>
    3446:	62 ed       	ldi	r22, 0xD2	; 210
    3448:	72 e0       	ldi	r23, 0x02	; 2
    344a:	ce 01       	movw	r24, r28
    344c:	01 96       	adiw	r24, 0x01	; 1
    344e:	0e 94 93 4d 	call	0x9b26	; 0x9b26 <strcat>
    3452:	be 01       	movw	r22, r28
    3454:	6f 5f       	subi	r22, 0xFF	; 255
    3456:	7f 4f       	sbci	r23, 0xFF	; 255
    3458:	ce 01       	movw	r24, r28
    345a:	4b 96       	adiw	r24, 0x1b	; 27
    345c:	0e 94 2f 30 	call	0x605e	; 0x605e <_ZN6StringC1EPKc>
    3460:	ce 01       	movw	r24, r28
    3462:	4b 96       	adiw	r24, 0x1b	; 27
    3464:	9a df       	rcall	.-204    	; 0x339a <_Z6addLog6String>
    3466:	ce 01       	movw	r24, r28
    3468:	4b 96       	adiw	r24, 0x1b	; 27
    346a:	0e 94 c4 2f 	call	0x5f88	; 0x5f88 <_ZN6StringD1Ev>
    346e:	b8 e1       	ldi	r27, 0x18	; 24
    3470:	1b 02       	muls	r17, r27
    3472:	f0 01       	movw	r30, r0
    3474:	11 24       	eor	r1, r1
    3476:	ec 5d       	subi	r30, 0xDC	; 220
    3478:	fa 4f       	sbci	r31, 0xFA	; 250
    347a:	81 e0       	ldi	r24, 0x01	; 1
    347c:	82 83       	std	Z+2, r24	; 0x02
    347e:	a0 96       	adiw	r28, 0x20	; 32
    3480:	0f b6       	in	r0, 0x3f	; 63
    3482:	f8 94       	cli
    3484:	de bf       	out	0x3e, r29	; 62
    3486:	0f be       	out	0x3f, r0	; 63
    3488:	cd bf       	out	0x3d, r28	; 61
    348a:	df 91       	pop	r29
    348c:	cf 91       	pop	r28
    348e:	1f 91       	pop	r17
    3490:	08 95       	ret

00003492 <_Z8printLogv>:
    3492:	cf 92       	push	r12
    3494:	df 92       	push	r13
    3496:	ef 92       	push	r14
    3498:	ff 92       	push	r15
    349a:	0f 93       	push	r16
    349c:	1f 93       	push	r17
    349e:	cf 93       	push	r28
    34a0:	df 93       	push	r29
    34a2:	cd b7       	in	r28, 0x3d	; 61
    34a4:	de b7       	in	r29, 0x3e	; 62
    34a6:	62 97       	sbiw	r28, 0x12	; 18
    34a8:	0f b6       	in	r0, 0x3f	; 63
    34aa:	f8 94       	cli
    34ac:	de bf       	out	0x3e, r29	; 62
    34ae:	0f be       	out	0x3f, r0	; 63
    34b0:	cd bf       	out	0x3d, r28	; 61
    34b2:	2f ef       	ldi	r18, 0xFF	; 255
    34b4:	4f ef       	ldi	r20, 0xFF	; 255
    34b6:	6f ef       	ldi	r22, 0xFF	; 255
    34b8:	84 e7       	ldi	r24, 0x74	; 116
    34ba:	9a e0       	ldi	r25, 0x0A	; 10
    34bc:	0e 94 42 3f 	call	0x7e84	; 0x7e84 <_ZN4UTFT8setColorEhhh>
    34c0:	66 ea       	ldi	r22, 0xA6	; 166
    34c2:	7c e2       	ldi	r23, 0x2C	; 44
    34c4:	84 e7       	ldi	r24, 0x74	; 116
    34c6:	9a e0       	ldi	r25, 0x0A	; 10
    34c8:	0e 94 2f 49 	call	0x925e	; 0x925e <_ZN4UTFT7setFontEPh>
    34cc:	20 e0       	ldi	r18, 0x00	; 0
    34ce:	40 e0       	ldi	r20, 0x00	; 0
    34d0:	60 e0       	ldi	r22, 0x00	; 0
    34d2:	84 e7       	ldi	r24, 0x74	; 116
    34d4:	9a e0       	ldi	r25, 0x0A	; 10
    34d6:	0e 94 56 3f 	call	0x7eac	; 0x7eac <_ZN4UTFT12setBackColorEhhh>
    34da:	d1 2c       	mov	r13, r1
    34dc:	36 e0       	ldi	r19, 0x06	; 6
    34de:	c3 2e       	mov	r12, r19
    34e0:	80 91 de 09 	lds	r24, 0x09DE	; 0x8009de <LogLength>
    34e4:	d8 16       	cp	r13, r24
    34e6:	08 f0       	brcs	.+2      	; 0x34ea <_Z8printLogv+0x58>
    34e8:	5a c0       	rjmp	.+180    	; 0x359e <_Z8printLogv+0x10c>
    34ea:	ed 2c       	mov	r14, r13
    34ec:	f1 2c       	mov	r15, r1
    34ee:	ce 9c       	mul	r12, r14
    34f0:	b0 01       	movw	r22, r0
    34f2:	cf 9c       	mul	r12, r15
    34f4:	70 0d       	add	r23, r0
    34f6:	11 24       	eor	r1, r1
    34f8:	61 52       	subi	r22, 0x21	; 33
    34fa:	76 4f       	sbci	r23, 0xF6	; 246
    34fc:	fb 01       	movw	r30, r22
    34fe:	84 81       	ldd	r24, Z+4	; 0x04
    3500:	95 81       	ldd	r25, Z+5	; 0x05
    3502:	24 e0       	ldi	r18, 0x04	; 4
    3504:	ee 0c       	add	r14, r14
    3506:	ff 1c       	adc	r15, r15
    3508:	2a 95       	dec	r18
    350a:	e1 f7       	brne	.-8      	; 0x3504 <_Z8printLogv+0x72>
    350c:	89 97       	sbiw	r24, 0x29	; 41
    350e:	98 f4       	brcc	.+38     	; 0x3536 <_Z8printLogv+0xa4>
    3510:	ce 01       	movw	r24, r28
    3512:	01 96       	adiw	r24, 0x01	; 1
    3514:	0e 94 58 30 	call	0x60b0	; 0x60b0 <_ZN6StringC1ERKS_>
    3518:	00 e0       	ldi	r16, 0x00	; 0
    351a:	10 e0       	ldi	r17, 0x00	; 0
    351c:	97 01       	movw	r18, r14
    351e:	40 e0       	ldi	r20, 0x00	; 0
    3520:	50 e0       	ldi	r21, 0x00	; 0
    3522:	be 01       	movw	r22, r28
    3524:	6f 5f       	subi	r22, 0xFF	; 255
    3526:	7f 4f       	sbci	r23, 0xFF	; 255
    3528:	84 e7       	ldi	r24, 0x74	; 116
    352a:	9a e0       	ldi	r25, 0x0A	; 10
    352c:	0e 94 01 48 	call	0x9002	; 0x9002 <_ZN4UTFT5printE6Stringiii>
    3530:	ce 01       	movw	r24, r28
    3532:	01 96       	adiw	r24, 0x01	; 1
    3534:	30 c0       	rjmp	.+96     	; 0x3596 <_Z8printLogv+0x104>
    3536:	25 e2       	ldi	r18, 0x25	; 37
    3538:	30 e0       	ldi	r19, 0x00	; 0
    353a:	40 e0       	ldi	r20, 0x00	; 0
    353c:	50 e0       	ldi	r21, 0x00	; 0
    353e:	ce 01       	movw	r24, r28
    3540:	0d 96       	adiw	r24, 0x0d	; 13
    3542:	0e 94 6b 31 	call	0x62d6	; 0x62d6 <_ZNK6String9substringEjj>
    3546:	be 01       	movw	r22, r28
    3548:	63 5f       	subi	r22, 0xF3	; 243
    354a:	7f 4f       	sbci	r23, 0xFF	; 255
    354c:	ce 01       	movw	r24, r28
    354e:	07 96       	adiw	r24, 0x07	; 7
    3550:	0e 94 58 30 	call	0x60b0	; 0x60b0 <_ZN6StringC1ERKS_>
    3554:	65 ee       	ldi	r22, 0xE5	; 229
    3556:	72 e0       	ldi	r23, 0x02	; 2
    3558:	ce 01       	movw	r24, r28
    355a:	07 96       	adiw	r24, 0x07	; 7
    355c:	0e 94 fb 30 	call	0x61f6	; 0x61f6 <_ZplRK15StringSumHelperPKc>
    3560:	bc 01       	movw	r22, r24
    3562:	ce 01       	movw	r24, r28
    3564:	01 96       	adiw	r24, 0x01	; 1
    3566:	0e 94 58 30 	call	0x60b0	; 0x60b0 <_ZN6StringC1ERKS_>
    356a:	00 e0       	ldi	r16, 0x00	; 0
    356c:	10 e0       	ldi	r17, 0x00	; 0
    356e:	97 01       	movw	r18, r14
    3570:	40 e0       	ldi	r20, 0x00	; 0
    3572:	50 e0       	ldi	r21, 0x00	; 0
    3574:	be 01       	movw	r22, r28
    3576:	6f 5f       	subi	r22, 0xFF	; 255
    3578:	7f 4f       	sbci	r23, 0xFF	; 255
    357a:	84 e7       	ldi	r24, 0x74	; 116
    357c:	9a e0       	ldi	r25, 0x0A	; 10
    357e:	0e 94 01 48 	call	0x9002	; 0x9002 <_ZN4UTFT5printE6Stringiii>
    3582:	ce 01       	movw	r24, r28
    3584:	01 96       	adiw	r24, 0x01	; 1
    3586:	0e 94 c4 2f 	call	0x5f88	; 0x5f88 <_ZN6StringD1Ev>
    358a:	ce 01       	movw	r24, r28
    358c:	07 96       	adiw	r24, 0x07	; 7
    358e:	0e 94 c4 2f 	call	0x5f88	; 0x5f88 <_ZN6StringD1Ev>
    3592:	ce 01       	movw	r24, r28
    3594:	0d 96       	adiw	r24, 0x0d	; 13
    3596:	0e 94 c4 2f 	call	0x5f88	; 0x5f88 <_ZN6StringD1Ev>
    359a:	d3 94       	inc	r13
    359c:	a1 cf       	rjmp	.-190    	; 0x34e0 <_Z8printLogv+0x4e>
    359e:	62 96       	adiw	r28, 0x12	; 18
    35a0:	0f b6       	in	r0, 0x3f	; 63
    35a2:	f8 94       	cli
    35a4:	de bf       	out	0x3e, r29	; 62
    35a6:	0f be       	out	0x3f, r0	; 63
    35a8:	cd bf       	out	0x3d, r28	; 61
    35aa:	df 91       	pop	r29
    35ac:	cf 91       	pop	r28
    35ae:	1f 91       	pop	r17
    35b0:	0f 91       	pop	r16
    35b2:	ff 90       	pop	r15
    35b4:	ef 90       	pop	r14
    35b6:	df 90       	pop	r13
    35b8:	cf 90       	pop	r12
    35ba:	08 95       	ret

000035bc <_Z13DrawMenuEntry6Stringbi>:
    35bc:	7f 92       	push	r7
    35be:	8f 92       	push	r8
    35c0:	9f 92       	push	r9
    35c2:	af 92       	push	r10
    35c4:	bf 92       	push	r11
    35c6:	cf 92       	push	r12
    35c8:	df 92       	push	r13
    35ca:	ef 92       	push	r14
    35cc:	ff 92       	push	r15
    35ce:	0f 93       	push	r16
    35d0:	1f 93       	push	r17
    35d2:	cf 93       	push	r28
    35d4:	df 93       	push	r29
    35d6:	00 d0       	rcall	.+0      	; 0x35d8 <_Z13DrawMenuEntry6Stringbi+0x1c>
    35d8:	00 d0       	rcall	.+0      	; 0x35da <_Z13DrawMenuEntry6Stringbi+0x1e>
    35da:	cd b7       	in	r28, 0x3d	; 61
    35dc:	de b7       	in	r29, 0x3e	; 62
    35de:	4c 01       	movw	r8, r24
    35e0:	76 2e       	mov	r7, r22
    35e2:	8a 01       	movw	r16, r20
    35e4:	20 e0       	ldi	r18, 0x00	; 0
    35e6:	40 e0       	ldi	r20, 0x00	; 0
    35e8:	6f ef       	ldi	r22, 0xFF	; 255
    35ea:	84 e7       	ldi	r24, 0x74	; 116
    35ec:	9a e0       	ldi	r25, 0x0A	; 10
    35ee:	0e 94 42 3f 	call	0x7e84	; 0x7e84 <_ZN4UTFT8setColorEhhh>
    35f2:	8f e2       	ldi	r24, 0x2F	; 47
    35f4:	80 9f       	mul	r24, r16
    35f6:	70 01       	movw	r14, r0
    35f8:	81 9f       	mul	r24, r17
    35fa:	f0 0c       	add	r15, r0
    35fc:	11 24       	eor	r1, r1
    35fe:	a7 01       	movw	r20, r14
    3600:	4f 5f       	subi	r20, 0xFF	; 255
    3602:	5f 4f       	sbci	r21, 0xFF	; 255
    3604:	8a 01       	movw	r16, r20
    3606:	21 e2       	ldi	r18, 0x21	; 33
    3608:	31 e0       	ldi	r19, 0x01	; 1
    360a:	60 e0       	ldi	r22, 0x00	; 0
    360c:	70 e0       	ldi	r23, 0x00	; 0
    360e:	84 e7       	ldi	r24, 0x74	; 116
    3610:	9a e0       	ldi	r25, 0x0A	; 10
    3612:	0e 94 eb 42 	call	0x85d6	; 0x85d6 <_ZN4UTFT8drawLineEiiii>
    3616:	6a e0       	ldi	r22, 0x0A	; 10
    3618:	7d e0       	ldi	r23, 0x0D	; 13
    361a:	84 e7       	ldi	r24, 0x74	; 116
    361c:	9a e0       	ldi	r25, 0x0A	; 10
    361e:	0e 94 2f 49 	call	0x925e	; 0x925e <_ZN4UTFT7setFontEPh>
    3622:	20 e4       	ldi	r18, 0x40	; 64
    3624:	40 e4       	ldi	r20, 0x40	; 64
    3626:	60 e4       	ldi	r22, 0x40	; 64
    3628:	84 e7       	ldi	r24, 0x74	; 116
    362a:	9a e0       	ldi	r25, 0x0A	; 10
    362c:	0e 94 42 3f 	call	0x7e84	; 0x7e84 <_ZN4UTFT8setColorEhhh>
    3630:	67 01       	movw	r12, r14
    3632:	8f e2       	ldi	r24, 0x2F	; 47
    3634:	c8 0e       	add	r12, r24
    3636:	d1 1c       	adc	r13, r1
    3638:	a7 01       	movw	r20, r14
    363a:	4e 5f       	subi	r20, 0xFE	; 254
    363c:	5f 4f       	sbci	r21, 0xFF	; 255
    363e:	86 01       	movw	r16, r12
    3640:	21 e2       	ldi	r18, 0x21	; 33
    3642:	31 e0       	ldi	r19, 0x01	; 1
    3644:	60 e0       	ldi	r22, 0x00	; 0
    3646:	70 e0       	ldi	r23, 0x00	; 0
    3648:	84 e7       	ldi	r24, 0x74	; 116
    364a:	9a e0       	ldi	r25, 0x0A	; 10
    364c:	0e 94 f0 41 	call	0x83e0	; 0x83e0 <_ZN4UTFT8fillRectEiiii>
    3650:	2f ef       	ldi	r18, 0xFF	; 255
    3652:	4f ef       	ldi	r20, 0xFF	; 255
    3654:	6f ef       	ldi	r22, 0xFF	; 255
    3656:	84 e7       	ldi	r24, 0x74	; 116
    3658:	9a e0       	ldi	r25, 0x0A	; 10
    365a:	0e 94 42 3f 	call	0x7e84	; 0x7e84 <_ZN4UTFT8setColorEhhh>
    365e:	20 e4       	ldi	r18, 0x40	; 64
    3660:	40 e4       	ldi	r20, 0x40	; 64
    3662:	60 e4       	ldi	r22, 0x40	; 64
    3664:	84 e7       	ldi	r24, 0x74	; 116
    3666:	9a e0       	ldi	r25, 0x0A	; 10
    3668:	0e 94 56 3f 	call	0x7eac	; 0x7eac <_ZN4UTFT12setBackColorEhhh>
    366c:	6a e0       	ldi	r22, 0x0A	; 10
    366e:	7d e0       	ldi	r23, 0x0D	; 13
    3670:	84 e7       	ldi	r24, 0x74	; 116
    3672:	9a e0       	ldi	r25, 0x0A	; 10
    3674:	0e 94 2f 49 	call	0x925e	; 0x925e <_ZN4UTFT7setFontEPh>
    3678:	57 01       	movw	r10, r14
    367a:	81 e1       	ldi	r24, 0x11	; 17
    367c:	a8 0e       	add	r10, r24
    367e:	b1 1c       	adc	r11, r1
    3680:	b4 01       	movw	r22, r8
    3682:	ce 01       	movw	r24, r28
    3684:	01 96       	adiw	r24, 0x01	; 1
    3686:	0e 94 58 30 	call	0x60b0	; 0x60b0 <_ZN6StringC1ERKS_>
    368a:	00 e0       	ldi	r16, 0x00	; 0
    368c:	10 e0       	ldi	r17, 0x00	; 0
    368e:	95 01       	movw	r18, r10
    3690:	40 e0       	ldi	r20, 0x00	; 0
    3692:	50 e0       	ldi	r21, 0x00	; 0
    3694:	be 01       	movw	r22, r28
    3696:	6f 5f       	subi	r22, 0xFF	; 255
    3698:	7f 4f       	sbci	r23, 0xFF	; 255
    369a:	84 e7       	ldi	r24, 0x74	; 116
    369c:	9a e0       	ldi	r25, 0x0A	; 10
    369e:	0e 94 01 48 	call	0x9002	; 0x9002 <_ZN4UTFT5printE6Stringiii>
    36a2:	ce 01       	movw	r24, r28
    36a4:	01 96       	adiw	r24, 0x01	; 1
    36a6:	0e 94 c4 2f 	call	0x5f88	; 0x5f88 <_ZN6StringD1Ev>
    36aa:	20 e0       	ldi	r18, 0x00	; 0
    36ac:	40 e0       	ldi	r20, 0x00	; 0
    36ae:	6f ef       	ldi	r22, 0xFF	; 255
    36b0:	84 e7       	ldi	r24, 0x74	; 116
    36b2:	9a e0       	ldi	r25, 0x0A	; 10
    36b4:	0e 94 42 3f 	call	0x7e84	; 0x7e84 <_ZN4UTFT8setColorEhhh>
    36b8:	86 01       	movw	r16, r12
    36ba:	21 e2       	ldi	r18, 0x21	; 33
    36bc:	31 e0       	ldi	r19, 0x01	; 1
    36be:	a6 01       	movw	r20, r12
    36c0:	60 e0       	ldi	r22, 0x00	; 0
    36c2:	70 e0       	ldi	r23, 0x00	; 0
    36c4:	84 e7       	ldi	r24, 0x74	; 116
    36c6:	9a e0       	ldi	r25, 0x0A	; 10
    36c8:	0e 94 eb 42 	call	0x85d6	; 0x85d6 <_ZN4UTFT8drawLineEiiii>
    36cc:	01 52       	subi	r16, 0x21	; 33
    36ce:	11 09       	sbc	r17, r1
    36d0:	a7 01       	movw	r20, r14
    36d2:	4e 5d       	subi	r20, 0xDE	; 222
    36d4:	5f 4f       	sbci	r21, 0xFF	; 255
    36d6:	23 e1       	ldi	r18, 0x13	; 19
    36d8:	31 e0       	ldi	r19, 0x01	; 1
    36da:	6f ef       	ldi	r22, 0xFF	; 255
    36dc:	70 e0       	ldi	r23, 0x00	; 0
    36de:	84 e7       	ldi	r24, 0x74	; 116
    36e0:	9a e0       	ldi	r25, 0x0A	; 10
    36e2:	0e 94 fa 40 	call	0x81f4	; 0x81f4 <_ZN4UTFT8drawRectEiiii>
    36e6:	77 20       	and	r7, r7
    36e8:	21 f0       	breq	.+8      	; 0x36f2 <_Z13DrawMenuEntry6Stringbi+0x136>
    36ea:	20 e0       	ldi	r18, 0x00	; 0
    36ec:	40 e0       	ldi	r20, 0x00	; 0
    36ee:	6f ef       	ldi	r22, 0xFF	; 255
    36f0:	03 c0       	rjmp	.+6      	; 0x36f8 <_Z13DrawMenuEntry6Stringbi+0x13c>
    36f2:	20 e4       	ldi	r18, 0x40	; 64
    36f4:	40 e4       	ldi	r20, 0x40	; 64
    36f6:	60 e4       	ldi	r22, 0x40	; 64
    36f8:	84 e7       	ldi	r24, 0x74	; 116
    36fa:	9a e0       	ldi	r25, 0x0A	; 10
    36fc:	0e 94 42 3f 	call	0x7e84	; 0x7e84 <_ZN4UTFT8setColorEhhh>
    3700:	a7 01       	movw	r20, r14
    3702:	41 5e       	subi	r20, 0xE1	; 225
    3704:	5f 4f       	sbci	r21, 0xFF	; 255
    3706:	85 01       	movw	r16, r10
    3708:	20 e1       	ldi	r18, 0x10	; 16
    370a:	31 e0       	ldi	r19, 0x01	; 1
    370c:	62 e0       	ldi	r22, 0x02	; 2
    370e:	71 e0       	ldi	r23, 0x01	; 1
    3710:	84 e7       	ldi	r24, 0x74	; 116
    3712:	9a e0       	ldi	r25, 0x0A	; 10
    3714:	0e 94 f0 41 	call	0x83e0	; 0x83e0 <_ZN4UTFT8fillRectEiiii>
    3718:	26 96       	adiw	r28, 0x06	; 6
    371a:	0f b6       	in	r0, 0x3f	; 63
    371c:	f8 94       	cli
    371e:	de bf       	out	0x3e, r29	; 62
    3720:	0f be       	out	0x3f, r0	; 63
    3722:	cd bf       	out	0x3d, r28	; 61
    3724:	df 91       	pop	r29
    3726:	cf 91       	pop	r28
    3728:	1f 91       	pop	r17
    372a:	0f 91       	pop	r16
    372c:	ff 90       	pop	r15
    372e:	ef 90       	pop	r14
    3730:	df 90       	pop	r13
    3732:	cf 90       	pop	r12
    3734:	bf 90       	pop	r11
    3736:	af 90       	pop	r10
    3738:	9f 90       	pop	r9
    373a:	8f 90       	pop	r8
    373c:	7f 90       	pop	r7
    373e:	08 95       	ret

00003740 <_Z22DrawMenuEntryIntNumberi6Stringi>:
    3740:	2f 92       	push	r2
    3742:	3f 92       	push	r3
    3744:	4f 92       	push	r4
    3746:	5f 92       	push	r5
    3748:	6f 92       	push	r6
    374a:	7f 92       	push	r7
    374c:	8f 92       	push	r8
    374e:	9f 92       	push	r9
    3750:	af 92       	push	r10
    3752:	bf 92       	push	r11
    3754:	cf 92       	push	r12
    3756:	df 92       	push	r13
    3758:	ef 92       	push	r14
    375a:	ff 92       	push	r15
    375c:	0f 93       	push	r16
    375e:	1f 93       	push	r17
    3760:	cf 93       	push	r28
    3762:	df 93       	push	r29
    3764:	00 d0       	rcall	.+0      	; 0x3766 <_Z22DrawMenuEntryIntNumberi6Stringi+0x26>
    3766:	00 d0       	rcall	.+0      	; 0x3768 <_Z22DrawMenuEntryIntNumberi6Stringi+0x28>
    3768:	cd b7       	in	r28, 0x3d	; 61
    376a:	de b7       	in	r29, 0x3e	; 62
    376c:	6c 01       	movw	r12, r24
    376e:	4b 01       	movw	r8, r22
    3770:	8a 01       	movw	r16, r20
    3772:	20 e0       	ldi	r18, 0x00	; 0
    3774:	40 e0       	ldi	r20, 0x00	; 0
    3776:	6f ef       	ldi	r22, 0xFF	; 255
    3778:	84 e7       	ldi	r24, 0x74	; 116
    377a:	9a e0       	ldi	r25, 0x0A	; 10
    377c:	0e 94 42 3f 	call	0x7e84	; 0x7e84 <_ZN4UTFT8setColorEhhh>
    3780:	8f e2       	ldi	r24, 0x2F	; 47
    3782:	80 9f       	mul	r24, r16
    3784:	70 01       	movw	r14, r0
    3786:	81 9f       	mul	r24, r17
    3788:	f0 0c       	add	r15, r0
    378a:	11 24       	eor	r1, r1
    378c:	a7 01       	movw	r20, r14
    378e:	4f 5f       	subi	r20, 0xFF	; 255
    3790:	5f 4f       	sbci	r21, 0xFF	; 255
    3792:	8a 01       	movw	r16, r20
    3794:	21 e2       	ldi	r18, 0x21	; 33
    3796:	31 e0       	ldi	r19, 0x01	; 1
    3798:	60 e0       	ldi	r22, 0x00	; 0
    379a:	70 e0       	ldi	r23, 0x00	; 0
    379c:	84 e7       	ldi	r24, 0x74	; 116
    379e:	9a e0       	ldi	r25, 0x0A	; 10
    37a0:	0e 94 eb 42 	call	0x85d6	; 0x85d6 <_ZN4UTFT8drawLineEiiii>
    37a4:	6a e0       	ldi	r22, 0x0A	; 10
    37a6:	7d e0       	ldi	r23, 0x0D	; 13
    37a8:	84 e7       	ldi	r24, 0x74	; 116
    37aa:	9a e0       	ldi	r25, 0x0A	; 10
    37ac:	0e 94 2f 49 	call	0x925e	; 0x925e <_ZN4UTFT7setFontEPh>
    37b0:	20 e4       	ldi	r18, 0x40	; 64
    37b2:	40 e4       	ldi	r20, 0x40	; 64
    37b4:	60 e4       	ldi	r22, 0x40	; 64
    37b6:	84 e7       	ldi	r24, 0x74	; 116
    37b8:	9a e0       	ldi	r25, 0x0A	; 10
    37ba:	0e 94 42 3f 	call	0x7e84	; 0x7e84 <_ZN4UTFT8setColorEhhh>
    37be:	57 01       	movw	r10, r14
    37c0:	8f e2       	ldi	r24, 0x2F	; 47
    37c2:	a8 0e       	add	r10, r24
    37c4:	b1 1c       	adc	r11, r1
    37c6:	a7 01       	movw	r20, r14
    37c8:	4e 5f       	subi	r20, 0xFE	; 254
    37ca:	5f 4f       	sbci	r21, 0xFF	; 255
    37cc:	85 01       	movw	r16, r10
    37ce:	21 e2       	ldi	r18, 0x21	; 33
    37d0:	31 e0       	ldi	r19, 0x01	; 1
    37d2:	60 e0       	ldi	r22, 0x00	; 0
    37d4:	70 e0       	ldi	r23, 0x00	; 0
    37d6:	84 e7       	ldi	r24, 0x74	; 116
    37d8:	9a e0       	ldi	r25, 0x0A	; 10
    37da:	0e 94 f0 41 	call	0x83e0	; 0x83e0 <_ZN4UTFT8fillRectEiiii>
    37de:	2f ef       	ldi	r18, 0xFF	; 255
    37e0:	4f ef       	ldi	r20, 0xFF	; 255
    37e2:	6f ef       	ldi	r22, 0xFF	; 255
    37e4:	84 e7       	ldi	r24, 0x74	; 116
    37e6:	9a e0       	ldi	r25, 0x0A	; 10
    37e8:	0e 94 42 3f 	call	0x7e84	; 0x7e84 <_ZN4UTFT8setColorEhhh>
    37ec:	20 e4       	ldi	r18, 0x40	; 64
    37ee:	40 e4       	ldi	r20, 0x40	; 64
    37f0:	60 e4       	ldi	r22, 0x40	; 64
    37f2:	84 e7       	ldi	r24, 0x74	; 116
    37f4:	9a e0       	ldi	r25, 0x0A	; 10
    37f6:	0e 94 56 3f 	call	0x7eac	; 0x7eac <_ZN4UTFT12setBackColorEhhh>
    37fa:	6a e0       	ldi	r22, 0x0A	; 10
    37fc:	7d e0       	ldi	r23, 0x0D	; 13
    37fe:	84 e7       	ldi	r24, 0x74	; 116
    3800:	9a e0       	ldi	r25, 0x0A	; 10
    3802:	0e 94 2f 49 	call	0x925e	; 0x925e <_ZN4UTFT7setFontEPh>
    3806:	b4 01       	movw	r22, r8
    3808:	ce 01       	movw	r24, r28
    380a:	01 96       	adiw	r24, 0x01	; 1
    380c:	0e 94 58 30 	call	0x60b0	; 0x60b0 <_ZN6StringC1ERKS_>
    3810:	97 01       	movw	r18, r14
    3812:	2f 5e       	subi	r18, 0xEF	; 239
    3814:	3f 4f       	sbci	r19, 0xFF	; 255
    3816:	00 e0       	ldi	r16, 0x00	; 0
    3818:	10 e0       	ldi	r17, 0x00	; 0
    381a:	40 e0       	ldi	r20, 0x00	; 0
    381c:	50 e0       	ldi	r21, 0x00	; 0
    381e:	be 01       	movw	r22, r28
    3820:	6f 5f       	subi	r22, 0xFF	; 255
    3822:	7f 4f       	sbci	r23, 0xFF	; 255
    3824:	84 e7       	ldi	r24, 0x74	; 116
    3826:	9a e0       	ldi	r25, 0x0A	; 10
    3828:	0e 94 01 48 	call	0x9002	; 0x9002 <_ZN4UTFT5printE6Stringiii>
    382c:	ce 01       	movw	r24, r28
    382e:	01 96       	adiw	r24, 0x01	; 1
    3830:	0e 94 c4 2f 	call	0x5f88	; 0x5f88 <_ZN6StringD1Ev>
    3834:	20 e0       	ldi	r18, 0x00	; 0
    3836:	40 e0       	ldi	r20, 0x00	; 0
    3838:	6f ef       	ldi	r22, 0xFF	; 255
    383a:	84 e7       	ldi	r24, 0x74	; 116
    383c:	9a e0       	ldi	r25, 0x0A	; 10
    383e:	0e 94 42 3f 	call	0x7e84	; 0x7e84 <_ZN4UTFT8setColorEhhh>
    3842:	85 01       	movw	r16, r10
    3844:	21 e2       	ldi	r18, 0x21	; 33
    3846:	31 e0       	ldi	r19, 0x01	; 1
    3848:	a5 01       	movw	r20, r10
    384a:	60 e0       	ldi	r22, 0x00	; 0
    384c:	70 e0       	ldi	r23, 0x00	; 0
    384e:	84 e7       	ldi	r24, 0x74	; 116
    3850:	9a e0       	ldi	r25, 0x0A	; 10
    3852:	0e 94 eb 42 	call	0x85d6	; 0x85d6 <_ZN4UTFT8drawLineEiiii>
    3856:	20 e0       	ldi	r18, 0x00	; 0
    3858:	40 e0       	ldi	r20, 0x00	; 0
    385a:	6f ef       	ldi	r22, 0xFF	; 255
    385c:	84 e7       	ldi	r24, 0x74	; 116
    385e:	9a e0       	ldi	r25, 0x0A	; 10
    3860:	0e 94 42 3f 	call	0x7e84	; 0x7e84 <_ZN4UTFT8setColorEhhh>
    3864:	27 01       	movw	r4, r14
    3866:	84 e2       	ldi	r24, 0x24	; 36
    3868:	48 0e       	add	r4, r24
    386a:	51 1c       	adc	r5, r1
    386c:	37 01       	movw	r6, r14
    386e:	8c e0       	ldi	r24, 0x0C	; 12
    3870:	68 0e       	add	r6, r24
    3872:	71 1c       	adc	r7, r1
    3874:	82 01       	movw	r16, r4
    3876:	28 e1       	ldi	r18, 0x18	; 24
    3878:	31 e0       	ldi	r19, 0x01	; 1
    387a:	a3 01       	movw	r20, r6
    387c:	64 e0       	ldi	r22, 0x04	; 4
    387e:	71 e0       	ldi	r23, 0x01	; 1
    3880:	84 e7       	ldi	r24, 0x74	; 116
    3882:	9a e0       	ldi	r25, 0x0A	; 10
    3884:	0e 94 ef 3f 	call	0x7fde	; 0x7fde <_ZN4UTFT13fillRoundRectEiiii>
    3888:	20 e0       	ldi	r18, 0x00	; 0
    388a:	40 e0       	ldi	r20, 0x00	; 0
    388c:	60 e0       	ldi	r22, 0x00	; 0
    388e:	84 e7       	ldi	r24, 0x74	; 116
    3890:	9a e0       	ldi	r25, 0x0A	; 10
    3892:	0e 94 42 3f 	call	0x7e84	; 0x7e84 <_ZN4UTFT8setColorEhhh>
    3896:	47 01       	movw	r8, r14
    3898:	83 e2       	ldi	r24, 0x23	; 35
    389a:	88 0e       	add	r8, r24
    389c:	91 1c       	adc	r9, r1
    389e:	57 01       	movw	r10, r14
    38a0:	8d e0       	ldi	r24, 0x0D	; 13
    38a2:	a8 0e       	add	r10, r24
    38a4:	b1 1c       	adc	r11, r1
    38a6:	84 01       	movw	r16, r8
    38a8:	27 e1       	ldi	r18, 0x17	; 23
    38aa:	31 e0       	ldi	r19, 0x01	; 1
    38ac:	a5 01       	movw	r20, r10
    38ae:	65 e0       	ldi	r22, 0x05	; 5
    38b0:	71 e0       	ldi	r23, 0x01	; 1
    38b2:	84 e7       	ldi	r24, 0x74	; 116
    38b4:	9a e0       	ldi	r25, 0x0A	; 10
    38b6:	0e 94 ef 3f 	call	0x7fde	; 0x7fde <_ZN4UTFT13fillRoundRectEiiii>
    38ba:	2f ef       	ldi	r18, 0xFF	; 255
    38bc:	4f ef       	ldi	r20, 0xFF	; 255
    38be:	6f ef       	ldi	r22, 0xFF	; 255
    38c0:	84 e7       	ldi	r24, 0x74	; 116
    38c2:	9a e0       	ldi	r25, 0x0A	; 10
    38c4:	0e 94 42 3f 	call	0x7e84	; 0x7e84 <_ZN4UTFT8setColorEhhh>
    38c8:	20 e0       	ldi	r18, 0x00	; 0
    38ca:	40 e0       	ldi	r20, 0x00	; 0
    38cc:	60 e0       	ldi	r22, 0x00	; 0
    38ce:	84 e7       	ldi	r24, 0x74	; 116
    38d0:	9a e0       	ldi	r25, 0x0A	; 10
    38d2:	0e 94 56 3f 	call	0x7eac	; 0x7eac <_ZN4UTFT12setBackColorEhhh>
    38d6:	6a e0       	ldi	r22, 0x0A	; 10
    38d8:	7d e0       	ldi	r23, 0x0D	; 13
    38da:	84 e7       	ldi	r24, 0x74	; 116
    38dc:	9a e0       	ldi	r25, 0x0A	; 10
    38de:	0e 94 2f 49 	call	0x925e	; 0x925e <_ZN4UTFT7setFontEPh>
    38e2:	17 01       	movw	r2, r14
    38e4:	8f e0       	ldi	r24, 0x0F	; 15
    38e6:	28 0e       	add	r2, r24
    38e8:	31 1c       	adc	r3, r1
    38ea:	00 e0       	ldi	r16, 0x00	; 0
    38ec:	10 e0       	ldi	r17, 0x00	; 0
    38ee:	91 01       	movw	r18, r2
    38f0:	46 e0       	ldi	r20, 0x06	; 6
    38f2:	51 e0       	ldi	r21, 0x01	; 1
    38f4:	69 ee       	ldi	r22, 0xE9	; 233
    38f6:	72 e0       	ldi	r23, 0x02	; 2
    38f8:	84 e7       	ldi	r24, 0x74	; 116
    38fa:	9a e0       	ldi	r25, 0x0A	; 10
    38fc:	0e 94 5b 47 	call	0x8eb6	; 0x8eb6 <_ZN4UTFT5printEPciii>
    3900:	20 e0       	ldi	r18, 0x00	; 0
    3902:	40 e0       	ldi	r20, 0x00	; 0
    3904:	6f ef       	ldi	r22, 0xFF	; 255
    3906:	84 e7       	ldi	r24, 0x74	; 116
    3908:	9a e0       	ldi	r25, 0x0A	; 10
    390a:	0e 94 42 3f 	call	0x7e84	; 0x7e84 <_ZN4UTFT8setColorEhhh>
    390e:	82 01       	movw	r16, r4
    3910:	23 e0       	ldi	r18, 0x03	; 3
    3912:	31 e0       	ldi	r19, 0x01	; 1
    3914:	a3 01       	movw	r20, r6
    3916:	66 ee       	ldi	r22, 0xE6	; 230
    3918:	70 e0       	ldi	r23, 0x00	; 0
    391a:	84 e7       	ldi	r24, 0x74	; 116
    391c:	9a e0       	ldi	r25, 0x0A	; 10
    391e:	0e 94 ef 3f 	call	0x7fde	; 0x7fde <_ZN4UTFT13fillRoundRectEiiii>
    3922:	20 e0       	ldi	r18, 0x00	; 0
    3924:	40 e0       	ldi	r20, 0x00	; 0
    3926:	60 e0       	ldi	r22, 0x00	; 0
    3928:	84 e7       	ldi	r24, 0x74	; 116
    392a:	9a e0       	ldi	r25, 0x0A	; 10
    392c:	0e 94 42 3f 	call	0x7e84	; 0x7e84 <_ZN4UTFT8setColorEhhh>
    3930:	84 01       	movw	r16, r8
    3932:	22 e0       	ldi	r18, 0x02	; 2
    3934:	31 e0       	ldi	r19, 0x01	; 1
    3936:	a5 01       	movw	r20, r10
    3938:	67 ee       	ldi	r22, 0xE7	; 231
    393a:	70 e0       	ldi	r23, 0x00	; 0
    393c:	84 e7       	ldi	r24, 0x74	; 116
    393e:	9a e0       	ldi	r25, 0x0A	; 10
    3940:	0e 94 ef 3f 	call	0x7fde	; 0x7fde <_ZN4UTFT13fillRoundRectEiiii>
    3944:	2f ef       	ldi	r18, 0xFF	; 255
    3946:	4f ef       	ldi	r20, 0xFF	; 255
    3948:	6f ef       	ldi	r22, 0xFF	; 255
    394a:	84 e7       	ldi	r24, 0x74	; 116
    394c:	9a e0       	ldi	r25, 0x0A	; 10
    394e:	0e 94 42 3f 	call	0x7e84	; 0x7e84 <_ZN4UTFT8setColorEhhh>
    3952:	20 e0       	ldi	r18, 0x00	; 0
    3954:	40 e0       	ldi	r20, 0x00	; 0
    3956:	60 e0       	ldi	r22, 0x00	; 0
    3958:	84 e7       	ldi	r24, 0x74	; 116
    395a:	9a e0       	ldi	r25, 0x0A	; 10
    395c:	0e 94 56 3f 	call	0x7eac	; 0x7eac <_ZN4UTFT12setBackColorEhhh>
    3960:	66 ea       	ldi	r22, 0xA6	; 166
    3962:	7c e2       	ldi	r23, 0x2C	; 44
    3964:	84 e7       	ldi	r24, 0x74	; 116
    3966:	9a e0       	ldi	r25, 0x0A	; 10
    3968:	0e 94 2f 49 	call	0x925e	; 0x925e <_ZN4UTFT7setFontEPh>
    396c:	00 51       	subi	r16, 0x10	; 16
    396e:	11 09       	sbc	r17, r1
    3970:	a6 01       	movw	r20, r12
    3972:	dd 0c       	add	r13, r13
    3974:	66 0b       	sbc	r22, r22
    3976:	77 0b       	sbc	r23, r23
    3978:	80 e2       	ldi	r24, 0x20	; 32
    397a:	c8 2e       	mov	r12, r24
    397c:	93 e0       	ldi	r25, 0x03	; 3
    397e:	e9 2e       	mov	r14, r25
    3980:	f1 2c       	mov	r15, r1
    3982:	29 ee       	ldi	r18, 0xE9	; 233
    3984:	30 e0       	ldi	r19, 0x00	; 0
    3986:	84 e7       	ldi	r24, 0x74	; 116
    3988:	9a e0       	ldi	r25, 0x0A	; 10
    398a:	0e 94 47 48 	call	0x908e	; 0x908e <_ZN4UTFT9printNumIEliiic>
    398e:	20 e0       	ldi	r18, 0x00	; 0
    3990:	40 e0       	ldi	r20, 0x00	; 0
    3992:	6f ef       	ldi	r22, 0xFF	; 255
    3994:	84 e7       	ldi	r24, 0x74	; 116
    3996:	9a e0       	ldi	r25, 0x0A	; 10
    3998:	0e 94 42 3f 	call	0x7e84	; 0x7e84 <_ZN4UTFT8setColorEhhh>
    399c:	82 01       	movw	r16, r4
    399e:	25 ee       	ldi	r18, 0xE5	; 229
    39a0:	30 e0       	ldi	r19, 0x00	; 0
    39a2:	a3 01       	movw	r20, r6
    39a4:	62 ed       	ldi	r22, 0xD2	; 210
    39a6:	70 e0       	ldi	r23, 0x00	; 0
    39a8:	84 e7       	ldi	r24, 0x74	; 116
    39aa:	9a e0       	ldi	r25, 0x0A	; 10
    39ac:	0e 94 ef 3f 	call	0x7fde	; 0x7fde <_ZN4UTFT13fillRoundRectEiiii>
    39b0:	20 e0       	ldi	r18, 0x00	; 0
    39b2:	40 e0       	ldi	r20, 0x00	; 0
    39b4:	60 e0       	ldi	r22, 0x00	; 0
    39b6:	84 e7       	ldi	r24, 0x74	; 116
    39b8:	9a e0       	ldi	r25, 0x0A	; 10
    39ba:	0e 94 42 3f 	call	0x7e84	; 0x7e84 <_ZN4UTFT8setColorEhhh>
    39be:	84 01       	movw	r16, r8
    39c0:	24 ee       	ldi	r18, 0xE4	; 228
    39c2:	30 e0       	ldi	r19, 0x00	; 0
    39c4:	a5 01       	movw	r20, r10
    39c6:	63 ed       	ldi	r22, 0xD3	; 211
    39c8:	70 e0       	ldi	r23, 0x00	; 0
    39ca:	84 e7       	ldi	r24, 0x74	; 116
    39cc:	9a e0       	ldi	r25, 0x0A	; 10
    39ce:	0e 94 ef 3f 	call	0x7fde	; 0x7fde <_ZN4UTFT13fillRoundRectEiiii>
    39d2:	2f ef       	ldi	r18, 0xFF	; 255
    39d4:	4f ef       	ldi	r20, 0xFF	; 255
    39d6:	6f ef       	ldi	r22, 0xFF	; 255
    39d8:	84 e7       	ldi	r24, 0x74	; 116
    39da:	9a e0       	ldi	r25, 0x0A	; 10
    39dc:	0e 94 42 3f 	call	0x7e84	; 0x7e84 <_ZN4UTFT8setColorEhhh>
    39e0:	20 e0       	ldi	r18, 0x00	; 0
    39e2:	40 e0       	ldi	r20, 0x00	; 0
    39e4:	60 e0       	ldi	r22, 0x00	; 0
    39e6:	84 e7       	ldi	r24, 0x74	; 116
    39e8:	9a e0       	ldi	r25, 0x0A	; 10
    39ea:	0e 94 56 3f 	call	0x7eac	; 0x7eac <_ZN4UTFT12setBackColorEhhh>
    39ee:	6a e0       	ldi	r22, 0x0A	; 10
    39f0:	7d e0       	ldi	r23, 0x0D	; 13
    39f2:	84 e7       	ldi	r24, 0x74	; 116
    39f4:	9a e0       	ldi	r25, 0x0A	; 10
    39f6:	0e 94 2f 49 	call	0x925e	; 0x925e <_ZN4UTFT7setFontEPh>
    39fa:	00 e0       	ldi	r16, 0x00	; 0
    39fc:	10 e0       	ldi	r17, 0x00	; 0
    39fe:	91 01       	movw	r18, r2
    3a00:	44 ed       	ldi	r20, 0xD4	; 212
    3a02:	50 e0       	ldi	r21, 0x00	; 0
    3a04:	6b ee       	ldi	r22, 0xEB	; 235
    3a06:	72 e0       	ldi	r23, 0x02	; 2
    3a08:	84 e7       	ldi	r24, 0x74	; 116
    3a0a:	9a e0       	ldi	r25, 0x0A	; 10
    3a0c:	0e 94 5b 47 	call	0x8eb6	; 0x8eb6 <_ZN4UTFT5printEPciii>
    3a10:	26 96       	adiw	r28, 0x06	; 6
    3a12:	0f b6       	in	r0, 0x3f	; 63
    3a14:	f8 94       	cli
    3a16:	de bf       	out	0x3e, r29	; 62
    3a18:	0f be       	out	0x3f, r0	; 63
    3a1a:	cd bf       	out	0x3d, r28	; 61
    3a1c:	df 91       	pop	r29
    3a1e:	cf 91       	pop	r28
    3a20:	1f 91       	pop	r17
    3a22:	0f 91       	pop	r16
    3a24:	ff 90       	pop	r15
    3a26:	ef 90       	pop	r14
    3a28:	df 90       	pop	r13
    3a2a:	cf 90       	pop	r12
    3a2c:	bf 90       	pop	r11
    3a2e:	af 90       	pop	r10
    3a30:	9f 90       	pop	r9
    3a32:	8f 90       	pop	r8
    3a34:	7f 90       	pop	r7
    3a36:	6f 90       	pop	r6
    3a38:	5f 90       	pop	r5
    3a3a:	4f 90       	pop	r4
    3a3c:	3f 90       	pop	r3
    3a3e:	2f 90       	pop	r2
    3a40:	08 95       	ret

00003a42 <_Z12addMenuEntry6StringbPFvabE>:
    3a42:	0f 93       	push	r16
    3a44:	1f 93       	push	r17
    3a46:	cf 93       	push	r28
    3a48:	df 93       	push	r29
    3a4a:	d6 2f       	mov	r29, r22
    3a4c:	8a 01       	movw	r16, r20
    3a4e:	40 91 dc 09 	lds	r20, 0x09DC	; 0x8009dc <NumberOfMenuEntries>
    3a52:	50 91 dd 09 	lds	r21, 0x09DD	; 0x8009dd <NumberOfMenuEntries+0x1>
    3a56:	c8 e1       	ldi	r28, 0x18	; 24
    3a58:	c4 9f       	mul	r28, r20
    3a5a:	90 01       	movw	r18, r0
    3a5c:	c5 9f       	mul	r28, r21
    3a5e:	30 0d       	add	r19, r0
    3a60:	11 24       	eor	r1, r1
    3a62:	f9 01       	movw	r30, r18
    3a64:	ec 5d       	subi	r30, 0xDC	; 220
    3a66:	fa 4f       	sbci	r31, 0xFA	; 250
    3a68:	11 82       	std	Z+1, r1	; 0x01
    3a6a:	10 82       	st	Z, r1
    3a6c:	bc 01       	movw	r22, r24
    3a6e:	c9 01       	movw	r24, r18
    3a70:	89 5d       	subi	r24, 0xD9	; 217
    3a72:	9a 4f       	sbci	r25, 0xFA	; 250
    3a74:	0e 94 43 30 	call	0x6086	; 0x6086 <_ZN6StringaSERKS_>
    3a78:	80 91 dc 09 	lds	r24, 0x09DC	; 0x8009dc <NumberOfMenuEntries>
    3a7c:	90 91 dd 09 	lds	r25, 0x09DD	; 0x8009dd <NumberOfMenuEntries+0x1>
    3a80:	c8 9f       	mul	r28, r24
    3a82:	f0 01       	movw	r30, r0
    3a84:	c9 9f       	mul	r28, r25
    3a86:	f0 0d       	add	r31, r0
    3a88:	11 24       	eor	r1, r1
    3a8a:	ec 5d       	subi	r30, 0xDC	; 220
    3a8c:	fa 4f       	sbci	r31, 0xFA	; 250
    3a8e:	d1 87       	std	Z+9, r29	; 0x09
    3a90:	13 87       	std	Z+11, r17	; 0x0b
    3a92:	02 87       	std	Z+10, r16	; 0x0a
    3a94:	01 96       	adiw	r24, 0x01	; 1
    3a96:	90 93 dd 09 	sts	0x09DD, r25	; 0x8009dd <NumberOfMenuEntries+0x1>
    3a9a:	80 93 dc 09 	sts	0x09DC, r24	; 0x8009dc <NumberOfMenuEntries>
    3a9e:	df 91       	pop	r29
    3aa0:	cf 91       	pop	r28
    3aa2:	1f 91       	pop	r17
    3aa4:	0f 91       	pop	r16
    3aa6:	08 95       	ret

00003aa8 <_Z18addMenuEntryIntNum6StringiiPFvaiE>:
    3aa8:	cf 92       	push	r12
    3aaa:	df 92       	push	r13
    3aac:	ef 92       	push	r14
    3aae:	ff 92       	push	r15
    3ab0:	0f 93       	push	r16
    3ab2:	1f 93       	push	r17
    3ab4:	cf 93       	push	r28
    3ab6:	7b 01       	movw	r14, r22
    3ab8:	6a 01       	movw	r12, r20
    3aba:	89 01       	movw	r16, r18
    3abc:	40 91 dc 09 	lds	r20, 0x09DC	; 0x8009dc <NumberOfMenuEntries>
    3ac0:	50 91 dd 09 	lds	r21, 0x09DD	; 0x8009dd <NumberOfMenuEntries+0x1>
    3ac4:	c8 e1       	ldi	r28, 0x18	; 24
    3ac6:	c4 9f       	mul	r28, r20
    3ac8:	90 01       	movw	r18, r0
    3aca:	c5 9f       	mul	r28, r21
    3acc:	30 0d       	add	r19, r0
    3ace:	11 24       	eor	r1, r1
    3ad0:	f9 01       	movw	r30, r18
    3ad2:	ec 5d       	subi	r30, 0xDC	; 220
    3ad4:	fa 4f       	sbci	r31, 0xFA	; 250
    3ad6:	41 e0       	ldi	r20, 0x01	; 1
    3ad8:	50 e0       	ldi	r21, 0x00	; 0
    3ada:	51 83       	std	Z+1, r21	; 0x01
    3adc:	40 83       	st	Z, r20
    3ade:	bc 01       	movw	r22, r24
    3ae0:	c9 01       	movw	r24, r18
    3ae2:	80 5d       	subi	r24, 0xD0	; 208
    3ae4:	9a 4f       	sbci	r25, 0xFA	; 250
    3ae6:	0e 94 43 30 	call	0x6086	; 0x6086 <_ZN6StringaSERKS_>
    3aea:	80 91 dc 09 	lds	r24, 0x09DC	; 0x8009dc <NumberOfMenuEntries>
    3aee:	90 91 dd 09 	lds	r25, 0x09DD	; 0x8009dd <NumberOfMenuEntries+0x1>
    3af2:	c8 9f       	mul	r28, r24
    3af4:	f0 01       	movw	r30, r0
    3af6:	c9 9f       	mul	r28, r25
    3af8:	f0 0d       	add	r31, r0
    3afa:	11 24       	eor	r1, r1
    3afc:	ec 5d       	subi	r30, 0xDC	; 220
    3afe:	fa 4f       	sbci	r31, 0xFA	; 250
    3b00:	f3 8a       	std	Z+19, r15	; 0x13
    3b02:	e2 8a       	std	Z+18, r14	; 0x12
    3b04:	d5 8a       	std	Z+21, r13	; 0x15
    3b06:	c4 8a       	std	Z+20, r12	; 0x14
    3b08:	17 8b       	std	Z+23, r17	; 0x17
    3b0a:	06 8b       	std	Z+22, r16	; 0x16
    3b0c:	01 96       	adiw	r24, 0x01	; 1
    3b0e:	90 93 dd 09 	sts	0x09DD, r25	; 0x8009dd <NumberOfMenuEntries+0x1>
    3b12:	80 93 dc 09 	sts	0x09DC, r24	; 0x8009dc <NumberOfMenuEntries>
    3b16:	cf 91       	pop	r28
    3b18:	1f 91       	pop	r17
    3b1a:	0f 91       	pop	r16
    3b1c:	ff 90       	pop	r15
    3b1e:	ef 90       	pop	r14
    3b20:	df 90       	pop	r13
    3b22:	cf 90       	pop	r12
    3b24:	08 95       	ret

00003b26 <_Z13DrawInterfacev>:
    3b26:	ef 92       	push	r14
    3b28:	ff 92       	push	r15
    3b2a:	0f 93       	push	r16
    3b2c:	1f 93       	push	r17
    3b2e:	cf 93       	push	r28
    3b30:	df 93       	push	r29
    3b32:	00 d0       	rcall	.+0      	; 0x3b34 <_Z13DrawInterfacev+0xe>
    3b34:	00 d0       	rcall	.+0      	; 0x3b36 <_Z13DrawInterfacev+0x10>
    3b36:	cd b7       	in	r28, 0x3d	; 61
    3b38:	de b7       	in	r29, 0x3e	; 62
    3b3a:	81 e0       	ldi	r24, 0x01	; 1
    3b3c:	90 e0       	ldi	r25, 0x00	; 0
    3b3e:	90 93 d9 09 	sts	0x09D9, r25	; 0x8009d9 <ActiveScreen+0x1>
    3b42:	80 93 d8 09 	sts	0x09D8, r24	; 0x8009d8 <ActiveScreen>
    3b46:	00 e0       	ldi	r16, 0x00	; 0
    3b48:	10 e0       	ldi	r17, 0x00	; 0
    3b4a:	88 e1       	ldi	r24, 0x18	; 24
    3b4c:	f8 2e       	mov	r15, r24
    3b4e:	80 91 dc 09 	lds	r24, 0x09DC	; 0x8009dc <NumberOfMenuEntries>
    3b52:	90 91 dd 09 	lds	r25, 0x09DD	; 0x8009dd <NumberOfMenuEntries+0x1>
    3b56:	08 17       	cp	r16, r24
    3b58:	19 07       	cpc	r17, r25
    3b5a:	0c f0       	brlt	.+2      	; 0x3b5e <_Z13DrawInterfacev+0x38>
    3b5c:	4a c0       	rjmp	.+148    	; 0x3bf2 <_Z13DrawInterfacev+0xcc>
    3b5e:	05 30       	cpi	r16, 0x05	; 5
    3b60:	11 05       	cpc	r17, r1
    3b62:	0c f0       	brlt	.+2      	; 0x3b66 <_Z13DrawInterfacev+0x40>
    3b64:	43 c0       	rjmp	.+134    	; 0x3bec <_Z13DrawInterfacev+0xc6>
    3b66:	20 91 da 09 	lds	r18, 0x09DA	; 0x8009da <ScrollPosition>
    3b6a:	30 91 db 09 	lds	r19, 0x09DB	; 0x8009db <ScrollPosition+0x1>
    3b6e:	20 0f       	add	r18, r16
    3b70:	31 1f       	adc	r19, r17
    3b72:	f2 9e       	mul	r15, r18
    3b74:	c0 01       	movw	r24, r0
    3b76:	f3 9e       	mul	r15, r19
    3b78:	90 0d       	add	r25, r0
    3b7a:	11 24       	eor	r1, r1
    3b7c:	fc 01       	movw	r30, r24
    3b7e:	ec 5d       	subi	r30, 0xDC	; 220
    3b80:	fa 4f       	sbci	r31, 0xFA	; 250
    3b82:	20 81       	ld	r18, Z
    3b84:	31 81       	ldd	r19, Z+1	; 0x01
    3b86:	21 15       	cp	r18, r1
    3b88:	31 05       	cpc	r19, r1
    3b8a:	71 f4       	brne	.+28     	; 0x3ba8 <_Z13DrawInterfacev+0x82>
    3b8c:	e1 84       	ldd	r14, Z+9	; 0x09
    3b8e:	bc 01       	movw	r22, r24
    3b90:	69 5d       	subi	r22, 0xD9	; 217
    3b92:	7a 4f       	sbci	r23, 0xFA	; 250
    3b94:	ce 01       	movw	r24, r28
    3b96:	01 96       	adiw	r24, 0x01	; 1
    3b98:	0e 94 58 30 	call	0x60b0	; 0x60b0 <_ZN6StringC1ERKS_>
    3b9c:	a8 01       	movw	r20, r16
    3b9e:	6e 2d       	mov	r22, r14
    3ba0:	ce 01       	movw	r24, r28
    3ba2:	01 96       	adiw	r24, 0x01	; 1
    3ba4:	0b dd       	rcall	.-1514   	; 0x35bc <_Z13DrawMenuEntry6Stringbi>
    3ba6:	1e c0       	rjmp	.+60     	; 0x3be4 <_Z13DrawInterfacev+0xbe>
    3ba8:	21 30       	cpi	r18, 0x01	; 1
    3baa:	31 05       	cpc	r19, r1
    3bac:	f9 f4       	brne	.+62     	; 0x3bec <_Z13DrawInterfacev+0xc6>
    3bae:	bc 01       	movw	r22, r24
    3bb0:	60 5d       	subi	r22, 0xD0	; 208
    3bb2:	7a 4f       	sbci	r23, 0xFA	; 250
    3bb4:	ce 01       	movw	r24, r28
    3bb6:	01 96       	adiw	r24, 0x01	; 1
    3bb8:	0e 94 58 30 	call	0x60b0	; 0x60b0 <_ZN6StringC1ERKS_>
    3bbc:	80 91 da 09 	lds	r24, 0x09DA	; 0x8009da <ScrollPosition>
    3bc0:	90 91 db 09 	lds	r25, 0x09DB	; 0x8009db <ScrollPosition+0x1>
    3bc4:	80 0f       	add	r24, r16
    3bc6:	91 1f       	adc	r25, r17
    3bc8:	f8 9e       	mul	r15, r24
    3bca:	f0 01       	movw	r30, r0
    3bcc:	f9 9e       	mul	r15, r25
    3bce:	f0 0d       	add	r31, r0
    3bd0:	11 24       	eor	r1, r1
    3bd2:	ec 5d       	subi	r30, 0xDC	; 220
    3bd4:	fa 4f       	sbci	r31, 0xFA	; 250
    3bd6:	a8 01       	movw	r20, r16
    3bd8:	be 01       	movw	r22, r28
    3bda:	6f 5f       	subi	r22, 0xFF	; 255
    3bdc:	7f 4f       	sbci	r23, 0xFF	; 255
    3bde:	82 89       	ldd	r24, Z+18	; 0x12
    3be0:	93 89       	ldd	r25, Z+19	; 0x13
    3be2:	ae dd       	rcall	.-1188   	; 0x3740 <_Z22DrawMenuEntryIntNumberi6Stringi>
    3be4:	ce 01       	movw	r24, r28
    3be6:	01 96       	adiw	r24, 0x01	; 1
    3be8:	0e 94 c4 2f 	call	0x5f88	; 0x5f88 <_ZN6StringD1Ev>
    3bec:	0f 5f       	subi	r16, 0xFF	; 255
    3bee:	1f 4f       	sbci	r17, 0xFF	; 255
    3bf0:	ae cf       	rjmp	.-164    	; 0x3b4e <_Z13DrawInterfacev+0x28>
    3bf2:	d1 db       	rcall	.-2142   	; 0x3396 <ESP8266_isConnected>
    3bf4:	88 23       	and	r24, r24
    3bf6:	19 f0       	breq	.+6      	; 0x3bfe <_Z13DrawInterfacev+0xd8>
    3bf8:	20 e0       	ldi	r18, 0x00	; 0
    3bfa:	4f ef       	ldi	r20, 0xFF	; 255
    3bfc:	02 c0       	rjmp	.+4      	; 0x3c02 <_Z13DrawInterfacev+0xdc>
    3bfe:	2f ef       	ldi	r18, 0xFF	; 255
    3c00:	40 e0       	ldi	r20, 0x00	; 0
    3c02:	60 e0       	ldi	r22, 0x00	; 0
    3c04:	84 e7       	ldi	r24, 0x74	; 116
    3c06:	9a e0       	ldi	r25, 0x0A	; 10
    3c08:	0e 94 42 3f 	call	0x7e84	; 0x7e84 <_ZN4UTFT8setColorEhhh>
    3c0c:	04 e1       	ldi	r16, 0x14	; 20
    3c0e:	10 e0       	ldi	r17, 0x00	; 0
    3c10:	21 e9       	ldi	r18, 0x91	; 145
    3c12:	30 e0       	ldi	r19, 0x00	; 0
    3c14:	40 e0       	ldi	r20, 0x00	; 0
    3c16:	50 e0       	ldi	r21, 0x00	; 0
    3c18:	6f ea       	ldi	r22, 0xAF	; 175
    3c1a:	70 e0       	ldi	r23, 0x00	; 0
    3c1c:	84 e7       	ldi	r24, 0x74	; 116
    3c1e:	9a e0       	ldi	r25, 0x0A	; 10
    3c20:	0e 94 ef 3f 	call	0x7fde	; 0x7fde <_ZN4UTFT13fillRoundRectEiiii>
    3c24:	01 e0       	ldi	r16, 0x01	; 1
    3c26:	10 e0       	ldi	r17, 0x00	; 0
    3c28:	21 e9       	ldi	r18, 0x91	; 145
    3c2a:	30 e0       	ldi	r19, 0x00	; 0
    3c2c:	40 e0       	ldi	r20, 0x00	; 0
    3c2e:	50 e0       	ldi	r21, 0x00	; 0
    3c30:	6f ea       	ldi	r22, 0xAF	; 175
    3c32:	70 e0       	ldi	r23, 0x00	; 0
    3c34:	84 e7       	ldi	r24, 0x74	; 116
    3c36:	9a e0       	ldi	r25, 0x0A	; 10
    3c38:	0e 94 f0 41 	call	0x83e0	; 0x83e0 <_ZN4UTFT8fillRectEiiii>
    3c3c:	20 e0       	ldi	r18, 0x00	; 0
    3c3e:	40 e0       	ldi	r20, 0x00	; 0
    3c40:	6f ef       	ldi	r22, 0xFF	; 255
    3c42:	84 e7       	ldi	r24, 0x74	; 116
    3c44:	9a e0       	ldi	r25, 0x0A	; 10
    3c46:	0e 94 42 3f 	call	0x7e84	; 0x7e84 <_ZN4UTFT8setColorEhhh>
    3c4a:	07 e7       	ldi	r16, 0x77	; 119
    3c4c:	10 e0       	ldi	r17, 0x00	; 0
    3c4e:	2f e3       	ldi	r18, 0x3F	; 63
    3c50:	31 e0       	ldi	r19, 0x01	; 1
    3c52:	40 e0       	ldi	r20, 0x00	; 0
    3c54:	50 e0       	ldi	r21, 0x00	; 0
    3c56:	6c e2       	ldi	r22, 0x2C	; 44
    3c58:	71 e0       	ldi	r23, 0x01	; 1
    3c5a:	84 e7       	ldi	r24, 0x74	; 116
    3c5c:	9a e0       	ldi	r25, 0x0A	; 10
    3c5e:	0e 94 3e 41 	call	0x827c	; 0x827c <_ZN4UTFT13drawRoundRectEiiii>
    3c62:	0f ee       	ldi	r16, 0xEF	; 239
    3c64:	10 e0       	ldi	r17, 0x00	; 0
    3c66:	2f e3       	ldi	r18, 0x3F	; 63
    3c68:	31 e0       	ldi	r19, 0x01	; 1
    3c6a:	49 e7       	ldi	r20, 0x79	; 121
    3c6c:	50 e0       	ldi	r21, 0x00	; 0
    3c6e:	6c e2       	ldi	r22, 0x2C	; 44
    3c70:	71 e0       	ldi	r23, 0x01	; 1
    3c72:	84 e7       	ldi	r24, 0x74	; 116
    3c74:	9a e0       	ldi	r25, 0x0A	; 10
    3c76:	0e 94 3e 41 	call	0x827c	; 0x827c <_ZN4UTFT13drawRoundRectEiiii>
    3c7a:	2f ef       	ldi	r18, 0xFF	; 255
    3c7c:	4f ef       	ldi	r20, 0xFF	; 255
    3c7e:	6f ef       	ldi	r22, 0xFF	; 255
    3c80:	84 e7       	ldi	r24, 0x74	; 116
    3c82:	9a e0       	ldi	r25, 0x0A	; 10
    3c84:	0e 94 42 3f 	call	0x7e84	; 0x7e84 <_ZN4UTFT8setColorEhhh>
    3c88:	20 e0       	ldi	r18, 0x00	; 0
    3c8a:	40 e0       	ldi	r20, 0x00	; 0
    3c8c:	60 e0       	ldi	r22, 0x00	; 0
    3c8e:	84 e7       	ldi	r24, 0x74	; 116
    3c90:	9a e0       	ldi	r25, 0x0A	; 10
    3c92:	0e 94 56 3f 	call	0x7eac	; 0x7eac <_ZN4UTFT12setBackColorEhhh>
    3c96:	66 e2       	ldi	r22, 0x26	; 38
    3c98:	71 e0       	ldi	r23, 0x01	; 1
    3c9a:	84 e7       	ldi	r24, 0x74	; 116
    3c9c:	9a e0       	ldi	r25, 0x0A	; 10
    3c9e:	0e 94 2f 49 	call	0x925e	; 0x925e <_ZN4UTFT7setFontEPh>
    3ca2:	00 e0       	ldi	r16, 0x00	; 0
    3ca4:	10 e0       	ldi	r17, 0x00	; 0
    3ca6:	2c e3       	ldi	r18, 0x3C	; 60
    3ca8:	30 e0       	ldi	r19, 0x00	; 0
    3caa:	4f e2       	ldi	r20, 0x2F	; 47
    3cac:	51 e0       	ldi	r21, 0x01	; 1
    3cae:	6d ee       	ldi	r22, 0xED	; 237
    3cb0:	72 e0       	ldi	r23, 0x02	; 2
    3cb2:	84 e7       	ldi	r24, 0x74	; 116
    3cb4:	9a e0       	ldi	r25, 0x0A	; 10
    3cb6:	0e 94 5b 47 	call	0x8eb6	; 0x8eb6 <_ZN4UTFT5printEPciii>
    3cba:	24 eb       	ldi	r18, 0xB4	; 180
    3cbc:	30 e0       	ldi	r19, 0x00	; 0
    3cbe:	4f e2       	ldi	r20, 0x2F	; 47
    3cc0:	51 e0       	ldi	r21, 0x01	; 1
    3cc2:	6d ed       	ldi	r22, 0xDD	; 221
    3cc4:	73 e0       	ldi	r23, 0x03	; 3
    3cc6:	84 e7       	ldi	r24, 0x74	; 116
    3cc8:	9a e0       	ldi	r25, 0x0A	; 10
    3cca:	0e 94 5b 47 	call	0x8eb6	; 0x8eb6 <_ZN4UTFT5printEPciii>
    3cce:	20 e0       	ldi	r18, 0x00	; 0
    3cd0:	40 e0       	ldi	r20, 0x00	; 0
    3cd2:	6f ef       	ldi	r22, 0xFF	; 255
    3cd4:	84 e7       	ldi	r24, 0x74	; 116
    3cd6:	9a e0       	ldi	r25, 0x0A	; 10
    3cd8:	0e 94 42 3f 	call	0x7e84	; 0x7e84 <_ZN4UTFT8setColorEhhh>
    3cdc:	02 ef       	ldi	r16, 0xF2	; 242
    3cde:	10 e0       	ldi	r17, 0x00	; 0
    3ce0:	23 eb       	ldi	r18, 0xB3	; 179
    3ce2:	30 e0       	ldi	r19, 0x00	; 0
    3ce4:	42 ed       	ldi	r20, 0xD2	; 210
    3ce6:	50 e0       	ldi	r21, 0x00	; 0
    3ce8:	6a e8       	ldi	r22, 0x8A	; 138
    3cea:	70 e0       	ldi	r23, 0x00	; 0
    3cec:	84 e7       	ldi	r24, 0x74	; 116
    3cee:	9a e0       	ldi	r25, 0x0A	; 10
    3cf0:	0e 94 3e 41 	call	0x827c	; 0x827c <_ZN4UTFT13drawRoundRectEiiii>
    3cf4:	20 e4       	ldi	r18, 0x40	; 64
    3cf6:	40 e4       	ldi	r20, 0x40	; 64
    3cf8:	60 e4       	ldi	r22, 0x40	; 64
    3cfa:	84 e7       	ldi	r24, 0x74	; 116
    3cfc:	9a e0       	ldi	r25, 0x0A	; 10
    3cfe:	0e 94 42 3f 	call	0x7e84	; 0x7e84 <_ZN4UTFT8setColorEhhh>
    3d02:	01 ef       	ldi	r16, 0xF1	; 241
    3d04:	10 e0       	ldi	r17, 0x00	; 0
    3d06:	22 eb       	ldi	r18, 0xB2	; 178
    3d08:	30 e0       	ldi	r19, 0x00	; 0
    3d0a:	43 ed       	ldi	r20, 0xD3	; 211
    3d0c:	50 e0       	ldi	r21, 0x00	; 0
    3d0e:	6b e8       	ldi	r22, 0x8B	; 139
    3d10:	70 e0       	ldi	r23, 0x00	; 0
    3d12:	84 e7       	ldi	r24, 0x74	; 116
    3d14:	9a e0       	ldi	r25, 0x0A	; 10
    3d16:	0e 94 ef 3f 	call	0x7fde	; 0x7fde <_ZN4UTFT13fillRoundRectEiiii>
    3d1a:	2f ef       	ldi	r18, 0xFF	; 255
    3d1c:	4f ef       	ldi	r20, 0xFF	; 255
    3d1e:	6f ef       	ldi	r22, 0xFF	; 255
    3d20:	84 e7       	ldi	r24, 0x74	; 116
    3d22:	9a e0       	ldi	r25, 0x0A	; 10
    3d24:	0e 94 42 3f 	call	0x7e84	; 0x7e84 <_ZN4UTFT8setColorEhhh>
    3d28:	66 ea       	ldi	r22, 0xA6	; 166
    3d2a:	7c e2       	ldi	r23, 0x2C	; 44
    3d2c:	84 e7       	ldi	r24, 0x74	; 116
    3d2e:	9a e0       	ldi	r25, 0x0A	; 10
    3d30:	0e 94 2f 49 	call	0x925e	; 0x925e <_ZN4UTFT7setFontEPh>
    3d34:	20 e4       	ldi	r18, 0x40	; 64
    3d36:	40 e4       	ldi	r20, 0x40	; 64
    3d38:	60 e4       	ldi	r22, 0x40	; 64
    3d3a:	84 e7       	ldi	r24, 0x74	; 116
    3d3c:	9a e0       	ldi	r25, 0x0A	; 10
    3d3e:	0e 94 56 3f 	call	0x7eac	; 0x7eac <_ZN4UTFT12setBackColorEhhh>
    3d42:	00 e0       	ldi	r16, 0x00	; 0
    3d44:	10 e0       	ldi	r17, 0x00	; 0
    3d46:	20 ee       	ldi	r18, 0xE0	; 224
    3d48:	30 e0       	ldi	r19, 0x00	; 0
    3d4a:	4e e0       	ldi	r20, 0x0E	; 14
    3d4c:	57 e2       	ldi	r21, 0x27	; 39
    3d4e:	6f ee       	ldi	r22, 0xEF	; 239
    3d50:	72 e0       	ldi	r23, 0x02	; 2
    3d52:	84 e7       	ldi	r24, 0x74	; 116
    3d54:	9a e0       	ldi	r25, 0x0A	; 10
    3d56:	0e 94 5b 47 	call	0x8eb6	; 0x8eb6 <_ZN4UTFT5printEPciii>
    3d5a:	20 e0       	ldi	r18, 0x00	; 0
    3d5c:	40 e0       	ldi	r20, 0x00	; 0
    3d5e:	6f ef       	ldi	r22, 0xFF	; 255
    3d60:	84 e7       	ldi	r24, 0x74	; 116
    3d62:	9a e0       	ldi	r25, 0x0A	; 10
    3d64:	0e 94 42 3f 	call	0x7e84	; 0x7e84 <_ZN4UTFT8setColorEhhh>
    3d68:	00 ef       	ldi	r16, 0xF0	; 240
    3d6a:	10 e0       	ldi	r17, 0x00	; 0
    3d6c:	2a e2       	ldi	r18, 0x2A	; 42
    3d6e:	31 e0       	ldi	r19, 0x01	; 1
    3d70:	40 e0       	ldi	r20, 0x00	; 0
    3d72:	50 e0       	ldi	r21, 0x00	; 0
    3d74:	62 e2       	ldi	r22, 0x22	; 34
    3d76:	71 e0       	ldi	r23, 0x01	; 1
    3d78:	84 e7       	ldi	r24, 0x74	; 116
    3d7a:	9a e0       	ldi	r25, 0x0A	; 10
    3d7c:	0e 94 fa 40 	call	0x81f4	; 0x81f4 <_ZN4UTFT8drawRectEiiii>
    3d80:	20 e0       	ldi	r18, 0x00	; 0
    3d82:	40 e0       	ldi	r20, 0x00	; 0
    3d84:	60 e0       	ldi	r22, 0x00	; 0
    3d86:	84 e7       	ldi	r24, 0x74	; 116
    3d88:	9a e0       	ldi	r25, 0x0A	; 10
    3d8a:	0e 94 42 3f 	call	0x7e84	; 0x7e84 <_ZN4UTFT8setColorEhhh>
    3d8e:	0f ee       	ldi	r16, 0xEF	; 239
    3d90:	10 e0       	ldi	r17, 0x00	; 0
    3d92:	29 e2       	ldi	r18, 0x29	; 41
    3d94:	31 e0       	ldi	r19, 0x01	; 1
    3d96:	41 e0       	ldi	r20, 0x01	; 1
    3d98:	50 e0       	ldi	r21, 0x00	; 0
    3d9a:	63 e2       	ldi	r22, 0x23	; 35
    3d9c:	71 e0       	ldi	r23, 0x01	; 1
    3d9e:	84 e7       	ldi	r24, 0x74	; 116
    3da0:	9a e0       	ldi	r25, 0x0A	; 10
    3da2:	0e 94 f0 41 	call	0x83e0	; 0x83e0 <_ZN4UTFT8fillRectEiiii>
    3da6:	80 91 dc 09 	lds	r24, 0x09DC	; 0x8009dc <NumberOfMenuEntries>
    3daa:	90 91 dd 09 	lds	r25, 0x09DD	; 0x8009dd <NumberOfMenuEntries+0x1>
    3dae:	06 97       	sbiw	r24, 0x06	; 6
    3db0:	74 f1       	brlt	.+92     	; 0x3e0e <_Z13DrawInterfacev+0x2e8>
    3db2:	28 ec       	ldi	r18, 0xC8	; 200
    3db4:	48 ec       	ldi	r20, 0xC8	; 200
    3db6:	68 ec       	ldi	r22, 0xC8	; 200
    3db8:	84 e7       	ldi	r24, 0x74	; 116
    3dba:	9a e0       	ldi	r25, 0x0A	; 10
    3dbc:	0e 94 42 3f 	call	0x7e84	; 0x7e84 <_ZN4UTFT8setColorEhhh>
    3dc0:	60 91 dc 09 	lds	r22, 0x09DC	; 0x8009dc <NumberOfMenuEntries>
    3dc4:	70 91 dd 09 	lds	r23, 0x09DD	; 0x8009dd <NumberOfMenuEntries+0x1>
    3dc8:	8e ee       	ldi	r24, 0xEE	; 238
    3dca:	90 e0       	ldi	r25, 0x00	; 0
    3dcc:	0e 94 07 4b 	call	0x960e	; 0x960e <__divmodhi4>
    3dd0:	80 91 da 09 	lds	r24, 0x09DA	; 0x8009da <ScrollPosition>
    3dd4:	90 91 db 09 	lds	r25, 0x09DB	; 0x8009db <ScrollPosition+0x1>
    3dd8:	68 9f       	mul	r22, r24
    3dda:	a0 01       	movw	r20, r0
    3ddc:	69 9f       	mul	r22, r25
    3dde:	50 0d       	add	r21, r0
    3de0:	78 9f       	mul	r23, r24
    3de2:	50 0d       	add	r21, r0
    3de4:	11 24       	eor	r1, r1
    3de6:	85 e0       	ldi	r24, 0x05	; 5
    3de8:	86 9f       	mul	r24, r22
    3dea:	80 01       	movw	r16, r0
    3dec:	87 9f       	mul	r24, r23
    3dee:	10 0d       	add	r17, r0
    3df0:	11 24       	eor	r1, r1
    3df2:	0f 5f       	subi	r16, 0xFF	; 255
    3df4:	1f 4f       	sbci	r17, 0xFF	; 255
    3df6:	04 0f       	add	r16, r20
    3df8:	15 1f       	adc	r17, r21
    3dfa:	4f 5f       	subi	r20, 0xFF	; 255
    3dfc:	5f 4f       	sbci	r21, 0xFF	; 255
    3dfe:	29 e2       	ldi	r18, 0x29	; 41
    3e00:	31 e0       	ldi	r19, 0x01	; 1
    3e02:	63 e2       	ldi	r22, 0x23	; 35
    3e04:	71 e0       	ldi	r23, 0x01	; 1
    3e06:	84 e7       	ldi	r24, 0x74	; 116
    3e08:	9a e0       	ldi	r25, 0x0A	; 10
    3e0a:	0e 94 ef 3f 	call	0x7fde	; 0x7fde <_ZN4UTFT13fillRoundRectEiiii>
    3e0e:	26 96       	adiw	r28, 0x06	; 6
    3e10:	0f b6       	in	r0, 0x3f	; 63
    3e12:	f8 94       	cli
    3e14:	de bf       	out	0x3e, r29	; 62
    3e16:	0f be       	out	0x3f, r0	; 63
    3e18:	cd bf       	out	0x3d, r28	; 61
    3e1a:	df 91       	pop	r29
    3e1c:	cf 91       	pop	r28
    3e1e:	1f 91       	pop	r17
    3e20:	0f 91       	pop	r16
    3e22:	ff 90       	pop	r15
    3e24:	ef 90       	pop	r14
    3e26:	08 95       	ret

00003e28 <_Z7drawLogv>:
    3e28:	0f 93       	push	r16
    3e2a:	1f 93       	push	r17
    3e2c:	82 e0       	ldi	r24, 0x02	; 2
    3e2e:	90 e0       	ldi	r25, 0x00	; 0
    3e30:	90 93 d9 09 	sts	0x09D9, r25	; 0x8009d9 <ActiveScreen+0x1>
    3e34:	80 93 d8 09 	sts	0x09D8, r24	; 0x8009d8 <ActiveScreen>
    3e38:	84 e7       	ldi	r24, 0x74	; 116
    3e3a:	9a e0       	ldi	r25, 0x0A	; 10
    3e3c:	0e 94 a9 3e 	call	0x7d52	; 0x7d52 <_ZN4UTFT6clrScrEv>
    3e40:	28 db       	rcall	.-2480   	; 0x3492 <_Z8printLogv>
    3e42:	20 e0       	ldi	r18, 0x00	; 0
    3e44:	40 e0       	ldi	r20, 0x00	; 0
    3e46:	6f ef       	ldi	r22, 0xFF	; 255
    3e48:	84 e7       	ldi	r24, 0x74	; 116
    3e4a:	9a e0       	ldi	r25, 0x0A	; 10
    3e4c:	0e 94 42 3f 	call	0x7e84	; 0x7e84 <_ZN4UTFT8setColorEhhh>
    3e50:	02 ef       	ldi	r16, 0xF2	; 242
    3e52:	10 e0       	ldi	r17, 0x00	; 0
    3e54:	2f e3       	ldi	r18, 0x3F	; 63
    3e56:	31 e0       	ldi	r19, 0x01	; 1
    3e58:	42 ed       	ldi	r20, 0xD2	; 210
    3e5a:	50 e0       	ldi	r21, 0x00	; 0
    3e5c:	68 e1       	ldi	r22, 0x18	; 24
    3e5e:	71 e0       	ldi	r23, 0x01	; 1
    3e60:	84 e7       	ldi	r24, 0x74	; 116
    3e62:	9a e0       	ldi	r25, 0x0A	; 10
    3e64:	0e 94 3e 41 	call	0x827c	; 0x827c <_ZN4UTFT13drawRoundRectEiiii>
    3e68:	2f e3       	ldi	r18, 0x3F	; 63
    3e6a:	31 e0       	ldi	r19, 0x01	; 1
    3e6c:	42 ed       	ldi	r20, 0xD2	; 210
    3e6e:	50 e0       	ldi	r21, 0x00	; 0
    3e70:	62 e2       	ldi	r22, 0x22	; 34
    3e72:	71 e0       	ldi	r23, 0x01	; 1
    3e74:	84 e7       	ldi	r24, 0x74	; 116
    3e76:	9a e0       	ldi	r25, 0x0A	; 10
    3e78:	0e 94 fa 40 	call	0x81f4	; 0x81f4 <_ZN4UTFT8drawRectEiiii>
    3e7c:	20 e4       	ldi	r18, 0x40	; 64
    3e7e:	40 e4       	ldi	r20, 0x40	; 64
    3e80:	60 e4       	ldi	r22, 0x40	; 64
    3e82:	84 e7       	ldi	r24, 0x74	; 116
    3e84:	9a e0       	ldi	r25, 0x0A	; 10
    3e86:	0e 94 42 3f 	call	0x7e84	; 0x7e84 <_ZN4UTFT8setColorEhhh>
    3e8a:	01 ef       	ldi	r16, 0xF1	; 241
    3e8c:	10 e0       	ldi	r17, 0x00	; 0
    3e8e:	2f e3       	ldi	r18, 0x3F	; 63
    3e90:	31 e0       	ldi	r19, 0x01	; 1
    3e92:	43 ed       	ldi	r20, 0xD3	; 211
    3e94:	50 e0       	ldi	r21, 0x00	; 0
    3e96:	69 e1       	ldi	r22, 0x19	; 25
    3e98:	71 e0       	ldi	r23, 0x01	; 1
    3e9a:	84 e7       	ldi	r24, 0x74	; 116
    3e9c:	9a e0       	ldi	r25, 0x0A	; 10
    3e9e:	0e 94 ef 3f 	call	0x7fde	; 0x7fde <_ZN4UTFT13fillRoundRectEiiii>
    3ea2:	2f e3       	ldi	r18, 0x3F	; 63
    3ea4:	31 e0       	ldi	r19, 0x01	; 1
    3ea6:	43 ed       	ldi	r20, 0xD3	; 211
    3ea8:	50 e0       	ldi	r21, 0x00	; 0
    3eaa:	6c e2       	ldi	r22, 0x2C	; 44
    3eac:	71 e0       	ldi	r23, 0x01	; 1
    3eae:	84 e7       	ldi	r24, 0x74	; 116
    3eb0:	9a e0       	ldi	r25, 0x0A	; 10
    3eb2:	0e 94 f0 41 	call	0x83e0	; 0x83e0 <_ZN4UTFT8fillRectEiiii>
    3eb6:	2f ef       	ldi	r18, 0xFF	; 255
    3eb8:	4f ef       	ldi	r20, 0xFF	; 255
    3eba:	6f ef       	ldi	r22, 0xFF	; 255
    3ebc:	84 e7       	ldi	r24, 0x74	; 116
    3ebe:	9a e0       	ldi	r25, 0x0A	; 10
    3ec0:	0e 94 42 3f 	call	0x7e84	; 0x7e84 <_ZN4UTFT8setColorEhhh>
    3ec4:	66 ea       	ldi	r22, 0xA6	; 166
    3ec6:	7c e2       	ldi	r23, 0x2C	; 44
    3ec8:	84 e7       	ldi	r24, 0x74	; 116
    3eca:	9a e0       	ldi	r25, 0x0A	; 10
    3ecc:	0e 94 2f 49 	call	0x925e	; 0x925e <_ZN4UTFT7setFontEPh>
    3ed0:	20 e4       	ldi	r18, 0x40	; 64
    3ed2:	40 e4       	ldi	r20, 0x40	; 64
    3ed4:	60 e4       	ldi	r22, 0x40	; 64
    3ed6:	84 e7       	ldi	r24, 0x74	; 116
    3ed8:	9a e0       	ldi	r25, 0x0A	; 10
    3eda:	0e 94 56 3f 	call	0x7eac	; 0x7eac <_ZN4UTFT12setBackColorEhhh>
    3ede:	00 e0       	ldi	r16, 0x00	; 0
    3ee0:	10 e0       	ldi	r17, 0x00	; 0
    3ee2:	20 ee       	ldi	r18, 0xE0	; 224
    3ee4:	30 e0       	ldi	r19, 0x00	; 0
    3ee6:	4f e0       	ldi	r20, 0x0F	; 15
    3ee8:	57 e2       	ldi	r21, 0x27	; 39
    3eea:	63 ef       	ldi	r22, 0xF3	; 243
    3eec:	72 e0       	ldi	r23, 0x02	; 2
    3eee:	84 e7       	ldi	r24, 0x74	; 116
    3ef0:	9a e0       	ldi	r25, 0x0A	; 10
    3ef2:	0e 94 5b 47 	call	0x8eb6	; 0x8eb6 <_ZN4UTFT5printEPciii>
    3ef6:	1f 91       	pop	r17
    3ef8:	0f 91       	pop	r16
    3efa:	08 95       	ret

00003efc <_Z12recMessFunc1Pc>:
    3efc:	0f 93       	push	r16
    3efe:	1f 93       	push	r17
    3f00:	cf 93       	push	r28
    3f02:	df 93       	push	r29
    3f04:	cd b7       	in	r28, 0x3d	; 61
    3f06:	de b7       	in	r29, 0x3e	; 62
    3f08:	68 97       	sbiw	r28, 0x18	; 24
    3f0a:	0f b6       	in	r0, 0x3f	; 63
    3f0c:	f8 94       	cli
    3f0e:	de bf       	out	0x3e, r29	; 62
    3f10:	0f be       	out	0x3f, r0	; 63
    3f12:	cd bf       	out	0x3d, r28	; 61
    3f14:	8c 01       	movw	r16, r24
    3f16:	68 ef       	ldi	r22, 0xF8	; 248
    3f18:	72 e0       	ldi	r23, 0x02	; 2
    3f1a:	ce 01       	movw	r24, r28
    3f1c:	01 96       	adiw	r24, 0x01	; 1
    3f1e:	0e 94 2f 30 	call	0x605e	; 0x605e <_ZN6StringC1EPKc>
    3f22:	ce 01       	movw	r24, r28
    3f24:	01 96       	adiw	r24, 0x01	; 1
    3f26:	39 da       	rcall	.-2958   	; 0x339a <_Z6addLog6String>
    3f28:	ce 01       	movw	r24, r28
    3f2a:	01 96       	adiw	r24, 0x01	; 1
    3f2c:	0e 94 c4 2f 	call	0x5f88	; 0x5f88 <_ZN6StringD1Ev>
    3f30:	f8 01       	movw	r30, r16
    3f32:	80 81       	ld	r24, Z
    3f34:	81 34       	cpi	r24, 0x41	; 65
    3f36:	91 f4       	brne	.+36     	; 0x3f5c <_Z12recMessFunc1Pc+0x60>
    3f38:	6a ef       	ldi	r22, 0xFA	; 250
    3f3a:	72 e0       	ldi	r23, 0x02	; 2
    3f3c:	ce 01       	movw	r24, r28
    3f3e:	01 96       	adiw	r24, 0x01	; 1
    3f40:	0e 94 2f 30 	call	0x605e	; 0x605e <_ZN6StringC1EPKc>
    3f44:	ce 01       	movw	r24, r28
    3f46:	01 96       	adiw	r24, 0x01	; 1
    3f48:	28 da       	rcall	.-2992   	; 0x339a <_Z6addLog6String>
    3f4a:	ce 01       	movw	r24, r28
    3f4c:	01 96       	adiw	r24, 0x01	; 1
    3f4e:	0e 94 c4 2f 	call	0x5f88	; 0x5f88 <_ZN6StringD1Ev>
    3f52:	10 92 1f 05 	sts	0x051F, r1	; 0x80051f <waitingForPong>
    3f56:	10 92 20 05 	sts	0x0520, r1	; 0x800520 <Int_count>
    3f5a:	e3 c0       	rjmp	.+454    	; 0x4122 <_Z12recMessFunc1Pc+0x226>
    3f5c:	b8 01       	movw	r22, r16
    3f5e:	ce 01       	movw	r24, r28
    3f60:	43 96       	adiw	r24, 0x13	; 19
    3f62:	0e 94 2f 30 	call	0x605e	; 0x605e <_ZN6StringC1EPKc>
    3f66:	60 e0       	ldi	r22, 0x00	; 0
    3f68:	70 e0       	ldi	r23, 0x00	; 0
    3f6a:	ce 01       	movw	r24, r28
    3f6c:	43 96       	adiw	r24, 0x13	; 19
    3f6e:	0e 94 3b 31 	call	0x6276	; 0x6276 <_ZNK6String6charAtEj>
    3f72:	81 30       	cpi	r24, 0x01	; 1
    3f74:	09 f0       	breq	.+2      	; 0x3f78 <_Z12recMessFunc1Pc+0x7c>
    3f76:	a4 c0       	rjmp	.+328    	; 0x40c0 <_Z12recMessFunc1Pc+0x1c4>
    3f78:	6c ef       	ldi	r22, 0xFC	; 252
    3f7a:	72 e0       	ldi	r23, 0x02	; 2
    3f7c:	ce 01       	movw	r24, r28
    3f7e:	01 96       	adiw	r24, 0x01	; 1
    3f80:	0e 94 2f 30 	call	0x605e	; 0x605e <_ZN6StringC1EPKc>
    3f84:	ce 01       	movw	r24, r28
    3f86:	01 96       	adiw	r24, 0x01	; 1
    3f88:	08 da       	rcall	.-3056   	; 0x339a <_Z6addLog6String>
    3f8a:	ce 01       	movw	r24, r28
    3f8c:	01 96       	adiw	r24, 0x01	; 1
    3f8e:	0e 94 c4 2f 	call	0x5f88	; 0x5f88 <_ZN6StringD1Ev>
    3f92:	61 e0       	ldi	r22, 0x01	; 1
    3f94:	70 e0       	ldi	r23, 0x00	; 0
    3f96:	ce 01       	movw	r24, r28
    3f98:	43 96       	adiw	r24, 0x13	; 19
    3f9a:	0e 94 3b 31 	call	0x6276	; 0x6276 <_ZNK6String6charAtEj>
    3f9e:	81 33       	cpi	r24, 0x31	; 49
    3fa0:	09 f0       	breq	.+2      	; 0x3fa4 <_Z12recMessFunc1Pc+0xa8>
    3fa2:	58 c0       	rjmp	.+176    	; 0x4054 <_Z12recMessFunc1Pc+0x158>
    3fa4:	62 e0       	ldi	r22, 0x02	; 2
    3fa6:	70 e0       	ldi	r23, 0x00	; 0
    3fa8:	ce 01       	movw	r24, r28
    3faa:	43 96       	adiw	r24, 0x13	; 19
    3fac:	0e 94 3b 31 	call	0x6276	; 0x6276 <_ZNK6String6charAtEj>
    3fb0:	18 2f       	mov	r17, r24
    3fb2:	63 e0       	ldi	r22, 0x03	; 3
    3fb4:	70 e0       	ldi	r23, 0x00	; 0
    3fb6:	ce 01       	movw	r24, r28
    3fb8:	43 96       	adiw	r24, 0x13	; 19
    3fba:	0e 94 3b 31 	call	0x6276	; 0x6276 <_ZNK6String6charAtEj>
    3fbe:	21 2f       	mov	r18, r17
    3fc0:	30 e0       	ldi	r19, 0x00	; 0
    3fc2:	20 53       	subi	r18, 0x30	; 48
    3fc4:	31 09       	sbc	r19, r1
    3fc6:	94 e6       	ldi	r25, 0x64	; 100
    3fc8:	92 9f       	mul	r25, r18
    3fca:	80 01       	movw	r16, r0
    3fcc:	93 9f       	mul	r25, r19
    3fce:	10 0d       	add	r17, r0
    3fd0:	11 24       	eor	r1, r1
    3fd2:	90 e0       	ldi	r25, 0x00	; 0
    3fd4:	c0 97       	sbiw	r24, 0x30	; 48
    3fd6:	4a e0       	ldi	r20, 0x0A	; 10
    3fd8:	48 9f       	mul	r20, r24
    3fda:	90 01       	movw	r18, r0
    3fdc:	49 9f       	mul	r20, r25
    3fde:	30 0d       	add	r19, r0
    3fe0:	11 24       	eor	r1, r1
    3fe2:	02 0f       	add	r16, r18
    3fe4:	13 1f       	adc	r17, r19
    3fe6:	64 e0       	ldi	r22, 0x04	; 4
    3fe8:	70 e0       	ldi	r23, 0x00	; 0
    3fea:	ce 01       	movw	r24, r28
    3fec:	43 96       	adiw	r24, 0x13	; 19
    3fee:	0e 94 3b 31 	call	0x6276	; 0x6276 <_ZNK6String6charAtEj>
    3ff2:	90 e0       	ldi	r25, 0x00	; 0
    3ff4:	c0 97       	sbiw	r24, 0x30	; 48
    3ff6:	08 0f       	add	r16, r24
    3ff8:	19 1f       	adc	r17, r25
    3ffa:	2f 89       	ldd	r18, Y+23	; 0x17
    3ffc:	38 8d       	ldd	r19, Y+24	; 0x18
    3ffe:	45 e0       	ldi	r20, 0x05	; 5
    4000:	50 e0       	ldi	r21, 0x00	; 0
    4002:	be 01       	movw	r22, r28
    4004:	6d 5e       	subi	r22, 0xED	; 237
    4006:	7f 4f       	sbci	r23, 0xFF	; 255
    4008:	ce 01       	movw	r24, r28
    400a:	01 96       	adiw	r24, 0x01	; 1
    400c:	0e 94 6b 31 	call	0x62d6	; 0x62d6 <_ZNK6String9substringEjj>
    4010:	2b e6       	ldi	r18, 0x6B	; 107
    4012:	38 e2       	ldi	r19, 0x28	; 40
    4014:	41 e0       	ldi	r20, 0x01	; 1
    4016:	50 e0       	ldi	r21, 0x00	; 0
    4018:	b8 01       	movw	r22, r16
    401a:	ce 01       	movw	r24, r28
    401c:	01 96       	adiw	r24, 0x01	; 1
    401e:	44 dd       	rcall	.-1400   	; 0x3aa8 <_Z18addMenuEntryIntNum6StringiiPFvaiE>
    4020:	ce 01       	movw	r24, r28
    4022:	01 96       	adiw	r24, 0x01	; 1
    4024:	0e 94 c4 2f 	call	0x5f88	; 0x5f88 <_ZN6StringD1Ev>
    4028:	61 e1       	ldi	r22, 0x11	; 17
    402a:	73 e0       	ldi	r23, 0x03	; 3
    402c:	ce 01       	movw	r24, r28
    402e:	01 96       	adiw	r24, 0x01	; 1
    4030:	0e 94 2f 30 	call	0x605e	; 0x605e <_ZN6StringC1EPKc>
    4034:	ce 01       	movw	r24, r28
    4036:	01 96       	adiw	r24, 0x01	; 1
    4038:	b0 d9       	rcall	.-3232   	; 0x339a <_Z6addLog6String>
    403a:	ce 01       	movw	r24, r28
    403c:	01 96       	adiw	r24, 0x01	; 1
    403e:	0e 94 c4 2f 	call	0x5f88	; 0x5f88 <_ZN6StringD1Ev>
    4042:	80 91 d8 09 	lds	r24, 0x09D8	; 0x8009d8 <ActiveScreen>
    4046:	90 91 d9 09 	lds	r25, 0x09D9	; 0x8009d9 <ActiveScreen+0x1>
    404a:	01 97       	sbiw	r24, 0x01	; 1
    404c:	09 f0       	breq	.+2      	; 0x4050 <_Z12recMessFunc1Pc+0x154>
    404e:	65 c0       	rjmp	.+202    	; 0x411a <_Z12recMessFunc1Pc+0x21e>
    4050:	6a dd       	rcall	.-1324   	; 0x3b26 <_Z13DrawInterfacev>
    4052:	63 c0       	rjmp	.+198    	; 0x411a <_Z12recMessFunc1Pc+0x21e>
    4054:	61 e0       	ldi	r22, 0x01	; 1
    4056:	70 e0       	ldi	r23, 0x00	; 0
    4058:	ce 01       	movw	r24, r28
    405a:	43 96       	adiw	r24, 0x13	; 19
    405c:	0e 94 3b 31 	call	0x6276	; 0x6276 <_ZNK6String6charAtEj>
    4060:	80 33       	cpi	r24, 0x30	; 48
    4062:	11 f5       	brne	.+68     	; 0x40a8 <_Z12recMessFunc1Pc+0x1ac>
    4064:	62 e0       	ldi	r22, 0x02	; 2
    4066:	70 e0       	ldi	r23, 0x00	; 0
    4068:	ce 01       	movw	r24, r28
    406a:	43 96       	adiw	r24, 0x13	; 19
    406c:	0e 94 3b 31 	call	0x6276	; 0x6276 <_ZNK6String6charAtEj>
    4070:	18 2f       	mov	r17, r24
    4072:	2f 89       	ldd	r18, Y+23	; 0x17
    4074:	38 8d       	ldd	r19, Y+24	; 0x18
    4076:	43 e0       	ldi	r20, 0x03	; 3
    4078:	50 e0       	ldi	r21, 0x00	; 0
    407a:	be 01       	movw	r22, r28
    407c:	6d 5e       	subi	r22, 0xED	; 237
    407e:	7f 4f       	sbci	r23, 0xFF	; 255
    4080:	ce 01       	movw	r24, r28
    4082:	01 96       	adiw	r24, 0x01	; 1
    4084:	0e 94 6b 31 	call	0x62d6	; 0x62d6 <_ZNK6String9substringEjj>
    4088:	61 e0       	ldi	r22, 0x01	; 1
    408a:	10 33       	cpi	r17, 0x30	; 48
    408c:	09 f4       	brne	.+2      	; 0x4090 <_Z12recMessFunc1Pc+0x194>
    408e:	60 e0       	ldi	r22, 0x00	; 0
    4090:	4e ef       	ldi	r20, 0xFE	; 254
    4092:	59 e1       	ldi	r21, 0x19	; 25
    4094:	ce 01       	movw	r24, r28
    4096:	01 96       	adiw	r24, 0x01	; 1
    4098:	d4 dc       	rcall	.-1624   	; 0x3a42 <_Z12addMenuEntry6StringbPFvabE>
    409a:	ce 01       	movw	r24, r28
    409c:	01 96       	adiw	r24, 0x01	; 1
    409e:	0e 94 c4 2f 	call	0x5f88	; 0x5f88 <_ZN6StringD1Ev>
    40a2:	69 e2       	ldi	r22, 0x29	; 41
    40a4:	73 e0       	ldi	r23, 0x03	; 3
    40a6:	c2 cf       	rjmp	.-124    	; 0x402c <_Z12recMessFunc1Pc+0x130>
    40a8:	6a e3       	ldi	r22, 0x3A	; 58
    40aa:	73 e0       	ldi	r23, 0x03	; 3
    40ac:	ce 01       	movw	r24, r28
    40ae:	01 96       	adiw	r24, 0x01	; 1
    40b0:	0e 94 2f 30 	call	0x605e	; 0x605e <_ZN6StringC1EPKc>
    40b4:	ce 01       	movw	r24, r28
    40b6:	01 96       	adiw	r24, 0x01	; 1
    40b8:	70 d9       	rcall	.-3360   	; 0x339a <_Z6addLog6String>
    40ba:	ce 01       	movw	r24, r28
    40bc:	01 96       	adiw	r24, 0x01	; 1
    40be:	2b c0       	rjmp	.+86     	; 0x4116 <_Z12recMessFunc1Pc+0x21a>
    40c0:	69 e5       	ldi	r22, 0x59	; 89
    40c2:	73 e0       	ldi	r23, 0x03	; 3
    40c4:	ce 01       	movw	r24, r28
    40c6:	0d 96       	adiw	r24, 0x0d	; 13
    40c8:	0e 94 2f 30 	call	0x605e	; 0x605e <_ZN6StringC1EPKc>
    40cc:	be 01       	movw	r22, r28
    40ce:	63 5f       	subi	r22, 0xF3	; 243
    40d0:	7f 4f       	sbci	r23, 0xFF	; 255
    40d2:	ce 01       	movw	r24, r28
    40d4:	07 96       	adiw	r24, 0x07	; 7
    40d6:	0e 94 58 30 	call	0x60b0	; 0x60b0 <_ZN6StringC1ERKS_>
    40da:	60 e0       	ldi	r22, 0x00	; 0
    40dc:	ce 01       	movw	r24, r28
    40de:	07 96       	adiw	r24, 0x07	; 7
    40e0:	0e 94 12 31 	call	0x6224	; 0x6224 <_ZplRK15StringSumHelperh>
    40e4:	67 e2       	ldi	r22, 0x27	; 39
    40e6:	74 e0       	ldi	r23, 0x04	; 4
    40e8:	0e 94 fb 30 	call	0x61f6	; 0x61f6 <_ZplRK15StringSumHelperPKc>
    40ec:	b8 01       	movw	r22, r16
    40ee:	0e 94 fb 30 	call	0x61f6	; 0x61f6 <_ZplRK15StringSumHelperPKc>
    40f2:	bc 01       	movw	r22, r24
    40f4:	ce 01       	movw	r24, r28
    40f6:	01 96       	adiw	r24, 0x01	; 1
    40f8:	0e 94 58 30 	call	0x60b0	; 0x60b0 <_ZN6StringC1ERKS_>
    40fc:	ce 01       	movw	r24, r28
    40fe:	01 96       	adiw	r24, 0x01	; 1
    4100:	4c d9       	rcall	.-3432   	; 0x339a <_Z6addLog6String>
    4102:	ce 01       	movw	r24, r28
    4104:	01 96       	adiw	r24, 0x01	; 1
    4106:	0e 94 c4 2f 	call	0x5f88	; 0x5f88 <_ZN6StringD1Ev>
    410a:	ce 01       	movw	r24, r28
    410c:	07 96       	adiw	r24, 0x07	; 7
    410e:	0e 94 c4 2f 	call	0x5f88	; 0x5f88 <_ZN6StringD1Ev>
    4112:	ce 01       	movw	r24, r28
    4114:	0d 96       	adiw	r24, 0x0d	; 13
    4116:	0e 94 c4 2f 	call	0x5f88	; 0x5f88 <_ZN6StringD1Ev>
    411a:	ce 01       	movw	r24, r28
    411c:	43 96       	adiw	r24, 0x13	; 19
    411e:	0e 94 c4 2f 	call	0x5f88	; 0x5f88 <_ZN6StringD1Ev>
    4122:	80 91 d8 09 	lds	r24, 0x09D8	; 0x8009d8 <ActiveScreen>
    4126:	90 91 d9 09 	lds	r25, 0x09D9	; 0x8009d9 <ActiveScreen+0x1>
    412a:	02 97       	sbiw	r24, 0x02	; 2
    412c:	09 f4       	brne	.+2      	; 0x4130 <_Z12recMessFunc1Pc+0x234>
    412e:	7c de       	rcall	.-776    	; 0x3e28 <_Z7drawLogv>
    4130:	68 96       	adiw	r28, 0x18	; 24
    4132:	0f b6       	in	r0, 0x3f	; 63
    4134:	f8 94       	cli
    4136:	de bf       	out	0x3e, r29	; 62
    4138:	0f be       	out	0x3f, r0	; 63
    413a:	cd bf       	out	0x3d, r28	; 61
    413c:	df 91       	pop	r29
    413e:	cf 91       	pop	r28
    4140:	1f 91       	pop	r17
    4142:	0f 91       	pop	r16
    4144:	08 95       	ret

00004146 <_Z10drawButtoniiiiPca>:
    4146:	6f 92       	push	r6
    4148:	7f 92       	push	r7
    414a:	8f 92       	push	r8
    414c:	9f 92       	push	r9
    414e:	af 92       	push	r10
    4150:	bf 92       	push	r11
    4152:	cf 92       	push	r12
    4154:	df 92       	push	r13
    4156:	ef 92       	push	r14
    4158:	0f 93       	push	r16
    415a:	1f 93       	push	r17
    415c:	cf 93       	push	r28
    415e:	df 93       	push	r29
    4160:	6c 01       	movw	r12, r24
    4162:	eb 01       	movw	r28, r22
    4164:	3a 01       	movw	r6, r20
    4166:	59 01       	movw	r10, r18
    4168:	48 01       	movw	r8, r16
    416a:	20 e0       	ldi	r18, 0x00	; 0
    416c:	40 e0       	ldi	r20, 0x00	; 0
    416e:	60 e0       	ldi	r22, 0x00	; 0
    4170:	84 e7       	ldi	r24, 0x74	; 116
    4172:	9a e0       	ldi	r25, 0x0A	; 10
    4174:	0e 94 42 3f 	call	0x7e84	; 0x7e84 <_ZN4UTFT8setColorEhhh>
    4178:	85 01       	movw	r16, r10
    417a:	01 50       	subi	r16, 0x01	; 1
    417c:	11 09       	sbc	r17, r1
    417e:	93 01       	movw	r18, r6
    4180:	21 50       	subi	r18, 0x01	; 1
    4182:	31 09       	sbc	r19, r1
    4184:	ae 01       	movw	r20, r28
    4186:	4f 5f       	subi	r20, 0xFF	; 255
    4188:	5f 4f       	sbci	r21, 0xFF	; 255
    418a:	b6 01       	movw	r22, r12
    418c:	6f 5f       	subi	r22, 0xFF	; 255
    418e:	7f 4f       	sbci	r23, 0xFF	; 255
    4190:	84 e7       	ldi	r24, 0x74	; 116
    4192:	9a e0       	ldi	r25, 0x0A	; 10
    4194:	0e 94 ef 3f 	call	0x7fde	; 0x7fde <_ZN4UTFT13fillRoundRectEiiii>
    4198:	2f ef       	ldi	r18, 0xFF	; 255
    419a:	4f ef       	ldi	r20, 0xFF	; 255
    419c:	6f ef       	ldi	r22, 0xFF	; 255
    419e:	84 e7       	ldi	r24, 0x74	; 116
    41a0:	9a e0       	ldi	r25, 0x0A	; 10
    41a2:	0e 94 42 3f 	call	0x7e84	; 0x7e84 <_ZN4UTFT8setColorEhhh>
    41a6:	20 e0       	ldi	r18, 0x00	; 0
    41a8:	40 e0       	ldi	r20, 0x00	; 0
    41aa:	60 e0       	ldi	r22, 0x00	; 0
    41ac:	84 e7       	ldi	r24, 0x74	; 116
    41ae:	9a e0       	ldi	r25, 0x0A	; 10
    41b0:	0e 94 56 3f 	call	0x7eac	; 0x7eac <_ZN4UTFT12setBackColorEhhh>
    41b4:	81 e0       	ldi	r24, 0x01	; 1
    41b6:	e8 12       	cpse	r14, r24
    41b8:	19 c0       	rjmp	.+50     	; 0x41ec <_Z10drawButtoniiiiPca+0xa6>
    41ba:	6e ee       	ldi	r22, 0xEE	; 238
    41bc:	78 e1       	ldi	r23, 0x18	; 24
    41be:	84 e7       	ldi	r24, 0x74	; 116
    41c0:	9a e0       	ldi	r25, 0x0A	; 10
    41c2:	0e 94 2f 49 	call	0x925e	; 0x925e <_ZN4UTFT7setFontEPh>
    41c6:	95 01       	movw	r18, r10
    41c8:	2c 1b       	sub	r18, r28
    41ca:	3d 0b       	sbc	r19, r29
    41cc:	37 ff       	sbrs	r19, 7
    41ce:	02 c0       	rjmp	.+4      	; 0x41d4 <_Z10drawButtoniiiiPca+0x8e>
    41d0:	2f 5f       	subi	r18, 0xFF	; 255
    41d2:	3f 4f       	sbci	r19, 0xFF	; 255
    41d4:	35 95       	asr	r19
    41d6:	27 95       	ror	r18
    41d8:	2c 0f       	add	r18, r28
    41da:	3d 1f       	adc	r19, r29
    41dc:	28 51       	subi	r18, 0x18	; 24
    41de:	31 09       	sbc	r19, r1
    41e0:	00 e0       	ldi	r16, 0x00	; 0
    41e2:	10 e0       	ldi	r17, 0x00	; 0
    41e4:	a6 01       	movw	r20, r12
    41e6:	4a 5e       	subi	r20, 0xEA	; 234
    41e8:	5f 4f       	sbci	r21, 0xFF	; 255
    41ea:	36 c0       	rjmp	.+108    	; 0x4258 <_Z10drawButtoniiiiPca+0x112>
    41ec:	e1 10       	cpse	r14, r1
    41ee:	19 c0       	rjmp	.+50     	; 0x4222 <_Z10drawButtoniiiiPca+0xdc>
    41f0:	62 ec       	ldi	r22, 0xC2	; 194
    41f2:	70 e2       	ldi	r23, 0x20	; 32
    41f4:	84 e7       	ldi	r24, 0x74	; 116
    41f6:	9a e0       	ldi	r25, 0x0A	; 10
    41f8:	0e 94 2f 49 	call	0x925e	; 0x925e <_ZN4UTFT7setFontEPh>
    41fc:	95 01       	movw	r18, r10
    41fe:	2c 1b       	sub	r18, r28
    4200:	3d 0b       	sbc	r19, r29
    4202:	37 ff       	sbrs	r19, 7
    4204:	02 c0       	rjmp	.+4      	; 0x420a <_Z10drawButtoniiiiPca+0xc4>
    4206:	2f 5f       	subi	r18, 0xFF	; 255
    4208:	3f 4f       	sbci	r19, 0xFF	; 255
    420a:	35 95       	asr	r19
    420c:	27 95       	ror	r18
    420e:	2c 0f       	add	r18, r28
    4210:	3d 1f       	adc	r19, r29
    4212:	28 50       	subi	r18, 0x08	; 8
    4214:	31 09       	sbc	r19, r1
    4216:	00 e0       	ldi	r16, 0x00	; 0
    4218:	10 e0       	ldi	r17, 0x00	; 0
    421a:	a6 01       	movw	r20, r12
    421c:	4b 5f       	subi	r20, 0xFB	; 251
    421e:	5f 4f       	sbci	r21, 0xFF	; 255
    4220:	1b c0       	rjmp	.+54     	; 0x4258 <_Z10drawButtoniiiiPca+0x112>
    4222:	82 e0       	ldi	r24, 0x02	; 2
    4224:	e8 12       	cpse	r14, r24
    4226:	1d c0       	rjmp	.+58     	; 0x4262 <_Z10drawButtoniiiiPca+0x11c>
    4228:	66 ea       	ldi	r22, 0xA6	; 166
    422a:	7c e2       	ldi	r23, 0x2C	; 44
    422c:	84 e7       	ldi	r24, 0x74	; 116
    422e:	9a e0       	ldi	r25, 0x0A	; 10
    4230:	0e 94 2f 49 	call	0x925e	; 0x925e <_ZN4UTFT7setFontEPh>
    4234:	95 01       	movw	r18, r10
    4236:	2c 1b       	sub	r18, r28
    4238:	3d 0b       	sbc	r19, r29
    423a:	37 ff       	sbrs	r19, 7
    423c:	02 c0       	rjmp	.+4      	; 0x4242 <_Z10drawButtoniiiiPca+0xfc>
    423e:	2f 5f       	subi	r18, 0xFF	; 255
    4240:	3f 4f       	sbci	r19, 0xFF	; 255
    4242:	35 95       	asr	r19
    4244:	27 95       	ror	r18
    4246:	2c 0f       	add	r18, r28
    4248:	3d 1f       	adc	r19, r29
    424a:	25 50       	subi	r18, 0x05	; 5
    424c:	31 09       	sbc	r19, r1
    424e:	00 e0       	ldi	r16, 0x00	; 0
    4250:	10 e0       	ldi	r17, 0x00	; 0
    4252:	a6 01       	movw	r20, r12
    4254:	49 5f       	subi	r20, 0xF9	; 249
    4256:	5f 4f       	sbci	r21, 0xFF	; 255
    4258:	b4 01       	movw	r22, r8
    425a:	84 e7       	ldi	r24, 0x74	; 116
    425c:	9a e0       	ldi	r25, 0x0A	; 10
    425e:	0e 94 5b 47 	call	0x8eb6	; 0x8eb6 <_ZN4UTFT5printEPciii>
    4262:	20 e0       	ldi	r18, 0x00	; 0
    4264:	40 e0       	ldi	r20, 0x00	; 0
    4266:	6f ef       	ldi	r22, 0xFF	; 255
    4268:	84 e7       	ldi	r24, 0x74	; 116
    426a:	9a e0       	ldi	r25, 0x0A	; 10
    426c:	0e 94 42 3f 	call	0x7e84	; 0x7e84 <_ZN4UTFT8setColorEhhh>
    4270:	85 01       	movw	r16, r10
    4272:	93 01       	movw	r18, r6
    4274:	ae 01       	movw	r20, r28
    4276:	b6 01       	movw	r22, r12
    4278:	84 e7       	ldi	r24, 0x74	; 116
    427a:	9a e0       	ldi	r25, 0x0A	; 10
    427c:	0e 94 3e 41 	call	0x827c	; 0x827c <_ZN4UTFT13drawRoundRectEiiii>
    4280:	df 91       	pop	r29
    4282:	cf 91       	pop	r28
    4284:	1f 91       	pop	r17
    4286:	0f 91       	pop	r16
    4288:	ef 90       	pop	r14
    428a:	df 90       	pop	r13
    428c:	cf 90       	pop	r12
    428e:	bf 90       	pop	r11
    4290:	af 90       	pop	r10
    4292:	9f 90       	pop	r9
    4294:	8f 90       	pop	r8
    4296:	7f 90       	pop	r7
    4298:	6f 90       	pop	r6
    429a:	08 95       	ret

0000429c <_Z12applyChangesv>:
    429c:	ef 92       	push	r14
    429e:	ff 92       	push	r15
    42a0:	0f 93       	push	r16
    42a2:	1f 93       	push	r17
    42a4:	cf 93       	push	r28
    42a6:	df 93       	push	r29
    42a8:	cd b7       	in	r28, 0x3d	; 61
    42aa:	de b7       	in	r29, 0x3e	; 62
    42ac:	62 97       	sbiw	r28, 0x12	; 18
    42ae:	0f b6       	in	r0, 0x3f	; 63
    42b0:	f8 94       	cli
    42b2:	de bf       	out	0x3e, r29	; 62
    42b4:	0f be       	out	0x3f, r0	; 63
    42b6:	cd bf       	out	0x3d, r28	; 61
    42b8:	86 e2       	ldi	r24, 0x26	; 38
    42ba:	e8 2e       	mov	r14, r24
    42bc:	85 e0       	ldi	r24, 0x05	; 5
    42be:	f8 2e       	mov	r15, r24
    42c0:	00 e0       	ldi	r16, 0x00	; 0
    42c2:	10 e0       	ldi	r17, 0x00	; 0
    42c4:	80 91 dc 09 	lds	r24, 0x09DC	; 0x8009dc <NumberOfMenuEntries>
    42c8:	90 91 dd 09 	lds	r25, 0x09DD	; 0x8009dd <NumberOfMenuEntries+0x1>
    42cc:	08 17       	cp	r16, r24
    42ce:	19 07       	cpc	r17, r25
    42d0:	94 f5       	brge	.+100    	; 0x4336 <_Z12applyChangesv+0x9a>
    42d2:	f7 01       	movw	r30, r14
    42d4:	80 81       	ld	r24, Z
    42d6:	88 23       	and	r24, r24
    42d8:	41 f1       	breq	.+80     	; 0x432a <_Z12applyChangesv+0x8e>
    42da:	67 e6       	ldi	r22, 0x67	; 103
    42dc:	73 e0       	ldi	r23, 0x03	; 3
    42de:	ce 01       	movw	r24, r28
    42e0:	0d 96       	adiw	r24, 0x0d	; 13
    42e2:	0e 94 2f 30 	call	0x605e	; 0x605e <_ZN6StringC1EPKc>
    42e6:	be 01       	movw	r22, r28
    42e8:	63 5f       	subi	r22, 0xF3	; 243
    42ea:	7f 4f       	sbci	r23, 0xFF	; 255
    42ec:	ce 01       	movw	r24, r28
    42ee:	07 96       	adiw	r24, 0x07	; 7
    42f0:	0e 94 58 30 	call	0x60b0	; 0x60b0 <_ZN6StringC1ERKS_>
    42f4:	b8 01       	movw	r22, r16
    42f6:	ce 01       	movw	r24, r28
    42f8:	07 96       	adiw	r24, 0x07	; 7
    42fa:	0e 94 1e 31 	call	0x623c	; 0x623c <_ZplRK15StringSumHelperi>
    42fe:	bc 01       	movw	r22, r24
    4300:	ce 01       	movw	r24, r28
    4302:	01 96       	adiw	r24, 0x01	; 1
    4304:	0e 94 58 30 	call	0x60b0	; 0x60b0 <_ZN6StringC1ERKS_>
    4308:	ce 01       	movw	r24, r28
    430a:	01 96       	adiw	r24, 0x01	; 1
    430c:	46 d8       	rcall	.-3956   	; 0x339a <_Z6addLog6String>
    430e:	ce 01       	movw	r24, r28
    4310:	01 96       	adiw	r24, 0x01	; 1
    4312:	0e 94 c4 2f 	call	0x5f88	; 0x5f88 <_ZN6StringD1Ev>
    4316:	ce 01       	movw	r24, r28
    4318:	07 96       	adiw	r24, 0x07	; 7
    431a:	0e 94 c4 2f 	call	0x5f88	; 0x5f88 <_ZN6StringD1Ev>
    431e:	f7 01       	movw	r30, r14
    4320:	10 82       	st	Z, r1
    4322:	ce 01       	movw	r24, r28
    4324:	0d 96       	adiw	r24, 0x0d	; 13
    4326:	0e 94 c4 2f 	call	0x5f88	; 0x5f88 <_ZN6StringD1Ev>
    432a:	0f 5f       	subi	r16, 0xFF	; 255
    432c:	1f 4f       	sbci	r17, 0xFF	; 255
    432e:	f8 e1       	ldi	r31, 0x18	; 24
    4330:	ef 0e       	add	r14, r31
    4332:	f1 1c       	adc	r15, r1
    4334:	c7 cf       	rjmp	.-114    	; 0x42c4 <_Z12applyChangesv+0x28>
    4336:	62 96       	adiw	r28, 0x12	; 18
    4338:	0f b6       	in	r0, 0x3f	; 63
    433a:	f8 94       	cli
    433c:	de bf       	out	0x3e, r29	; 62
    433e:	0f be       	out	0x3f, r0	; 63
    4340:	cd bf       	out	0x3d, r28	; 61
    4342:	df 91       	pop	r29
    4344:	cf 91       	pop	r28
    4346:	1f 91       	pop	r17
    4348:	0f 91       	pop	r16
    434a:	ff 90       	pop	r15
    434c:	ef 90       	pop	r14
    434e:	08 95       	ret

00004350 <_Z10drawMsgBoxv>:
    4350:	ef 92       	push	r14
    4352:	0f 93       	push	r16
    4354:	1f 93       	push	r17
    4356:	83 e0       	ldi	r24, 0x03	; 3
    4358:	90 e0       	ldi	r25, 0x00	; 0
    435a:	90 93 d9 09 	sts	0x09D9, r25	; 0x8009d9 <ActiveScreen+0x1>
    435e:	80 93 d8 09 	sts	0x09D8, r24	; 0x8009d8 <ActiveScreen>
    4362:	19 d8       	rcall	.-4046   	; 0x3396 <ESP8266_isConnected>
    4364:	88 23       	and	r24, r24
    4366:	19 f0       	breq	.+6      	; 0x436e <_Z10drawMsgBoxv+0x1e>
    4368:	20 e0       	ldi	r18, 0x00	; 0
    436a:	4f ef       	ldi	r20, 0xFF	; 255
    436c:	02 c0       	rjmp	.+4      	; 0x4372 <_Z10drawMsgBoxv+0x22>
    436e:	2f ef       	ldi	r18, 0xFF	; 255
    4370:	40 e0       	ldi	r20, 0x00	; 0
    4372:	60 e0       	ldi	r22, 0x00	; 0
    4374:	84 e7       	ldi	r24, 0x74	; 116
    4376:	9a e0       	ldi	r25, 0x0A	; 10
    4378:	0e 94 42 3f 	call	0x7e84	; 0x7e84 <_ZN4UTFT8setColorEhhh>
    437c:	04 e1       	ldi	r16, 0x14	; 20
    437e:	10 e0       	ldi	r17, 0x00	; 0
    4380:	21 e9       	ldi	r18, 0x91	; 145
    4382:	30 e0       	ldi	r19, 0x00	; 0
    4384:	40 e0       	ldi	r20, 0x00	; 0
    4386:	50 e0       	ldi	r21, 0x00	; 0
    4388:	6f ea       	ldi	r22, 0xAF	; 175
    438a:	70 e0       	ldi	r23, 0x00	; 0
    438c:	84 e7       	ldi	r24, 0x74	; 116
    438e:	9a e0       	ldi	r25, 0x0A	; 10
    4390:	0e 94 ef 3f 	call	0x7fde	; 0x7fde <_ZN4UTFT13fillRoundRectEiiii>
    4394:	01 e0       	ldi	r16, 0x01	; 1
    4396:	10 e0       	ldi	r17, 0x00	; 0
    4398:	21 e9       	ldi	r18, 0x91	; 145
    439a:	30 e0       	ldi	r19, 0x00	; 0
    439c:	40 e0       	ldi	r20, 0x00	; 0
    439e:	50 e0       	ldi	r21, 0x00	; 0
    43a0:	6f ea       	ldi	r22, 0xAF	; 175
    43a2:	70 e0       	ldi	r23, 0x00	; 0
    43a4:	84 e7       	ldi	r24, 0x74	; 116
    43a6:	9a e0       	ldi	r25, 0x0A	; 10
    43a8:	0e 94 f0 41 	call	0x83e0	; 0x83e0 <_ZN4UTFT8fillRectEiiii>
    43ac:	20 e0       	ldi	r18, 0x00	; 0
    43ae:	40 e0       	ldi	r20, 0x00	; 0
    43b0:	6f ef       	ldi	r22, 0xFF	; 255
    43b2:	84 e7       	ldi	r24, 0x74	; 116
    43b4:	9a e0       	ldi	r25, 0x0A	; 10
    43b6:	0e 94 42 3f 	call	0x7e84	; 0x7e84 <_ZN4UTFT8setColorEhhh>
    43ba:	08 ec       	ldi	r16, 0xC8	; 200
    43bc:	10 e0       	ldi	r17, 0x00	; 0
    43be:	28 e1       	ldi	r18, 0x18	; 24
    43c0:	31 e0       	ldi	r19, 0x01	; 1
    43c2:	42 e3       	ldi	r20, 0x32	; 50
    43c4:	50 e0       	ldi	r21, 0x00	; 0
    43c6:	6e e1       	ldi	r22, 0x1E	; 30
    43c8:	70 e0       	ldi	r23, 0x00	; 0
    43ca:	84 e7       	ldi	r24, 0x74	; 116
    43cc:	9a e0       	ldi	r25, 0x0A	; 10
    43ce:	0e 94 3e 41 	call	0x827c	; 0x827c <_ZN4UTFT13drawRoundRectEiiii>
    43d2:	20 e0       	ldi	r18, 0x00	; 0
    43d4:	40 e0       	ldi	r20, 0x00	; 0
    43d6:	60 e0       	ldi	r22, 0x00	; 0
    43d8:	84 e7       	ldi	r24, 0x74	; 116
    43da:	9a e0       	ldi	r25, 0x0A	; 10
    43dc:	0e 94 42 3f 	call	0x7e84	; 0x7e84 <_ZN4UTFT8setColorEhhh>
    43e0:	07 ec       	ldi	r16, 0xC7	; 199
    43e2:	10 e0       	ldi	r17, 0x00	; 0
    43e4:	27 e1       	ldi	r18, 0x17	; 23
    43e6:	31 e0       	ldi	r19, 0x01	; 1
    43e8:	43 e3       	ldi	r20, 0x33	; 51
    43ea:	50 e0       	ldi	r21, 0x00	; 0
    43ec:	6f e1       	ldi	r22, 0x1F	; 31
    43ee:	70 e0       	ldi	r23, 0x00	; 0
    43f0:	84 e7       	ldi	r24, 0x74	; 116
    43f2:	9a e0       	ldi	r25, 0x0A	; 10
    43f4:	0e 94 ef 3f 	call	0x7fde	; 0x7fde <_ZN4UTFT13fillRoundRectEiiii>
    43f8:	2f ef       	ldi	r18, 0xFF	; 255
    43fa:	4f ef       	ldi	r20, 0xFF	; 255
    43fc:	6f ef       	ldi	r22, 0xFF	; 255
    43fe:	84 e7       	ldi	r24, 0x74	; 116
    4400:	9a e0       	ldi	r25, 0x0A	; 10
    4402:	0e 94 42 3f 	call	0x7e84	; 0x7e84 <_ZN4UTFT8setColorEhhh>
    4406:	20 e0       	ldi	r18, 0x00	; 0
    4408:	40 e0       	ldi	r20, 0x00	; 0
    440a:	60 e0       	ldi	r22, 0x00	; 0
    440c:	84 e7       	ldi	r24, 0x74	; 116
    440e:	9a e0       	ldi	r25, 0x0A	; 10
    4410:	0e 94 56 3f 	call	0x7eac	; 0x7eac <_ZN4UTFT12setBackColorEhhh>
    4414:	66 ea       	ldi	r22, 0xA6	; 166
    4416:	7c e2       	ldi	r23, 0x2C	; 44
    4418:	84 e7       	ldi	r24, 0x74	; 116
    441a:	9a e0       	ldi	r25, 0x0A	; 10
    441c:	0e 94 2f 49 	call	0x925e	; 0x925e <_ZN4UTFT7setFontEPh>
    4420:	00 e0       	ldi	r16, 0x00	; 0
    4422:	10 e0       	ldi	r17, 0x00	; 0
    4424:	26 e4       	ldi	r18, 0x46	; 70
    4426:	30 e0       	ldi	r19, 0x00	; 0
    4428:	42 e3       	ldi	r20, 0x32	; 50
    442a:	50 e0       	ldi	r21, 0x00	; 0
    442c:	62 e8       	ldi	r22, 0x82	; 130
    442e:	73 e0       	ldi	r23, 0x03	; 3
    4430:	84 e7       	ldi	r24, 0x74	; 116
    4432:	9a e0       	ldi	r25, 0x0A	; 10
    4434:	0e 94 5b 47 	call	0x8eb6	; 0x8eb6 <_ZN4UTFT5printEPciii>
    4438:	2a e5       	ldi	r18, 0x5A	; 90
    443a:	30 e0       	ldi	r19, 0x00	; 0
    443c:	42 e3       	ldi	r20, 0x32	; 50
    443e:	50 e0       	ldi	r21, 0x00	; 0
    4440:	6b e8       	ldi	r22, 0x8B	; 139
    4442:	73 e0       	ldi	r23, 0x03	; 3
    4444:	84 e7       	ldi	r24, 0x74	; 116
    4446:	9a e0       	ldi	r25, 0x0A	; 10
    4448:	0e 94 5b 47 	call	0x8eb6	; 0x8eb6 <_ZN4UTFT5printEPciii>
    444c:	0e 94 cb 19 	call	0x3396	; 0x3396 <ESP8266_isConnected>
    4450:	88 23       	and	r24, r24
    4452:	71 f0       	breq	.+28     	; 0x4470 <_Z10drawMsgBoxv+0x120>
    4454:	20 e0       	ldi	r18, 0x00	; 0
    4456:	4f ef       	ldi	r20, 0xFF	; 255
    4458:	60 e0       	ldi	r22, 0x00	; 0
    445a:	84 e7       	ldi	r24, 0x74	; 116
    445c:	9a e0       	ldi	r25, 0x0A	; 10
    445e:	0e 94 42 3f 	call	0x7e84	; 0x7e84 <_ZN4UTFT8setColorEhhh>
    4462:	2e e6       	ldi	r18, 0x6E	; 110
    4464:	30 e0       	ldi	r19, 0x00	; 0
    4466:	42 e3       	ldi	r20, 0x32	; 50
    4468:	50 e0       	ldi	r21, 0x00	; 0
    446a:	60 ea       	ldi	r22, 0xA0	; 160
    446c:	73 e0       	ldi	r23, 0x03	; 3
    446e:	0f c0       	rjmp	.+30     	; 0x448e <_Z10drawMsgBoxv+0x13e>
    4470:	2f ef       	ldi	r18, 0xFF	; 255
    4472:	40 e0       	ldi	r20, 0x00	; 0
    4474:	60 e0       	ldi	r22, 0x00	; 0
    4476:	84 e7       	ldi	r24, 0x74	; 116
    4478:	9a e0       	ldi	r25, 0x0A	; 10
    447a:	0e 94 42 3f 	call	0x7e84	; 0x7e84 <_ZN4UTFT8setColorEhhh>
    447e:	00 e0       	ldi	r16, 0x00	; 0
    4480:	10 e0       	ldi	r17, 0x00	; 0
    4482:	2e e6       	ldi	r18, 0x6E	; 110
    4484:	30 e0       	ldi	r19, 0x00	; 0
    4486:	42 e3       	ldi	r20, 0x32	; 50
    4488:	50 e0       	ldi	r21, 0x00	; 0
    448a:	64 eb       	ldi	r22, 0xB4	; 180
    448c:	73 e0       	ldi	r23, 0x03	; 3
    448e:	84 e7       	ldi	r24, 0x74	; 116
    4490:	9a e0       	ldi	r25, 0x0A	; 10
    4492:	0e 94 5b 47 	call	0x8eb6	; 0x8eb6 <_ZN4UTFT5printEPciii>
    4496:	80 91 22 05 	lds	r24, 0x0522	; 0x800522 <InitSucsessfull>
    449a:	92 e0       	ldi	r25, 0x02	; 2
    449c:	e9 2e       	mov	r14, r25
    449e:	88 23       	and	r24, r24
    44a0:	d9 f0       	breq	.+54     	; 0x44d8 <_Z10drawMsgBoxv+0x188>
    44a2:	09 ec       	ldi	r16, 0xC9	; 201
    44a4:	13 e0       	ldi	r17, 0x03	; 3
    44a6:	2e eb       	ldi	r18, 0xBE	; 190
    44a8:	30 e0       	ldi	r19, 0x00	; 0
    44aa:	4c eb       	ldi	r20, 0xBC	; 188
    44ac:	50 e0       	ldi	r21, 0x00	; 0
    44ae:	6a ea       	ldi	r22, 0xAA	; 170
    44b0:	70 e0       	ldi	r23, 0x00	; 0
    44b2:	8a e7       	ldi	r24, 0x7A	; 122
    44b4:	90 e0       	ldi	r25, 0x00	; 0
    44b6:	47 de       	rcall	.-882    	; 0x4146 <_Z10drawButtoniiiiPca>
    44b8:	20 e0       	ldi	r18, 0x00	; 0
    44ba:	4f ef       	ldi	r20, 0xFF	; 255
    44bc:	60 e0       	ldi	r22, 0x00	; 0
    44be:	84 e7       	ldi	r24, 0x74	; 116
    44c0:	9a e0       	ldi	r25, 0x0A	; 10
    44c2:	0e 94 42 3f 	call	0x7e84	; 0x7e84 <_ZN4UTFT8setColorEhhh>
    44c6:	00 e0       	ldi	r16, 0x00	; 0
    44c8:	10 e0       	ldi	r17, 0x00	; 0
    44ca:	26 e4       	ldi	r18, 0x46	; 70
    44cc:	30 e0       	ldi	r19, 0x00	; 0
    44ce:	48 e7       	ldi	r20, 0x78	; 120
    44d0:	50 e0       	ldi	r21, 0x00	; 0
    44d2:	60 ed       	ldi	r22, 0xD0	; 208
    44d4:	73 e0       	ldi	r23, 0x03	; 3
    44d6:	1a c0       	rjmp	.+52     	; 0x450c <_Z10drawMsgBoxv+0x1bc>
    44d8:	0f ed       	ldi	r16, 0xDF	; 223
    44da:	13 e0       	ldi	r17, 0x03	; 3
    44dc:	2e eb       	ldi	r18, 0xBE	; 190
    44de:	30 e0       	ldi	r19, 0x00	; 0
    44e0:	4c eb       	ldi	r20, 0xBC	; 188
    44e2:	50 e0       	ldi	r21, 0x00	; 0
    44e4:	6a ea       	ldi	r22, 0xAA	; 170
    44e6:	70 e0       	ldi	r23, 0x00	; 0
    44e8:	8a e7       	ldi	r24, 0x7A	; 122
    44ea:	90 e0       	ldi	r25, 0x00	; 0
    44ec:	2c de       	rcall	.-936    	; 0x4146 <_Z10drawButtoniiiiPca>
    44ee:	2f ef       	ldi	r18, 0xFF	; 255
    44f0:	40 e0       	ldi	r20, 0x00	; 0
    44f2:	60 e0       	ldi	r22, 0x00	; 0
    44f4:	84 e7       	ldi	r24, 0x74	; 116
    44f6:	9a e0       	ldi	r25, 0x0A	; 10
    44f8:	0e 94 42 3f 	call	0x7e84	; 0x7e84 <_ZN4UTFT8setColorEhhh>
    44fc:	00 e0       	ldi	r16, 0x00	; 0
    44fe:	10 e0       	ldi	r17, 0x00	; 0
    4500:	26 e4       	ldi	r18, 0x46	; 70
    4502:	30 e0       	ldi	r19, 0x00	; 0
    4504:	48 e7       	ldi	r20, 0x78	; 120
    4506:	50 e0       	ldi	r21, 0x00	; 0
    4508:	66 ee       	ldi	r22, 0xE6	; 230
    450a:	73 e0       	ldi	r23, 0x03	; 3
    450c:	84 e7       	ldi	r24, 0x74	; 116
    450e:	9a e0       	ldi	r25, 0x0A	; 10
    4510:	0e 94 5b 47 	call	0x8eb6	; 0x8eb6 <_ZN4UTFT5printEPciii>
    4514:	1f 91       	pop	r17
    4516:	0f 91       	pop	r16
    4518:	ef 90       	pop	r14
    451a:	08 95       	ret

0000451c <_Z9waitForItiiii>:
    451c:	af 92       	push	r10
    451e:	bf 92       	push	r11
    4520:	cf 92       	push	r12
    4522:	df 92       	push	r13
    4524:	ef 92       	push	r14
    4526:	ff 92       	push	r15
    4528:	0f 93       	push	r16
    452a:	1f 93       	push	r17
    452c:	cf 93       	push	r28
    452e:	df 93       	push	r29
    4530:	ec 01       	movw	r28, r24
    4532:	7b 01       	movw	r14, r22
    4534:	6a 01       	movw	r12, r20
    4536:	59 01       	movw	r10, r18
    4538:	2f ef       	ldi	r18, 0xFF	; 255
    453a:	40 e0       	ldi	r20, 0x00	; 0
    453c:	60 e0       	ldi	r22, 0x00	; 0
    453e:	84 e7       	ldi	r24, 0x74	; 116
    4540:	9a e0       	ldi	r25, 0x0A	; 10
    4542:	0e 94 42 3f 	call	0x7e84	; 0x7e84 <_ZN4UTFT8setColorEhhh>
    4546:	85 01       	movw	r16, r10
    4548:	96 01       	movw	r18, r12
    454a:	a7 01       	movw	r20, r14
    454c:	be 01       	movw	r22, r28
    454e:	84 e7       	ldi	r24, 0x74	; 116
    4550:	9a e0       	ldi	r25, 0x0A	; 10
    4552:	0e 94 3e 41 	call	0x827c	; 0x827c <_ZN4UTFT13drawRoundRectEiiii>
    4556:	89 e3       	ldi	r24, 0x39	; 57
    4558:	9a e0       	ldi	r25, 0x0A	; 10
    455a:	0e 94 6e 34 	call	0x68dc	; 0x68dc <_ZN7URTouch13dataAvailableEv>
    455e:	88 23       	and	r24, r24
    4560:	29 f0       	breq	.+10     	; 0x456c <_Z9waitForItiiii+0x50>
    4562:	89 e3       	ldi	r24, 0x39	; 57
    4564:	9a e0       	ldi	r25, 0x0A	; 10
    4566:	0e 94 c9 32 	call	0x6592	; 0x6592 <_ZN7URTouch4readEv>
    456a:	f5 cf       	rjmp	.-22     	; 0x4556 <_Z9waitForItiiii+0x3a>
    456c:	2f ef       	ldi	r18, 0xFF	; 255
    456e:	4f ef       	ldi	r20, 0xFF	; 255
    4570:	6f ef       	ldi	r22, 0xFF	; 255
    4572:	84 e7       	ldi	r24, 0x74	; 116
    4574:	9a e0       	ldi	r25, 0x0A	; 10
    4576:	0e 94 42 3f 	call	0x7e84	; 0x7e84 <_ZN4UTFT8setColorEhhh>
    457a:	85 01       	movw	r16, r10
    457c:	96 01       	movw	r18, r12
    457e:	a7 01       	movw	r20, r14
    4580:	be 01       	movw	r22, r28
    4582:	84 e7       	ldi	r24, 0x74	; 116
    4584:	9a e0       	ldi	r25, 0x0A	; 10
    4586:	0e 94 3e 41 	call	0x827c	; 0x827c <_ZN4UTFT13drawRoundRectEiiii>
    458a:	df 91       	pop	r29
    458c:	cf 91       	pop	r28
    458e:	1f 91       	pop	r17
    4590:	0f 91       	pop	r16
    4592:	ff 90       	pop	r15
    4594:	ef 90       	pop	r14
    4596:	df 90       	pop	r13
    4598:	cf 90       	pop	r12
    459a:	bf 90       	pop	r11
    459c:	af 90       	pop	r10
    459e:	08 95       	ret

000045a0 <_Z18drawKeyboardScreeni>:
    45a0:	af 92       	push	r10
    45a2:	bf 92       	push	r11
    45a4:	cf 92       	push	r12
    45a6:	df 92       	push	r13
    45a8:	ef 92       	push	r14
    45aa:	ff 92       	push	r15
    45ac:	0f 93       	push	r16
    45ae:	1f 93       	push	r17
    45b0:	cf 93       	push	r28
    45b2:	df 93       	push	r29
    45b4:	ec 01       	movw	r28, r24
    45b6:	84 e0       	ldi	r24, 0x04	; 4
    45b8:	90 e0       	ldi	r25, 0x00	; 0
    45ba:	90 93 d9 09 	sts	0x09D9, r25	; 0x8009d9 <ActiveScreen+0x1>
    45be:	80 93 d8 09 	sts	0x09D8, r24	; 0x8009d8 <ActiveScreen>
    45c2:	20 e0       	ldi	r18, 0x00	; 0
    45c4:	4f ef       	ldi	r20, 0xFF	; 255
    45c6:	60 e0       	ldi	r22, 0x00	; 0
    45c8:	84 e7       	ldi	r24, 0x74	; 116
    45ca:	9a e0       	ldi	r25, 0x0A	; 10
    45cc:	0e 94 42 3f 	call	0x7e84	; 0x7e84 <_ZN4UTFT8setColorEhhh>
    45d0:	62 ec       	ldi	r22, 0xC2	; 194
    45d2:	70 e2       	ldi	r23, 0x20	; 32
    45d4:	84 e7       	ldi	r24, 0x74	; 116
    45d6:	9a e0       	ldi	r25, 0x0A	; 10
    45d8:	0e 94 2f 49 	call	0x925e	; 0x925e <_ZN4UTFT7setFontEPh>
    45dc:	20 e0       	ldi	r18, 0x00	; 0
    45de:	40 e0       	ldi	r20, 0x00	; 0
    45e0:	60 e0       	ldi	r22, 0x00	; 0
    45e2:	84 e7       	ldi	r24, 0x74	; 116
    45e4:	9a e0       	ldi	r25, 0x0A	; 10
    45e6:	0e 94 56 3f 	call	0x7eac	; 0x7eac <_ZN4UTFT12setBackColorEhhh>
    45ea:	ae 01       	movw	r20, r28
    45ec:	0d 2e       	mov	r0, r29
    45ee:	00 0c       	add	r0, r0
    45f0:	66 0b       	sbc	r22, r22
    45f2:	77 0b       	sbc	r23, r23
    45f4:	90 e2       	ldi	r25, 0x20	; 32
    45f6:	c9 2e       	mov	r12, r25
    45f8:	e1 2c       	mov	r14, r1
    45fa:	f1 2c       	mov	r15, r1
    45fc:	00 e0       	ldi	r16, 0x00	; 0
    45fe:	10 e0       	ldi	r17, 0x00	; 0
    4600:	20 e0       	ldi	r18, 0x00	; 0
    4602:	30 e0       	ldi	r19, 0x00	; 0
    4604:	84 e7       	ldi	r24, 0x74	; 116
    4606:	9a e0       	ldi	r25, 0x0A	; 10
    4608:	0e 94 47 48 	call	0x908e	; 0x908e <_ZN4UTFT9printNumIEliiic>
    460c:	ee 24       	eor	r14, r14
    460e:	e3 94       	inc	r14
    4610:	0f ea       	ldi	r16, 0xAF	; 175
    4612:	14 e0       	ldi	r17, 0x04	; 4
    4614:	23 e4       	ldi	r18, 0x43	; 67
    4616:	30 e0       	ldi	r19, 0x00	; 0
    4618:	4b e4       	ldi	r20, 0x4B	; 75
    461a:	50 e0       	ldi	r21, 0x00	; 0
    461c:	61 e1       	ldi	r22, 0x11	; 17
    461e:	70 e0       	ldi	r23, 0x00	; 0
    4620:	80 e0       	ldi	r24, 0x00	; 0
    4622:	90 e0       	ldi	r25, 0x00	; 0
    4624:	90 dd       	rcall	.-1248   	; 0x4146 <_Z10drawButtoniiiiPca>
    4626:	05 ef       	ldi	r16, 0xF5	; 245
    4628:	13 e0       	ldi	r17, 0x03	; 3
    462a:	23 e4       	ldi	r18, 0x43	; 67
    462c:	30 e0       	ldi	r19, 0x00	; 0
    462e:	4b e9       	ldi	r20, 0x9B	; 155
    4630:	50 e0       	ldi	r21, 0x00	; 0
    4632:	61 e1       	ldi	r22, 0x11	; 17
    4634:	70 e0       	ldi	r23, 0x00	; 0
    4636:	80 e5       	ldi	r24, 0x50	; 80
    4638:	90 e0       	ldi	r25, 0x00	; 0
    463a:	85 dd       	rcall	.-1270   	; 0x4146 <_Z10drawButtoniiiiPca>
    463c:	07 ef       	ldi	r16, 0xF7	; 247
    463e:	13 e0       	ldi	r17, 0x03	; 3
    4640:	23 e4       	ldi	r18, 0x43	; 67
    4642:	30 e0       	ldi	r19, 0x00	; 0
    4644:	4b ee       	ldi	r20, 0xEB	; 235
    4646:	50 e0       	ldi	r21, 0x00	; 0
    4648:	61 e1       	ldi	r22, 0x11	; 17
    464a:	70 e0       	ldi	r23, 0x00	; 0
    464c:	80 ea       	ldi	r24, 0xA0	; 160
    464e:	90 e0       	ldi	r25, 0x00	; 0
    4650:	7a dd       	rcall	.-1292   	; 0x4146 <_Z10drawButtoniiiiPca>
    4652:	09 ef       	ldi	r16, 0xF9	; 249
    4654:	13 e0       	ldi	r17, 0x03	; 3
    4656:	23 e4       	ldi	r18, 0x43	; 67
    4658:	30 e0       	ldi	r19, 0x00	; 0
    465a:	4b e3       	ldi	r20, 0x3B	; 59
    465c:	51 e0       	ldi	r21, 0x01	; 1
    465e:	61 e1       	ldi	r22, 0x11	; 17
    4660:	70 e0       	ldi	r23, 0x00	; 0
    4662:	80 ef       	ldi	r24, 0xF0	; 240
    4664:	90 e0       	ldi	r25, 0x00	; 0
    4666:	6f dd       	rcall	.-1314   	; 0x4146 <_Z10drawButtoniiiiPca>
    4668:	0b ef       	ldi	r16, 0xFB	; 251
    466a:	13 e0       	ldi	r17, 0x03	; 3
    466c:	2a e7       	ldi	r18, 0x7A	; 122
    466e:	30 e0       	ldi	r19, 0x00	; 0
    4670:	4b e4       	ldi	r20, 0x4B	; 75
    4672:	50 e0       	ldi	r21, 0x00	; 0
    4674:	68 e4       	ldi	r22, 0x48	; 72
    4676:	70 e0       	ldi	r23, 0x00	; 0
    4678:	80 e0       	ldi	r24, 0x00	; 0
    467a:	90 e0       	ldi	r25, 0x00	; 0
    467c:	64 dd       	rcall	.-1336   	; 0x4146 <_Z10drawButtoniiiiPca>
    467e:	0d ef       	ldi	r16, 0xFD	; 253
    4680:	13 e0       	ldi	r17, 0x03	; 3
    4682:	2a e7       	ldi	r18, 0x7A	; 122
    4684:	30 e0       	ldi	r19, 0x00	; 0
    4686:	4b e9       	ldi	r20, 0x9B	; 155
    4688:	50 e0       	ldi	r21, 0x00	; 0
    468a:	68 e4       	ldi	r22, 0x48	; 72
    468c:	70 e0       	ldi	r23, 0x00	; 0
    468e:	80 e5       	ldi	r24, 0x50	; 80
    4690:	90 e0       	ldi	r25, 0x00	; 0
    4692:	59 dd       	rcall	.-1358   	; 0x4146 <_Z10drawButtoniiiiPca>
    4694:	0f ef       	ldi	r16, 0xFF	; 255
    4696:	13 e0       	ldi	r17, 0x03	; 3
    4698:	2a e7       	ldi	r18, 0x7A	; 122
    469a:	30 e0       	ldi	r19, 0x00	; 0
    469c:	4b ee       	ldi	r20, 0xEB	; 235
    469e:	50 e0       	ldi	r21, 0x00	; 0
    46a0:	68 e4       	ldi	r22, 0x48	; 72
    46a2:	70 e0       	ldi	r23, 0x00	; 0
    46a4:	80 ea       	ldi	r24, 0xA0	; 160
    46a6:	90 e0       	ldi	r25, 0x00	; 0
    46a8:	4e dd       	rcall	.-1380   	; 0x4146 <_Z10drawButtoniiiiPca>
    46aa:	01 e0       	ldi	r16, 0x01	; 1
    46ac:	14 e0       	ldi	r17, 0x04	; 4
    46ae:	2a e7       	ldi	r18, 0x7A	; 122
    46b0:	30 e0       	ldi	r19, 0x00	; 0
    46b2:	4b e3       	ldi	r20, 0x3B	; 59
    46b4:	51 e0       	ldi	r21, 0x01	; 1
    46b6:	68 e4       	ldi	r22, 0x48	; 72
    46b8:	70 e0       	ldi	r23, 0x00	; 0
    46ba:	80 ef       	ldi	r24, 0xF0	; 240
    46bc:	90 e0       	ldi	r25, 0x00	; 0
    46be:	43 dd       	rcall	.-1402   	; 0x4146 <_Z10drawButtoniiiiPca>
    46c0:	e1 2c       	mov	r14, r1
    46c2:	03 e0       	ldi	r16, 0x03	; 3
    46c4:	14 e0       	ldi	r17, 0x04	; 4
    46c6:	21 eb       	ldi	r18, 0xB1	; 177
    46c8:	30 e0       	ldi	r19, 0x00	; 0
    46ca:	4b e4       	ldi	r20, 0x4B	; 75
    46cc:	50 e0       	ldi	r21, 0x00	; 0
    46ce:	6f e7       	ldi	r22, 0x7F	; 127
    46d0:	70 e0       	ldi	r23, 0x00	; 0
    46d2:	80 e0       	ldi	r24, 0x00	; 0
    46d4:	90 e0       	ldi	r25, 0x00	; 0
    46d6:	37 dd       	rcall	.-1426   	; 0x4146 <_Z10drawButtoniiiiPca>
    46d8:	ee 24       	eor	r14, r14
    46da:	e3 94       	inc	r14
    46dc:	07 e0       	ldi	r16, 0x07	; 7
    46de:	14 e0       	ldi	r17, 0x04	; 4
    46e0:	21 eb       	ldi	r18, 0xB1	; 177
    46e2:	30 e0       	ldi	r19, 0x00	; 0
    46e4:	4b e9       	ldi	r20, 0x9B	; 155
    46e6:	50 e0       	ldi	r21, 0x00	; 0
    46e8:	6f e7       	ldi	r22, 0x7F	; 127
    46ea:	70 e0       	ldi	r23, 0x00	; 0
    46ec:	80 e5       	ldi	r24, 0x50	; 80
    46ee:	90 e0       	ldi	r25, 0x00	; 0
    46f0:	2a dd       	rcall	.-1452   	; 0x4146 <_Z10drawButtoniiiiPca>
    46f2:	09 e0       	ldi	r16, 0x09	; 9
    46f4:	14 e0       	ldi	r17, 0x04	; 4
    46f6:	21 eb       	ldi	r18, 0xB1	; 177
    46f8:	30 e0       	ldi	r19, 0x00	; 0
    46fa:	4b ee       	ldi	r20, 0xEB	; 235
    46fc:	50 e0       	ldi	r21, 0x00	; 0
    46fe:	6f e7       	ldi	r22, 0x7F	; 127
    4700:	70 e0       	ldi	r23, 0x00	; 0
    4702:	80 ea       	ldi	r24, 0xA0	; 160
    4704:	90 e0       	ldi	r25, 0x00	; 0
    4706:	1f dd       	rcall	.-1474   	; 0x4146 <_Z10drawButtoniiiiPca>
    4708:	e1 2c       	mov	r14, r1
    470a:	0b e0       	ldi	r16, 0x0B	; 11
    470c:	14 e0       	ldi	r17, 0x04	; 4
    470e:	21 eb       	ldi	r18, 0xB1	; 177
    4710:	30 e0       	ldi	r19, 0x00	; 0
    4712:	4b e3       	ldi	r20, 0x3B	; 59
    4714:	51 e0       	ldi	r21, 0x01	; 1
    4716:	6f e7       	ldi	r22, 0x7F	; 127
    4718:	70 e0       	ldi	r23, 0x00	; 0
    471a:	80 ef       	ldi	r24, 0xF0	; 240
    471c:	90 e0       	ldi	r25, 0x00	; 0
    471e:	13 dd       	rcall	.-1498   	; 0x4146 <_Z10drawButtoniiiiPca>
    4720:	0f e0       	ldi	r16, 0x0F	; 15
    4722:	14 e0       	ldi	r17, 0x04	; 4
    4724:	28 ee       	ldi	r18, 0xE8	; 232
    4726:	30 e0       	ldi	r19, 0x00	; 0
    4728:	4b e9       	ldi	r20, 0x9B	; 155
    472a:	50 e0       	ldi	r21, 0x00	; 0
    472c:	66 eb       	ldi	r22, 0xB6	; 182
    472e:	70 e0       	ldi	r23, 0x00	; 0
    4730:	80 e0       	ldi	r24, 0x00	; 0
    4732:	90 e0       	ldi	r25, 0x00	; 0
    4734:	08 dd       	rcall	.-1520   	; 0x4146 <_Z10drawButtoniiiiPca>
    4736:	06 e1       	ldi	r16, 0x16	; 22
    4738:	14 e0       	ldi	r17, 0x04	; 4
    473a:	28 ee       	ldi	r18, 0xE8	; 232
    473c:	30 e0       	ldi	r19, 0x00	; 0
    473e:	4f e3       	ldi	r20, 0x3F	; 63
    4740:	51 e0       	ldi	r21, 0x01	; 1
    4742:	66 eb       	ldi	r22, 0xB6	; 182
    4744:	70 e0       	ldi	r23, 0x00	; 0
    4746:	80 ea       	ldi	r24, 0xA0	; 160
    4748:	90 e0       	ldi	r25, 0x00	; 0
    474a:	fd dc       	rcall	.-1542   	; 0x4146 <_Z10drawButtoniiiiPca>
    474c:	20 e0       	ldi	r18, 0x00	; 0
    474e:	40 e0       	ldi	r20, 0x00	; 0
    4750:	6f ef       	ldi	r22, 0xFF	; 255
    4752:	84 e7       	ldi	r24, 0x74	; 116
    4754:	9a e0       	ldi	r25, 0x0A	; 10
    4756:	0e 94 42 3f 	call	0x7e84	; 0x7e84 <_ZN4UTFT8setColorEhhh>
    475a:	2a e0       	ldi	r18, 0x0A	; 10
    475c:	a2 2e       	mov	r10, r18
    475e:	b1 2c       	mov	r11, r1
    4760:	3a e0       	ldi	r19, 0x0A	; 10
    4762:	d3 2e       	mov	r13, r19
    4764:	89 e3       	ldi	r24, 0x39	; 57
    4766:	9a e0       	ldi	r25, 0x0A	; 10
    4768:	0e 94 6e 34 	call	0x68dc	; 0x68dc <_ZN7URTouch13dataAvailableEv>
    476c:	88 23       	and	r24, r24
    476e:	d1 f3       	breq	.-12     	; 0x4764 <_Z18drawKeyboardScreeni+0x1c4>
    4770:	89 e3       	ldi	r24, 0x39	; 57
    4772:	9a e0       	ldi	r25, 0x0A	; 10
    4774:	0e 94 c9 32 	call	0x6592	; 0x6592 <_ZN7URTouch4readEv>
    4778:	89 e3       	ldi	r24, 0x39	; 57
    477a:	9a e0       	ldi	r25, 0x0A	; 10
    477c:	0e 94 87 34 	call	0x690e	; 0x690e <_ZN7URTouch4getXEv>
    4780:	90 93 d7 09 	sts	0x09D7, r25	; 0x8009d7 <x+0x1>
    4784:	80 93 d6 09 	sts	0x09D6, r24	; 0x8009d6 <x>
    4788:	89 e3       	ldi	r24, 0x39	; 57
    478a:	9a e0       	ldi	r25, 0x0A	; 10
    478c:	0e 94 4f 35 	call	0x6a9e	; 0x6a9e <_ZN7URTouch4getYEv>
    4790:	90 93 d5 09 	sts	0x09D5, r25	; 0x8009d5 <y+0x1>
    4794:	80 93 d4 09 	sts	0x09D4, r24	; 0x8009d4 <y>
    4798:	20 91 d6 09 	lds	r18, 0x09D6	; 0x8009d6 <x>
    479c:	30 91 d7 09 	lds	r19, 0x09D7	; 0x8009d7 <x+0x1>
    47a0:	37 fd       	sbrc	r19, 7
    47a2:	ba c0       	rjmp	.+372    	; 0x4918 <_Z18drawKeyboardScreeni+0x378>
    47a4:	81 31       	cpi	r24, 0x11	; 17
    47a6:	91 05       	cpc	r25, r1
    47a8:	0c f4       	brge	.+2      	; 0x47ac <_Z18drawKeyboardScreeni+0x20c>
    47aa:	99 c0       	rjmp	.+306    	; 0x48de <_Z18drawKeyboardScreeni+0x33e>
    47ac:	2c 34       	cpi	r18, 0x4C	; 76
    47ae:	31 05       	cpc	r19, r1
    47b0:	5c f5       	brge	.+86     	; 0x4808 <_Z18drawKeyboardScreeni+0x268>
    47b2:	84 34       	cpi	r24, 0x44	; 68
    47b4:	91 05       	cpc	r25, r1
    47b6:	0c f0       	brlt	.+2      	; 0x47ba <_Z18drawKeyboardScreeni+0x21a>
    47b8:	96 c0       	rjmp	.+300    	; 0x48e6 <_Z18drawKeyboardScreeni+0x346>
    47ba:	23 e4       	ldi	r18, 0x43	; 67
    47bc:	30 e0       	ldi	r19, 0x00	; 0
    47be:	4b e4       	ldi	r20, 0x4B	; 75
    47c0:	50 e0       	ldi	r21, 0x00	; 0
    47c2:	61 e1       	ldi	r22, 0x11	; 17
    47c4:	70 e0       	ldi	r23, 0x00	; 0
    47c6:	80 e0       	ldi	r24, 0x00	; 0
    47c8:	90 e0       	ldi	r25, 0x00	; 0
    47ca:	a8 de       	rcall	.-688    	; 0x451c <_Z9waitForItiiii>
    47cc:	20 e0       	ldi	r18, 0x00	; 0
    47ce:	40 e0       	ldi	r20, 0x00	; 0
    47d0:	6f ef       	ldi	r22, 0xFF	; 255
    47d2:	84 e7       	ldi	r24, 0x74	; 116
    47d4:	9a e0       	ldi	r25, 0x0A	; 10
    47d6:	0e 94 42 3f 	call	0x7e84	; 0x7e84 <_ZN4UTFT8setColorEhhh>
    47da:	03 e4       	ldi	r16, 0x43	; 67
    47dc:	10 e0       	ldi	r17, 0x00	; 0
    47de:	2b e4       	ldi	r18, 0x4B	; 75
    47e0:	30 e0       	ldi	r19, 0x00	; 0
    47e2:	41 e1       	ldi	r20, 0x11	; 17
    47e4:	50 e0       	ldi	r21, 0x00	; 0
    47e6:	60 e0       	ldi	r22, 0x00	; 0
    47e8:	70 e0       	ldi	r23, 0x00	; 0
    47ea:	84 e7       	ldi	r24, 0x74	; 116
    47ec:	9a e0       	ldi	r25, 0x0A	; 10
    47ee:	0e 94 3e 41 	call	0x827c	; 0x827c <_ZN4UTFT13drawRoundRectEiiii>
    47f2:	c4 36       	cpi	r28, 0x64	; 100
    47f4:	d1 05       	cpc	r29, r1
    47f6:	d4 f5       	brge	.+116    	; 0x486c <_Z18drawKeyboardScreeni+0x2cc>
    47f8:	dc 9e       	mul	r13, r28
    47fa:	c0 01       	movw	r24, r0
    47fc:	dd 9e       	mul	r13, r29
    47fe:	90 0d       	add	r25, r0
    4800:	11 24       	eor	r1, r1
    4802:	ec 01       	movw	r28, r24
    4804:	21 96       	adiw	r28, 0x01	; 1
    4806:	32 c0       	rjmp	.+100    	; 0x486c <_Z18drawKeyboardScreeni+0x2cc>
    4808:	20 35       	cpi	r18, 0x50	; 80
    480a:	31 05       	cpc	r19, r1
    480c:	0c f4       	brge	.+2      	; 0x4810 <_Z18drawKeyboardScreeni+0x270>
    480e:	6b c0       	rjmp	.+214    	; 0x48e6 <_Z18drawKeyboardScreeni+0x346>
    4810:	2c 39       	cpi	r18, 0x9C	; 156
    4812:	31 05       	cpc	r19, r1
    4814:	0c f0       	brlt	.+2      	; 0x4818 <_Z18drawKeyboardScreeni+0x278>
    4816:	75 c0       	rjmp	.+234    	; 0x4902 <_Z18drawKeyboardScreeni+0x362>
    4818:	84 34       	cpi	r24, 0x44	; 68
    481a:	91 05       	cpc	r25, r1
    481c:	0c f0       	brlt	.+2      	; 0x4820 <_Z18drawKeyboardScreeni+0x280>
    481e:	7c c0       	rjmp	.+248    	; 0x4918 <_Z18drawKeyboardScreeni+0x378>
    4820:	23 e4       	ldi	r18, 0x43	; 67
    4822:	30 e0       	ldi	r19, 0x00	; 0
    4824:	4b e9       	ldi	r20, 0x9B	; 155
    4826:	50 e0       	ldi	r21, 0x00	; 0
    4828:	61 e1       	ldi	r22, 0x11	; 17
    482a:	70 e0       	ldi	r23, 0x00	; 0
    482c:	80 e5       	ldi	r24, 0x50	; 80
    482e:	90 e0       	ldi	r25, 0x00	; 0
    4830:	75 de       	rcall	.-790    	; 0x451c <_Z9waitForItiiii>
    4832:	20 e0       	ldi	r18, 0x00	; 0
    4834:	40 e0       	ldi	r20, 0x00	; 0
    4836:	6f ef       	ldi	r22, 0xFF	; 255
    4838:	84 e7       	ldi	r24, 0x74	; 116
    483a:	9a e0       	ldi	r25, 0x0A	; 10
    483c:	0e 94 42 3f 	call	0x7e84	; 0x7e84 <_ZN4UTFT8setColorEhhh>
    4840:	03 e4       	ldi	r16, 0x43	; 67
    4842:	10 e0       	ldi	r17, 0x00	; 0
    4844:	2b e9       	ldi	r18, 0x9B	; 155
    4846:	30 e0       	ldi	r19, 0x00	; 0
    4848:	41 e1       	ldi	r20, 0x11	; 17
    484a:	50 e0       	ldi	r21, 0x00	; 0
    484c:	60 e5       	ldi	r22, 0x50	; 80
    484e:	70 e0       	ldi	r23, 0x00	; 0
    4850:	84 e7       	ldi	r24, 0x74	; 116
    4852:	9a e0       	ldi	r25, 0x0A	; 10
    4854:	0e 94 3e 41 	call	0x827c	; 0x827c <_ZN4UTFT13drawRoundRectEiiii>
    4858:	c4 36       	cpi	r28, 0x64	; 100
    485a:	d1 05       	cpc	r29, r1
    485c:	3c f4       	brge	.+14     	; 0x486c <_Z18drawKeyboardScreeni+0x2cc>
    485e:	dc 9e       	mul	r13, r28
    4860:	c0 01       	movw	r24, r0
    4862:	dd 9e       	mul	r13, r29
    4864:	90 0d       	add	r25, r0
    4866:	11 24       	eor	r1, r1
    4868:	ec 01       	movw	r28, r24
    486a:	22 96       	adiw	r28, 0x02	; 2
    486c:	20 e0       	ldi	r18, 0x00	; 0
    486e:	40 e0       	ldi	r20, 0x00	; 0
    4870:	60 e0       	ldi	r22, 0x00	; 0
    4872:	84 e7       	ldi	r24, 0x74	; 116
    4874:	9a e0       	ldi	r25, 0x0A	; 10
    4876:	0e 94 42 3f 	call	0x7e84	; 0x7e84 <_ZN4UTFT8setColorEhhh>
    487a:	00 e1       	ldi	r16, 0x10	; 16
    487c:	10 e0       	ldi	r17, 0x00	; 0
    487e:	2c e3       	ldi	r18, 0x3C	; 60
    4880:	30 e0       	ldi	r19, 0x00	; 0
    4882:	40 e0       	ldi	r20, 0x00	; 0
    4884:	50 e0       	ldi	r21, 0x00	; 0
    4886:	60 e0       	ldi	r22, 0x00	; 0
    4888:	70 e0       	ldi	r23, 0x00	; 0
    488a:	84 e7       	ldi	r24, 0x74	; 116
    488c:	9a e0       	ldi	r25, 0x0A	; 10
    488e:	0e 94 f0 41 	call	0x83e0	; 0x83e0 <_ZN4UTFT8fillRectEiiii>
    4892:	20 e0       	ldi	r18, 0x00	; 0
    4894:	4f ef       	ldi	r20, 0xFF	; 255
    4896:	60 e0       	ldi	r22, 0x00	; 0
    4898:	84 e7       	ldi	r24, 0x74	; 116
    489a:	9a e0       	ldi	r25, 0x0A	; 10
    489c:	0e 94 42 3f 	call	0x7e84	; 0x7e84 <_ZN4UTFT8setColorEhhh>
    48a0:	62 ec       	ldi	r22, 0xC2	; 194
    48a2:	70 e2       	ldi	r23, 0x20	; 32
    48a4:	84 e7       	ldi	r24, 0x74	; 116
    48a6:	9a e0       	ldi	r25, 0x0A	; 10
    48a8:	0e 94 2f 49 	call	0x925e	; 0x925e <_ZN4UTFT7setFontEPh>
    48ac:	20 e0       	ldi	r18, 0x00	; 0
    48ae:	40 e0       	ldi	r20, 0x00	; 0
    48b0:	60 e0       	ldi	r22, 0x00	; 0
    48b2:	84 e7       	ldi	r24, 0x74	; 116
    48b4:	9a e0       	ldi	r25, 0x0A	; 10
    48b6:	0e 94 56 3f 	call	0x7eac	; 0x7eac <_ZN4UTFT12setBackColorEhhh>
    48ba:	80 e2       	ldi	r24, 0x20	; 32
    48bc:	c8 2e       	mov	r12, r24
    48be:	e1 2c       	mov	r14, r1
    48c0:	f1 2c       	mov	r15, r1
    48c2:	00 e0       	ldi	r16, 0x00	; 0
    48c4:	10 e0       	ldi	r17, 0x00	; 0
    48c6:	20 e0       	ldi	r18, 0x00	; 0
    48c8:	30 e0       	ldi	r19, 0x00	; 0
    48ca:	ae 01       	movw	r20, r28
    48cc:	0d 2e       	mov	r0, r29
    48ce:	00 0c       	add	r0, r0
    48d0:	66 0b       	sbc	r22, r22
    48d2:	77 0b       	sbc	r23, r23
    48d4:	84 e7       	ldi	r24, 0x74	; 116
    48d6:	9a e0       	ldi	r25, 0x0A	; 10
    48d8:	0e 94 47 48 	call	0x908e	; 0x908e <_ZN4UTFT9printNumIEliiic>
    48dc:	43 cf       	rjmp	.-378    	; 0x4764 <_Z18drawKeyboardScreeni+0x1c4>
    48de:	20 3a       	cpi	r18, 0xA0	; 160
    48e0:	31 05       	cpc	r19, r1
    48e2:	0c f0       	brlt	.+2      	; 0x48e6 <_Z18drawKeyboardScreeni+0x346>
    48e4:	77 c0       	rjmp	.+238    	; 0x49d4 <_Z18drawKeyboardScreeni+0x434>
    48e6:	20 3f       	cpi	r18, 0xF0	; 240
    48e8:	31 05       	cpc	r19, r1
    48ea:	b4 f0       	brlt	.+44     	; 0x4918 <_Z18drawKeyboardScreeni+0x378>
    48ec:	81 31       	cpi	r24, 0x11	; 17
    48ee:	91 05       	cpc	r25, r1
    48f0:	ac f0       	brlt	.+42     	; 0x491c <_Z18drawKeyboardScreeni+0x37c>
    48f2:	2c 33       	cpi	r18, 0x3C	; 60
    48f4:	41 e0       	ldi	r20, 0x01	; 1
    48f6:	34 07       	cpc	r19, r20
    48f8:	8c f4       	brge	.+34     	; 0x491c <_Z18drawKeyboardScreeni+0x37c>
    48fa:	84 34       	cpi	r24, 0x44	; 68
    48fc:	91 05       	cpc	r25, r1
    48fe:	d4 f0       	brlt	.+52     	; 0x4934 <_Z18drawKeyboardScreeni+0x394>
    4900:	0b c0       	rjmp	.+22     	; 0x4918 <_Z18drawKeyboardScreeni+0x378>
    4902:	20 3a       	cpi	r18, 0xA0	; 160
    4904:	31 05       	cpc	r19, r1
    4906:	44 f0       	brlt	.+16     	; 0x4918 <_Z18drawKeyboardScreeni+0x378>
    4908:	2c 3e       	cpi	r18, 0xEC	; 236
    490a:	31 05       	cpc	r19, r1
    490c:	0c f0       	brlt	.+2      	; 0x4910 <_Z18drawKeyboardScreeni+0x370>
    490e:	d1 c1       	rjmp	.+930    	; 0x4cb2 <_Z18drawKeyboardScreeni+0x712>
    4910:	84 34       	cpi	r24, 0x44	; 68
    4912:	91 05       	cpc	r25, r1
    4914:	0c f4       	brge	.+2      	; 0x4918 <_Z18drawKeyboardScreeni+0x378>
    4916:	a5 c1       	rjmp	.+842    	; 0x4c62 <_Z18drawKeyboardScreeni+0x6c2>
    4918:	37 fd       	sbrc	r19, 7
    491a:	78 c0       	rjmp	.+240    	; 0x4a0c <_Z18drawKeyboardScreeni+0x46c>
    491c:	88 34       	cpi	r24, 0x48	; 72
    491e:	91 05       	cpc	r25, r1
    4920:	0c f4       	brge	.+2      	; 0x4924 <_Z18drawKeyboardScreeni+0x384>
    4922:	58 c0       	rjmp	.+176    	; 0x49d4 <_Z18drawKeyboardScreeni+0x434>
    4924:	2c 34       	cpi	r18, 0x4C	; 76
    4926:	31 05       	cpc	r19, r1
    4928:	0c f0       	brlt	.+2      	; 0x492c <_Z18drawKeyboardScreeni+0x38c>
    492a:	65 c0       	rjmp	.+202    	; 0x49f6 <_Z18drawKeyboardScreeni+0x456>
    492c:	8b 37       	cpi	r24, 0x7B	; 123
    492e:	91 05       	cpc	r25, r1
    4930:	4c f1       	brlt	.+82     	; 0x4984 <_Z18drawKeyboardScreeni+0x3e4>
    4932:	6c c0       	rjmp	.+216    	; 0x4a0c <_Z18drawKeyboardScreeni+0x46c>
    4934:	23 e4       	ldi	r18, 0x43	; 67
    4936:	30 e0       	ldi	r19, 0x00	; 0
    4938:	4b e3       	ldi	r20, 0x3B	; 59
    493a:	51 e0       	ldi	r21, 0x01	; 1
    493c:	61 e1       	ldi	r22, 0x11	; 17
    493e:	70 e0       	ldi	r23, 0x00	; 0
    4940:	80 ef       	ldi	r24, 0xF0	; 240
    4942:	90 e0       	ldi	r25, 0x00	; 0
    4944:	eb dd       	rcall	.-1066   	; 0x451c <_Z9waitForItiiii>
    4946:	20 e0       	ldi	r18, 0x00	; 0
    4948:	40 e0       	ldi	r20, 0x00	; 0
    494a:	6f ef       	ldi	r22, 0xFF	; 255
    494c:	84 e7       	ldi	r24, 0x74	; 116
    494e:	9a e0       	ldi	r25, 0x0A	; 10
    4950:	0e 94 42 3f 	call	0x7e84	; 0x7e84 <_ZN4UTFT8setColorEhhh>
    4954:	03 e4       	ldi	r16, 0x43	; 67
    4956:	10 e0       	ldi	r17, 0x00	; 0
    4958:	2b e3       	ldi	r18, 0x3B	; 59
    495a:	31 e0       	ldi	r19, 0x01	; 1
    495c:	41 e1       	ldi	r20, 0x11	; 17
    495e:	50 e0       	ldi	r21, 0x00	; 0
    4960:	60 ef       	ldi	r22, 0xF0	; 240
    4962:	70 e0       	ldi	r23, 0x00	; 0
    4964:	84 e7       	ldi	r24, 0x74	; 116
    4966:	9a e0       	ldi	r25, 0x0A	; 10
    4968:	0e 94 3e 41 	call	0x827c	; 0x827c <_ZN4UTFT13drawRoundRectEiiii>
    496c:	c4 36       	cpi	r28, 0x64	; 100
    496e:	d1 05       	cpc	r29, r1
    4970:	0c f0       	brlt	.+2      	; 0x4974 <_Z18drawKeyboardScreeni+0x3d4>
    4972:	7c cf       	rjmp	.-264    	; 0x486c <_Z18drawKeyboardScreeni+0x2cc>
    4974:	dc 9e       	mul	r13, r28
    4976:	c0 01       	movw	r24, r0
    4978:	dd 9e       	mul	r13, r29
    497a:	90 0d       	add	r25, r0
    497c:	11 24       	eor	r1, r1
    497e:	ec 01       	movw	r28, r24
    4980:	24 96       	adiw	r28, 0x04	; 4
    4982:	74 cf       	rjmp	.-280    	; 0x486c <_Z18drawKeyboardScreeni+0x2cc>
    4984:	2a e7       	ldi	r18, 0x7A	; 122
    4986:	30 e0       	ldi	r19, 0x00	; 0
    4988:	4b e4       	ldi	r20, 0x4B	; 75
    498a:	50 e0       	ldi	r21, 0x00	; 0
    498c:	68 e4       	ldi	r22, 0x48	; 72
    498e:	70 e0       	ldi	r23, 0x00	; 0
    4990:	80 e0       	ldi	r24, 0x00	; 0
    4992:	90 e0       	ldi	r25, 0x00	; 0
    4994:	c3 dd       	rcall	.-1146   	; 0x451c <_Z9waitForItiiii>
    4996:	20 e0       	ldi	r18, 0x00	; 0
    4998:	40 e0       	ldi	r20, 0x00	; 0
    499a:	6f ef       	ldi	r22, 0xFF	; 255
    499c:	84 e7       	ldi	r24, 0x74	; 116
    499e:	9a e0       	ldi	r25, 0x0A	; 10
    49a0:	0e 94 42 3f 	call	0x7e84	; 0x7e84 <_ZN4UTFT8setColorEhhh>
    49a4:	0a e7       	ldi	r16, 0x7A	; 122
    49a6:	10 e0       	ldi	r17, 0x00	; 0
    49a8:	2b e4       	ldi	r18, 0x4B	; 75
    49aa:	30 e0       	ldi	r19, 0x00	; 0
    49ac:	48 e4       	ldi	r20, 0x48	; 72
    49ae:	50 e0       	ldi	r21, 0x00	; 0
    49b0:	60 e0       	ldi	r22, 0x00	; 0
    49b2:	70 e0       	ldi	r23, 0x00	; 0
    49b4:	84 e7       	ldi	r24, 0x74	; 116
    49b6:	9a e0       	ldi	r25, 0x0A	; 10
    49b8:	0e 94 3e 41 	call	0x827c	; 0x827c <_ZN4UTFT13drawRoundRectEiiii>
    49bc:	c4 36       	cpi	r28, 0x64	; 100
    49be:	d1 05       	cpc	r29, r1
    49c0:	0c f0       	brlt	.+2      	; 0x49c4 <_Z18drawKeyboardScreeni+0x424>
    49c2:	54 cf       	rjmp	.-344    	; 0x486c <_Z18drawKeyboardScreeni+0x2cc>
    49c4:	dc 9e       	mul	r13, r28
    49c6:	c0 01       	movw	r24, r0
    49c8:	dd 9e       	mul	r13, r29
    49ca:	90 0d       	add	r25, r0
    49cc:	11 24       	eor	r1, r1
    49ce:	ec 01       	movw	r28, r24
    49d0:	25 96       	adiw	r28, 0x05	; 5
    49d2:	4c cf       	rjmp	.-360    	; 0x486c <_Z18drawKeyboardScreeni+0x2cc>
    49d4:	20 3a       	cpi	r18, 0xA0	; 160
    49d6:	31 05       	cpc	r19, r1
    49d8:	cc f0       	brlt	.+50     	; 0x4a0c <_Z18drawKeyboardScreeni+0x46c>
    49da:	20 3f       	cpi	r18, 0xF0	; 240
    49dc:	31 05       	cpc	r19, r1
    49de:	d4 f4       	brge	.+52     	; 0x4a14 <_Z18drawKeyboardScreeni+0x474>
    49e0:	8f 37       	cpi	r24, 0x7F	; 127
    49e2:	91 05       	cpc	r25, r1
    49e4:	0c f4       	brge	.+2      	; 0x49e8 <_Z18drawKeyboardScreeni+0x448>
    49e6:	4a c0       	rjmp	.+148    	; 0x4a7c <_Z18drawKeyboardScreeni+0x4dc>
    49e8:	2c 3e       	cpi	r18, 0xEC	; 236
    49ea:	31 05       	cpc	r19, r1
    49ec:	bc f4       	brge	.+46     	; 0x4a1c <_Z18drawKeyboardScreeni+0x47c>
    49ee:	82 3b       	cpi	r24, 0xB2	; 178
    49f0:	91 05       	cpc	r25, r1
    49f2:	e4 f0       	brlt	.+56     	; 0x4a2c <_Z18drawKeyboardScreeni+0x48c>
    49f4:	f5 c1       	rjmp	.+1002   	; 0x4de0 <_Z18drawKeyboardScreeni+0x840>
    49f6:	20 35       	cpi	r18, 0x50	; 80
    49f8:	31 05       	cpc	r19, r1
    49fa:	44 f0       	brlt	.+16     	; 0x4a0c <_Z18drawKeyboardScreeni+0x46c>
    49fc:	2c 39       	cpi	r18, 0x9C	; 156
    49fe:	31 05       	cpc	r19, r1
    4a00:	0c f0       	brlt	.+2      	; 0x4a04 <_Z18drawKeyboardScreeni+0x464>
    4a02:	84 c1       	rjmp	.+776    	; 0x4d0c <_Z18drawKeyboardScreeni+0x76c>
    4a04:	8b 37       	cpi	r24, 0x7B	; 123
    4a06:	91 05       	cpc	r25, r1
    4a08:	0c f4       	brge	.+2      	; 0x4a0c <_Z18drawKeyboardScreeni+0x46c>
    4a0a:	58 c1       	rjmp	.+688    	; 0x4cbc <_Z18drawKeyboardScreeni+0x71c>
    4a0c:	20 35       	cpi	r18, 0x50	; 80
    4a0e:	31 05       	cpc	r19, r1
    4a10:	0c f4       	brge	.+2      	; 0x4a14 <_Z18drawKeyboardScreeni+0x474>
    4a12:	63 c0       	rjmp	.+198    	; 0x4ada <_Z18drawKeyboardScreeni+0x53a>
    4a14:	8f 37       	cpi	r24, 0x7F	; 127
    4a16:	91 05       	cpc	r25, r1
    4a18:	0c f4       	brge	.+2      	; 0x4a1c <_Z18drawKeyboardScreeni+0x47c>
    4a1a:	6c c0       	rjmp	.+216    	; 0x4af4 <_Z18drawKeyboardScreeni+0x554>
    4a1c:	2c 39       	cpi	r18, 0x9C	; 156
    4a1e:	31 05       	cpc	r19, r1
    4a20:	0c f0       	brlt	.+2      	; 0x4a24 <_Z18drawKeyboardScreeni+0x484>
    4a22:	57 c0       	rjmp	.+174    	; 0x4ad2 <_Z18drawKeyboardScreeni+0x532>
    4a24:	82 3b       	cpi	r24, 0xB2	; 178
    4a26:	91 05       	cpc	r25, r1
    4a28:	6c f1       	brlt	.+90     	; 0x4a84 <_Z18drawKeyboardScreeni+0x4e4>
    4a2a:	57 c0       	rjmp	.+174    	; 0x4ada <_Z18drawKeyboardScreeni+0x53a>
    4a2c:	21 eb       	ldi	r18, 0xB1	; 177
    4a2e:	30 e0       	ldi	r19, 0x00	; 0
    4a30:	4b ee       	ldi	r20, 0xEB	; 235
    4a32:	50 e0       	ldi	r21, 0x00	; 0
    4a34:	6f e7       	ldi	r22, 0x7F	; 127
    4a36:	70 e0       	ldi	r23, 0x00	; 0
    4a38:	80 ea       	ldi	r24, 0xA0	; 160
    4a3a:	90 e0       	ldi	r25, 0x00	; 0
    4a3c:	6f dd       	rcall	.-1314   	; 0x451c <_Z9waitForItiiii>
    4a3e:	20 e0       	ldi	r18, 0x00	; 0
    4a40:	40 e0       	ldi	r20, 0x00	; 0
    4a42:	6f ef       	ldi	r22, 0xFF	; 255
    4a44:	84 e7       	ldi	r24, 0x74	; 116
    4a46:	9a e0       	ldi	r25, 0x0A	; 10
    4a48:	0e 94 42 3f 	call	0x7e84	; 0x7e84 <_ZN4UTFT8setColorEhhh>
    4a4c:	01 eb       	ldi	r16, 0xB1	; 177
    4a4e:	10 e0       	ldi	r17, 0x00	; 0
    4a50:	2b ee       	ldi	r18, 0xEB	; 235
    4a52:	30 e0       	ldi	r19, 0x00	; 0
    4a54:	4f e7       	ldi	r20, 0x7F	; 127
    4a56:	50 e0       	ldi	r21, 0x00	; 0
    4a58:	60 ea       	ldi	r22, 0xA0	; 160
    4a5a:	70 e0       	ldi	r23, 0x00	; 0
    4a5c:	84 e7       	ldi	r24, 0x74	; 116
    4a5e:	9a e0       	ldi	r25, 0x0A	; 10
    4a60:	0e 94 3e 41 	call	0x827c	; 0x827c <_ZN4UTFT13drawRoundRectEiiii>
    4a64:	c4 36       	cpi	r28, 0x64	; 100
    4a66:	d1 05       	cpc	r29, r1
    4a68:	0c f0       	brlt	.+2      	; 0x4a6c <_Z18drawKeyboardScreeni+0x4cc>
    4a6a:	00 cf       	rjmp	.-512    	; 0x486c <_Z18drawKeyboardScreeni+0x2cc>
    4a6c:	dc 9e       	mul	r13, r28
    4a6e:	c0 01       	movw	r24, r0
    4a70:	dd 9e       	mul	r13, r29
    4a72:	90 0d       	add	r25, r0
    4a74:	11 24       	eor	r1, r1
    4a76:	ec 01       	movw	r28, r24
    4a78:	29 96       	adiw	r28, 0x09	; 9
    4a7a:	f8 ce       	rjmp	.-528    	; 0x486c <_Z18drawKeyboardScreeni+0x2cc>
    4a7c:	20 3f       	cpi	r18, 0xF0	; 240
    4a7e:	31 05       	cpc	r19, r1
    4a80:	cc f5       	brge	.+114    	; 0x4af4 <_Z18drawKeyboardScreeni+0x554>
    4a82:	2b c0       	rjmp	.+86     	; 0x4ada <_Z18drawKeyboardScreeni+0x53a>
    4a84:	21 eb       	ldi	r18, 0xB1	; 177
    4a86:	30 e0       	ldi	r19, 0x00	; 0
    4a88:	4b e9       	ldi	r20, 0x9B	; 155
    4a8a:	50 e0       	ldi	r21, 0x00	; 0
    4a8c:	6f e7       	ldi	r22, 0x7F	; 127
    4a8e:	70 e0       	ldi	r23, 0x00	; 0
    4a90:	80 e5       	ldi	r24, 0x50	; 80
    4a92:	90 e0       	ldi	r25, 0x00	; 0
    4a94:	43 dd       	rcall	.-1402   	; 0x451c <_Z9waitForItiiii>
    4a96:	20 e0       	ldi	r18, 0x00	; 0
    4a98:	40 e0       	ldi	r20, 0x00	; 0
    4a9a:	6f ef       	ldi	r22, 0xFF	; 255
    4a9c:	84 e7       	ldi	r24, 0x74	; 116
    4a9e:	9a e0       	ldi	r25, 0x0A	; 10
    4aa0:	0e 94 42 3f 	call	0x7e84	; 0x7e84 <_ZN4UTFT8setColorEhhh>
    4aa4:	01 eb       	ldi	r16, 0xB1	; 177
    4aa6:	10 e0       	ldi	r17, 0x00	; 0
    4aa8:	2b e9       	ldi	r18, 0x9B	; 155
    4aaa:	30 e0       	ldi	r19, 0x00	; 0
    4aac:	4f e7       	ldi	r20, 0x7F	; 127
    4aae:	50 e0       	ldi	r21, 0x00	; 0
    4ab0:	60 e5       	ldi	r22, 0x50	; 80
    4ab2:	70 e0       	ldi	r23, 0x00	; 0
    4ab4:	84 e7       	ldi	r24, 0x74	; 116
    4ab6:	9a e0       	ldi	r25, 0x0A	; 10
    4ab8:	0e 94 3e 41 	call	0x827c	; 0x827c <_ZN4UTFT13drawRoundRectEiiii>
    4abc:	c4 36       	cpi	r28, 0x64	; 100
    4abe:	d1 05       	cpc	r29, r1
    4ac0:	0c f0       	brlt	.+2      	; 0x4ac4 <_Z18drawKeyboardScreeni+0x524>
    4ac2:	d4 ce       	rjmp	.-600    	; 0x486c <_Z18drawKeyboardScreeni+0x2cc>
    4ac4:	ce 01       	movw	r24, r28
    4ac6:	d8 9e       	mul	r13, r24
    4ac8:	e0 01       	movw	r28, r0
    4aca:	d9 9e       	mul	r13, r25
    4acc:	d0 0d       	add	r29, r0
    4ace:	11 24       	eor	r1, r1
    4ad0:	cd ce       	rjmp	.-614    	; 0x486c <_Z18drawKeyboardScreeni+0x2cc>
    4ad2:	20 3f       	cpi	r18, 0xF0	; 240
    4ad4:	31 05       	cpc	r19, r1
    4ad6:	0c f0       	brlt	.+2      	; 0x4ada <_Z18drawKeyboardScreeni+0x53a>
    4ad8:	9e c0       	rjmp	.+316    	; 0x4c16 <_Z18drawKeyboardScreeni+0x676>
    4ada:	37 fd       	sbrc	r19, 7
    4adc:	c7 ce       	rjmp	.-626    	; 0x486c <_Z18drawKeyboardScreeni+0x2cc>
    4ade:	8f 37       	cpi	r24, 0x7F	; 127
    4ae0:	91 05       	cpc	r25, r1
    4ae2:	0c f4       	brge	.+2      	; 0x4ae6 <_Z18drawKeyboardScreeni+0x546>
    4ae4:	c3 ce       	rjmp	.-634    	; 0x486c <_Z18drawKeyboardScreeni+0x2cc>
    4ae6:	2c 34       	cpi	r18, 0x4C	; 76
    4ae8:	31 05       	cpc	r19, r1
    4aea:	34 f4       	brge	.+12     	; 0x4af8 <_Z18drawKeyboardScreeni+0x558>
    4aec:	82 3b       	cpi	r24, 0xB2	; 178
    4aee:	91 05       	cpc	r25, r1
    4af0:	44 f1       	brlt	.+80     	; 0x4b42 <_Z18drawKeyboardScreeni+0x5a2>
    4af2:	02 c0       	rjmp	.+4      	; 0x4af8 <_Z18drawKeyboardScreeni+0x558>
    4af4:	37 fd       	sbrc	r19, 7
    4af6:	ba ce       	rjmp	.-652    	; 0x486c <_Z18drawKeyboardScreeni+0x2cc>
    4af8:	86 3b       	cpi	r24, 0xB6	; 182
    4afa:	91 05       	cpc	r25, r1
    4afc:	0c f4       	brge	.+2      	; 0x4b00 <_Z18drawKeyboardScreeni+0x560>
    4afe:	b6 ce       	rjmp	.-660    	; 0x486c <_Z18drawKeyboardScreeni+0x2cc>
    4b00:	2c 39       	cpi	r18, 0x9C	; 156
    4b02:	31 05       	cpc	r19, r1
    4b04:	0c f0       	brlt	.+2      	; 0x4b08 <_Z18drawKeyboardScreeni+0x568>
    4b06:	83 c0       	rjmp	.+262    	; 0x4c0e <_Z18drawKeyboardScreeni+0x66e>
    4b08:	89 3e       	cpi	r24, 0xE9	; 233
    4b0a:	91 05       	cpc	r25, r1
    4b0c:	0c f0       	brlt	.+2      	; 0x4b10 <_Z18drawKeyboardScreeni+0x570>
    4b0e:	ae ce       	rjmp	.-676    	; 0x486c <_Z18drawKeyboardScreeni+0x2cc>
    4b10:	28 ee       	ldi	r18, 0xE8	; 232
    4b12:	30 e0       	ldi	r19, 0x00	; 0
    4b14:	4b e9       	ldi	r20, 0x9B	; 155
    4b16:	50 e0       	ldi	r21, 0x00	; 0
    4b18:	66 eb       	ldi	r22, 0xB6	; 182
    4b1a:	70 e0       	ldi	r23, 0x00	; 0
    4b1c:	80 e0       	ldi	r24, 0x00	; 0
    4b1e:	90 e0       	ldi	r25, 0x00	; 0
    4b20:	fd dc       	rcall	.-1542   	; 0x451c <_Z9waitForItiiii>
    4b22:	20 e0       	ldi	r18, 0x00	; 0
    4b24:	40 e0       	ldi	r20, 0x00	; 0
    4b26:	6f ef       	ldi	r22, 0xFF	; 255
    4b28:	84 e7       	ldi	r24, 0x74	; 116
    4b2a:	9a e0       	ldi	r25, 0x0A	; 10
    4b2c:	0e 94 42 3f 	call	0x7e84	; 0x7e84 <_ZN4UTFT8setColorEhhh>
    4b30:	08 ee       	ldi	r16, 0xE8	; 232
    4b32:	10 e0       	ldi	r17, 0x00	; 0
    4b34:	2b e9       	ldi	r18, 0x9B	; 155
    4b36:	30 e0       	ldi	r19, 0x00	; 0
    4b38:	46 eb       	ldi	r20, 0xB6	; 182
    4b3a:	50 e0       	ldi	r21, 0x00	; 0
    4b3c:	60 e0       	ldi	r22, 0x00	; 0
    4b3e:	70 e0       	ldi	r23, 0x00	; 0
    4b40:	50 c0       	rjmp	.+160    	; 0x4be2 <_Z18drawKeyboardScreeni+0x642>
    4b42:	21 eb       	ldi	r18, 0xB1	; 177
    4b44:	30 e0       	ldi	r19, 0x00	; 0
    4b46:	4b e4       	ldi	r20, 0x4B	; 75
    4b48:	50 e0       	ldi	r21, 0x00	; 0
    4b4a:	6f e7       	ldi	r22, 0x7F	; 127
    4b4c:	70 e0       	ldi	r23, 0x00	; 0
    4b4e:	80 e0       	ldi	r24, 0x00	; 0
    4b50:	90 e0       	ldi	r25, 0x00	; 0
    4b52:	e4 dc       	rcall	.-1592   	; 0x451c <_Z9waitForItiiii>
    4b54:	20 e0       	ldi	r18, 0x00	; 0
    4b56:	40 e0       	ldi	r20, 0x00	; 0
    4b58:	6f ef       	ldi	r22, 0xFF	; 255
    4b5a:	84 e7       	ldi	r24, 0x74	; 116
    4b5c:	9a e0       	ldi	r25, 0x0A	; 10
    4b5e:	0e 94 42 3f 	call	0x7e84	; 0x7e84 <_ZN4UTFT8setColorEhhh>
    4b62:	01 eb       	ldi	r16, 0xB1	; 177
    4b64:	10 e0       	ldi	r17, 0x00	; 0
    4b66:	2b e4       	ldi	r18, 0x4B	; 75
    4b68:	30 e0       	ldi	r19, 0x00	; 0
    4b6a:	4f e7       	ldi	r20, 0x7F	; 127
    4b6c:	50 e0       	ldi	r21, 0x00	; 0
    4b6e:	60 e0       	ldi	r22, 0x00	; 0
    4b70:	70 e0       	ldi	r23, 0x00	; 0
    4b72:	84 e7       	ldi	r24, 0x74	; 116
    4b74:	9a e0       	ldi	r25, 0x0A	; 10
    4b76:	0e 94 3e 41 	call	0x827c	; 0x827c <_ZN4UTFT13drawRoundRectEiiii>
    4b7a:	1c 16       	cp	r1, r28
    4b7c:	1d 06       	cpc	r1, r29
    4b7e:	0c f0       	brlt	.+2      	; 0x4b82 <_Z18drawKeyboardScreeni+0x5e2>
    4b80:	75 ce       	rjmp	.-790    	; 0x486c <_Z18drawKeyboardScreeni+0x2cc>
    4b82:	ce 01       	movw	r24, r28
    4b84:	b5 01       	movw	r22, r10
    4b86:	0e 94 07 4b 	call	0x960e	; 0x960e <__divmodhi4>
    4b8a:	eb 01       	movw	r28, r22
    4b8c:	6f ce       	rjmp	.-802    	; 0x486c <_Z18drawKeyboardScreeni+0x2cc>
    4b8e:	37 ff       	sbrs	r19, 7
    4b90:	aa cf       	rjmp	.-172    	; 0x4ae6 <_Z18drawKeyboardScreeni+0x546>
    4b92:	20 3a       	cpi	r18, 0xA0	; 160
    4b94:	31 05       	cpc	r19, r1
    4b96:	0c f4       	brge	.+2      	; 0x4b9a <_Z18drawKeyboardScreeni+0x5fa>
    4b98:	69 ce       	rjmp	.-814    	; 0x486c <_Z18drawKeyboardScreeni+0x2cc>
    4b9a:	86 3b       	cpi	r24, 0xB6	; 182
    4b9c:	91 05       	cpc	r25, r1
    4b9e:	0c f4       	brge	.+2      	; 0x4ba2 <_Z18drawKeyboardScreeni+0x602>
    4ba0:	65 ce       	rjmp	.-822    	; 0x486c <_Z18drawKeyboardScreeni+0x2cc>
    4ba2:	20 34       	cpi	r18, 0x40	; 64
    4ba4:	31 40       	sbci	r19, 0x01	; 1
    4ba6:	0c f0       	brlt	.+2      	; 0x4baa <_Z18drawKeyboardScreeni+0x60a>
    4ba8:	61 ce       	rjmp	.-830    	; 0x486c <_Z18drawKeyboardScreeni+0x2cc>
    4baa:	89 3e       	cpi	r24, 0xE9	; 233
    4bac:	91 05       	cpc	r25, r1
    4bae:	0c f0       	brlt	.+2      	; 0x4bb2 <_Z18drawKeyboardScreeni+0x612>
    4bb0:	5d ce       	rjmp	.-838    	; 0x486c <_Z18drawKeyboardScreeni+0x2cc>
    4bb2:	28 ee       	ldi	r18, 0xE8	; 232
    4bb4:	30 e0       	ldi	r19, 0x00	; 0
    4bb6:	4f e3       	ldi	r20, 0x3F	; 63
    4bb8:	51 e0       	ldi	r21, 0x01	; 1
    4bba:	66 eb       	ldi	r22, 0xB6	; 182
    4bbc:	70 e0       	ldi	r23, 0x00	; 0
    4bbe:	80 ea       	ldi	r24, 0xA0	; 160
    4bc0:	90 e0       	ldi	r25, 0x00	; 0
    4bc2:	ac dc       	rcall	.-1704   	; 0x451c <_Z9waitForItiiii>
    4bc4:	20 e0       	ldi	r18, 0x00	; 0
    4bc6:	40 e0       	ldi	r20, 0x00	; 0
    4bc8:	6f ef       	ldi	r22, 0xFF	; 255
    4bca:	84 e7       	ldi	r24, 0x74	; 116
    4bcc:	9a e0       	ldi	r25, 0x0A	; 10
    4bce:	0e 94 42 3f 	call	0x7e84	; 0x7e84 <_ZN4UTFT8setColorEhhh>
    4bd2:	08 ee       	ldi	r16, 0xE8	; 232
    4bd4:	10 e0       	ldi	r17, 0x00	; 0
    4bd6:	2f e3       	ldi	r18, 0x3F	; 63
    4bd8:	31 e0       	ldi	r19, 0x01	; 1
    4bda:	46 eb       	ldi	r20, 0xB6	; 182
    4bdc:	50 e0       	ldi	r21, 0x00	; 0
    4bde:	60 ea       	ldi	r22, 0xA0	; 160
    4be0:	70 e0       	ldi	r23, 0x00	; 0
    4be2:	84 e7       	ldi	r24, 0x74	; 116
    4be4:	9a e0       	ldi	r25, 0x0A	; 10
    4be6:	0e 94 3e 41 	call	0x827c	; 0x827c <_ZN4UTFT13drawRoundRectEiiii>
    4bea:	84 e7       	ldi	r24, 0x74	; 116
    4bec:	9a e0       	ldi	r25, 0x0A	; 10
    4bee:	0e 94 a9 3e 	call	0x7d52	; 0x7d52 <_ZN4UTFT6clrScrEv>
    4bf2:	0e 94 93 1d 	call	0x3b26	; 0x3b26 <_Z13DrawInterfacev>
    4bf6:	ce 01       	movw	r24, r28
    4bf8:	df 91       	pop	r29
    4bfa:	cf 91       	pop	r28
    4bfc:	1f 91       	pop	r17
    4bfe:	0f 91       	pop	r16
    4c00:	ff 90       	pop	r15
    4c02:	ef 90       	pop	r14
    4c04:	df 90       	pop	r13
    4c06:	cf 90       	pop	r12
    4c08:	bf 90       	pop	r11
    4c0a:	af 90       	pop	r10
    4c0c:	08 95       	ret
    4c0e:	20 3a       	cpi	r18, 0xA0	; 160
    4c10:	31 05       	cpc	r19, r1
    4c12:	3c f6       	brge	.-114    	; 0x4ba2 <_Z18drawKeyboardScreeni+0x602>
    4c14:	2b ce       	rjmp	.-938    	; 0x486c <_Z18drawKeyboardScreeni+0x2cc>
    4c16:	2c 33       	cpi	r18, 0x3C	; 60
    4c18:	41 e0       	ldi	r20, 0x01	; 1
    4c1a:	34 07       	cpc	r19, r20
    4c1c:	0c f0       	brlt	.+2      	; 0x4c20 <_Z18drawKeyboardScreeni+0x680>
    4c1e:	6c cf       	rjmp	.-296    	; 0x4af8 <_Z18drawKeyboardScreeni+0x558>
    4c20:	82 3b       	cpi	r24, 0xB2	; 178
    4c22:	91 05       	cpc	r25, r1
    4c24:	0c f0       	brlt	.+2      	; 0x4c28 <_Z18drawKeyboardScreeni+0x688>
    4c26:	b3 cf       	rjmp	.-154    	; 0x4b8e <_Z18drawKeyboardScreeni+0x5ee>
    4c28:	21 eb       	ldi	r18, 0xB1	; 177
    4c2a:	30 e0       	ldi	r19, 0x00	; 0
    4c2c:	4b e3       	ldi	r20, 0x3B	; 59
    4c2e:	51 e0       	ldi	r21, 0x01	; 1
    4c30:	6f e7       	ldi	r22, 0x7F	; 127
    4c32:	70 e0       	ldi	r23, 0x00	; 0
    4c34:	80 ef       	ldi	r24, 0xF0	; 240
    4c36:	90 e0       	ldi	r25, 0x00	; 0
    4c38:	71 dc       	rcall	.-1822   	; 0x451c <_Z9waitForItiiii>
    4c3a:	20 e0       	ldi	r18, 0x00	; 0
    4c3c:	40 e0       	ldi	r20, 0x00	; 0
    4c3e:	6f ef       	ldi	r22, 0xFF	; 255
    4c40:	84 e7       	ldi	r24, 0x74	; 116
    4c42:	9a e0       	ldi	r25, 0x0A	; 10
    4c44:	0e 94 42 3f 	call	0x7e84	; 0x7e84 <_ZN4UTFT8setColorEhhh>
    4c48:	01 eb       	ldi	r16, 0xB1	; 177
    4c4a:	10 e0       	ldi	r17, 0x00	; 0
    4c4c:	2b e3       	ldi	r18, 0x3B	; 59
    4c4e:	31 e0       	ldi	r19, 0x01	; 1
    4c50:	4f e7       	ldi	r20, 0x7F	; 127
    4c52:	50 e0       	ldi	r21, 0x00	; 0
    4c54:	60 ef       	ldi	r22, 0xF0	; 240
    4c56:	70 e0       	ldi	r23, 0x00	; 0
    4c58:	84 e7       	ldi	r24, 0x74	; 116
    4c5a:	9a e0       	ldi	r25, 0x0A	; 10
    4c5c:	0e 94 3e 41 	call	0x827c	; 0x827c <_ZN4UTFT13drawRoundRectEiiii>
    4c60:	05 ce       	rjmp	.-1014   	; 0x486c <_Z18drawKeyboardScreeni+0x2cc>
    4c62:	23 e4       	ldi	r18, 0x43	; 67
    4c64:	30 e0       	ldi	r19, 0x00	; 0
    4c66:	4b ee       	ldi	r20, 0xEB	; 235
    4c68:	50 e0       	ldi	r21, 0x00	; 0
    4c6a:	61 e1       	ldi	r22, 0x11	; 17
    4c6c:	70 e0       	ldi	r23, 0x00	; 0
    4c6e:	80 ea       	ldi	r24, 0xA0	; 160
    4c70:	90 e0       	ldi	r25, 0x00	; 0
    4c72:	54 dc       	rcall	.-1880   	; 0x451c <_Z9waitForItiiii>
    4c74:	20 e0       	ldi	r18, 0x00	; 0
    4c76:	40 e0       	ldi	r20, 0x00	; 0
    4c78:	6f ef       	ldi	r22, 0xFF	; 255
    4c7a:	84 e7       	ldi	r24, 0x74	; 116
    4c7c:	9a e0       	ldi	r25, 0x0A	; 10
    4c7e:	0e 94 42 3f 	call	0x7e84	; 0x7e84 <_ZN4UTFT8setColorEhhh>
    4c82:	03 e4       	ldi	r16, 0x43	; 67
    4c84:	10 e0       	ldi	r17, 0x00	; 0
    4c86:	2b ee       	ldi	r18, 0xEB	; 235
    4c88:	30 e0       	ldi	r19, 0x00	; 0
    4c8a:	41 e1       	ldi	r20, 0x11	; 17
    4c8c:	50 e0       	ldi	r21, 0x00	; 0
    4c8e:	60 ea       	ldi	r22, 0xA0	; 160
    4c90:	70 e0       	ldi	r23, 0x00	; 0
    4c92:	84 e7       	ldi	r24, 0x74	; 116
    4c94:	9a e0       	ldi	r25, 0x0A	; 10
    4c96:	0e 94 3e 41 	call	0x827c	; 0x827c <_ZN4UTFT13drawRoundRectEiiii>
    4c9a:	c4 36       	cpi	r28, 0x64	; 100
    4c9c:	d1 05       	cpc	r29, r1
    4c9e:	0c f0       	brlt	.+2      	; 0x4ca2 <_Z18drawKeyboardScreeni+0x702>
    4ca0:	e5 cd       	rjmp	.-1078   	; 0x486c <_Z18drawKeyboardScreeni+0x2cc>
    4ca2:	dc 9e       	mul	r13, r28
    4ca4:	c0 01       	movw	r24, r0
    4ca6:	dd 9e       	mul	r13, r29
    4ca8:	90 0d       	add	r25, r0
    4caa:	11 24       	eor	r1, r1
    4cac:	ec 01       	movw	r28, r24
    4cae:	23 96       	adiw	r28, 0x03	; 3
    4cb0:	dd cd       	rjmp	.-1094   	; 0x486c <_Z18drawKeyboardScreeni+0x2cc>
    4cb2:	20 3f       	cpi	r18, 0xF0	; 240
    4cb4:	31 05       	cpc	r19, r1
    4cb6:	0c f0       	brlt	.+2      	; 0x4cba <_Z18drawKeyboardScreeni+0x71a>
    4cb8:	1c ce       	rjmp	.-968    	; 0x48f2 <_Z18drawKeyboardScreeni+0x352>
    4cba:	2e ce       	rjmp	.-932    	; 0x4918 <_Z18drawKeyboardScreeni+0x378>
    4cbc:	2a e7       	ldi	r18, 0x7A	; 122
    4cbe:	30 e0       	ldi	r19, 0x00	; 0
    4cc0:	4b e9       	ldi	r20, 0x9B	; 155
    4cc2:	50 e0       	ldi	r21, 0x00	; 0
    4cc4:	68 e4       	ldi	r22, 0x48	; 72
    4cc6:	70 e0       	ldi	r23, 0x00	; 0
    4cc8:	80 e5       	ldi	r24, 0x50	; 80
    4cca:	90 e0       	ldi	r25, 0x00	; 0
    4ccc:	27 dc       	rcall	.-1970   	; 0x451c <_Z9waitForItiiii>
    4cce:	20 e0       	ldi	r18, 0x00	; 0
    4cd0:	40 e0       	ldi	r20, 0x00	; 0
    4cd2:	6f ef       	ldi	r22, 0xFF	; 255
    4cd4:	84 e7       	ldi	r24, 0x74	; 116
    4cd6:	9a e0       	ldi	r25, 0x0A	; 10
    4cd8:	0e 94 42 3f 	call	0x7e84	; 0x7e84 <_ZN4UTFT8setColorEhhh>
    4cdc:	0a e7       	ldi	r16, 0x7A	; 122
    4cde:	10 e0       	ldi	r17, 0x00	; 0
    4ce0:	2b e9       	ldi	r18, 0x9B	; 155
    4ce2:	30 e0       	ldi	r19, 0x00	; 0
    4ce4:	48 e4       	ldi	r20, 0x48	; 72
    4ce6:	50 e0       	ldi	r21, 0x00	; 0
    4ce8:	60 e5       	ldi	r22, 0x50	; 80
    4cea:	70 e0       	ldi	r23, 0x00	; 0
    4cec:	84 e7       	ldi	r24, 0x74	; 116
    4cee:	9a e0       	ldi	r25, 0x0A	; 10
    4cf0:	0e 94 3e 41 	call	0x827c	; 0x827c <_ZN4UTFT13drawRoundRectEiiii>
    4cf4:	c4 36       	cpi	r28, 0x64	; 100
    4cf6:	d1 05       	cpc	r29, r1
    4cf8:	0c f0       	brlt	.+2      	; 0x4cfc <_Z18drawKeyboardScreeni+0x75c>
    4cfa:	b8 cd       	rjmp	.-1168   	; 0x486c <_Z18drawKeyboardScreeni+0x2cc>
    4cfc:	dc 9e       	mul	r13, r28
    4cfe:	c0 01       	movw	r24, r0
    4d00:	dd 9e       	mul	r13, r29
    4d02:	90 0d       	add	r25, r0
    4d04:	11 24       	eor	r1, r1
    4d06:	ec 01       	movw	r28, r24
    4d08:	26 96       	adiw	r28, 0x06	; 6
    4d0a:	b0 cd       	rjmp	.-1184   	; 0x486c <_Z18drawKeyboardScreeni+0x2cc>
    4d0c:	20 3a       	cpi	r18, 0xA0	; 160
    4d0e:	31 05       	cpc	r19, r1
    4d10:	0c f4       	brge	.+2      	; 0x4d14 <_Z18drawKeyboardScreeni+0x774>
    4d12:	7c ce       	rjmp	.-776    	; 0x4a0c <_Z18drawKeyboardScreeni+0x46c>
    4d14:	2c 3e       	cpi	r18, 0xEC	; 236
    4d16:	31 05       	cpc	r19, r1
    4d18:	5c f5       	brge	.+86     	; 0x4d70 <_Z18drawKeyboardScreeni+0x7d0>
    4d1a:	8b 37       	cpi	r24, 0x7B	; 123
    4d1c:	91 05       	cpc	r25, r1
    4d1e:	9c f5       	brge	.+102    	; 0x4d86 <_Z18drawKeyboardScreeni+0x7e6>
    4d20:	2a e7       	ldi	r18, 0x7A	; 122
    4d22:	30 e0       	ldi	r19, 0x00	; 0
    4d24:	4b ee       	ldi	r20, 0xEB	; 235
    4d26:	50 e0       	ldi	r21, 0x00	; 0
    4d28:	68 e4       	ldi	r22, 0x48	; 72
    4d2a:	70 e0       	ldi	r23, 0x00	; 0
    4d2c:	80 ea       	ldi	r24, 0xA0	; 160
    4d2e:	90 e0       	ldi	r25, 0x00	; 0
    4d30:	f5 db       	rcall	.-2070   	; 0x451c <_Z9waitForItiiii>
    4d32:	20 e0       	ldi	r18, 0x00	; 0
    4d34:	40 e0       	ldi	r20, 0x00	; 0
    4d36:	6f ef       	ldi	r22, 0xFF	; 255
    4d38:	84 e7       	ldi	r24, 0x74	; 116
    4d3a:	9a e0       	ldi	r25, 0x0A	; 10
    4d3c:	0e 94 42 3f 	call	0x7e84	; 0x7e84 <_ZN4UTFT8setColorEhhh>
    4d40:	0a e7       	ldi	r16, 0x7A	; 122
    4d42:	10 e0       	ldi	r17, 0x00	; 0
    4d44:	2b ee       	ldi	r18, 0xEB	; 235
    4d46:	30 e0       	ldi	r19, 0x00	; 0
    4d48:	48 e4       	ldi	r20, 0x48	; 72
    4d4a:	50 e0       	ldi	r21, 0x00	; 0
    4d4c:	60 ea       	ldi	r22, 0xA0	; 160
    4d4e:	70 e0       	ldi	r23, 0x00	; 0
    4d50:	84 e7       	ldi	r24, 0x74	; 116
    4d52:	9a e0       	ldi	r25, 0x0A	; 10
    4d54:	0e 94 3e 41 	call	0x827c	; 0x827c <_ZN4UTFT13drawRoundRectEiiii>
    4d58:	c4 36       	cpi	r28, 0x64	; 100
    4d5a:	d1 05       	cpc	r29, r1
    4d5c:	0c f0       	brlt	.+2      	; 0x4d60 <_Z18drawKeyboardScreeni+0x7c0>
    4d5e:	86 cd       	rjmp	.-1268   	; 0x486c <_Z18drawKeyboardScreeni+0x2cc>
    4d60:	dc 9e       	mul	r13, r28
    4d62:	c0 01       	movw	r24, r0
    4d64:	dd 9e       	mul	r13, r29
    4d66:	90 0d       	add	r25, r0
    4d68:	11 24       	eor	r1, r1
    4d6a:	ec 01       	movw	r28, r24
    4d6c:	27 96       	adiw	r28, 0x07	; 7
    4d6e:	7e cd       	rjmp	.-1284   	; 0x486c <_Z18drawKeyboardScreeni+0x2cc>
    4d70:	20 3f       	cpi	r18, 0xF0	; 240
    4d72:	31 05       	cpc	r19, r1
    4d74:	44 f0       	brlt	.+16     	; 0x4d86 <_Z18drawKeyboardScreeni+0x7e6>
    4d76:	2c 33       	cpi	r18, 0x3C	; 60
    4d78:	41 e0       	ldi	r20, 0x01	; 1
    4d7a:	34 07       	cpc	r19, r20
    4d7c:	0c f0       	brlt	.+2      	; 0x4d80 <_Z18drawKeyboardScreeni+0x7e0>
    4d7e:	30 ce       	rjmp	.-928    	; 0x49e0 <_Z18drawKeyboardScreeni+0x440>
    4d80:	8b 37       	cpi	r24, 0x7B	; 123
    4d82:	91 05       	cpc	r25, r1
    4d84:	2c f0       	brlt	.+10     	; 0x4d90 <_Z18drawKeyboardScreeni+0x7f0>
    4d86:	20 3a       	cpi	r18, 0xA0	; 160
    4d88:	31 05       	cpc	r19, r1
    4d8a:	0c f4       	brge	.+2      	; 0x4d8e <_Z18drawKeyboardScreeni+0x7ee>
    4d8c:	3f ce       	rjmp	.-898    	; 0x4a0c <_Z18drawKeyboardScreeni+0x46c>
    4d8e:	28 ce       	rjmp	.-944    	; 0x49e0 <_Z18drawKeyboardScreeni+0x440>
    4d90:	2a e7       	ldi	r18, 0x7A	; 122
    4d92:	30 e0       	ldi	r19, 0x00	; 0
    4d94:	4b e3       	ldi	r20, 0x3B	; 59
    4d96:	51 e0       	ldi	r21, 0x01	; 1
    4d98:	68 e4       	ldi	r22, 0x48	; 72
    4d9a:	70 e0       	ldi	r23, 0x00	; 0
    4d9c:	80 ef       	ldi	r24, 0xF0	; 240
    4d9e:	90 e0       	ldi	r25, 0x00	; 0
    4da0:	bd db       	rcall	.-2182   	; 0x451c <_Z9waitForItiiii>
    4da2:	20 e0       	ldi	r18, 0x00	; 0
    4da4:	40 e0       	ldi	r20, 0x00	; 0
    4da6:	6f ef       	ldi	r22, 0xFF	; 255
    4da8:	84 e7       	ldi	r24, 0x74	; 116
    4daa:	9a e0       	ldi	r25, 0x0A	; 10
    4dac:	0e 94 42 3f 	call	0x7e84	; 0x7e84 <_ZN4UTFT8setColorEhhh>
    4db0:	0a e7       	ldi	r16, 0x7A	; 122
    4db2:	10 e0       	ldi	r17, 0x00	; 0
    4db4:	2b e3       	ldi	r18, 0x3B	; 59
    4db6:	31 e0       	ldi	r19, 0x01	; 1
    4db8:	48 e4       	ldi	r20, 0x48	; 72
    4dba:	50 e0       	ldi	r21, 0x00	; 0
    4dbc:	60 ef       	ldi	r22, 0xF0	; 240
    4dbe:	70 e0       	ldi	r23, 0x00	; 0
    4dc0:	84 e7       	ldi	r24, 0x74	; 116
    4dc2:	9a e0       	ldi	r25, 0x0A	; 10
    4dc4:	0e 94 3e 41 	call	0x827c	; 0x827c <_ZN4UTFT13drawRoundRectEiiii>
    4dc8:	c4 36       	cpi	r28, 0x64	; 100
    4dca:	d1 05       	cpc	r29, r1
    4dcc:	0c f0       	brlt	.+2      	; 0x4dd0 <_Z18drawKeyboardScreeni+0x830>
    4dce:	4e cd       	rjmp	.-1380   	; 0x486c <_Z18drawKeyboardScreeni+0x2cc>
    4dd0:	dc 9e       	mul	r13, r28
    4dd2:	c0 01       	movw	r24, r0
    4dd4:	dd 9e       	mul	r13, r29
    4dd6:	90 0d       	add	r25, r0
    4dd8:	11 24       	eor	r1, r1
    4dda:	ec 01       	movw	r28, r24
    4ddc:	28 96       	adiw	r28, 0x08	; 8
    4dde:	46 cd       	rjmp	.-1396   	; 0x486c <_Z18drawKeyboardScreeni+0x2cc>
    4de0:	20 35       	cpi	r18, 0x50	; 80
    4de2:	31 05       	cpc	r19, r1
    4de4:	0c f4       	brge	.+2      	; 0x4de8 <_Z18drawKeyboardScreeni+0x848>
    4de6:	79 ce       	rjmp	.-782    	; 0x4ada <_Z18drawKeyboardScreeni+0x53a>
    4de8:	19 ce       	rjmp	.-974    	; 0x4a1c <_Z18drawKeyboardScreeni+0x47c>

00004dea <_Z14EntryTouchCalch>:
    4dea:	cf 92       	push	r12
    4dec:	df 92       	push	r13
    4dee:	ef 92       	push	r14
    4df0:	ff 92       	push	r15
    4df2:	0f 93       	push	r16
    4df4:	1f 93       	push	r17
    4df6:	cf 93       	push	r28
    4df8:	df 93       	push	r29
    4dfa:	00 d0       	rcall	.+0      	; 0x4dfc <_Z14EntryTouchCalch+0x12>
    4dfc:	00 d0       	rcall	.+0      	; 0x4dfe <_Z14EntryTouchCalch+0x14>
    4dfe:	cd b7       	in	r28, 0x3d	; 61
    4e00:	de b7       	in	r29, 0x3e	; 62
    4e02:	08 2f       	mov	r16, r24
    4e04:	10 e0       	ldi	r17, 0x00	; 0
    4e06:	20 91 dc 09 	lds	r18, 0x09DC	; 0x8009dc <NumberOfMenuEntries>
    4e0a:	30 91 dd 09 	lds	r19, 0x09DD	; 0x8009dd <NumberOfMenuEntries+0x1>
    4e0e:	02 17       	cp	r16, r18
    4e10:	13 07       	cpc	r17, r19
    4e12:	0c f0       	brlt	.+2      	; 0x4e16 <_Z14EntryTouchCalch+0x2c>
    4e14:	21 c1       	rjmp	.+578    	; 0x5058 <_Z14EntryTouchCalch+0x26e>
    4e16:	e8 2e       	mov	r14, r24
    4e18:	80 91 da 09 	lds	r24, 0x09DA	; 0x8009da <ScrollPosition>
    4e1c:	90 91 db 09 	lds	r25, 0x09DB	; 0x8009db <ScrollPosition+0x1>
    4e20:	80 0f       	add	r24, r16
    4e22:	91 1f       	adc	r25, r17
    4e24:	28 e1       	ldi	r18, 0x18	; 24
    4e26:	f2 2e       	mov	r15, r18
    4e28:	f8 9e       	mul	r15, r24
    4e2a:	f0 01       	movw	r30, r0
    4e2c:	f9 9e       	mul	r15, r25
    4e2e:	f0 0d       	add	r31, r0
    4e30:	11 24       	eor	r1, r1
    4e32:	ec 5d       	subi	r30, 0xDC	; 220
    4e34:	fa 4f       	sbci	r31, 0xFA	; 250
    4e36:	80 81       	ld	r24, Z
    4e38:	91 81       	ldd	r25, Z+1	; 0x01
    4e3a:	81 30       	cpi	r24, 0x01	; 1
    4e3c:	91 05       	cpc	r25, r1
    4e3e:	09 f0       	breq	.+2      	; 0x4e42 <_Z14EntryTouchCalch+0x58>
    4e40:	c4 c0       	rjmp	.+392    	; 0x4fca <_Z14EntryTouchCalch+0x1e0>
    4e42:	80 91 d6 09 	lds	r24, 0x09D6	; 0x8009d6 <x>
    4e46:	90 91 d7 09 	lds	r25, 0x09D7	; 0x8009d7 <x+0x1>
    4e4a:	9c 01       	movw	r18, r24
    4e4c:	22 5d       	subi	r18, 0xD2	; 210
    4e4e:	31 09       	sbc	r19, r1
    4e50:	24 31       	cpi	r18, 0x14	; 20
    4e52:	31 05       	cpc	r19, r1
    4e54:	18 f5       	brcc	.+70     	; 0x4e9c <_Z14EntryTouchCalch+0xb2>
    4e56:	2f e2       	ldi	r18, 0x2F	; 47
    4e58:	02 9f       	mul	r16, r18
    4e5a:	b0 01       	movw	r22, r0
    4e5c:	11 24       	eor	r1, r1
    4e5e:	9b 01       	movw	r18, r22
    4e60:	2c 5d       	subi	r18, 0xDC	; 220
    4e62:	3f 4f       	sbci	r19, 0xFF	; 255
    4e64:	64 5f       	subi	r22, 0xF4	; 244
    4e66:	7f 4f       	sbci	r23, 0xFF	; 255
    4e68:	45 ee       	ldi	r20, 0xE5	; 229
    4e6a:	50 e0       	ldi	r21, 0x00	; 0
    4e6c:	82 ed       	ldi	r24, 0xD2	; 210
    4e6e:	90 e0       	ldi	r25, 0x00	; 0
    4e70:	55 db       	rcall	.-2390   	; 0x451c <_Z9waitForItiiii>
    4e72:	80 91 da 09 	lds	r24, 0x09DA	; 0x8009da <ScrollPosition>
    4e76:	90 91 db 09 	lds	r25, 0x09DB	; 0x8009db <ScrollPosition+0x1>
    4e7a:	80 0f       	add	r24, r16
    4e7c:	91 1f       	adc	r25, r17
    4e7e:	f8 9e       	mul	r15, r24
    4e80:	b0 01       	movw	r22, r0
    4e82:	f9 9e       	mul	r15, r25
    4e84:	70 0d       	add	r23, r0
    4e86:	11 24       	eor	r1, r1
    4e88:	fb 01       	movw	r30, r22
    4e8a:	ec 5d       	subi	r30, 0xDC	; 220
    4e8c:	fa 4f       	sbci	r31, 0xFA	; 250
    4e8e:	82 89       	ldd	r24, Z+18	; 0x12
    4e90:	93 89       	ldd	r25, Z+19	; 0x13
    4e92:	24 89       	ldd	r18, Z+20	; 0x14
    4e94:	35 89       	ldd	r19, Z+21	; 0x15
    4e96:	82 1b       	sub	r24, r18
    4e98:	93 0b       	sbc	r25, r19
    4e9a:	29 c0       	rjmp	.+82     	; 0x4eee <_Z14EntryTouchCalch+0x104>
    4e9c:	9c 01       	movw	r18, r24
    4e9e:	24 50       	subi	r18, 0x04	; 4
    4ea0:	31 40       	sbci	r19, 0x01	; 1
    4ea2:	25 31       	cpi	r18, 0x15	; 21
    4ea4:	31 05       	cpc	r19, r1
    4ea6:	08 f0       	brcs	.+2      	; 0x4eaa <_Z14EntryTouchCalch+0xc0>
    4ea8:	58 c0       	rjmp	.+176    	; 0x4f5a <_Z14EntryTouchCalch+0x170>
    4eaa:	3f e2       	ldi	r19, 0x2F	; 47
    4eac:	03 9f       	mul	r16, r19
    4eae:	b0 01       	movw	r22, r0
    4eb0:	11 24       	eor	r1, r1
    4eb2:	9b 01       	movw	r18, r22
    4eb4:	2c 5d       	subi	r18, 0xDC	; 220
    4eb6:	3f 4f       	sbci	r19, 0xFF	; 255
    4eb8:	64 5f       	subi	r22, 0xF4	; 244
    4eba:	7f 4f       	sbci	r23, 0xFF	; 255
    4ebc:	48 e1       	ldi	r20, 0x18	; 24
    4ebe:	51 e0       	ldi	r21, 0x01	; 1
    4ec0:	84 e0       	ldi	r24, 0x04	; 4
    4ec2:	91 e0       	ldi	r25, 0x01	; 1
    4ec4:	2b db       	rcall	.-2474   	; 0x451c <_Z9waitForItiiii>
    4ec6:	80 91 da 09 	lds	r24, 0x09DA	; 0x8009da <ScrollPosition>
    4eca:	90 91 db 09 	lds	r25, 0x09DB	; 0x8009db <ScrollPosition+0x1>
    4ece:	80 0f       	add	r24, r16
    4ed0:	91 1f       	adc	r25, r17
    4ed2:	f8 9e       	mul	r15, r24
    4ed4:	b0 01       	movw	r22, r0
    4ed6:	f9 9e       	mul	r15, r25
    4ed8:	70 0d       	add	r23, r0
    4eda:	11 24       	eor	r1, r1
    4edc:	fb 01       	movw	r30, r22
    4ede:	ec 5d       	subi	r30, 0xDC	; 220
    4ee0:	fa 4f       	sbci	r31, 0xFA	; 250
    4ee2:	22 89       	ldd	r18, Z+18	; 0x12
    4ee4:	33 89       	ldd	r19, Z+19	; 0x13
    4ee6:	84 89       	ldd	r24, Z+20	; 0x14
    4ee8:	95 89       	ldd	r25, Z+21	; 0x15
    4eea:	82 0f       	add	r24, r18
    4eec:	93 1f       	adc	r25, r19
    4eee:	93 8b       	std	Z+19, r25	; 0x13
    4ef0:	82 8b       	std	Z+18, r24	; 0x12
    4ef2:	60 5d       	subi	r22, 0xD0	; 208
    4ef4:	7a 4f       	sbci	r23, 0xFA	; 250
    4ef6:	ce 01       	movw	r24, r28
    4ef8:	01 96       	adiw	r24, 0x01	; 1
    4efa:	0e 94 58 30 	call	0x60b0	; 0x60b0 <_ZN6StringC1ERKS_>
    4efe:	80 91 da 09 	lds	r24, 0x09DA	; 0x8009da <ScrollPosition>
    4f02:	90 91 db 09 	lds	r25, 0x09DB	; 0x8009db <ScrollPosition+0x1>
    4f06:	80 0f       	add	r24, r16
    4f08:	91 1f       	adc	r25, r17
    4f0a:	f8 9e       	mul	r15, r24
    4f0c:	f0 01       	movw	r30, r0
    4f0e:	f9 9e       	mul	r15, r25
    4f10:	f0 0d       	add	r31, r0
    4f12:	11 24       	eor	r1, r1
    4f14:	ec 5d       	subi	r30, 0xDC	; 220
    4f16:	fa 4f       	sbci	r31, 0xFA	; 250
    4f18:	a8 01       	movw	r20, r16
    4f1a:	be 01       	movw	r22, r28
    4f1c:	6f 5f       	subi	r22, 0xFF	; 255
    4f1e:	7f 4f       	sbci	r23, 0xFF	; 255
    4f20:	82 89       	ldd	r24, Z+18	; 0x12
    4f22:	93 89       	ldd	r25, Z+19	; 0x13
    4f24:	0e 94 a0 1b 	call	0x3740	; 0x3740 <_Z22DrawMenuEntryIntNumberi6Stringi>
    4f28:	ce 01       	movw	r24, r28
    4f2a:	01 96       	adiw	r24, 0x01	; 1
    4f2c:	0e 94 c4 2f 	call	0x5f88	; 0x5f88 <_ZN6StringD1Ev>
    4f30:	80 91 da 09 	lds	r24, 0x09DA	; 0x8009da <ScrollPosition>
    4f34:	90 91 db 09 	lds	r25, 0x09DB	; 0x8009db <ScrollPosition+0x1>
    4f38:	08 0f       	add	r16, r24
    4f3a:	19 1f       	adc	r17, r25
    4f3c:	f0 9e       	mul	r15, r16
    4f3e:	f0 01       	movw	r30, r0
    4f40:	f1 9e       	mul	r15, r17
    4f42:	f0 0d       	add	r31, r0
    4f44:	11 24       	eor	r1, r1
    4f46:	ec 5d       	subi	r30, 0xDC	; 220
    4f48:	fa 4f       	sbci	r31, 0xFA	; 250
    4f4a:	62 89       	ldd	r22, Z+18	; 0x12
    4f4c:	73 89       	ldd	r23, Z+19	; 0x13
    4f4e:	06 88       	ldd	r0, Z+22	; 0x16
    4f50:	f7 89       	ldd	r31, Z+23	; 0x17
    4f52:	e0 2d       	mov	r30, r0
    4f54:	8e 0d       	add	r24, r14
    4f56:	19 95       	eicall
    4f58:	7f c0       	rjmp	.+254    	; 0x5058 <_Z14EntryTouchCalch+0x26e>
    4f5a:	86 5e       	subi	r24, 0xE6	; 230
    4f5c:	91 09       	sbc	r25, r1
    4f5e:	4e 97       	sbiw	r24, 0x1e	; 30
    4f60:	08 f0       	brcs	.+2      	; 0x4f64 <_Z14EntryTouchCalch+0x17a>
    4f62:	7a c0       	rjmp	.+244    	; 0x5058 <_Z14EntryTouchCalch+0x26e>
    4f64:	8f e2       	ldi	r24, 0x2F	; 47
    4f66:	08 9f       	mul	r16, r24
    4f68:	b0 01       	movw	r22, r0
    4f6a:	11 24       	eor	r1, r1
    4f6c:	9b 01       	movw	r18, r22
    4f6e:	2c 5d       	subi	r18, 0xDC	; 220
    4f70:	3f 4f       	sbci	r19, 0xFF	; 255
    4f72:	64 5f       	subi	r22, 0xF4	; 244
    4f74:	7f 4f       	sbci	r23, 0xFF	; 255
    4f76:	43 e0       	ldi	r20, 0x03	; 3
    4f78:	51 e0       	ldi	r21, 0x01	; 1
    4f7a:	86 ee       	ldi	r24, 0xE6	; 230
    4f7c:	90 e0       	ldi	r25, 0x00	; 0
    4f7e:	ce da       	rcall	.-2660   	; 0x451c <_Z9waitForItiiii>
    4f80:	84 e7       	ldi	r24, 0x74	; 116
    4f82:	9a e0       	ldi	r25, 0x0A	; 10
    4f84:	0e 94 a9 3e 	call	0x7d52	; 0x7d52 <_ZN4UTFT6clrScrEv>
    4f88:	20 91 da 09 	lds	r18, 0x09DA	; 0x8009da <ScrollPosition>
    4f8c:	30 91 db 09 	lds	r19, 0x09DB	; 0x8009db <ScrollPosition+0x1>
    4f90:	20 0f       	add	r18, r16
    4f92:	31 1f       	adc	r19, r17
    4f94:	f2 9e       	mul	r15, r18
    4f96:	c0 01       	movw	r24, r0
    4f98:	f3 9e       	mul	r15, r19
    4f9a:	90 0d       	add	r25, r0
    4f9c:	11 24       	eor	r1, r1
    4f9e:	fc 01       	movw	r30, r24
    4fa0:	ec 5d       	subi	r30, 0xDC	; 220
    4fa2:	fa 4f       	sbci	r31, 0xFA	; 250
    4fa4:	6f 01       	movw	r12, r30
    4fa6:	82 89       	ldd	r24, Z+18	; 0x12
    4fa8:	93 89       	ldd	r25, Z+19	; 0x13
    4faa:	fa da       	rcall	.-2572   	; 0x45a0 <_Z18drawKeyboardScreeni>
    4fac:	f6 01       	movw	r30, r12
    4fae:	93 8b       	std	Z+19, r25	; 0x13
    4fb0:	82 8b       	std	Z+18, r24	; 0x12
    4fb2:	80 91 da 09 	lds	r24, 0x09DA	; 0x8009da <ScrollPosition>
    4fb6:	90 91 db 09 	lds	r25, 0x09DB	; 0x8009db <ScrollPosition+0x1>
    4fba:	80 0f       	add	r24, r16
    4fbc:	91 1f       	adc	r25, r17
    4fbe:	f8 9e       	mul	r15, r24
    4fc0:	b0 01       	movw	r22, r0
    4fc2:	f9 9e       	mul	r15, r25
    4fc4:	70 0d       	add	r23, r0
    4fc6:	11 24       	eor	r1, r1
    4fc8:	94 cf       	rjmp	.-216    	; 0x4ef2 <_Z14EntryTouchCalch+0x108>
    4fca:	89 2b       	or	r24, r25
    4fcc:	09 f0       	breq	.+2      	; 0x4fd0 <_Z14EntryTouchCalch+0x1e6>
    4fce:	44 c0       	rjmp	.+136    	; 0x5058 <_Z14EntryTouchCalch+0x26e>
    4fd0:	ff e2       	ldi	r31, 0x2F	; 47
    4fd2:	0f 9f       	mul	r16, r31
    4fd4:	b0 01       	movw	r22, r0
    4fd6:	11 24       	eor	r1, r1
    4fd8:	9b 01       	movw	r18, r22
    4fda:	22 5f       	subi	r18, 0xF2	; 242
    4fdc:	3f 4f       	sbci	r19, 0xFF	; 255
    4fde:	6e 5d       	subi	r22, 0xDE	; 222
    4fe0:	7f 4f       	sbci	r23, 0xFF	; 255
    4fe2:	43 e1       	ldi	r20, 0x13	; 19
    4fe4:	51 e0       	ldi	r21, 0x01	; 1
    4fe6:	8f ef       	ldi	r24, 0xFF	; 255
    4fe8:	90 e0       	ldi	r25, 0x00	; 0
    4fea:	98 da       	rcall	.-2768   	; 0x451c <_Z9waitForItiiii>
    4fec:	80 91 da 09 	lds	r24, 0x09DA	; 0x8009da <ScrollPosition>
    4ff0:	90 91 db 09 	lds	r25, 0x09DB	; 0x8009db <ScrollPosition+0x1>
    4ff4:	80 0f       	add	r24, r16
    4ff6:	91 1f       	adc	r25, r17
    4ff8:	f8 9e       	mul	r15, r24
    4ffa:	b0 01       	movw	r22, r0
    4ffc:	f9 9e       	mul	r15, r25
    4ffe:	70 0d       	add	r23, r0
    5000:	11 24       	eor	r1, r1
    5002:	fb 01       	movw	r30, r22
    5004:	ec 5d       	subi	r30, 0xDC	; 220
    5006:	fa 4f       	sbci	r31, 0xFA	; 250
    5008:	d1 84       	ldd	r13, Z+9	; 0x09
    500a:	81 e0       	ldi	r24, 0x01	; 1
    500c:	d8 26       	eor	r13, r24
    500e:	d1 86       	std	Z+9, r13	; 0x09
    5010:	69 5d       	subi	r22, 0xD9	; 217
    5012:	7a 4f       	sbci	r23, 0xFA	; 250
    5014:	ce 01       	movw	r24, r28
    5016:	01 96       	adiw	r24, 0x01	; 1
    5018:	0e 94 58 30 	call	0x60b0	; 0x60b0 <_ZN6StringC1ERKS_>
    501c:	a8 01       	movw	r20, r16
    501e:	6d 2d       	mov	r22, r13
    5020:	ce 01       	movw	r24, r28
    5022:	01 96       	adiw	r24, 0x01	; 1
    5024:	0e 94 de 1a 	call	0x35bc	; 0x35bc <_Z13DrawMenuEntry6Stringbi>
    5028:	ce 01       	movw	r24, r28
    502a:	01 96       	adiw	r24, 0x01	; 1
    502c:	ad d7       	rcall	.+3930   	; 0x5f88 <_ZN6StringD1Ev>
    502e:	80 91 da 09 	lds	r24, 0x09DA	; 0x8009da <ScrollPosition>
    5032:	90 91 db 09 	lds	r25, 0x09DB	; 0x8009db <ScrollPosition+0x1>
    5036:	08 0f       	add	r16, r24
    5038:	19 1f       	adc	r17, r25
    503a:	f0 9e       	mul	r15, r16
    503c:	d0 01       	movw	r26, r0
    503e:	f1 9e       	mul	r15, r17
    5040:	b0 0d       	add	r27, r0
    5042:	11 24       	eor	r1, r1
    5044:	ac 5d       	subi	r26, 0xDC	; 220
    5046:	ba 4f       	sbci	r27, 0xFA	; 250
    5048:	1a 96       	adiw	r26, 0x0a	; 10
    504a:	ed 91       	ld	r30, X+
    504c:	fc 91       	ld	r31, X
    504e:	1b 97       	sbiw	r26, 0x0b	; 11
    5050:	19 96       	adiw	r26, 0x09	; 9
    5052:	6c 91       	ld	r22, X
    5054:	8e 0d       	add	r24, r14
    5056:	19 95       	eicall
    5058:	26 96       	adiw	r28, 0x06	; 6
    505a:	0f b6       	in	r0, 0x3f	; 63
    505c:	f8 94       	cli
    505e:	de bf       	out	0x3e, r29	; 62
    5060:	0f be       	out	0x3f, r0	; 63
    5062:	cd bf       	out	0x3d, r28	; 61
    5064:	df 91       	pop	r29
    5066:	cf 91       	pop	r28
    5068:	1f 91       	pop	r17
    506a:	0f 91       	pop	r16
    506c:	ff 90       	pop	r15
    506e:	ef 90       	pop	r14
    5070:	df 90       	pop	r13
    5072:	cf 90       	pop	r12
    5074:	08 95       	ret

00005076 <_Z12IntToString_jPc>:
    5076:	1f 93       	push	r17
    5078:	cf 93       	push	r28
    507a:	df 93       	push	r29
    507c:	ec 01       	movw	r28, r24
    507e:	fb 01       	movw	r30, r22
    5080:	60 e1       	ldi	r22, 0x10	; 16
    5082:	77 e2       	ldi	r23, 0x27	; 39
    5084:	0e 94 f3 4a 	call	0x95e6	; 0x95e6 <__udivmodhi4>
    5088:	46 2f       	mov	r20, r22
    508a:	ce 01       	movw	r24, r28
    508c:	64 e6       	ldi	r22, 0x64	; 100
    508e:	70 e0       	ldi	r23, 0x00	; 0
    5090:	0e 94 f3 4a 	call	0x95e6	; 0x95e6 <__udivmodhi4>
    5094:	18 2f       	mov	r17, r24
    5096:	20 e3       	ldi	r18, 0x30	; 48
    5098:	26 0f       	add	r18, r22
    509a:	84 e6       	ldi	r24, 0x64	; 100
    509c:	48 9f       	mul	r20, r24
    509e:	20 19       	sub	r18, r0
    50a0:	11 24       	eor	r1, r1
    50a2:	36 ef       	ldi	r19, 0xF6	; 246
    50a4:	ce 01       	movw	r24, r28
    50a6:	68 ee       	ldi	r22, 0xE8	; 232
    50a8:	73 e0       	ldi	r23, 0x03	; 3
    50aa:	0e 94 f3 4a 	call	0x95e6	; 0x95e6 <__udivmodhi4>
    50ae:	34 9f       	mul	r19, r20
    50b0:	60 0d       	add	r22, r0
    50b2:	11 24       	eor	r1, r1
    50b4:	63 9f       	mul	r22, r19
    50b6:	20 0d       	add	r18, r0
    50b8:	11 24       	eor	r1, r1
    50ba:	20 83       	st	Z, r18
    50bc:	81 2f       	mov	r24, r17
    50be:	6a e0       	ldi	r22, 0x0A	; 10
    50c0:	0e 94 e7 4a 	call	0x95ce	; 0x95ce <__udivmodqi4>
    50c4:	80 5d       	subi	r24, 0xD0	; 208
    50c6:	81 83       	std	Z+1, r24	; 0x01
    50c8:	90 5d       	subi	r25, 0xD0	; 208
    50ca:	92 83       	std	Z+2, r25	; 0x02
    50cc:	13 82       	std	Z+3, r1	; 0x03
    50ce:	df 91       	pop	r29
    50d0:	cf 91       	pop	r28
    50d2:	1f 91       	pop	r17
    50d4:	08 95       	ret

000050d6 <_Z11IntCallBackai>:
    50d6:	ef 92       	push	r14
    50d8:	ff 92       	push	r15
    50da:	1f 93       	push	r17
    50dc:	cf 93       	push	r28
    50de:	df 93       	push	r29
    50e0:	cd b7       	in	r28, 0x3d	; 61
    50e2:	de b7       	in	r29, 0x3e	; 62
    50e4:	a4 97       	sbiw	r28, 0x24	; 36
    50e6:	0f b6       	in	r0, 0x3f	; 63
    50e8:	f8 94       	cli
    50ea:	de bf       	out	0x3e, r29	; 62
    50ec:	0f be       	out	0x3f, r0	; 63
    50ee:	cd bf       	out	0x3d, r28	; 61
    50f0:	18 2f       	mov	r17, r24
    50f2:	7b 01       	movw	r14, r22
    50f4:	97 e0       	ldi	r25, 0x07	; 7
    50f6:	e6 e0       	ldi	r30, 0x06	; 6
    50f8:	f2 e0       	ldi	r31, 0x02	; 2
    50fa:	de 01       	movw	r26, r28
    50fc:	11 96       	adiw	r26, 0x01	; 1
    50fe:	01 90       	ld	r0, Z+
    5100:	0d 92       	st	X+, r0
    5102:	9a 95       	dec	r25
    5104:	e1 f7       	brne	.-8      	; 0x50fe <_Z11IntCallBackai+0x28>
    5106:	fe 01       	movw	r30, r28
    5108:	38 96       	adiw	r30, 0x08	; 8
    510a:	83 e1       	ldi	r24, 0x13	; 19
    510c:	df 01       	movw	r26, r30
    510e:	1d 92       	st	X+, r1
    5110:	8a 95       	dec	r24
    5112:	e9 f7       	brne	.-6      	; 0x510e <_Z11IntCallBackai+0x38>
    5114:	80 e3       	ldi	r24, 0x30	; 48
    5116:	81 0f       	add	r24, r17
    5118:	8f 83       	std	Y+7, r24	; 0x07
    511a:	18 86       	std	Y+8, r1	; 0x08
    511c:	6c e1       	ldi	r22, 0x1C	; 28
    511e:	74 e0       	ldi	r23, 0x04	; 4
    5120:	ce 01       	movw	r24, r28
    5122:	01 96       	adiw	r24, 0x01	; 1
    5124:	0e 94 93 4d 	call	0x9b26	; 0x9b26 <strcat>
    5128:	be 01       	movw	r22, r28
    512a:	6f 5d       	subi	r22, 0xDF	; 223
    512c:	7f 4f       	sbci	r23, 0xFF	; 255
    512e:	c7 01       	movw	r24, r14
    5130:	a2 df       	rcall	.-188    	; 0x5076 <_Z12IntToString_jPc>
    5132:	be 01       	movw	r22, r28
    5134:	6f 5d       	subi	r22, 0xDF	; 223
    5136:	7f 4f       	sbci	r23, 0xFF	; 255
    5138:	ce 01       	movw	r24, r28
    513a:	01 96       	adiw	r24, 0x01	; 1
    513c:	0e 94 93 4d 	call	0x9b26	; 0x9b26 <strcat>
    5140:	be 01       	movw	r22, r28
    5142:	6f 5f       	subi	r22, 0xFF	; 255
    5144:	7f 4f       	sbci	r23, 0xFF	; 255
    5146:	ce 01       	movw	r24, r28
    5148:	4b 96       	adiw	r24, 0x1b	; 27
    514a:	89 d7       	rcall	.+3858   	; 0x605e <_ZN6StringC1EPKc>
    514c:	ce 01       	movw	r24, r28
    514e:	4b 96       	adiw	r24, 0x1b	; 27
    5150:	0e 94 cd 19 	call	0x339a	; 0x339a <_Z6addLog6String>
    5154:	ce 01       	movw	r24, r28
    5156:	4b 96       	adiw	r24, 0x1b	; 27
    5158:	17 d7       	rcall	.+3630   	; 0x5f88 <_ZN6StringD1Ev>
    515a:	b8 e1       	ldi	r27, 0x18	; 24
    515c:	1b 02       	muls	r17, r27
    515e:	f0 01       	movw	r30, r0
    5160:	11 24       	eor	r1, r1
    5162:	ec 5d       	subi	r30, 0xDC	; 220
    5164:	fa 4f       	sbci	r31, 0xFA	; 250
    5166:	81 e0       	ldi	r24, 0x01	; 1
    5168:	82 83       	std	Z+2, r24	; 0x02
    516a:	a4 96       	adiw	r28, 0x24	; 36
    516c:	0f b6       	in	r0, 0x3f	; 63
    516e:	f8 94       	cli
    5170:	de bf       	out	0x3e, r29	; 62
    5172:	0f be       	out	0x3f, r0	; 63
    5174:	cd bf       	out	0x3d, r28	; 61
    5176:	df 91       	pop	r29
    5178:	cf 91       	pop	r28
    517a:	1f 91       	pop	r17
    517c:	ff 90       	pop	r15
    517e:	ef 90       	pop	r14
    5180:	08 95       	ret

00005182 <_Z20TouchEventManagementv>:
    5182:	0f 93       	push	r16
    5184:	1f 93       	push	r17
    5186:	89 e3       	ldi	r24, 0x39	; 57
    5188:	9a e0       	ldi	r25, 0x0A	; 10
    518a:	0e 94 6e 34 	call	0x68dc	; 0x68dc <_ZN7URTouch13dataAvailableEv>
    518e:	88 23       	and	r24, r24
    5190:	09 f4       	brne	.+2      	; 0x5194 <_Z20TouchEventManagementv+0x12>
    5192:	bf c1       	rjmp	.+894    	; 0x5512 <_Z20TouchEventManagementv+0x390>
    5194:	80 91 23 05 	lds	r24, 0x0523	; 0x800523 <DisplayLocked>
    5198:	81 11       	cpse	r24, r1
    519a:	bb c1       	rjmp	.+886    	; 0x5512 <_Z20TouchEventManagementv+0x390>
    519c:	89 e3       	ldi	r24, 0x39	; 57
    519e:	9a e0       	ldi	r25, 0x0A	; 10
    51a0:	0e 94 c9 32 	call	0x6592	; 0x6592 <_ZN7URTouch4readEv>
    51a4:	89 e3       	ldi	r24, 0x39	; 57
    51a6:	9a e0       	ldi	r25, 0x0A	; 10
    51a8:	0e 94 87 34 	call	0x690e	; 0x690e <_ZN7URTouch4getXEv>
    51ac:	90 93 d7 09 	sts	0x09D7, r25	; 0x8009d7 <x+0x1>
    51b0:	80 93 d6 09 	sts	0x09D6, r24	; 0x8009d6 <x>
    51b4:	89 e3       	ldi	r24, 0x39	; 57
    51b6:	9a e0       	ldi	r25, 0x0A	; 10
    51b8:	0e 94 4f 35 	call	0x6a9e	; 0x6a9e <_ZN7URTouch4getYEv>
    51bc:	90 93 d5 09 	sts	0x09D5, r25	; 0x8009d5 <y+0x1>
    51c0:	80 93 d4 09 	sts	0x09D4, r24	; 0x8009d4 <y>
    51c4:	20 91 d8 09 	lds	r18, 0x09D8	; 0x8009d8 <ActiveScreen>
    51c8:	30 91 d9 09 	lds	r19, 0x09D9	; 0x8009d9 <ActiveScreen+0x1>
    51cc:	21 15       	cp	r18, r1
    51ce:	31 05       	cpc	r19, r1
    51d0:	39 f4       	brne	.+14     	; 0x51e0 <_Z20TouchEventManagementv+0x5e>
    51d2:	81 e0       	ldi	r24, 0x01	; 1
    51d4:	90 e0       	ldi	r25, 0x00	; 0
    51d6:	90 93 d9 09 	sts	0x09D9, r25	; 0x8009d9 <ActiveScreen+0x1>
    51da:	80 93 d8 09 	sts	0x09D8, r24	; 0x8009d8 <ActiveScreen>
    51de:	91 c1       	rjmp	.+802    	; 0x5502 <_Z20TouchEventManagementv+0x380>
    51e0:	21 30       	cpi	r18, 0x01	; 1
    51e2:	31 05       	cpc	r19, r1
    51e4:	09 f0       	breq	.+2      	; 0x51e8 <_Z20TouchEventManagementv+0x66>
    51e6:	31 c1       	rjmp	.+610    	; 0x544a <_Z20TouchEventManagementv+0x2c8>
    51e8:	20 91 d6 09 	lds	r18, 0x09D6	; 0x8009d6 <x>
    51ec:	30 91 d7 09 	lds	r19, 0x09D7	; 0x8009d7 <x+0x1>
    51f0:	a9 01       	movw	r20, r18
    51f2:	42 52       	subi	r20, 0x22	; 34
    51f4:	51 40       	sbci	r21, 0x01	; 1
    51f6:	4f 31       	cpi	r20, 0x1F	; 31
    51f8:	51 05       	cpc	r21, r1
    51fa:	08 f0       	brcs	.+2      	; 0x51fe <_Z20TouchEventManagementv+0x7c>
    51fc:	73 c0       	rjmp	.+230    	; 0x52e4 <_Z20TouchEventManagementv+0x162>
    51fe:	88 37       	cpi	r24, 0x78	; 120
    5200:	91 05       	cpc	r25, r1
    5202:	c8 f5       	brcc	.+114    	; 0x5276 <_Z20TouchEventManagementv+0xf4>
    5204:	27 e7       	ldi	r18, 0x77	; 119
    5206:	30 e0       	ldi	r19, 0x00	; 0
    5208:	4f e3       	ldi	r20, 0x3F	; 63
    520a:	51 e0       	ldi	r21, 0x01	; 1
    520c:	60 e0       	ldi	r22, 0x00	; 0
    520e:	70 e0       	ldi	r23, 0x00	; 0
    5210:	8c e2       	ldi	r24, 0x2C	; 44
    5212:	91 e0       	ldi	r25, 0x01	; 1
    5214:	83 d9       	rcall	.-3322   	; 0x451c <_Z9waitForItiiii>
    5216:	80 91 da 09 	lds	r24, 0x09DA	; 0x8009da <ScrollPosition>
    521a:	90 91 db 09 	lds	r25, 0x09DB	; 0x8009db <ScrollPosition+0x1>
    521e:	18 16       	cp	r1, r24
    5220:	19 06       	cpc	r1, r25
    5222:	44 f4       	brge	.+16     	; 0x5234 <_Z20TouchEventManagementv+0xb2>
    5224:	01 97       	sbiw	r24, 0x01	; 1
    5226:	90 93 db 09 	sts	0x09DB, r25	; 0x8009db <ScrollPosition+0x1>
    522a:	80 93 da 09 	sts	0x09DA, r24	; 0x8009da <ScrollPosition>
    522e:	0e 94 93 1d 	call	0x3b26	; 0x3b26 <_Z13DrawInterfacev>
    5232:	13 c0       	rjmp	.+38     	; 0x525a <_Z20TouchEventManagementv+0xd8>
    5234:	20 e0       	ldi	r18, 0x00	; 0
    5236:	40 e0       	ldi	r20, 0x00	; 0
    5238:	6f ef       	ldi	r22, 0xFF	; 255
    523a:	84 e7       	ldi	r24, 0x74	; 116
    523c:	9a e0       	ldi	r25, 0x0A	; 10
    523e:	0e 94 42 3f 	call	0x7e84	; 0x7e84 <_ZN4UTFT8setColorEhhh>
    5242:	0f ee       	ldi	r16, 0xEF	; 239
    5244:	10 e0       	ldi	r17, 0x00	; 0
    5246:	2f e3       	ldi	r18, 0x3F	; 63
    5248:	31 e0       	ldi	r19, 0x01	; 1
    524a:	49 e7       	ldi	r20, 0x79	; 121
    524c:	50 e0       	ldi	r21, 0x00	; 0
    524e:	6c e2       	ldi	r22, 0x2C	; 44
    5250:	71 e0       	ldi	r23, 0x01	; 1
    5252:	84 e7       	ldi	r24, 0x74	; 116
    5254:	9a e0       	ldi	r25, 0x0A	; 10
    5256:	0e 94 3e 41 	call	0x827c	; 0x827c <_ZN4UTFT13drawRoundRectEiiii>
    525a:	20 e0       	ldi	r18, 0x00	; 0
    525c:	40 e0       	ldi	r20, 0x00	; 0
    525e:	6f ef       	ldi	r22, 0xFF	; 255
    5260:	84 e7       	ldi	r24, 0x74	; 116
    5262:	9a e0       	ldi	r25, 0x0A	; 10
    5264:	0e 94 42 3f 	call	0x7e84	; 0x7e84 <_ZN4UTFT8setColorEhhh>
    5268:	07 e7       	ldi	r16, 0x77	; 119
    526a:	10 e0       	ldi	r17, 0x00	; 0
    526c:	2f e3       	ldi	r18, 0x3F	; 63
    526e:	31 e0       	ldi	r19, 0x01	; 1
    5270:	40 e0       	ldi	r20, 0x00	; 0
    5272:	50 e0       	ldi	r21, 0x00	; 0
    5274:	30 c0       	rjmp	.+96     	; 0x52d6 <_Z20TouchEventManagementv+0x154>
    5276:	ac 01       	movw	r20, r24
    5278:	49 57       	subi	r20, 0x79	; 121
    527a:	51 09       	sbc	r21, r1
    527c:	48 37       	cpi	r20, 0x78	; 120
    527e:	51 05       	cpc	r21, r1
    5280:	88 f5       	brcc	.+98     	; 0x52e4 <_Z20TouchEventManagementv+0x162>
    5282:	2f ee       	ldi	r18, 0xEF	; 239
    5284:	30 e0       	ldi	r19, 0x00	; 0
    5286:	4f e3       	ldi	r20, 0x3F	; 63
    5288:	51 e0       	ldi	r21, 0x01	; 1
    528a:	69 e7       	ldi	r22, 0x79	; 121
    528c:	70 e0       	ldi	r23, 0x00	; 0
    528e:	8c e2       	ldi	r24, 0x2C	; 44
    5290:	91 e0       	ldi	r25, 0x01	; 1
    5292:	44 d9       	rcall	.-3448   	; 0x451c <_Z9waitForItiiii>
    5294:	80 91 da 09 	lds	r24, 0x09DA	; 0x8009da <ScrollPosition>
    5298:	90 91 db 09 	lds	r25, 0x09DB	; 0x8009db <ScrollPosition+0x1>
    529c:	ac 01       	movw	r20, r24
    529e:	4b 5f       	subi	r20, 0xFB	; 251
    52a0:	5f 4f       	sbci	r21, 0xFF	; 255
    52a2:	20 91 dc 09 	lds	r18, 0x09DC	; 0x8009dc <NumberOfMenuEntries>
    52a6:	30 91 dd 09 	lds	r19, 0x09DD	; 0x8009dd <NumberOfMenuEntries+0x1>
    52aa:	42 17       	cp	r20, r18
    52ac:	53 07       	cpc	r21, r19
    52ae:	34 f4       	brge	.+12     	; 0x52bc <_Z20TouchEventManagementv+0x13a>
    52b0:	01 96       	adiw	r24, 0x01	; 1
    52b2:	90 93 db 09 	sts	0x09DB, r25	; 0x8009db <ScrollPosition+0x1>
    52b6:	80 93 da 09 	sts	0x09DA, r24	; 0x8009da <ScrollPosition>
    52ba:	27 c1       	rjmp	.+590    	; 0x550a <_Z20TouchEventManagementv+0x388>
    52bc:	20 e0       	ldi	r18, 0x00	; 0
    52be:	40 e0       	ldi	r20, 0x00	; 0
    52c0:	6f ef       	ldi	r22, 0xFF	; 255
    52c2:	84 e7       	ldi	r24, 0x74	; 116
    52c4:	9a e0       	ldi	r25, 0x0A	; 10
    52c6:	0e 94 42 3f 	call	0x7e84	; 0x7e84 <_ZN4UTFT8setColorEhhh>
    52ca:	0f ee       	ldi	r16, 0xEF	; 239
    52cc:	10 e0       	ldi	r17, 0x00	; 0
    52ce:	2f e3       	ldi	r18, 0x3F	; 63
    52d0:	31 e0       	ldi	r19, 0x01	; 1
    52d2:	49 e7       	ldi	r20, 0x79	; 121
    52d4:	50 e0       	ldi	r21, 0x00	; 0
    52d6:	6c e2       	ldi	r22, 0x2C	; 44
    52d8:	71 e0       	ldi	r23, 0x01	; 1
    52da:	84 e7       	ldi	r24, 0x74	; 116
    52dc:	9a e0       	ldi	r25, 0x0A	; 10
    52de:	0e 94 3e 41 	call	0x827c	; 0x827c <_ZN4UTFT13drawRoundRectEiiii>
    52e2:	17 c1       	rjmp	.+558    	; 0x5512 <_Z20TouchEventManagementv+0x390>
    52e4:	a9 01       	movw	r20, r18
    52e6:	4e 56       	subi	r20, 0x6E	; 110
    52e8:	51 09       	sbc	r21, r1
    52ea:	41 35       	cpi	r20, 0x51	; 81
    52ec:	51 05       	cpc	r21, r1
    52ee:	98 f4       	brcc	.+38     	; 0x5316 <_Z20TouchEventManagementv+0x194>
    52f0:	ac 01       	movw	r20, r24
    52f2:	48 5c       	subi	r20, 0xC8	; 200
    52f4:	51 09       	sbc	r21, r1
    52f6:	4b 32       	cpi	r20, 0x2B	; 43
    52f8:	51 05       	cpc	r21, r1
    52fa:	68 f4       	brcc	.+26     	; 0x5316 <_Z20TouchEventManagementv+0x194>
    52fc:	22 ef       	ldi	r18, 0xF2	; 242
    52fe:	30 e0       	ldi	r19, 0x00	; 0
    5300:	43 eb       	ldi	r20, 0xB3	; 179
    5302:	50 e0       	ldi	r21, 0x00	; 0
    5304:	62 ed       	ldi	r22, 0xD2	; 210
    5306:	70 e0       	ldi	r23, 0x00	; 0
    5308:	8a e8       	ldi	r24, 0x8A	; 138
    530a:	90 e0       	ldi	r25, 0x00	; 0
    530c:	07 d9       	rcall	.-3570   	; 0x451c <_Z9waitForItiiii>
    530e:	1f 91       	pop	r17
    5310:	0f 91       	pop	r16
    5312:	0c 94 14 1f 	jmp	0x3e28	; 0x3e28 <_Z7drawLogv>
    5316:	21 59       	subi	r18, 0x91	; 145
    5318:	31 09       	sbc	r19, r1
    531a:	2f 31       	cpi	r18, 0x1F	; 31
    531c:	31 05       	cpc	r19, r1
    531e:	68 f4       	brcc	.+26     	; 0x533a <_Z20TouchEventManagementv+0x1b8>
    5320:	85 31       	cpi	r24, 0x15	; 21
    5322:	91 05       	cpc	r25, r1
    5324:	50 f4       	brcc	.+20     	; 0x533a <_Z20TouchEventManagementv+0x1b8>
    5326:	24 e1       	ldi	r18, 0x14	; 20
    5328:	30 e0       	ldi	r19, 0x00	; 0
    532a:	41 e9       	ldi	r20, 0x91	; 145
    532c:	50 e0       	ldi	r21, 0x00	; 0
    532e:	60 e0       	ldi	r22, 0x00	; 0
    5330:	70 e0       	ldi	r23, 0x00	; 0
    5332:	8f ea       	ldi	r24, 0xAF	; 175
    5334:	90 e0       	ldi	r25, 0x00	; 0
    5336:	f2 d8       	rcall	.-3612   	; 0x451c <_Z9waitForItiiii>
    5338:	da c0       	rjmp	.+436    	; 0x54ee <_Z20TouchEventManagementv+0x36c>
    533a:	8f 32       	cpi	r24, 0x2F	; 47
    533c:	91 05       	cpc	r25, r1
    533e:	e8 f4       	brcc	.+58     	; 0x537a <_Z20TouchEventManagementv+0x1f8>
    5340:	80 e0       	ldi	r24, 0x00	; 0
    5342:	53 dd       	rcall	.-1370   	; 0x4dea <_Z14EntryTouchCalch>
    5344:	0e 94 cb 19 	call	0x3396	; 0x3396 <ESP8266_isConnected>
    5348:	88 23       	and	r24, r24
    534a:	19 f0       	breq	.+6      	; 0x5352 <_Z20TouchEventManagementv+0x1d0>
    534c:	20 e0       	ldi	r18, 0x00	; 0
    534e:	4f ef       	ldi	r20, 0xFF	; 255
    5350:	02 c0       	rjmp	.+4      	; 0x5356 <_Z20TouchEventManagementv+0x1d4>
    5352:	2f ef       	ldi	r18, 0xFF	; 255
    5354:	40 e0       	ldi	r20, 0x00	; 0
    5356:	60 e0       	ldi	r22, 0x00	; 0
    5358:	84 e7       	ldi	r24, 0x74	; 116
    535a:	9a e0       	ldi	r25, 0x0A	; 10
    535c:	0e 94 42 3f 	call	0x7e84	; 0x7e84 <_ZN4UTFT8setColorEhhh>
    5360:	04 e1       	ldi	r16, 0x14	; 20
    5362:	10 e0       	ldi	r17, 0x00	; 0
    5364:	21 e9       	ldi	r18, 0x91	; 145
    5366:	30 e0       	ldi	r19, 0x00	; 0
    5368:	40 e0       	ldi	r20, 0x00	; 0
    536a:	50 e0       	ldi	r21, 0x00	; 0
    536c:	6f ea       	ldi	r22, 0xAF	; 175
    536e:	70 e0       	ldi	r23, 0x00	; 0
    5370:	84 e7       	ldi	r24, 0x74	; 116
    5372:	9a e0       	ldi	r25, 0x0A	; 10
    5374:	0e 94 ef 3f 	call	0x7fde	; 0x7fde <_ZN4UTFT13fillRoundRectEiiii>
    5378:	cc c0       	rjmp	.+408    	; 0x5512 <_Z20TouchEventManagementv+0x390>
    537a:	9c 01       	movw	r18, r24
    537c:	2d 52       	subi	r18, 0x2D	; 45
    537e:	31 09       	sbc	r19, r1
    5380:	2f 32       	cpi	r18, 0x2F	; 47
    5382:	31 05       	cpc	r19, r1
    5384:	10 f4       	brcc	.+4      	; 0x538a <_Z20TouchEventManagementv+0x208>
    5386:	81 e0       	ldi	r24, 0x01	; 1
    5388:	0f c0       	rjmp	.+30     	; 0x53a8 <_Z20TouchEventManagementv+0x226>
    538a:	9c 01       	movw	r18, r24
    538c:	2a 55       	subi	r18, 0x5A	; 90
    538e:	31 09       	sbc	r19, r1
    5390:	2f 32       	cpi	r18, 0x2F	; 47
    5392:	31 05       	cpc	r19, r1
    5394:	10 f4       	brcc	.+4      	; 0x539a <_Z20TouchEventManagementv+0x218>
    5396:	82 e0       	ldi	r24, 0x02	; 2
    5398:	07 c0       	rjmp	.+14     	; 0x53a8 <_Z20TouchEventManagementv+0x226>
    539a:	9c 01       	movw	r18, r24
    539c:	27 58       	subi	r18, 0x87	; 135
    539e:	31 09       	sbc	r19, r1
    53a0:	2f 32       	cpi	r18, 0x2F	; 47
    53a2:	31 05       	cpc	r19, r1
    53a4:	20 f4       	brcc	.+8      	; 0x53ae <_Z20TouchEventManagementv+0x22c>
    53a6:	83 e0       	ldi	r24, 0x03	; 3
    53a8:	1f 91       	pop	r17
    53aa:	0f 91       	pop	r16
    53ac:	1e cd       	rjmp	.-1476   	; 0x4dea <_Z14EntryTouchCalch>
    53ae:	84 5b       	subi	r24, 0xB4	; 180
    53b0:	91 09       	sbc	r25, r1
    53b2:	8f 97       	sbiw	r24, 0x2f	; 47
    53b4:	08 f0       	brcs	.+2      	; 0x53b8 <_Z20TouchEventManagementv+0x236>
    53b6:	ad c0       	rjmp	.+346    	; 0x5512 <_Z20TouchEventManagementv+0x390>
    53b8:	84 e0       	ldi	r24, 0x04	; 4
    53ba:	17 dd       	rcall	.-1490   	; 0x4dea <_Z14EntryTouchCalch>
    53bc:	20 e0       	ldi	r18, 0x00	; 0
    53be:	40 e0       	ldi	r20, 0x00	; 0
    53c0:	6f ef       	ldi	r22, 0xFF	; 255
    53c2:	84 e7       	ldi	r24, 0x74	; 116
    53c4:	9a e0       	ldi	r25, 0x0A	; 10
    53c6:	0e 94 42 3f 	call	0x7e84	; 0x7e84 <_ZN4UTFT8setColorEhhh>
    53ca:	02 ef       	ldi	r16, 0xF2	; 242
    53cc:	10 e0       	ldi	r17, 0x00	; 0
    53ce:	23 eb       	ldi	r18, 0xB3	; 179
    53d0:	30 e0       	ldi	r19, 0x00	; 0
    53d2:	42 ed       	ldi	r20, 0xD2	; 210
    53d4:	50 e0       	ldi	r21, 0x00	; 0
    53d6:	6a e8       	ldi	r22, 0x8A	; 138
    53d8:	70 e0       	ldi	r23, 0x00	; 0
    53da:	84 e7       	ldi	r24, 0x74	; 116
    53dc:	9a e0       	ldi	r25, 0x0A	; 10
    53de:	0e 94 3e 41 	call	0x827c	; 0x827c <_ZN4UTFT13drawRoundRectEiiii>
    53e2:	20 e4       	ldi	r18, 0x40	; 64
    53e4:	40 e4       	ldi	r20, 0x40	; 64
    53e6:	60 e4       	ldi	r22, 0x40	; 64
    53e8:	84 e7       	ldi	r24, 0x74	; 116
    53ea:	9a e0       	ldi	r25, 0x0A	; 10
    53ec:	0e 94 42 3f 	call	0x7e84	; 0x7e84 <_ZN4UTFT8setColorEhhh>
    53f0:	01 ef       	ldi	r16, 0xF1	; 241
    53f2:	10 e0       	ldi	r17, 0x00	; 0
    53f4:	22 eb       	ldi	r18, 0xB2	; 178
    53f6:	30 e0       	ldi	r19, 0x00	; 0
    53f8:	43 ed       	ldi	r20, 0xD3	; 211
    53fa:	50 e0       	ldi	r21, 0x00	; 0
    53fc:	6b e8       	ldi	r22, 0x8B	; 139
    53fe:	70 e0       	ldi	r23, 0x00	; 0
    5400:	84 e7       	ldi	r24, 0x74	; 116
    5402:	9a e0       	ldi	r25, 0x0A	; 10
    5404:	0e 94 ef 3f 	call	0x7fde	; 0x7fde <_ZN4UTFT13fillRoundRectEiiii>
    5408:	2f ef       	ldi	r18, 0xFF	; 255
    540a:	4f ef       	ldi	r20, 0xFF	; 255
    540c:	6f ef       	ldi	r22, 0xFF	; 255
    540e:	84 e7       	ldi	r24, 0x74	; 116
    5410:	9a e0       	ldi	r25, 0x0A	; 10
    5412:	0e 94 42 3f 	call	0x7e84	; 0x7e84 <_ZN4UTFT8setColorEhhh>
    5416:	66 ea       	ldi	r22, 0xA6	; 166
    5418:	7c e2       	ldi	r23, 0x2C	; 44
    541a:	84 e7       	ldi	r24, 0x74	; 116
    541c:	9a e0       	ldi	r25, 0x0A	; 10
    541e:	0e 94 2f 49 	call	0x925e	; 0x925e <_ZN4UTFT7setFontEPh>
    5422:	20 e4       	ldi	r18, 0x40	; 64
    5424:	40 e4       	ldi	r20, 0x40	; 64
    5426:	60 e4       	ldi	r22, 0x40	; 64
    5428:	84 e7       	ldi	r24, 0x74	; 116
    542a:	9a e0       	ldi	r25, 0x0A	; 10
    542c:	0e 94 56 3f 	call	0x7eac	; 0x7eac <_ZN4UTFT12setBackColorEhhh>
    5430:	00 e0       	ldi	r16, 0x00	; 0
    5432:	10 e0       	ldi	r17, 0x00	; 0
    5434:	20 ee       	ldi	r18, 0xE0	; 224
    5436:	30 e0       	ldi	r19, 0x00	; 0
    5438:	4e e0       	ldi	r20, 0x0E	; 14
    543a:	57 e2       	ldi	r21, 0x27	; 39
    543c:	6f ee       	ldi	r22, 0xEF	; 239
    543e:	72 e0       	ldi	r23, 0x02	; 2
    5440:	84 e7       	ldi	r24, 0x74	; 116
    5442:	9a e0       	ldi	r25, 0x0A	; 10
    5444:	0e 94 5b 47 	call	0x8eb6	; 0x8eb6 <_ZN4UTFT5printEPciii>
    5448:	64 c0       	rjmp	.+200    	; 0x5512 <_Z20TouchEventManagementv+0x390>
    544a:	22 30       	cpi	r18, 0x02	; 2
    544c:	31 05       	cpc	r19, r1
    544e:	c9 f4       	brne	.+50     	; 0x5482 <_Z20TouchEventManagementv+0x300>
    5450:	20 91 d6 09 	lds	r18, 0x09D6	; 0x8009d6 <x>
    5454:	30 91 d7 09 	lds	r19, 0x09D7	; 0x8009d7 <x+0x1>
    5458:	28 51       	subi	r18, 0x18	; 24
    545a:	31 40       	sbci	r19, 0x01	; 1
    545c:	28 32       	cpi	r18, 0x28	; 40
    545e:	31 05       	cpc	r19, r1
    5460:	08 f0       	brcs	.+2      	; 0x5464 <_Z20TouchEventManagementv+0x2e2>
    5462:	57 c0       	rjmp	.+174    	; 0x5512 <_Z20TouchEventManagementv+0x390>
    5464:	82 5d       	subi	r24, 0xD2	; 210
    5466:	91 09       	sbc	r25, r1
    5468:	81 97       	sbiw	r24, 0x21	; 33
    546a:	08 f0       	brcs	.+2      	; 0x546e <_Z20TouchEventManagementv+0x2ec>
    546c:	52 c0       	rjmp	.+164    	; 0x5512 <_Z20TouchEventManagementv+0x390>
    546e:	22 ef       	ldi	r18, 0xF2	; 242
    5470:	30 e0       	ldi	r19, 0x00	; 0
    5472:	4f e3       	ldi	r20, 0x3F	; 63
    5474:	51 e0       	ldi	r21, 0x01	; 1
    5476:	62 ed       	ldi	r22, 0xD2	; 210
    5478:	70 e0       	ldi	r23, 0x00	; 0
    547a:	88 e1       	ldi	r24, 0x18	; 24
    547c:	91 e0       	ldi	r25, 0x01	; 1
    547e:	4e d8       	rcall	.-3940   	; 0x451c <_Z9waitForItiiii>
    5480:	40 c0       	rjmp	.+128    	; 0x5502 <_Z20TouchEventManagementv+0x380>
    5482:	23 30       	cpi	r18, 0x03	; 3
    5484:	31 05       	cpc	r19, r1
    5486:	d1 f5       	brne	.+116    	; 0x54fc <_Z20TouchEventManagementv+0x37a>
    5488:	20 91 d6 09 	lds	r18, 0x09D6	; 0x8009d6 <x>
    548c:	30 91 d7 09 	lds	r19, 0x09D7	; 0x8009d7 <x+0x1>
    5490:	a9 01       	movw	r20, r18
    5492:	41 59       	subi	r20, 0x91	; 145
    5494:	51 09       	sbc	r21, r1
    5496:	4f 31       	cpi	r20, 0x1F	; 31
    5498:	51 05       	cpc	r21, r1
    549a:	98 f4       	brcc	.+38     	; 0x54c2 <_Z20TouchEventManagementv+0x340>
    549c:	85 31       	cpi	r24, 0x15	; 21
    549e:	91 05       	cpc	r25, r1
    54a0:	80 f4       	brcc	.+32     	; 0x54c2 <_Z20TouchEventManagementv+0x340>
    54a2:	24 e1       	ldi	r18, 0x14	; 20
    54a4:	30 e0       	ldi	r19, 0x00	; 0
    54a6:	41 e9       	ldi	r20, 0x91	; 145
    54a8:	50 e0       	ldi	r21, 0x00	; 0
    54aa:	60 e0       	ldi	r22, 0x00	; 0
    54ac:	70 e0       	ldi	r23, 0x00	; 0
    54ae:	8f ea       	ldi	r24, 0xAF	; 175
    54b0:	90 e0       	ldi	r25, 0x00	; 0
    54b2:	34 d8       	rcall	.-3992   	; 0x451c <_Z9waitForItiiii>
    54b4:	80 91 dc 09 	lds	r24, 0x09DC	; 0x8009dc <NumberOfMenuEntries>
    54b8:	90 91 dd 09 	lds	r25, 0x09DD	; 0x8009dd <NumberOfMenuEntries+0x1>
    54bc:	05 97       	sbiw	r24, 0x05	; 5
    54be:	2c f5       	brge	.+74     	; 0x550a <_Z20TouchEventManagementv+0x388>
    54c0:	20 c0       	rjmp	.+64     	; 0x5502 <_Z20TouchEventManagementv+0x380>
    54c2:	2a 57       	subi	r18, 0x7A	; 122
    54c4:	31 09       	sbc	r19, r1
    54c6:	23 34       	cpi	r18, 0x43	; 67
    54c8:	31 05       	cpc	r19, r1
    54ca:	18 f5       	brcc	.+70     	; 0x5512 <_Z20TouchEventManagementv+0x390>
    54cc:	8a 5a       	subi	r24, 0xAA	; 170
    54ce:	91 09       	sbc	r25, r1
    54d0:	45 97       	sbiw	r24, 0x15	; 21
    54d2:	f8 f4       	brcc	.+62     	; 0x5512 <_Z20TouchEventManagementv+0x390>
    54d4:	2e eb       	ldi	r18, 0xBE	; 190
    54d6:	30 e0       	ldi	r19, 0x00	; 0
    54d8:	4c eb       	ldi	r20, 0xBC	; 188
    54da:	50 e0       	ldi	r21, 0x00	; 0
    54dc:	6a ea       	ldi	r22, 0xAA	; 170
    54de:	70 e0       	ldi	r23, 0x00	; 0
    54e0:	8a e7       	ldi	r24, 0x7A	; 122
    54e2:	90 e0       	ldi	r25, 0x00	; 0
    54e4:	1b d8       	rcall	.-4042   	; 0x451c <_Z9waitForItiiii>
    54e6:	80 91 22 05 	lds	r24, 0x0522	; 0x800522 <InitSucsessfull>
    54ea:	81 11       	cpse	r24, r1
    54ec:	04 c0       	rjmp	.+8      	; 0x54f6 <_Z20TouchEventManagementv+0x374>
    54ee:	1f 91       	pop	r17
    54f0:	0f 91       	pop	r16
    54f2:	0c 94 a8 21 	jmp	0x4350	; 0x4350 <_Z10drawMsgBoxv>
    54f6:	0e 94 4e 21 	call	0x429c	; 0x429c <_Z12applyChangesv>
    54fa:	07 c0       	rjmp	.+14     	; 0x550a <_Z20TouchEventManagementv+0x388>
    54fc:	24 30       	cpi	r18, 0x04	; 4
    54fe:	31 05       	cpc	r19, r1
    5500:	41 f4       	brne	.+16     	; 0x5512 <_Z20TouchEventManagementv+0x390>
    5502:	84 e7       	ldi	r24, 0x74	; 116
    5504:	9a e0       	ldi	r25, 0x0A	; 10
    5506:	0e 94 a9 3e 	call	0x7d52	; 0x7d52 <_ZN4UTFT6clrScrEv>
    550a:	1f 91       	pop	r17
    550c:	0f 91       	pop	r16
    550e:	0c 94 93 1d 	jmp	0x3b26	; 0x3b26 <_Z13DrawInterfacev>
    5512:	1f 91       	pop	r17
    5514:	0f 91       	pop	r16
    5516:	08 95       	ret

00005518 <setup>:
	if(ActiveScreen==2)
		drawLog();
}

void setup()
{
    5518:	0f 93       	push	r16
    551a:	1f 93       	push	r17
    551c:	cf 93       	push	r28
    551e:	df 93       	push	r29
    5520:	cd b7       	in	r28, 0x3d	; 61
    5522:	de b7       	in	r29, 0x3e	; 62
    5524:	2c 97       	sbiw	r28, 0x0c	; 12
    5526:	0f b6       	in	r0, 0x3f	; 63
    5528:	f8 94       	cli
    552a:	de bf       	out	0x3e, r29	; 62
    552c:	0f be       	out	0x3f, r0	; 63
    552e:	cd bf       	out	0x3d, r28	; 61
	//randomSeed(analogRead(0));
	myTouch.InitTouch();
    5530:	61 e0       	ldi	r22, 0x01	; 1
    5532:	89 e3       	ldi	r24, 0x39	; 57
    5534:	9a e0       	ldi	r25, 0x0A	; 10
    5536:	60 d7       	rcall	.+3776   	; 0x63f8 <_ZN7URTouch9InitTouchEh>
	myTouch.setPrecision(PREC_MEDIUM);
    5538:	62 e0       	ldi	r22, 0x02	; 2
    553a:	89 e3       	ldi	r24, 0x39	; 57
    553c:	9a e0       	ldi	r25, 0x0A	; 10
    553e:	0e 94 15 36 	call	0x6c2a	; 0x6c2a <_ZN7URTouch12setPrecisionEh>
	// Setup the LCD
	myGLCD.InitLCD();
    5542:	61 e0       	ldi	r22, 0x01	; 1
    5544:	84 e7       	ldi	r24, 0x74	; 116
    5546:	9a e0       	ldi	r25, 0x0A	; 10
    5548:	0e 94 36 3d 	call	0x7a6c	; 0x7a6c <_ZN4UTFT7InitLCDEh>
	myGLCD.setFont(BigFont);
    554c:	62 ec       	ldi	r22, 0xC2	; 194
    554e:	70 e2       	ldi	r23, 0x20	; 32
    5550:	84 e7       	ldi	r24, 0x74	; 116
    5552:	9a e0       	ldi	r25, 0x0A	; 10
    5554:	0e 94 2f 49 	call	0x925e	; 0x925e <_ZN4UTFT7setFontEPh>
	int y, y2;
	int r;


	// Clear the screen and draw the frame
	myGLCD.clrScr();
    5558:	84 e7       	ldi	r24, 0x74	; 116
    555a:	9a e0       	ldi	r25, 0x0A	; 10
    555c:	0e 94 a9 3e 	call	0x7d52	; 0x7d52 <_ZN4UTFT6clrScrEv>
	myGLCD.setColor(WHITE);
    5560:	2f ef       	ldi	r18, 0xFF	; 255
    5562:	4f ef       	ldi	r20, 0xFF	; 255
    5564:	6f ef       	ldi	r22, 0xFF	; 255
    5566:	84 e7       	ldi	r24, 0x74	; 116
    5568:	9a e0       	ldi	r25, 0x0A	; 10
    556a:	0e 94 42 3f 	call	0x7e84	; 0x7e84 <_ZN4UTFT8setColorEhhh>
	myGLCD.setBackColor(WHITE);
    556e:	2f ef       	ldi	r18, 0xFF	; 255
    5570:	4f ef       	ldi	r20, 0xFF	; 255
    5572:	6f ef       	ldi	r22, 0xFF	; 255
    5574:	84 e7       	ldi	r24, 0x74	; 116
    5576:	9a e0       	ldi	r25, 0x0A	; 10
    5578:	0e 94 56 3f 	call	0x7eac	; 0x7eac <_ZN4UTFT12setBackColorEhhh>
	myGLCD.fillRect(0,0,319,239);
    557c:	0f ee       	ldi	r16, 0xEF	; 239
    557e:	10 e0       	ldi	r17, 0x00	; 0
    5580:	2f e3       	ldi	r18, 0x3F	; 63
    5582:	31 e0       	ldi	r19, 0x01	; 1
    5584:	40 e0       	ldi	r20, 0x00	; 0
    5586:	50 e0       	ldi	r21, 0x00	; 0
    5588:	60 e0       	ldi	r22, 0x00	; 0
    558a:	70 e0       	ldi	r23, 0x00	; 0
    558c:	84 e7       	ldi	r24, 0x74	; 116
    558e:	9a e0       	ldi	r25, 0x0A	; 10
    5590:	0e 94 f0 41 	call	0x83e0	; 0x83e0 <_ZN4UTFT8fillRectEiiii>
		myGLCD.drawBitmap (110, 47, 100,146, BB8);

	#endif
	
	
	myGLCD.setColor(BLACK);
    5594:	20 e0       	ldi	r18, 0x00	; 0
    5596:	40 e0       	ldi	r20, 0x00	; 0
    5598:	60 e0       	ldi	r22, 0x00	; 0
    559a:	84 e7       	ldi	r24, 0x74	; 116
    559c:	9a e0       	ldi	r25, 0x0A	; 10
    559e:	0e 94 42 3f 	call	0x7e84	; 0x7e84 <_ZN4UTFT8setColorEhhh>
	myGLCD.setFont(SmallFont);
    55a2:	66 ea       	ldi	r22, 0xA6	; 166
    55a4:	7c e2       	ldi	r23, 0x2C	; 44
    55a6:	84 e7       	ldi	r24, 0x74	; 116
    55a8:	9a e0       	ldi	r25, 0x0A	; 10
    55aa:	0e 94 2f 49 	call	0x925e	; 0x925e <_ZN4UTFT7setFontEPh>
	myGLCD.print("Universal Remote", CENTER, 0);
    55ae:	00 e0       	ldi	r16, 0x00	; 0
    55b0:	10 e0       	ldi	r17, 0x00	; 0
    55b2:	20 e0       	ldi	r18, 0x00	; 0
    55b4:	30 e0       	ldi	r19, 0x00	; 0
    55b6:	4e e0       	ldi	r20, 0x0E	; 14
    55b8:	57 e2       	ldi	r21, 0x27	; 39
    55ba:	6d e7       	ldi	r22, 0x7D	; 125
    55bc:	74 e0       	ldi	r23, 0x04	; 4
    55be:	84 e7       	ldi	r24, 0x74	; 116
    55c0:	9a e0       	ldi	r25, 0x0A	; 10
    55c2:	0e 94 5b 47 	call	0x8eb6	; 0x8eb6 <_ZN4UTFT5printEPciii>
	myGLCD.print("(c)2016 Florian Laschober", CENTER, 227);
    55c6:	23 ee       	ldi	r18, 0xE3	; 227
    55c8:	30 e0       	ldi	r19, 0x00	; 0
    55ca:	4e e0       	ldi	r20, 0x0E	; 14
    55cc:	57 e2       	ldi	r21, 0x27	; 39
    55ce:	6e e8       	ldi	r22, 0x8E	; 142
    55d0:	74 e0       	ldi	r23, 0x04	; 4
    55d2:	84 e7       	ldi	r24, 0x74	; 116
    55d4:	9a e0       	ldi	r25, 0x0A	; 10
    55d6:	0e 94 5b 47 	call	0x8eb6	; 0x8eb6 <_ZN4UTFT5printEPciii>
	addLog("LOG:");
    55da:	68 ea       	ldi	r22, 0xA8	; 168
    55dc:	74 e0       	ldi	r23, 0x04	; 4
    55de:	ce 01       	movw	r24, r28
    55e0:	01 96       	adiw	r24, 0x01	; 1
    55e2:	3d d5       	rcall	.+2682   	; 0x605e <_ZN6StringC1EPKc>
    55e4:	ce 01       	movw	r24, r28
    55e6:	01 96       	adiw	r24, 0x01	; 1
    55e8:	0e 94 cd 19 	call	0x339a	; 0x339a <_Z6addLog6String>
    55ec:	ce 01       	movw	r24, r28
    55ee:	01 96       	adiw	r24, 0x01	; 1
    55f0:	cb d4       	rcall	.+2454   	; 0x5f88 <_ZN6StringD1Ev>
	
	String test="PT1";
    55f2:	6d ea       	ldi	r22, 0xAD	; 173
    55f4:	74 e0       	ldi	r23, 0x04	; 4
    55f6:	ce 01       	movw	r24, r28
    55f8:	07 96       	adiw	r24, 0x07	; 7
    55fa:	31 d5       	rcall	.+2658   	; 0x605e <_ZN6StringC1EPKc>
	addMenuEntryIntNum(test, 0, 1,IntCallBack);			//control Char; type; init value max 3 digits ended with ';'; label ending with ';'
    55fc:	be 01       	movw	r22, r28
    55fe:	69 5f       	subi	r22, 0xF9	; 249
    5600:	7f 4f       	sbci	r23, 0xFF	; 255
    5602:	ce 01       	movw	r24, r28
    5604:	01 96       	adiw	r24, 0x01	; 1
    5606:	54 d5       	rcall	.+2728   	; 0x60b0 <_ZN6StringC1ERKS_>
    5608:	2b e6       	ldi	r18, 0x6B	; 107
    560a:	38 e2       	ldi	r19, 0x28	; 40
    560c:	41 e0       	ldi	r20, 0x01	; 1
    560e:	50 e0       	ldi	r21, 0x00	; 0
    5610:	60 e0       	ldi	r22, 0x00	; 0
    5612:	70 e0       	ldi	r23, 0x00	; 0
    5614:	ce 01       	movw	r24, r28
    5616:	01 96       	adiw	r24, 0x01	; 1
    5618:	0e 94 54 1d 	call	0x3aa8	; 0x3aa8 <_Z18addMenuEntryIntNum6StringiiPFvaiE>
    561c:	ce 01       	movw	r24, r28
    561e:	01 96       	adiw	r24, 0x01	; 1
    5620:	b3 d4       	rcall	.+2406   	; 0x5f88 <_ZN6StringD1Ev>

	//Serial.begin(9600);
	
	ESP8266_registerMessageCallback(&recMessFunc1);
    5622:	8e e7       	ldi	r24, 0x7E	; 126
    5624:	9f e1       	ldi	r25, 0x1F	; 31
    5626:	0e 94 72 19 	call	0x32e4	; 0x32e4 <ESP8266_registerMessageCallback>

	
	InitSucsessfull=0;
    562a:	10 92 22 05 	sts	0x0522, r1	; 0x800522 <InitSucsessfull>
	ESP8266_Init();
    562e:	0e 94 77 19 	call	0x32ee	; 0x32ee <ESP8266_Init>
	
	
	TCCR1A &= ~((1<<WGM10) | (1<<WGM11));
    5632:	e0 e8       	ldi	r30, 0x80	; 128
    5634:	f0 e0       	ldi	r31, 0x00	; 0
    5636:	80 81       	ld	r24, Z
    5638:	8c 7f       	andi	r24, 0xFC	; 252
    563a:	80 83       	st	Z, r24
	TCCR1B &= ~((1<<WGM13) | (1<<CS12));
    563c:	e1 e8       	ldi	r30, 0x81	; 129
    563e:	f0 e0       	ldi	r31, 0x00	; 0
    5640:	80 81       	ld	r24, Z
    5642:	8b 7e       	andi	r24, 0xEB	; 235
    5644:	80 83       	st	Z, r24
	TCCR1B |= (1<<WGM12) | (1<<CS10) | (1<<CS11);
    5646:	80 81       	ld	r24, Z
    5648:	8b 60       	ori	r24, 0x0B	; 11
    564a:	80 83       	st	Z, r24
	TIMSK1 |= (1<<OCIE1A);
    564c:	ef e6       	ldi	r30, 0x6F	; 111
    564e:	f0 e0       	ldi	r31, 0x00	; 0
    5650:	80 81       	ld	r24, Z
    5652:	82 60       	ori	r24, 0x02	; 2
    5654:	80 83       	st	Z, r24

	OCR1A = 3124;//12.4ms
    5656:	84 e3       	ldi	r24, 0x34	; 52
    5658:	9c e0       	ldi	r25, 0x0C	; 12
    565a:	90 93 89 00 	sts	0x0089, r25	; 0x800089 <__TEXT_REGION_LENGTH__+0x700089>
    565e:	80 93 88 00 	sts	0x0088, r24	; 0x800088 <__TEXT_REGION_LENGTH__+0x700088>
	
	sei();
    5662:	78 94       	sei
    5664:	ce 01       	movw	r24, r28
    5666:	07 96       	adiw	r24, 0x07	; 7
    5668:	8f d4       	rcall	.+2334   	; 0x5f88 <_ZN6StringD1Ev>
}
    566a:	2c 96       	adiw	r28, 0x0c	; 12
    566c:	0f b6       	in	r0, 0x3f	; 63
    566e:	f8 94       	cli
    5670:	de bf       	out	0x3e, r29	; 62
    5672:	0f be       	out	0x3f, r0	; 63
    5674:	cd bf       	out	0x3d, r28	; 61
    5676:	df 91       	pop	r29
    5678:	cf 91       	pop	r28
    567a:	1f 91       	pop	r17
    567c:	0f 91       	pop	r16
    567e:	08 95       	ret

00005680 <loop>:
	{
		Serial.read();
		a=!a;
		LockDisplay(a);
	}*/
  	TouchEventManagement();
    5680:	80 cd       	rjmp	.-1280   	; 0x5182 <_Z20TouchEventManagementv>

00005682 <__vector_17>:
}


ISR(TIMER1_COMPA_vect)
{
    5682:	1f 92       	push	r1
    5684:	0f 92       	push	r0
    5686:	0f b6       	in	r0, 0x3f	; 63
    5688:	0f 92       	push	r0
    568a:	11 24       	eor	r1, r1
    568c:	0b b6       	in	r0, 0x3b	; 59
    568e:	0f 92       	push	r0
    5690:	2f 93       	push	r18
    5692:	3f 93       	push	r19
    5694:	4f 93       	push	r20
    5696:	5f 93       	push	r21
    5698:	6f 93       	push	r22
    569a:	7f 93       	push	r23
    569c:	8f 93       	push	r24
    569e:	9f 93       	push	r25
    56a0:	af 93       	push	r26
    56a2:	bf 93       	push	r27
    56a4:	ef 93       	push	r30
    56a6:	ff 93       	push	r31
    56a8:	cf 93       	push	r28
    56aa:	df 93       	push	r29
    56ac:	00 d0       	rcall	.+0      	; 0x56ae <__vector_17+0x2c>
    56ae:	00 d0       	rcall	.+0      	; 0x56b0 <__vector_17+0x2e>
    56b0:	cd b7       	in	r28, 0x3d	; 61
    56b2:	de b7       	in	r29, 0x3e	; 62
	
	//ESP8266_sendMessage(0,"")
	if(timeoutDetectionRunning==true)
    56b4:	80 91 21 05 	lds	r24, 0x0521	; 0x800521 <timeoutDetectionRunning>
    56b8:	88 23       	and	r24, r24
    56ba:	79 f1       	breq	.+94     	; 0x571a <__vector_17+0x98>
	{
		Int_count++;
    56bc:	80 91 20 05 	lds	r24, 0x0520	; 0x800520 <Int_count>
    56c0:	8f 5f       	subi	r24, 0xFF	; 255
    56c2:	80 93 20 05 	sts	0x0520, r24	; 0x800520 <Int_count>
		if(Int_count>40)
    56c6:	89 32       	cpi	r24, 0x29	; 41
    56c8:	40 f1       	brcs	.+80     	; 0x571a <__vector_17+0x98>
		{
			if(waitingForPong==false)
    56ca:	90 91 1f 05 	lds	r25, 0x051F	; 0x80051f <waitingForPong>
    56ce:	91 11       	cpse	r25, r1
    56d0:	14 c0       	rjmp	.+40     	; 0x56fa <__vector_17+0x78>
			{
				ESP8266_sendMessage("p");//sending ping
    56d2:	81 eb       	ldi	r24, 0xB1	; 177
    56d4:	94 e0       	ldi	r25, 0x04	; 4
    56d6:	0e 94 8a 19 	call	0x3314	; 0x3314 <ESP8266_sendMessage>
				addLog("P");
    56da:	63 eb       	ldi	r22, 0xB3	; 179
    56dc:	74 e0       	ldi	r23, 0x04	; 4
    56de:	ce 01       	movw	r24, r28
    56e0:	01 96       	adiw	r24, 0x01	; 1
    56e2:	bd d4       	rcall	.+2426   	; 0x605e <_ZN6StringC1EPKc>
    56e4:	ce 01       	movw	r24, r28
    56e6:	01 96       	adiw	r24, 0x01	; 1
    56e8:	0e 94 cd 19 	call	0x339a	; 0x339a <_Z6addLog6String>
    56ec:	ce 01       	movw	r24, r28
    56ee:	01 96       	adiw	r24, 0x01	; 1
    56f0:	4b d4       	rcall	.+2198   	; 0x5f88 <_ZN6StringD1Ev>
				waitingForPong=true;
    56f2:	81 e0       	ldi	r24, 0x01	; 1
    56f4:	80 93 1f 05 	sts	0x051F, r24	; 0x80051f <waitingForPong>
    56f8:	0e c0       	rjmp	.+28     	; 0x5716 <__vector_17+0x94>
				Int_count=0;
			}else{
				if(Int_count>45)
    56fa:	8e 32       	cpi	r24, 0x2E	; 46
    56fc:	70 f0       	brcs	.+28     	; 0x571a <__vector_17+0x98>
				{
					//connection errored
					addLog("T");
    56fe:	65 eb       	ldi	r22, 0xB5	; 181
    5700:	74 e0       	ldi	r23, 0x04	; 4
    5702:	ce 01       	movw	r24, r28
    5704:	01 96       	adiw	r24, 0x01	; 1
    5706:	ab d4       	rcall	.+2390   	; 0x605e <_ZN6StringC1EPKc>
    5708:	ce 01       	movw	r24, r28
    570a:	01 96       	adiw	r24, 0x01	; 1
    570c:	0e 94 cd 19 	call	0x339a	; 0x339a <_Z6addLog6String>
    5710:	ce 01       	movw	r24, r28
    5712:	01 96       	adiw	r24, 0x01	; 1
    5714:	39 d4       	rcall	.+2162   	; 0x5f88 <_ZN6StringD1Ev>
					Int_count=0;
    5716:	10 92 20 05 	sts	0x0520, r1	; 0x800520 <Int_count>
				}
			}
		}
	}
    571a:	26 96       	adiw	r28, 0x06	; 6
    571c:	0f b6       	in	r0, 0x3f	; 63
    571e:	f8 94       	cli
    5720:	de bf       	out	0x3e, r29	; 62
    5722:	0f be       	out	0x3f, r0	; 63
    5724:	cd bf       	out	0x3d, r28	; 61
    5726:	df 91       	pop	r29
    5728:	cf 91       	pop	r28
    572a:	ff 91       	pop	r31
    572c:	ef 91       	pop	r30
    572e:	bf 91       	pop	r27
    5730:	af 91       	pop	r26
    5732:	9f 91       	pop	r25
    5734:	8f 91       	pop	r24
    5736:	7f 91       	pop	r23
    5738:	6f 91       	pop	r22
    573a:	5f 91       	pop	r21
    573c:	4f 91       	pop	r20
    573e:	3f 91       	pop	r19
    5740:	2f 91       	pop	r18
    5742:	0f 90       	pop	r0
    5744:	0b be       	out	0x3b, r0	; 59
    5746:	0f 90       	pop	r0
    5748:	0f be       	out	0x3f, r0	; 63
    574a:	0f 90       	pop	r0
    574c:	1f 90       	pop	r1
    574e:	18 95       	reti

00005750 <_GLOBAL__sub_I_myGLCD>:
    5750:	cf 92       	push	r12
    5752:	df 92       	push	r13
    5754:	ef 92       	push	r14
    5756:	ff 92       	push	r15
    5758:	0f 93       	push	r16
    575a:	1f 93       	push	r17
    575c:	cf 93       	push	r28
    575e:	df 93       	push	r29
#endif



//constructors
UTFT myGLCD(ILI9341_16, 38, 39, 40, 41);
    5760:	c1 2c       	mov	r12, r1
    5762:	d1 2c       	mov	r13, r1
    5764:	99 e2       	ldi	r25, 0x29	; 41
    5766:	e9 2e       	mov	r14, r25
    5768:	f1 2c       	mov	r15, r1
    576a:	08 e2       	ldi	r16, 0x28	; 40
    576c:	10 e0       	ldi	r17, 0x00	; 0
    576e:	27 e2       	ldi	r18, 0x27	; 39
    5770:	30 e0       	ldi	r19, 0x00	; 0
    5772:	46 e2       	ldi	r20, 0x26	; 38
    5774:	50 e0       	ldi	r21, 0x00	; 0
    5776:	61 e1       	ldi	r22, 0x11	; 17
    5778:	84 e7       	ldi	r24, 0x74	; 116
    577a:	9a e0       	ldi	r25, 0x0A	; 10
    577c:	0e 94 0b 3b 	call	0x7616	; 0x7616 <_ZN4UTFTC1Ehiiiii>
URTouch  myTouch( 6, 5, 4, 3, 2);
    5780:	22 e0       	ldi	r18, 0x02	; 2
    5782:	e2 2e       	mov	r14, r18
    5784:	03 e0       	ldi	r16, 0x03	; 3
    5786:	24 e0       	ldi	r18, 0x04	; 4
    5788:	45 e0       	ldi	r20, 0x05	; 5
    578a:	66 e0       	ldi	r22, 0x06	; 6
    578c:	89 e3       	ldi	r24, 0x39	; 57
    578e:	9a e0       	ldi	r25, 0x0A	; 10
    5790:	28 d6       	rcall	.+3152   	; 0x63e2 <_ZN7URTouchC1Ehhhhh>
    5792:	cf ed       	ldi	r28, 0xDF	; 223
    5794:	d9 e0       	ldi	r29, 0x09	; 9
	MenuEntry menuEntry;
	MenuEntryIntNumber menuEntryIntNumber;
};

//variable definitions
String Log[15];
    5796:	69 e2       	ldi	r22, 0x29	; 41
    5798:	74 e0       	ldi	r23, 0x04	; 4
    579a:	ce 01       	movw	r24, r28
    579c:	60 d4       	rcall	.+2240   	; 0x605e <_ZN6StringC1EPKc>
    579e:	26 96       	adiw	r28, 0x06	; 6
    57a0:	8a e0       	ldi	r24, 0x0A	; 10
    57a2:	c9 33       	cpi	r28, 0x39	; 57
    57a4:	d8 07       	cpc	r29, r24
    57a6:	b9 f7       	brne	.-18     	; 0x5796 <_GLOBAL__sub_I_myGLCD+0x46>
int ScrollPosition = 0;
int ActiveScreen = 0; //0-->splash Screen;1-->main Screen;2-->log screen;3-->msg box
bool Connected = true;
int x = 0;
int y = 0;
Entry allEntries[MAXIMUM_MENU_ENTRYS] = {0};
    57a8:	88 e1       	ldi	r24, 0x18	; 24
    57aa:	e4 e2       	ldi	r30, 0x24	; 36
    57ac:	f5 e0       	ldi	r31, 0x05	; 5
    57ae:	df 01       	movw	r26, r30
    57b0:	1d 92       	st	X+, r1
    57b2:	8a 95       	dec	r24
    57b4:	e9 f7       	brne	.-6      	; 0x57b0 <_GLOBAL__sub_I_myGLCD+0x60>
    57b6:	69 e2       	ldi	r22, 0x29	; 41
    57b8:	74 e0       	ldi	r23, 0x04	; 4
    57ba:	87 e2       	ldi	r24, 0x27	; 39
    57bc:	95 e0       	ldi	r25, 0x05	; 5
    57be:	4f d4       	rcall	.+2206   	; 0x605e <_ZN6StringC1EPKc>
    57c0:	69 e2       	ldi	r22, 0x29	; 41
    57c2:	74 e0       	ldi	r23, 0x04	; 4
    57c4:	80 e3       	ldi	r24, 0x30	; 48
    57c6:	95 e0       	ldi	r25, 0x05	; 5
    57c8:	4a d4       	rcall	.+2196   	; 0x605e <_ZN6StringC1EPKc>
    57ca:	c0 e0       	ldi	r28, 0x00	; 0
    57cc:	d0 e0       	ldi	r29, 0x00	; 0
    57ce:	88 e1       	ldi	r24, 0x18	; 24
    57d0:	f8 2e       	mov	r15, r24
    57d2:	8e 01       	movw	r16, r28
    57d4:	08 5e       	subi	r16, 0xE8	; 232
    57d6:	1f 4f       	sbci	r17, 0xFF	; 255
    57d8:	f8 01       	movw	r30, r16
    57da:	ec 5d       	subi	r30, 0xDC	; 220
    57dc:	fa 4f       	sbci	r31, 0xFA	; 250
    57de:	df 01       	movw	r26, r30
    57e0:	8f 2d       	mov	r24, r15
    57e2:	1d 92       	st	X+, r1
    57e4:	8a 95       	dec	r24
    57e6:	e9 f7       	brne	.-6      	; 0x57e2 <_GLOBAL__sub_I_myGLCD+0x92>
    57e8:	69 e2       	ldi	r22, 0x29	; 41
    57ea:	74 e0       	ldi	r23, 0x04	; 4
    57ec:	ce 01       	movw	r24, r28
    57ee:	81 5c       	subi	r24, 0xC1	; 193
    57f0:	9a 4f       	sbci	r25, 0xFA	; 250
    57f2:	35 d4       	rcall	.+2154   	; 0x605e <_ZN6StringC1EPKc>
    57f4:	69 e2       	ldi	r22, 0x29	; 41
    57f6:	74 e0       	ldi	r23, 0x04	; 4
    57f8:	ce 01       	movw	r24, r28
    57fa:	88 5b       	subi	r24, 0xB8	; 184
    57fc:	9a 4f       	sbci	r25, 0xFA	; 250
    57fe:	2f d4       	rcall	.+2142   	; 0x605e <_ZN6StringC1EPKc>
    5800:	e8 01       	movw	r28, r16
    5802:	08 39       	cpi	r16, 0x98	; 152
    5804:	14 40       	sbci	r17, 0x04	; 4
    5806:	29 f7       	brne	.-54     	; 0x57d2 <_GLOBAL__sub_I_myGLCD+0x82>
					Int_count=0;
				}
			}
		}
	}
    5808:	df 91       	pop	r29
    580a:	cf 91       	pop	r28
    580c:	1f 91       	pop	r17
    580e:	0f 91       	pop	r16
    5810:	ff 90       	pop	r15
    5812:	ef 90       	pop	r14
    5814:	df 90       	pop	r13
    5816:	cf 90       	pop	r12
    5818:	08 95       	ret

0000581a <_GLOBAL__sub_D_myGLCD>:
    581a:	cf 93       	push	r28
    581c:	df 93       	push	r29
int ScrollPosition = 0;
int ActiveScreen = 0; //0-->splash Screen;1-->main Screen;2-->log screen;3-->msg box
bool Connected = true;
int x = 0;
int y = 0;
Entry allEntries[MAXIMUM_MENU_ENTRYS] = {0};
    581e:	c4 ed       	ldi	r28, 0xD4	; 212
    5820:	d9 e0       	ldi	r29, 0x09	; 9
    5822:	68 97       	sbiw	r28, 0x18	; 24
	String Text;
	bool State;
	BoolCallBackFunc CallBack;
};

struct MenuEntryIntNumber {
    5824:	ce 01       	movw	r24, r28
    5826:	0c 96       	adiw	r24, 0x0c	; 12
    5828:	af d3       	rcall	.+1886   	; 0x5f88 <_ZN6StringD1Ev>

typedef void (*BoolCallBackFunc)(int8_t ID, bool state);
typedef void (*IntCallBackFunc)(int8_t ID, int Number);

//structures
struct MenuEntry {
    582a:	ce 01       	movw	r24, r28
    582c:	03 96       	adiw	r24, 0x03	; 3
    582e:	ac d3       	rcall	.+1880   	; 0x5f88 <_ZN6StringD1Ev>
int ScrollPosition = 0;
int ActiveScreen = 0; //0-->splash Screen;1-->main Screen;2-->log screen;3-->msg box
bool Connected = true;
int x = 0;
int y = 0;
Entry allEntries[MAXIMUM_MENU_ENTRYS] = {0};
    5830:	85 e0       	ldi	r24, 0x05	; 5
    5832:	c4 32       	cpi	r28, 0x24	; 36
    5834:	d8 07       	cpc	r29, r24
    5836:	a9 f7       	brne	.-22     	; 0x5822 <_GLOBAL__sub_D_myGLCD+0x8>
	MenuEntry menuEntry;
	MenuEntryIntNumber menuEntryIntNumber;
};

//variable definitions
String Log[15];
    5838:	c9 e3       	ldi	r28, 0x39	; 57
    583a:	da e0       	ldi	r29, 0x0A	; 10
    583c:	26 97       	sbiw	r28, 0x06	; 6
    583e:	ce 01       	movw	r24, r28
    5840:	a3 d3       	rcall	.+1862   	; 0x5f88 <_ZN6StringD1Ev>
    5842:	89 e0       	ldi	r24, 0x09	; 9
    5844:	cf 3d       	cpi	r28, 0xDF	; 223
    5846:	d8 07       	cpc	r29, r24
    5848:	c9 f7       	brne	.-14     	; 0x583c <_GLOBAL__sub_D_myGLCD+0x22>
					Int_count=0;
				}
			}
		}
	}
    584a:	df 91       	pop	r29
    584c:	cf 91       	pop	r28
    584e:	08 95       	ret

00005850 <uart1_init>:
}

uint8_t uart1_readyToSend_int()
{
	return sendReady;
}
    5850:	cf 92       	push	r12
    5852:	df 92       	push	r13
    5854:	ef 92       	push	r14
    5856:	ff 92       	push	r15
    5858:	cf 93       	push	r28
    585a:	df 93       	push	r29
    585c:	6b 01       	movw	r12, r22
    585e:	7c 01       	movw	r14, r24
    5860:	d4 2f       	mov	r29, r20
    5862:	c2 2f       	mov	r28, r18
    5864:	60 e4       	ldi	r22, 0x40	; 64
    5866:	72 e4       	ldi	r23, 0x42	; 66
    5868:	8f e0       	ldi	r24, 0x0F	; 15
    586a:	90 e0       	ldi	r25, 0x00	; 0
    586c:	a7 01       	movw	r20, r14
    586e:	96 01       	movw	r18, r12
    5870:	0e 94 1a 4b 	call	0x9634	; 0x9634 <__udivmodsi4>
    5874:	69 01       	movw	r12, r18
    5876:	7a 01       	movw	r14, r20
    5878:	81 e0       	ldi	r24, 0x01	; 1
    587a:	c8 1a       	sub	r12, r24
    587c:	d1 08       	sbc	r13, r1
    587e:	e1 08       	sbc	r14, r1
    5880:	f1 08       	sbc	r15, r1
    5882:	c6 01       	movw	r24, r12
    5884:	0d 2c       	mov	r0, r13
    5886:	00 0c       	add	r0, r0
    5888:	aa 0b       	sbc	r26, r26
    588a:	bb 0b       	sbc	r27, r27
    588c:	a7 01       	movw	r20, r14
    588e:	96 01       	movw	r18, r12
    5890:	28 1b       	sub	r18, r24
    5892:	39 0b       	sbc	r19, r25
    5894:	4a 0b       	sbc	r20, r26
    5896:	5b 0b       	sbc	r21, r27
    5898:	aa e0       	ldi	r26, 0x0A	; 10
    589a:	b0 e0       	ldi	r27, 0x00	; 0
    589c:	0e 94 60 4b 	call	0x96c0	; 0x96c0 <__muluhisi3>
    58a0:	21 e0       	ldi	r18, 0x01	; 1
    58a2:	30 e0       	ldi	r19, 0x00	; 0
    58a4:	65 30       	cpi	r22, 0x05	; 5
    58a6:	71 05       	cpc	r23, r1
    58a8:	81 05       	cpc	r24, r1
    58aa:	91 05       	cpc	r25, r1
    58ac:	10 f4       	brcc	.+4      	; 0x58b2 <uart1_init+0x62>
    58ae:	20 e0       	ldi	r18, 0x00	; 0
    58b0:	30 e0       	ldi	r19, 0x00	; 0
    58b2:	c2 0e       	add	r12, r18
    58b4:	d3 1e       	adc	r13, r19
    58b6:	d0 92 cd 00 	sts	0x00CD, r13	; 0x8000cd <__TEXT_REGION_LENGTH__+0x7000cd>
    58ba:	c0 92 cc 00 	sts	0x00CC, r12	; 0x8000cc <__TEXT_REGION_LENGTH__+0x7000cc>
    58be:	dd 23       	and	r29, r29
    58c0:	29 f0       	breq	.+10     	; 0x58cc <uart1_init+0x7c>
    58c2:	80 91 c9 00 	lds	r24, 0x00C9	; 0x8000c9 <__TEXT_REGION_LENGTH__+0x7000c9>
    58c6:	88 60       	ori	r24, 0x08	; 8
    58c8:	80 93 c9 00 	sts	0x00C9, r24	; 0x8000c9 <__TEXT_REGION_LENGTH__+0x7000c9>
    58cc:	cc 23       	and	r28, r28
    58ce:	29 f0       	breq	.+10     	; 0x58da <uart1_init+0x8a>
    58d0:	80 91 c9 00 	lds	r24, 0x00C9	; 0x8000c9 <__TEXT_REGION_LENGTH__+0x7000c9>
    58d4:	80 61       	ori	r24, 0x10	; 16
    58d6:	80 93 c9 00 	sts	0x00C9, r24	; 0x8000c9 <__TEXT_REGION_LENGTH__+0x7000c9>
    58da:	80 91 ca 00 	lds	r24, 0x00CA	; 0x8000ca <__TEXT_REGION_LENGTH__+0x7000ca>
    58de:	87 7c       	andi	r24, 0xC7	; 199
    58e0:	80 93 ca 00 	sts	0x00CA, r24	; 0x8000ca <__TEXT_REGION_LENGTH__+0x7000ca>
    58e4:	80 91 c9 00 	lds	r24, 0x00C9	; 0x8000c9 <__TEXT_REGION_LENGTH__+0x7000c9>
    58e8:	8b 7f       	andi	r24, 0xFB	; 251
    58ea:	80 93 c9 00 	sts	0x00C9, r24	; 0x8000c9 <__TEXT_REGION_LENGTH__+0x7000c9>
    58ee:	80 91 ca 00 	lds	r24, 0x00CA	; 0x8000ca <__TEXT_REGION_LENGTH__+0x7000ca>
    58f2:	86 60       	ori	r24, 0x06	; 6
    58f4:	80 93 ca 00 	sts	0x00CA, r24	; 0x8000ca <__TEXT_REGION_LENGTH__+0x7000ca>
    58f8:	10 92 a7 0a 	sts	0x0AA7, r1	; 0x800aa7 <receveReady>
    58fc:	10 92 aa 0a 	sts	0x0AAA, r1	; 0x800aaa <sendIndex>
    5900:	10 92 ab 0a 	sts	0x0AAB, r1	; 0x800aab <sendBuffer>
    5904:	81 e0       	ldi	r24, 0x01	; 1
    5906:	80 93 a9 0a 	sts	0x0AA9, r24	; 0x800aa9 <sendReady>
    590a:	df 91       	pop	r29
    590c:	cf 91       	pop	r28
    590e:	ff 90       	pop	r15
    5910:	ef 90       	pop	r14
    5912:	df 90       	pop	r13
    5914:	cf 90       	pop	r12
    5916:	08 95       	ret

00005918 <uart1_init_x>:
    5918:	ef 92       	push	r14
    591a:	0f 93       	push	r16
    591c:	99 df       	rcall	.-206    	; 0x5850 <uart1_init>
    591e:	00 23       	and	r16, r16
    5920:	31 f0       	breq	.+12     	; 0x592e <uart1_init_x+0x16>
    5922:	80 91 c9 00 	lds	r24, 0x00C9	; 0x8000c9 <__TEXT_REGION_LENGTH__+0x7000c9>
    5926:	80 64       	ori	r24, 0x40	; 64
    5928:	80 93 c9 00 	sts	0x00C9, r24	; 0x8000c9 <__TEXT_REGION_LENGTH__+0x7000c9>
    592c:	78 94       	sei
    592e:	ee 20       	and	r14, r14
    5930:	31 f0       	breq	.+12     	; 0x593e <uart1_init_x+0x26>
    5932:	80 91 c9 00 	lds	r24, 0x00C9	; 0x8000c9 <__TEXT_REGION_LENGTH__+0x7000c9>
    5936:	80 68       	ori	r24, 0x80	; 128
    5938:	80 93 c9 00 	sts	0x00C9, r24	; 0x8000c9 <__TEXT_REGION_LENGTH__+0x7000c9>
    593c:	78 94       	sei
    593e:	0f 91       	pop	r16
    5940:	ef 90       	pop	r14
    5942:	08 95       	ret

00005944 <uart1_registerCallBack>:
    5944:	90 93 a6 0a 	sts	0x0AA6, r25	; 0x800aa6 <callBack+0x1>
    5948:	80 93 a5 0a 	sts	0x0AA5, r24	; 0x800aa5 <callBack>
    594c:	08 95       	ret

0000594e <uart1_putc>:
    594e:	90 91 c8 00 	lds	r25, 0x00C8	; 0x8000c8 <__TEXT_REGION_LENGTH__+0x7000c8>
    5952:	95 ff       	sbrs	r25, 5
    5954:	fc cf       	rjmp	.-8      	; 0x594e <uart1_putc>
    5956:	80 93 ce 00 	sts	0x00CE, r24	; 0x8000ce <__TEXT_REGION_LENGTH__+0x7000ce>
    595a:	08 95       	ret

0000595c <uart1_newline>:
    595c:	8a e0       	ldi	r24, 0x0A	; 10
    595e:	f7 df       	rcall	.-18     	; 0x594e <uart1_putc>
    5960:	8d e0       	ldi	r24, 0x0D	; 13
    5962:	f5 cf       	rjmp	.-22     	; 0x594e <uart1_putc>

00005964 <uart1_puts>:
    5964:	cf 93       	push	r28
    5966:	df 93       	push	r29
    5968:	ec 01       	movw	r28, r24
    596a:	88 81       	ld	r24, Y
    596c:	88 23       	and	r24, r24
    596e:	49 f0       	breq	.+18     	; 0x5982 <uart1_puts+0x1e>
    5970:	88 81       	ld	r24, Y
    5972:	8a 30       	cpi	r24, 0x0A	; 10
    5974:	11 f4       	brne	.+4      	; 0x597a <uart1_puts+0x16>
    5976:	f2 df       	rcall	.-28     	; 0x595c <uart1_newline>
    5978:	02 c0       	rjmp	.+4      	; 0x597e <uart1_puts+0x1a>
    597a:	88 81       	ld	r24, Y
    597c:	e8 df       	rcall	.-48     	; 0x594e <uart1_putc>
    597e:	21 96       	adiw	r28, 0x01	; 1
    5980:	f4 cf       	rjmp	.-24     	; 0x596a <uart1_puts+0x6>
    5982:	df 91       	pop	r29
    5984:	cf 91       	pop	r28
    5986:	08 95       	ret

00005988 <__vector_38>:

ISR(USART1_TX_vect)
{
    5988:	1f 92       	push	r1
    598a:	0f 92       	push	r0
    598c:	0f b6       	in	r0, 0x3f	; 63
    598e:	0f 92       	push	r0
    5990:	11 24       	eor	r1, r1
    5992:	0b b6       	in	r0, 0x3b	; 59
    5994:	0f 92       	push	r0
    5996:	8f 93       	push	r24
    5998:	ef 93       	push	r30
    599a:	ff 93       	push	r31
	if(sendBuffer[sendIndex] != '\0')
    599c:	e0 91 aa 0a 	lds	r30, 0x0AAA	; 0x800aaa <sendIndex>
    59a0:	f0 e0       	ldi	r31, 0x00	; 0
    59a2:	e5 55       	subi	r30, 0x55	; 85
    59a4:	f5 4f       	sbci	r31, 0xF5	; 245
    59a6:	80 81       	ld	r24, Z
    59a8:	88 23       	and	r24, r24
    59aa:	69 f0       	breq	.+26     	; 0x59c6 <__vector_38+0x3e>
		UDR1 =sendBuffer[sendIndex++];
    59ac:	e0 91 aa 0a 	lds	r30, 0x0AAA	; 0x800aaa <sendIndex>
    59b0:	81 e0       	ldi	r24, 0x01	; 1
    59b2:	8e 0f       	add	r24, r30
    59b4:	80 93 aa 0a 	sts	0x0AAA, r24	; 0x800aaa <sendIndex>
    59b8:	f0 e0       	ldi	r31, 0x00	; 0
    59ba:	e5 55       	subi	r30, 0x55	; 85
    59bc:	f5 4f       	sbci	r31, 0xF5	; 245
    59be:	80 81       	ld	r24, Z
    59c0:	80 93 ce 00 	sts	0x00CE, r24	; 0x8000ce <__TEXT_REGION_LENGTH__+0x7000ce>
    59c4:	03 c0       	rjmp	.+6      	; 0x59cc <__vector_38+0x44>
	else
		sendReady = 1;
    59c6:	81 e0       	ldi	r24, 0x01	; 1
    59c8:	80 93 a9 0a 	sts	0x0AA9, r24	; 0x800aa9 <sendReady>
}
    59cc:	ff 91       	pop	r31
    59ce:	ef 91       	pop	r30
    59d0:	8f 91       	pop	r24
    59d2:	0f 90       	pop	r0
    59d4:	0b be       	out	0x3b, r0	; 59
    59d6:	0f 90       	pop	r0
    59d8:	0f be       	out	0x3f, r0	; 63
    59da:	0f 90       	pop	r0
    59dc:	1f 90       	pop	r1
    59de:	18 95       	reti

000059e0 <__vector_36>:

ISR(USART1_RX_vect)
{
    59e0:	1f 92       	push	r1
    59e2:	0f 92       	push	r0
    59e4:	0f b6       	in	r0, 0x3f	; 63
    59e6:	0f 92       	push	r0
    59e8:	11 24       	eor	r1, r1
    59ea:	0b b6       	in	r0, 0x3b	; 59
    59ec:	0f 92       	push	r0
    59ee:	2f 93       	push	r18
    59f0:	3f 93       	push	r19
    59f2:	4f 93       	push	r20
    59f4:	5f 93       	push	r21
    59f6:	6f 93       	push	r22
    59f8:	7f 93       	push	r23
    59fa:	8f 93       	push	r24
    59fc:	9f 93       	push	r25
    59fe:	af 93       	push	r26
    5a00:	bf 93       	push	r27
    5a02:	ef 93       	push	r30
    5a04:	ff 93       	push	r31
	receveData = UDR1;
    5a06:	80 91 ce 00 	lds	r24, 0x00CE	; 0x8000ce <__TEXT_REGION_LENGTH__+0x7000ce>
    5a0a:	80 93 a8 0a 	sts	0x0AA8, r24	; 0x800aa8 <receveData>
	if(callBack!=NULL)
    5a0e:	e0 91 a5 0a 	lds	r30, 0x0AA5	; 0x800aa5 <callBack>
    5a12:	f0 91 a6 0a 	lds	r31, 0x0AA6	; 0x800aa6 <callBack+0x1>
    5a16:	30 97       	sbiw	r30, 0x00	; 0
    5a18:	19 f0       	breq	.+6      	; 0x5a20 <__vector_36+0x40>
		callBack(receveData);
    5a1a:	80 91 a8 0a 	lds	r24, 0x0AA8	; 0x800aa8 <receveData>
    5a1e:	19 95       	eicall
	receveReady = 1;
    5a20:	81 e0       	ldi	r24, 0x01	; 1
    5a22:	80 93 a7 0a 	sts	0x0AA7, r24	; 0x800aa7 <receveReady>
    5a26:	ff 91       	pop	r31
    5a28:	ef 91       	pop	r30
    5a2a:	bf 91       	pop	r27
    5a2c:	af 91       	pop	r26
    5a2e:	9f 91       	pop	r25
    5a30:	8f 91       	pop	r24
    5a32:	7f 91       	pop	r23
    5a34:	6f 91       	pop	r22
    5a36:	5f 91       	pop	r21
    5a38:	4f 91       	pop	r20
    5a3a:	3f 91       	pop	r19
    5a3c:	2f 91       	pop	r18
    5a3e:	0f 90       	pop	r0
    5a40:	0b be       	out	0x3b, r0	; 59
    5a42:	0f 90       	pop	r0
    5a44:	0f be       	out	0x3f, r0	; 63
    5a46:	0f 90       	pop	r0
    5a48:	1f 90       	pop	r1
    5a4a:	18 95       	reti

00005a4c <__subsf3>:
    5a4c:	50 58       	subi	r21, 0x80	; 128

00005a4e <__addsf3>:
    5a4e:	bb 27       	eor	r27, r27
    5a50:	aa 27       	eor	r26, r26
    5a52:	0e d0       	rcall	.+28     	; 0x5a70 <__addsf3x>
    5a54:	e5 c0       	rjmp	.+458    	; 0x5c20 <__fp_round>
    5a56:	d6 d0       	rcall	.+428    	; 0x5c04 <__fp_pscA>
    5a58:	30 f0       	brcs	.+12     	; 0x5a66 <__addsf3+0x18>
    5a5a:	db d0       	rcall	.+438    	; 0x5c12 <__fp_pscB>
    5a5c:	20 f0       	brcs	.+8      	; 0x5a66 <__addsf3+0x18>
    5a5e:	31 f4       	brne	.+12     	; 0x5a6c <__addsf3+0x1e>
    5a60:	9f 3f       	cpi	r25, 0xFF	; 255
    5a62:	11 f4       	brne	.+4      	; 0x5a68 <__addsf3+0x1a>
    5a64:	1e f4       	brtc	.+6      	; 0x5a6c <__addsf3+0x1e>
    5a66:	cb c0       	rjmp	.+406    	; 0x5bfe <__fp_nan>
    5a68:	0e f4       	brtc	.+2      	; 0x5a6c <__addsf3+0x1e>
    5a6a:	e0 95       	com	r30
    5a6c:	e7 fb       	bst	r30, 7
    5a6e:	c1 c0       	rjmp	.+386    	; 0x5bf2 <__fp_inf>

00005a70 <__addsf3x>:
    5a70:	e9 2f       	mov	r30, r25
    5a72:	e7 d0       	rcall	.+462    	; 0x5c42 <__fp_split3>
    5a74:	80 f3       	brcs	.-32     	; 0x5a56 <__addsf3+0x8>
    5a76:	ba 17       	cp	r27, r26
    5a78:	62 07       	cpc	r22, r18
    5a7a:	73 07       	cpc	r23, r19
    5a7c:	84 07       	cpc	r24, r20
    5a7e:	95 07       	cpc	r25, r21
    5a80:	18 f0       	brcs	.+6      	; 0x5a88 <__addsf3x+0x18>
    5a82:	71 f4       	brne	.+28     	; 0x5aa0 <__addsf3x+0x30>
    5a84:	9e f5       	brtc	.+102    	; 0x5aec <__addsf3x+0x7c>
    5a86:	ff c0       	rjmp	.+510    	; 0x5c86 <__fp_zero>
    5a88:	0e f4       	brtc	.+2      	; 0x5a8c <__addsf3x+0x1c>
    5a8a:	e0 95       	com	r30
    5a8c:	0b 2e       	mov	r0, r27
    5a8e:	ba 2f       	mov	r27, r26
    5a90:	a0 2d       	mov	r26, r0
    5a92:	0b 01       	movw	r0, r22
    5a94:	b9 01       	movw	r22, r18
    5a96:	90 01       	movw	r18, r0
    5a98:	0c 01       	movw	r0, r24
    5a9a:	ca 01       	movw	r24, r20
    5a9c:	a0 01       	movw	r20, r0
    5a9e:	11 24       	eor	r1, r1
    5aa0:	ff 27       	eor	r31, r31
    5aa2:	59 1b       	sub	r21, r25
    5aa4:	99 f0       	breq	.+38     	; 0x5acc <__addsf3x+0x5c>
    5aa6:	59 3f       	cpi	r21, 0xF9	; 249
    5aa8:	50 f4       	brcc	.+20     	; 0x5abe <__addsf3x+0x4e>
    5aaa:	50 3e       	cpi	r21, 0xE0	; 224
    5aac:	68 f1       	brcs	.+90     	; 0x5b08 <__addsf3x+0x98>
    5aae:	1a 16       	cp	r1, r26
    5ab0:	f0 40       	sbci	r31, 0x00	; 0
    5ab2:	a2 2f       	mov	r26, r18
    5ab4:	23 2f       	mov	r18, r19
    5ab6:	34 2f       	mov	r19, r20
    5ab8:	44 27       	eor	r20, r20
    5aba:	58 5f       	subi	r21, 0xF8	; 248
    5abc:	f3 cf       	rjmp	.-26     	; 0x5aa4 <__addsf3x+0x34>
    5abe:	46 95       	lsr	r20
    5ac0:	37 95       	ror	r19
    5ac2:	27 95       	ror	r18
    5ac4:	a7 95       	ror	r26
    5ac6:	f0 40       	sbci	r31, 0x00	; 0
    5ac8:	53 95       	inc	r21
    5aca:	c9 f7       	brne	.-14     	; 0x5abe <__addsf3x+0x4e>
    5acc:	7e f4       	brtc	.+30     	; 0x5aec <__addsf3x+0x7c>
    5ace:	1f 16       	cp	r1, r31
    5ad0:	ba 0b       	sbc	r27, r26
    5ad2:	62 0b       	sbc	r22, r18
    5ad4:	73 0b       	sbc	r23, r19
    5ad6:	84 0b       	sbc	r24, r20
    5ad8:	ba f0       	brmi	.+46     	; 0x5b08 <__addsf3x+0x98>
    5ada:	91 50       	subi	r25, 0x01	; 1
    5adc:	a1 f0       	breq	.+40     	; 0x5b06 <__addsf3x+0x96>
    5ade:	ff 0f       	add	r31, r31
    5ae0:	bb 1f       	adc	r27, r27
    5ae2:	66 1f       	adc	r22, r22
    5ae4:	77 1f       	adc	r23, r23
    5ae6:	88 1f       	adc	r24, r24
    5ae8:	c2 f7       	brpl	.-16     	; 0x5ada <__addsf3x+0x6a>
    5aea:	0e c0       	rjmp	.+28     	; 0x5b08 <__addsf3x+0x98>
    5aec:	ba 0f       	add	r27, r26
    5aee:	62 1f       	adc	r22, r18
    5af0:	73 1f       	adc	r23, r19
    5af2:	84 1f       	adc	r24, r20
    5af4:	48 f4       	brcc	.+18     	; 0x5b08 <__addsf3x+0x98>
    5af6:	87 95       	ror	r24
    5af8:	77 95       	ror	r23
    5afa:	67 95       	ror	r22
    5afc:	b7 95       	ror	r27
    5afe:	f7 95       	ror	r31
    5b00:	9e 3f       	cpi	r25, 0xFE	; 254
    5b02:	08 f0       	brcs	.+2      	; 0x5b06 <__addsf3x+0x96>
    5b04:	b3 cf       	rjmp	.-154    	; 0x5a6c <__addsf3+0x1e>
    5b06:	93 95       	inc	r25
    5b08:	88 0f       	add	r24, r24
    5b0a:	08 f0       	brcs	.+2      	; 0x5b0e <__addsf3x+0x9e>
    5b0c:	99 27       	eor	r25, r25
    5b0e:	ee 0f       	add	r30, r30
    5b10:	97 95       	ror	r25
    5b12:	87 95       	ror	r24
    5b14:	08 95       	ret

00005b16 <__fixsfsi>:
    5b16:	04 d0       	rcall	.+8      	; 0x5b20 <__fixunssfsi>
    5b18:	68 94       	set
    5b1a:	b1 11       	cpse	r27, r1
    5b1c:	b5 c0       	rjmp	.+362    	; 0x5c88 <__fp_szero>
    5b1e:	08 95       	ret

00005b20 <__fixunssfsi>:
    5b20:	98 d0       	rcall	.+304    	; 0x5c52 <__fp_splitA>
    5b22:	88 f0       	brcs	.+34     	; 0x5b46 <__fixunssfsi+0x26>
    5b24:	9f 57       	subi	r25, 0x7F	; 127
    5b26:	90 f0       	brcs	.+36     	; 0x5b4c <__fixunssfsi+0x2c>
    5b28:	b9 2f       	mov	r27, r25
    5b2a:	99 27       	eor	r25, r25
    5b2c:	b7 51       	subi	r27, 0x17	; 23
    5b2e:	a0 f0       	brcs	.+40     	; 0x5b58 <__fixunssfsi+0x38>
    5b30:	d1 f0       	breq	.+52     	; 0x5b66 <__fixunssfsi+0x46>
    5b32:	66 0f       	add	r22, r22
    5b34:	77 1f       	adc	r23, r23
    5b36:	88 1f       	adc	r24, r24
    5b38:	99 1f       	adc	r25, r25
    5b3a:	1a f0       	brmi	.+6      	; 0x5b42 <__fixunssfsi+0x22>
    5b3c:	ba 95       	dec	r27
    5b3e:	c9 f7       	brne	.-14     	; 0x5b32 <__fixunssfsi+0x12>
    5b40:	12 c0       	rjmp	.+36     	; 0x5b66 <__fixunssfsi+0x46>
    5b42:	b1 30       	cpi	r27, 0x01	; 1
    5b44:	81 f0       	breq	.+32     	; 0x5b66 <__fixunssfsi+0x46>
    5b46:	9f d0       	rcall	.+318    	; 0x5c86 <__fp_zero>
    5b48:	b1 e0       	ldi	r27, 0x01	; 1
    5b4a:	08 95       	ret
    5b4c:	9c c0       	rjmp	.+312    	; 0x5c86 <__fp_zero>
    5b4e:	67 2f       	mov	r22, r23
    5b50:	78 2f       	mov	r23, r24
    5b52:	88 27       	eor	r24, r24
    5b54:	b8 5f       	subi	r27, 0xF8	; 248
    5b56:	39 f0       	breq	.+14     	; 0x5b66 <__fixunssfsi+0x46>
    5b58:	b9 3f       	cpi	r27, 0xF9	; 249
    5b5a:	cc f3       	brlt	.-14     	; 0x5b4e <__fixunssfsi+0x2e>
    5b5c:	86 95       	lsr	r24
    5b5e:	77 95       	ror	r23
    5b60:	67 95       	ror	r22
    5b62:	b3 95       	inc	r27
    5b64:	d9 f7       	brne	.-10     	; 0x5b5c <__fixunssfsi+0x3c>
    5b66:	3e f4       	brtc	.+14     	; 0x5b76 <__fixunssfsi+0x56>
    5b68:	90 95       	com	r25
    5b6a:	80 95       	com	r24
    5b6c:	70 95       	com	r23
    5b6e:	61 95       	neg	r22
    5b70:	7f 4f       	sbci	r23, 0xFF	; 255
    5b72:	8f 4f       	sbci	r24, 0xFF	; 255
    5b74:	9f 4f       	sbci	r25, 0xFF	; 255
    5b76:	08 95       	ret

00005b78 <__floatunsisf>:
    5b78:	e8 94       	clt
    5b7a:	09 c0       	rjmp	.+18     	; 0x5b8e <__floatsisf+0x12>

00005b7c <__floatsisf>:
    5b7c:	97 fb       	bst	r25, 7
    5b7e:	3e f4       	brtc	.+14     	; 0x5b8e <__floatsisf+0x12>
    5b80:	90 95       	com	r25
    5b82:	80 95       	com	r24
    5b84:	70 95       	com	r23
    5b86:	61 95       	neg	r22
    5b88:	7f 4f       	sbci	r23, 0xFF	; 255
    5b8a:	8f 4f       	sbci	r24, 0xFF	; 255
    5b8c:	9f 4f       	sbci	r25, 0xFF	; 255
    5b8e:	99 23       	and	r25, r25
    5b90:	a9 f0       	breq	.+42     	; 0x5bbc <__floatsisf+0x40>
    5b92:	f9 2f       	mov	r31, r25
    5b94:	96 e9       	ldi	r25, 0x96	; 150
    5b96:	bb 27       	eor	r27, r27
    5b98:	93 95       	inc	r25
    5b9a:	f6 95       	lsr	r31
    5b9c:	87 95       	ror	r24
    5b9e:	77 95       	ror	r23
    5ba0:	67 95       	ror	r22
    5ba2:	b7 95       	ror	r27
    5ba4:	f1 11       	cpse	r31, r1
    5ba6:	f8 cf       	rjmp	.-16     	; 0x5b98 <__floatsisf+0x1c>
    5ba8:	fa f4       	brpl	.+62     	; 0x5be8 <__floatsisf+0x6c>
    5baa:	bb 0f       	add	r27, r27
    5bac:	11 f4       	brne	.+4      	; 0x5bb2 <__floatsisf+0x36>
    5bae:	60 ff       	sbrs	r22, 0
    5bb0:	1b c0       	rjmp	.+54     	; 0x5be8 <__floatsisf+0x6c>
    5bb2:	6f 5f       	subi	r22, 0xFF	; 255
    5bb4:	7f 4f       	sbci	r23, 0xFF	; 255
    5bb6:	8f 4f       	sbci	r24, 0xFF	; 255
    5bb8:	9f 4f       	sbci	r25, 0xFF	; 255
    5bba:	16 c0       	rjmp	.+44     	; 0x5be8 <__floatsisf+0x6c>
    5bbc:	88 23       	and	r24, r24
    5bbe:	11 f0       	breq	.+4      	; 0x5bc4 <__floatsisf+0x48>
    5bc0:	96 e9       	ldi	r25, 0x96	; 150
    5bc2:	11 c0       	rjmp	.+34     	; 0x5be6 <__floatsisf+0x6a>
    5bc4:	77 23       	and	r23, r23
    5bc6:	21 f0       	breq	.+8      	; 0x5bd0 <__floatsisf+0x54>
    5bc8:	9e e8       	ldi	r25, 0x8E	; 142
    5bca:	87 2f       	mov	r24, r23
    5bcc:	76 2f       	mov	r23, r22
    5bce:	05 c0       	rjmp	.+10     	; 0x5bda <__floatsisf+0x5e>
    5bd0:	66 23       	and	r22, r22
    5bd2:	71 f0       	breq	.+28     	; 0x5bf0 <__floatsisf+0x74>
    5bd4:	96 e8       	ldi	r25, 0x86	; 134
    5bd6:	86 2f       	mov	r24, r22
    5bd8:	70 e0       	ldi	r23, 0x00	; 0
    5bda:	60 e0       	ldi	r22, 0x00	; 0
    5bdc:	2a f0       	brmi	.+10     	; 0x5be8 <__floatsisf+0x6c>
    5bde:	9a 95       	dec	r25
    5be0:	66 0f       	add	r22, r22
    5be2:	77 1f       	adc	r23, r23
    5be4:	88 1f       	adc	r24, r24
    5be6:	da f7       	brpl	.-10     	; 0x5bde <__floatsisf+0x62>
    5be8:	88 0f       	add	r24, r24
    5bea:	96 95       	lsr	r25
    5bec:	87 95       	ror	r24
    5bee:	97 f9       	bld	r25, 7
    5bf0:	08 95       	ret

00005bf2 <__fp_inf>:
    5bf2:	97 f9       	bld	r25, 7
    5bf4:	9f 67       	ori	r25, 0x7F	; 127
    5bf6:	80 e8       	ldi	r24, 0x80	; 128
    5bf8:	70 e0       	ldi	r23, 0x00	; 0
    5bfa:	60 e0       	ldi	r22, 0x00	; 0
    5bfc:	08 95       	ret

00005bfe <__fp_nan>:
    5bfe:	9f ef       	ldi	r25, 0xFF	; 255
    5c00:	80 ec       	ldi	r24, 0xC0	; 192
    5c02:	08 95       	ret

00005c04 <__fp_pscA>:
    5c04:	00 24       	eor	r0, r0
    5c06:	0a 94       	dec	r0
    5c08:	16 16       	cp	r1, r22
    5c0a:	17 06       	cpc	r1, r23
    5c0c:	18 06       	cpc	r1, r24
    5c0e:	09 06       	cpc	r0, r25
    5c10:	08 95       	ret

00005c12 <__fp_pscB>:
    5c12:	00 24       	eor	r0, r0
    5c14:	0a 94       	dec	r0
    5c16:	12 16       	cp	r1, r18
    5c18:	13 06       	cpc	r1, r19
    5c1a:	14 06       	cpc	r1, r20
    5c1c:	05 06       	cpc	r0, r21
    5c1e:	08 95       	ret

00005c20 <__fp_round>:
    5c20:	09 2e       	mov	r0, r25
    5c22:	03 94       	inc	r0
    5c24:	00 0c       	add	r0, r0
    5c26:	11 f4       	brne	.+4      	; 0x5c2c <__fp_round+0xc>
    5c28:	88 23       	and	r24, r24
    5c2a:	52 f0       	brmi	.+20     	; 0x5c40 <__fp_round+0x20>
    5c2c:	bb 0f       	add	r27, r27
    5c2e:	40 f4       	brcc	.+16     	; 0x5c40 <__fp_round+0x20>
    5c30:	bf 2b       	or	r27, r31
    5c32:	11 f4       	brne	.+4      	; 0x5c38 <__fp_round+0x18>
    5c34:	60 ff       	sbrs	r22, 0
    5c36:	04 c0       	rjmp	.+8      	; 0x5c40 <__fp_round+0x20>
    5c38:	6f 5f       	subi	r22, 0xFF	; 255
    5c3a:	7f 4f       	sbci	r23, 0xFF	; 255
    5c3c:	8f 4f       	sbci	r24, 0xFF	; 255
    5c3e:	9f 4f       	sbci	r25, 0xFF	; 255
    5c40:	08 95       	ret

00005c42 <__fp_split3>:
    5c42:	57 fd       	sbrc	r21, 7
    5c44:	90 58       	subi	r25, 0x80	; 128
    5c46:	44 0f       	add	r20, r20
    5c48:	55 1f       	adc	r21, r21
    5c4a:	59 f0       	breq	.+22     	; 0x5c62 <__fp_splitA+0x10>
    5c4c:	5f 3f       	cpi	r21, 0xFF	; 255
    5c4e:	71 f0       	breq	.+28     	; 0x5c6c <__fp_splitA+0x1a>
    5c50:	47 95       	ror	r20

00005c52 <__fp_splitA>:
    5c52:	88 0f       	add	r24, r24
    5c54:	97 fb       	bst	r25, 7
    5c56:	99 1f       	adc	r25, r25
    5c58:	61 f0       	breq	.+24     	; 0x5c72 <__fp_splitA+0x20>
    5c5a:	9f 3f       	cpi	r25, 0xFF	; 255
    5c5c:	79 f0       	breq	.+30     	; 0x5c7c <__fp_splitA+0x2a>
    5c5e:	87 95       	ror	r24
    5c60:	08 95       	ret
    5c62:	12 16       	cp	r1, r18
    5c64:	13 06       	cpc	r1, r19
    5c66:	14 06       	cpc	r1, r20
    5c68:	55 1f       	adc	r21, r21
    5c6a:	f2 cf       	rjmp	.-28     	; 0x5c50 <__fp_split3+0xe>
    5c6c:	46 95       	lsr	r20
    5c6e:	f1 df       	rcall	.-30     	; 0x5c52 <__fp_splitA>
    5c70:	08 c0       	rjmp	.+16     	; 0x5c82 <__fp_splitA+0x30>
    5c72:	16 16       	cp	r1, r22
    5c74:	17 06       	cpc	r1, r23
    5c76:	18 06       	cpc	r1, r24
    5c78:	99 1f       	adc	r25, r25
    5c7a:	f1 cf       	rjmp	.-30     	; 0x5c5e <__fp_splitA+0xc>
    5c7c:	86 95       	lsr	r24
    5c7e:	71 05       	cpc	r23, r1
    5c80:	61 05       	cpc	r22, r1
    5c82:	08 94       	sec
    5c84:	08 95       	ret

00005c86 <__fp_zero>:
    5c86:	e8 94       	clt

00005c88 <__fp_szero>:
    5c88:	bb 27       	eor	r27, r27
    5c8a:	66 27       	eor	r22, r22
    5c8c:	77 27       	eor	r23, r23
    5c8e:	cb 01       	movw	r24, r22
    5c90:	97 f9       	bld	r25, 7
    5c92:	08 95       	ret

00005c94 <__mulsf3>:
    5c94:	0b d0       	rcall	.+22     	; 0x5cac <__mulsf3x>
    5c96:	c4 cf       	rjmp	.-120    	; 0x5c20 <__fp_round>
    5c98:	b5 df       	rcall	.-150    	; 0x5c04 <__fp_pscA>
    5c9a:	28 f0       	brcs	.+10     	; 0x5ca6 <__mulsf3+0x12>
    5c9c:	ba df       	rcall	.-140    	; 0x5c12 <__fp_pscB>
    5c9e:	18 f0       	brcs	.+6      	; 0x5ca6 <__mulsf3+0x12>
    5ca0:	95 23       	and	r25, r21
    5ca2:	09 f0       	breq	.+2      	; 0x5ca6 <__mulsf3+0x12>
    5ca4:	a6 cf       	rjmp	.-180    	; 0x5bf2 <__fp_inf>
    5ca6:	ab cf       	rjmp	.-170    	; 0x5bfe <__fp_nan>
    5ca8:	11 24       	eor	r1, r1
    5caa:	ee cf       	rjmp	.-36     	; 0x5c88 <__fp_szero>

00005cac <__mulsf3x>:
    5cac:	ca df       	rcall	.-108    	; 0x5c42 <__fp_split3>
    5cae:	a0 f3       	brcs	.-24     	; 0x5c98 <__mulsf3+0x4>

00005cb0 <__mulsf3_pse>:
    5cb0:	95 9f       	mul	r25, r21
    5cb2:	d1 f3       	breq	.-12     	; 0x5ca8 <__mulsf3+0x14>
    5cb4:	95 0f       	add	r25, r21
    5cb6:	50 e0       	ldi	r21, 0x00	; 0
    5cb8:	55 1f       	adc	r21, r21
    5cba:	62 9f       	mul	r22, r18
    5cbc:	f0 01       	movw	r30, r0
    5cbe:	72 9f       	mul	r23, r18
    5cc0:	bb 27       	eor	r27, r27
    5cc2:	f0 0d       	add	r31, r0
    5cc4:	b1 1d       	adc	r27, r1
    5cc6:	63 9f       	mul	r22, r19
    5cc8:	aa 27       	eor	r26, r26
    5cca:	f0 0d       	add	r31, r0
    5ccc:	b1 1d       	adc	r27, r1
    5cce:	aa 1f       	adc	r26, r26
    5cd0:	64 9f       	mul	r22, r20
    5cd2:	66 27       	eor	r22, r22
    5cd4:	b0 0d       	add	r27, r0
    5cd6:	a1 1d       	adc	r26, r1
    5cd8:	66 1f       	adc	r22, r22
    5cda:	82 9f       	mul	r24, r18
    5cdc:	22 27       	eor	r18, r18
    5cde:	b0 0d       	add	r27, r0
    5ce0:	a1 1d       	adc	r26, r1
    5ce2:	62 1f       	adc	r22, r18
    5ce4:	73 9f       	mul	r23, r19
    5ce6:	b0 0d       	add	r27, r0
    5ce8:	a1 1d       	adc	r26, r1
    5cea:	62 1f       	adc	r22, r18
    5cec:	83 9f       	mul	r24, r19
    5cee:	a0 0d       	add	r26, r0
    5cf0:	61 1d       	adc	r22, r1
    5cf2:	22 1f       	adc	r18, r18
    5cf4:	74 9f       	mul	r23, r20
    5cf6:	33 27       	eor	r19, r19
    5cf8:	a0 0d       	add	r26, r0
    5cfa:	61 1d       	adc	r22, r1
    5cfc:	23 1f       	adc	r18, r19
    5cfe:	84 9f       	mul	r24, r20
    5d00:	60 0d       	add	r22, r0
    5d02:	21 1d       	adc	r18, r1
    5d04:	82 2f       	mov	r24, r18
    5d06:	76 2f       	mov	r23, r22
    5d08:	6a 2f       	mov	r22, r26
    5d0a:	11 24       	eor	r1, r1
    5d0c:	9f 57       	subi	r25, 0x7F	; 127
    5d0e:	50 40       	sbci	r21, 0x00	; 0
    5d10:	8a f0       	brmi	.+34     	; 0x5d34 <__mulsf3_pse+0x84>
    5d12:	e1 f0       	breq	.+56     	; 0x5d4c <__mulsf3_pse+0x9c>
    5d14:	88 23       	and	r24, r24
    5d16:	4a f0       	brmi	.+18     	; 0x5d2a <__mulsf3_pse+0x7a>
    5d18:	ee 0f       	add	r30, r30
    5d1a:	ff 1f       	adc	r31, r31
    5d1c:	bb 1f       	adc	r27, r27
    5d1e:	66 1f       	adc	r22, r22
    5d20:	77 1f       	adc	r23, r23
    5d22:	88 1f       	adc	r24, r24
    5d24:	91 50       	subi	r25, 0x01	; 1
    5d26:	50 40       	sbci	r21, 0x00	; 0
    5d28:	a9 f7       	brne	.-22     	; 0x5d14 <__mulsf3_pse+0x64>
    5d2a:	9e 3f       	cpi	r25, 0xFE	; 254
    5d2c:	51 05       	cpc	r21, r1
    5d2e:	70 f0       	brcs	.+28     	; 0x5d4c <__mulsf3_pse+0x9c>
    5d30:	60 cf       	rjmp	.-320    	; 0x5bf2 <__fp_inf>
    5d32:	aa cf       	rjmp	.-172    	; 0x5c88 <__fp_szero>
    5d34:	5f 3f       	cpi	r21, 0xFF	; 255
    5d36:	ec f3       	brlt	.-6      	; 0x5d32 <__mulsf3_pse+0x82>
    5d38:	98 3e       	cpi	r25, 0xE8	; 232
    5d3a:	dc f3       	brlt	.-10     	; 0x5d32 <__mulsf3_pse+0x82>
    5d3c:	86 95       	lsr	r24
    5d3e:	77 95       	ror	r23
    5d40:	67 95       	ror	r22
    5d42:	b7 95       	ror	r27
    5d44:	f7 95       	ror	r31
    5d46:	e7 95       	ror	r30
    5d48:	9f 5f       	subi	r25, 0xFF	; 255
    5d4a:	c1 f7       	brne	.-16     	; 0x5d3c <__mulsf3_pse+0x8c>
    5d4c:	fe 2b       	or	r31, r30
    5d4e:	88 0f       	add	r24, r24
    5d50:	91 1d       	adc	r25, r1
    5d52:	96 95       	lsr	r25
    5d54:	87 95       	ror	r24
    5d56:	97 f9       	bld	r25, 7
    5d58:	08 95       	ret

00005d5a <initVariant>:
// May be redefined by variant files.
void initVariant() __attribute__((weak));
void initVariant() { }

void setupUSB() __attribute__((weak));
void setupUSB() { }
    5d5a:	08 95       	ret

00005d5c <main>:

int main(void)
{
	init();
    5d5c:	b3 d0       	rcall	.+358    	; 0x5ec4 <init>

	initVariant();
    5d5e:	fd df       	rcall	.-6      	; 0x5d5a <initVariant>

#if defined(USBCON)
	USBDevice.attach();
#endif
	
	setup();
    5d60:	db db       	rcall	.-2122   	; 0x5518 <setup>
    
	for (;;) {
		loop();
		if (serialEventRun) serialEventRun();
    5d62:	c0 e0       	ldi	r28, 0x00	; 0
    5d64:	d0 e0       	ldi	r29, 0x00	; 0
#endif
	
	setup();
    
	for (;;) {
		loop();
    5d66:	8c dc       	rcall	.-1768   	; 0x5680 <loop>
		if (serialEventRun) serialEventRun();
    5d68:	20 97       	sbiw	r28, 0x00	; 0
    5d6a:	e9 f3       	breq	.-6      	; 0x5d66 <main+0xa>
    5d6c:	0e 94 00 00 	call	0	; 0x0 <__vectors>
    5d70:	fa cf       	rjmp	.-12     	; 0x5d66 <main+0xa>

00005d72 <__vector_23>:
	

#endif

	// busy wait
	__asm__ __volatile__ (
    5d72:	1f 92       	push	r1
    5d74:	0f 92       	push	r0
    5d76:	0f b6       	in	r0, 0x3f	; 63
    5d78:	0f 92       	push	r0
    5d7a:	11 24       	eor	r1, r1
    5d7c:	2f 93       	push	r18
    5d7e:	3f 93       	push	r19
    5d80:	8f 93       	push	r24
    5d82:	9f 93       	push	r25
    5d84:	af 93       	push	r26
    5d86:	bf 93       	push	r27
    5d88:	80 91 ca 0a 	lds	r24, 0x0ACA	; 0x800aca <timer0_millis>
    5d8c:	90 91 cb 0a 	lds	r25, 0x0ACB	; 0x800acb <timer0_millis+0x1>
    5d90:	a0 91 cc 0a 	lds	r26, 0x0ACC	; 0x800acc <timer0_millis+0x2>
    5d94:	b0 91 cd 0a 	lds	r27, 0x0ACD	; 0x800acd <timer0_millis+0x3>
    5d98:	30 91 c9 0a 	lds	r19, 0x0AC9	; 0x800ac9 <timer0_fract>
    5d9c:	23 e0       	ldi	r18, 0x03	; 3
    5d9e:	23 0f       	add	r18, r19
    5da0:	2d 37       	cpi	r18, 0x7D	; 125
    5da2:	20 f4       	brcc	.+8      	; 0x5dac <__vector_23+0x3a>
    5da4:	01 96       	adiw	r24, 0x01	; 1
    5da6:	a1 1d       	adc	r26, r1
    5da8:	b1 1d       	adc	r27, r1
    5daa:	05 c0       	rjmp	.+10     	; 0x5db6 <__vector_23+0x44>
    5dac:	26 e8       	ldi	r18, 0x86	; 134
    5dae:	23 0f       	add	r18, r19
    5db0:	02 96       	adiw	r24, 0x02	; 2
    5db2:	a1 1d       	adc	r26, r1
    5db4:	b1 1d       	adc	r27, r1
    5db6:	20 93 c9 0a 	sts	0x0AC9, r18	; 0x800ac9 <timer0_fract>
    5dba:	80 93 ca 0a 	sts	0x0ACA, r24	; 0x800aca <timer0_millis>
    5dbe:	90 93 cb 0a 	sts	0x0ACB, r25	; 0x800acb <timer0_millis+0x1>
    5dc2:	a0 93 cc 0a 	sts	0x0ACC, r26	; 0x800acc <timer0_millis+0x2>
    5dc6:	b0 93 cd 0a 	sts	0x0ACD, r27	; 0x800acd <timer0_millis+0x3>
    5dca:	80 91 ce 0a 	lds	r24, 0x0ACE	; 0x800ace <timer0_overflow_count>
    5dce:	90 91 cf 0a 	lds	r25, 0x0ACF	; 0x800acf <timer0_overflow_count+0x1>
    5dd2:	a0 91 d0 0a 	lds	r26, 0x0AD0	; 0x800ad0 <timer0_overflow_count+0x2>
    5dd6:	b0 91 d1 0a 	lds	r27, 0x0AD1	; 0x800ad1 <timer0_overflow_count+0x3>
    5dda:	01 96       	adiw	r24, 0x01	; 1
    5ddc:	a1 1d       	adc	r26, r1
    5dde:	b1 1d       	adc	r27, r1
    5de0:	80 93 ce 0a 	sts	0x0ACE, r24	; 0x800ace <timer0_overflow_count>
    5de4:	90 93 cf 0a 	sts	0x0ACF, r25	; 0x800acf <timer0_overflow_count+0x1>
    5de8:	a0 93 d0 0a 	sts	0x0AD0, r26	; 0x800ad0 <timer0_overflow_count+0x2>
    5dec:	b0 93 d1 0a 	sts	0x0AD1, r27	; 0x800ad1 <timer0_overflow_count+0x3>
    5df0:	bf 91       	pop	r27
    5df2:	af 91       	pop	r26
    5df4:	9f 91       	pop	r25
    5df6:	8f 91       	pop	r24
    5df8:	3f 91       	pop	r19
    5dfa:	2f 91       	pop	r18
    5dfc:	0f 90       	pop	r0
    5dfe:	0f be       	out	0x3f, r0	; 63
    5e00:	0f 90       	pop	r0
    5e02:	1f 90       	pop	r1
    5e04:	18 95       	reti

00005e06 <micros>:
    5e06:	3f b7       	in	r19, 0x3f	; 63
    5e08:	f8 94       	cli
    5e0a:	80 91 ce 0a 	lds	r24, 0x0ACE	; 0x800ace <timer0_overflow_count>
    5e0e:	90 91 cf 0a 	lds	r25, 0x0ACF	; 0x800acf <timer0_overflow_count+0x1>
    5e12:	a0 91 d0 0a 	lds	r26, 0x0AD0	; 0x800ad0 <timer0_overflow_count+0x2>
    5e16:	b0 91 d1 0a 	lds	r27, 0x0AD1	; 0x800ad1 <timer0_overflow_count+0x3>
    5e1a:	26 b5       	in	r18, 0x26	; 38
    5e1c:	a8 9b       	sbis	0x15, 0	; 21
    5e1e:	05 c0       	rjmp	.+10     	; 0x5e2a <micros+0x24>
    5e20:	2f 3f       	cpi	r18, 0xFF	; 255
    5e22:	19 f0       	breq	.+6      	; 0x5e2a <micros+0x24>
    5e24:	01 96       	adiw	r24, 0x01	; 1
    5e26:	a1 1d       	adc	r26, r1
    5e28:	b1 1d       	adc	r27, r1
    5e2a:	3f bf       	out	0x3f, r19	; 63
    5e2c:	ba 2f       	mov	r27, r26
    5e2e:	a9 2f       	mov	r26, r25
    5e30:	98 2f       	mov	r25, r24
    5e32:	88 27       	eor	r24, r24
    5e34:	82 0f       	add	r24, r18
    5e36:	91 1d       	adc	r25, r1
    5e38:	a1 1d       	adc	r26, r1
    5e3a:	b1 1d       	adc	r27, r1
    5e3c:	bc 01       	movw	r22, r24
    5e3e:	cd 01       	movw	r24, r26
    5e40:	42 e0       	ldi	r20, 0x02	; 2
    5e42:	66 0f       	add	r22, r22
    5e44:	77 1f       	adc	r23, r23
    5e46:	88 1f       	adc	r24, r24
    5e48:	99 1f       	adc	r25, r25
    5e4a:	4a 95       	dec	r20
    5e4c:	d1 f7       	brne	.-12     	; 0x5e42 <micros+0x3c>
    5e4e:	08 95       	ret

00005e50 <delay>:
    5e50:	8f 92       	push	r8
    5e52:	9f 92       	push	r9
    5e54:	af 92       	push	r10
    5e56:	bf 92       	push	r11
    5e58:	cf 92       	push	r12
    5e5a:	df 92       	push	r13
    5e5c:	ef 92       	push	r14
    5e5e:	ff 92       	push	r15
    5e60:	6b 01       	movw	r12, r22
    5e62:	7c 01       	movw	r14, r24
    5e64:	d0 df       	rcall	.-96     	; 0x5e06 <micros>
    5e66:	4b 01       	movw	r8, r22
    5e68:	5c 01       	movw	r10, r24
    5e6a:	c1 14       	cp	r12, r1
    5e6c:	d1 04       	cpc	r13, r1
    5e6e:	e1 04       	cpc	r14, r1
    5e70:	f1 04       	cpc	r15, r1
    5e72:	f9 f0       	breq	.+62     	; 0x5eb2 <delay+0x62>
    5e74:	0e 94 4a 49 	call	0x9294	; 0x9294 <yield>
    5e78:	c6 df       	rcall	.-116    	; 0x5e06 <micros>
    5e7a:	dc 01       	movw	r26, r24
    5e7c:	cb 01       	movw	r24, r22
    5e7e:	88 19       	sub	r24, r8
    5e80:	99 09       	sbc	r25, r9
    5e82:	aa 09       	sbc	r26, r10
    5e84:	bb 09       	sbc	r27, r11
    5e86:	88 3e       	cpi	r24, 0xE8	; 232
    5e88:	93 40       	sbci	r25, 0x03	; 3
    5e8a:	a1 05       	cpc	r26, r1
    5e8c:	b1 05       	cpc	r27, r1
    5e8e:	68 f3       	brcs	.-38     	; 0x5e6a <delay+0x1a>
    5e90:	21 e0       	ldi	r18, 0x01	; 1
    5e92:	c2 1a       	sub	r12, r18
    5e94:	d1 08       	sbc	r13, r1
    5e96:	e1 08       	sbc	r14, r1
    5e98:	f1 08       	sbc	r15, r1
    5e9a:	88 ee       	ldi	r24, 0xE8	; 232
    5e9c:	88 0e       	add	r8, r24
    5e9e:	83 e0       	ldi	r24, 0x03	; 3
    5ea0:	98 1e       	adc	r9, r24
    5ea2:	a1 1c       	adc	r10, r1
    5ea4:	b1 1c       	adc	r11, r1
    5ea6:	c1 14       	cp	r12, r1
    5ea8:	d1 04       	cpc	r13, r1
    5eaa:	e1 04       	cpc	r14, r1
    5eac:	f1 04       	cpc	r15, r1
    5eae:	21 f7       	brne	.-56     	; 0x5e78 <delay+0x28>
    5eb0:	dc cf       	rjmp	.-72     	; 0x5e6a <delay+0x1a>
    5eb2:	ff 90       	pop	r15
    5eb4:	ef 90       	pop	r14
    5eb6:	df 90       	pop	r13
    5eb8:	cf 90       	pop	r12
    5eba:	bf 90       	pop	r11
    5ebc:	af 90       	pop	r10
    5ebe:	9f 90       	pop	r9
    5ec0:	8f 90       	pop	r8
    5ec2:	08 95       	ret

00005ec4 <init>:

void init()
{
	// this needs to be called before setup() or some functions won't
	// work there
	sei();
    5ec4:	78 94       	sei
	
	// on the ATmega168, timer 0 is also used for fast hardware pwm
	// (using phase-correct PWM would mean that timer 0 overflowed half as often
	// resulting in different millis() behavior on the ATmega8 and ATmega168)
#if defined(TCCR0A) && defined(WGM01)
	sbi(TCCR0A, WGM01);
    5ec6:	84 b5       	in	r24, 0x24	; 36
    5ec8:	82 60       	ori	r24, 0x02	; 2
    5eca:	84 bd       	out	0x24, r24	; 36
	sbi(TCCR0A, WGM00);
    5ecc:	84 b5       	in	r24, 0x24	; 36
    5ece:	81 60       	ori	r24, 0x01	; 1
    5ed0:	84 bd       	out	0x24, r24	; 36
	// this combination is for the standard atmega8
	sbi(TCCR0, CS01);
	sbi(TCCR0, CS00);
#elif defined(TCCR0B) && defined(CS01) && defined(CS00)
	// this combination is for the standard 168/328/1280/2560
	sbi(TCCR0B, CS01);
    5ed2:	85 b5       	in	r24, 0x25	; 37
    5ed4:	82 60       	ori	r24, 0x02	; 2
    5ed6:	85 bd       	out	0x25, r24	; 37
	sbi(TCCR0B, CS00);
    5ed8:	85 b5       	in	r24, 0x25	; 37
    5eda:	81 60       	ori	r24, 0x01	; 1
    5edc:	85 bd       	out	0x25, r24	; 37

	// enable timer 0 overflow interrupt
#if defined(TIMSK) && defined(TOIE0)
	sbi(TIMSK, TOIE0);
#elif defined(TIMSK0) && defined(TOIE0)
	sbi(TIMSK0, TOIE0);
    5ede:	ee e6       	ldi	r30, 0x6E	; 110
    5ee0:	f0 e0       	ldi	r31, 0x00	; 0
    5ee2:	80 81       	ld	r24, Z
    5ee4:	81 60       	ori	r24, 0x01	; 1
    5ee6:	80 83       	st	Z, r24
	// this is better for motors as it ensures an even waveform
	// note, however, that fast pwm mode can achieve a frequency of up
	// 8 MHz (with a 16 MHz clock) at 50% duty cycle

#if defined(TCCR1B) && defined(CS11) && defined(CS10)
	TCCR1B = 0;
    5ee8:	e1 e8       	ldi	r30, 0x81	; 129
    5eea:	f0 e0       	ldi	r31, 0x00	; 0
    5eec:	10 82       	st	Z, r1

	// set timer 1 prescale factor to 64
	sbi(TCCR1B, CS11);
    5eee:	80 81       	ld	r24, Z
    5ef0:	82 60       	ori	r24, 0x02	; 2
    5ef2:	80 83       	st	Z, r24
#if F_CPU >= 8000000L
	sbi(TCCR1B, CS10);
    5ef4:	80 81       	ld	r24, Z
    5ef6:	81 60       	ori	r24, 0x01	; 1
    5ef8:	80 83       	st	Z, r24
	sbi(TCCR1, CS10);
#endif
#endif
	// put timer 1 in 8-bit phase correct pwm mode
#if defined(TCCR1A) && defined(WGM10)
	sbi(TCCR1A, WGM10);
    5efa:	e0 e8       	ldi	r30, 0x80	; 128
    5efc:	f0 e0       	ldi	r31, 0x00	; 0
    5efe:	80 81       	ld	r24, Z
    5f00:	81 60       	ori	r24, 0x01	; 1
    5f02:	80 83       	st	Z, r24

	// set timer 2 prescale factor to 64
#if defined(TCCR2) && defined(CS22)
	sbi(TCCR2, CS22);
#elif defined(TCCR2B) && defined(CS22)
	sbi(TCCR2B, CS22);
    5f04:	e1 eb       	ldi	r30, 0xB1	; 177
    5f06:	f0 e0       	ldi	r31, 0x00	; 0
    5f08:	80 81       	ld	r24, Z
    5f0a:	84 60       	ori	r24, 0x04	; 4
    5f0c:	80 83       	st	Z, r24

	// configure timer 2 for phase correct pwm (8-bit)
#if defined(TCCR2) && defined(WGM20)
	sbi(TCCR2, WGM20);
#elif defined(TCCR2A) && defined(WGM20)
	sbi(TCCR2A, WGM20);
    5f0e:	e0 eb       	ldi	r30, 0xB0	; 176
    5f10:	f0 e0       	ldi	r31, 0x00	; 0
    5f12:	80 81       	ld	r24, Z
    5f14:	81 60       	ori	r24, 0x01	; 1
    5f16:	80 83       	st	Z, r24
//#else
	// Timer 2 not finished (may not be present on this CPU)
#endif

#if defined(TCCR3B) && defined(CS31) && defined(WGM30)
	sbi(TCCR3B, CS31);		// set timer 3 prescale factor to 64
    5f18:	e1 e9       	ldi	r30, 0x91	; 145
    5f1a:	f0 e0       	ldi	r31, 0x00	; 0
    5f1c:	80 81       	ld	r24, Z
    5f1e:	82 60       	ori	r24, 0x02	; 2
    5f20:	80 83       	st	Z, r24
	sbi(TCCR3B, CS30);
    5f22:	80 81       	ld	r24, Z
    5f24:	81 60       	ori	r24, 0x01	; 1
    5f26:	80 83       	st	Z, r24
	sbi(TCCR3A, WGM30);		// put timer 3 in 8-bit phase correct pwm mode
    5f28:	e0 e9       	ldi	r30, 0x90	; 144
    5f2a:	f0 e0       	ldi	r31, 0x00	; 0
    5f2c:	80 81       	ld	r24, Z
    5f2e:	81 60       	ori	r24, 0x01	; 1
    5f30:	80 83       	st	Z, r24
	sbi(TCCR4D, WGM40);		// put timer 4 in phase- and frequency-correct PWM mode	
	sbi(TCCR4A, PWM4A);		// enable PWM mode for comparator OCR4A
	sbi(TCCR4C, PWM4D);		// enable PWM mode for comparator OCR4D
#else /* beginning of timer4 block for ATMEGA1280 and ATMEGA2560 */
#if defined(TCCR4B) && defined(CS41) && defined(WGM40)
	sbi(TCCR4B, CS41);		// set timer 4 prescale factor to 64
    5f32:	e1 ea       	ldi	r30, 0xA1	; 161
    5f34:	f0 e0       	ldi	r31, 0x00	; 0
    5f36:	80 81       	ld	r24, Z
    5f38:	82 60       	ori	r24, 0x02	; 2
    5f3a:	80 83       	st	Z, r24
	sbi(TCCR4B, CS40);
    5f3c:	80 81       	ld	r24, Z
    5f3e:	81 60       	ori	r24, 0x01	; 1
    5f40:	80 83       	st	Z, r24
	sbi(TCCR4A, WGM40);		// put timer 4 in 8-bit phase correct pwm mode
    5f42:	e0 ea       	ldi	r30, 0xA0	; 160
    5f44:	f0 e0       	ldi	r31, 0x00	; 0
    5f46:	80 81       	ld	r24, Z
    5f48:	81 60       	ori	r24, 0x01	; 1
    5f4a:	80 83       	st	Z, r24
#endif
#endif /* end timer4 block for ATMEGA1280/2560 and similar */	

#if defined(TCCR5B) && defined(CS51) && defined(WGM50)
	sbi(TCCR5B, CS51);		// set timer 5 prescale factor to 64
    5f4c:	e1 e2       	ldi	r30, 0x21	; 33
    5f4e:	f1 e0       	ldi	r31, 0x01	; 1
    5f50:	80 81       	ld	r24, Z
    5f52:	82 60       	ori	r24, 0x02	; 2
    5f54:	80 83       	st	Z, r24
	sbi(TCCR5B, CS50);
    5f56:	80 81       	ld	r24, Z
    5f58:	81 60       	ori	r24, 0x01	; 1
    5f5a:	80 83       	st	Z, r24
	sbi(TCCR5A, WGM50);		// put timer 5 in 8-bit phase correct pwm mode
    5f5c:	e0 e2       	ldi	r30, 0x20	; 32
    5f5e:	f1 e0       	ldi	r31, 0x01	; 1
    5f60:	80 81       	ld	r24, Z
    5f62:	81 60       	ori	r24, 0x01	; 1
    5f64:	80 83       	st	Z, r24
#endif

#if defined(ADCSRA)
	// set a2d prescaler so we are inside the desired 50-200 KHz range.
	#if F_CPU >= 16000000 // 16 MHz / 128 = 125 KHz
		sbi(ADCSRA, ADPS2);
    5f66:	ea e7       	ldi	r30, 0x7A	; 122
    5f68:	f0 e0       	ldi	r31, 0x00	; 0
    5f6a:	80 81       	ld	r24, Z
    5f6c:	84 60       	ori	r24, 0x04	; 4
    5f6e:	80 83       	st	Z, r24
		sbi(ADCSRA, ADPS1);
    5f70:	80 81       	ld	r24, Z
    5f72:	82 60       	ori	r24, 0x02	; 2
    5f74:	80 83       	st	Z, r24
		sbi(ADCSRA, ADPS0);
    5f76:	80 81       	ld	r24, Z
    5f78:	81 60       	ori	r24, 0x01	; 1
    5f7a:	80 83       	st	Z, r24
		cbi(ADCSRA, ADPS2);
		cbi(ADCSRA, ADPS1);
		sbi(ADCSRA, ADPS0);
	#endif
	// enable a2d conversions
	sbi(ADCSRA, ADEN);
    5f7c:	80 81       	ld	r24, Z
    5f7e:	80 68       	ori	r24, 0x80	; 128
    5f80:	80 83       	st	Z, r24
	// here so they can be used as normal digital i/o; they will be
	// reconnected in Serial.begin()
#if defined(UCSRB)
	UCSRB = 0;
#elif defined(UCSR0B)
	UCSR0B = 0;
    5f82:	10 92 c1 00 	sts	0x00C1, r1	; 0x8000c1 <__TEXT_REGION_LENGTH__+0x7000c1>
    5f86:	08 95       	ret

00005f88 <_ZN6StringD1Ev>:
	return temp - buffer;
}

int String::lastIndexOf(const String &s2) const
{
	return lastIndexOf(s2, len - s2.len);
    5f88:	fc 01       	movw	r30, r24
    5f8a:	80 81       	ld	r24, Z
    5f8c:	91 81       	ldd	r25, Z+1	; 0x01
    5f8e:	0c 94 0e 4c 	jmp	0x981c	; 0x981c <free>

00005f92 <_ZN6String10invalidateEv>:
    5f92:	cf 93       	push	r28
    5f94:	df 93       	push	r29
    5f96:	ec 01       	movw	r28, r24
    5f98:	88 81       	ld	r24, Y
    5f9a:	99 81       	ldd	r25, Y+1	; 0x01
    5f9c:	00 97       	sbiw	r24, 0x00	; 0
    5f9e:	11 f0       	breq	.+4      	; 0x5fa4 <_ZN6String10invalidateEv+0x12>
    5fa0:	0e 94 0e 4c 	call	0x981c	; 0x981c <free>
    5fa4:	19 82       	std	Y+1, r1	; 0x01
    5fa6:	18 82       	st	Y, r1
    5fa8:	1d 82       	std	Y+5, r1	; 0x05
    5faa:	1c 82       	std	Y+4, r1	; 0x04
    5fac:	1b 82       	std	Y+3, r1	; 0x03
    5fae:	1a 82       	std	Y+2, r1	; 0x02
    5fb0:	df 91       	pop	r29
    5fb2:	cf 91       	pop	r28
    5fb4:	08 95       	ret

00005fb6 <_ZN6String12changeBufferEj>:
    5fb6:	0f 93       	push	r16
    5fb8:	1f 93       	push	r17
    5fba:	cf 93       	push	r28
    5fbc:	df 93       	push	r29
    5fbe:	ec 01       	movw	r28, r24
    5fc0:	8b 01       	movw	r16, r22
    5fc2:	6f 5f       	subi	r22, 0xFF	; 255
    5fc4:	7f 4f       	sbci	r23, 0xFF	; 255
    5fc6:	88 81       	ld	r24, Y
    5fc8:	99 81       	ldd	r25, Y+1	; 0x01
    5fca:	0e 94 a6 4c 	call	0x994c	; 0x994c <realloc>
    5fce:	00 97       	sbiw	r24, 0x00	; 0
    5fd0:	31 f0       	breq	.+12     	; 0x5fde <_ZN6String12changeBufferEj+0x28>
    5fd2:	99 83       	std	Y+1, r25	; 0x01
    5fd4:	88 83       	st	Y, r24
    5fd6:	1b 83       	std	Y+3, r17	; 0x03
    5fd8:	0a 83       	std	Y+2, r16	; 0x02
    5fda:	81 e0       	ldi	r24, 0x01	; 1
    5fdc:	01 c0       	rjmp	.+2      	; 0x5fe0 <_ZN6String12changeBufferEj+0x2a>
    5fde:	80 e0       	ldi	r24, 0x00	; 0
    5fe0:	df 91       	pop	r29
    5fe2:	cf 91       	pop	r28
    5fe4:	1f 91       	pop	r17
    5fe6:	0f 91       	pop	r16
    5fe8:	08 95       	ret

00005fea <_ZN6String7reserveEj>:
    5fea:	cf 93       	push	r28
    5fec:	df 93       	push	r29
    5fee:	ec 01       	movw	r28, r24
    5ff0:	88 81       	ld	r24, Y
    5ff2:	99 81       	ldd	r25, Y+1	; 0x01
    5ff4:	89 2b       	or	r24, r25
    5ff6:	29 f0       	breq	.+10     	; 0x6002 <_ZN6String7reserveEj+0x18>
    5ff8:	8a 81       	ldd	r24, Y+2	; 0x02
    5ffa:	9b 81       	ldd	r25, Y+3	; 0x03
    5ffc:	86 17       	cp	r24, r22
    5ffe:	97 07       	cpc	r25, r23
    6000:	58 f4       	brcc	.+22     	; 0x6018 <_ZN6String7reserveEj+0x2e>
    6002:	ce 01       	movw	r24, r28
    6004:	d8 df       	rcall	.-80     	; 0x5fb6 <_ZN6String12changeBufferEj>
    6006:	88 23       	and	r24, r24
    6008:	41 f0       	breq	.+16     	; 0x601a <_ZN6String7reserveEj+0x30>
    600a:	8c 81       	ldd	r24, Y+4	; 0x04
    600c:	9d 81       	ldd	r25, Y+5	; 0x05
    600e:	89 2b       	or	r24, r25
    6010:	19 f4       	brne	.+6      	; 0x6018 <_ZN6String7reserveEj+0x2e>
    6012:	e8 81       	ld	r30, Y
    6014:	f9 81       	ldd	r31, Y+1	; 0x01
    6016:	10 82       	st	Z, r1
    6018:	81 e0       	ldi	r24, 0x01	; 1
    601a:	df 91       	pop	r29
    601c:	cf 91       	pop	r28
    601e:	08 95       	ret

00006020 <_ZN6String4copyEPKcj>:
    6020:	ef 92       	push	r14
    6022:	ff 92       	push	r15
    6024:	0f 93       	push	r16
    6026:	1f 93       	push	r17
    6028:	cf 93       	push	r28
    602a:	df 93       	push	r29
    602c:	ec 01       	movw	r28, r24
    602e:	7b 01       	movw	r14, r22
    6030:	8a 01       	movw	r16, r20
    6032:	ba 01       	movw	r22, r20
    6034:	da df       	rcall	.-76     	; 0x5fea <_ZN6String7reserveEj>
    6036:	81 11       	cpse	r24, r1
    6038:	03 c0       	rjmp	.+6      	; 0x6040 <_ZN6String4copyEPKcj+0x20>
    603a:	ce 01       	movw	r24, r28
    603c:	aa df       	rcall	.-172    	; 0x5f92 <_ZN6String10invalidateEv>
    603e:	07 c0       	rjmp	.+14     	; 0x604e <_ZN6String4copyEPKcj+0x2e>
    6040:	1d 83       	std	Y+5, r17	; 0x05
    6042:	0c 83       	std	Y+4, r16	; 0x04
    6044:	b7 01       	movw	r22, r14
    6046:	88 81       	ld	r24, Y
    6048:	99 81       	ldd	r25, Y+1	; 0x01
    604a:	0e 94 9e 4d 	call	0x9b3c	; 0x9b3c <strcpy>
    604e:	ce 01       	movw	r24, r28
    6050:	df 91       	pop	r29
    6052:	cf 91       	pop	r28
    6054:	1f 91       	pop	r17
    6056:	0f 91       	pop	r16
    6058:	ff 90       	pop	r15
    605a:	ef 90       	pop	r14
    605c:	08 95       	ret

0000605e <_ZN6StringC1EPKc>:
    605e:	fc 01       	movw	r30, r24
    6060:	11 82       	std	Z+1, r1	; 0x01
    6062:	10 82       	st	Z, r1
    6064:	13 82       	std	Z+3, r1	; 0x03
    6066:	12 82       	std	Z+2, r1	; 0x02
    6068:	15 82       	std	Z+5, r1	; 0x05
    606a:	14 82       	std	Z+4, r1	; 0x04
    606c:	61 15       	cp	r22, r1
    606e:	71 05       	cpc	r23, r1
    6070:	49 f0       	breq	.+18     	; 0x6084 <_ZN6StringC1EPKc+0x26>
    6072:	fb 01       	movw	r30, r22
    6074:	01 90       	ld	r0, Z+
    6076:	00 20       	and	r0, r0
    6078:	e9 f7       	brne	.-6      	; 0x6074 <_ZN6StringC1EPKc+0x16>
    607a:	31 97       	sbiw	r30, 0x01	; 1
    607c:	af 01       	movw	r20, r30
    607e:	46 1b       	sub	r20, r22
    6080:	57 0b       	sbc	r21, r23
    6082:	ce cf       	rjmp	.-100    	; 0x6020 <_ZN6String4copyEPKcj>
    6084:	08 95       	ret

00006086 <_ZN6StringaSERKS_>:
    6086:	cf 93       	push	r28
    6088:	df 93       	push	r29
    608a:	ec 01       	movw	r28, r24
    608c:	fb 01       	movw	r30, r22
    608e:	86 17       	cp	r24, r22
    6090:	97 07       	cpc	r25, r23
    6092:	51 f0       	breq	.+20     	; 0x60a8 <_ZN6StringaSERKS_+0x22>
    6094:	60 81       	ld	r22, Z
    6096:	71 81       	ldd	r23, Z+1	; 0x01
    6098:	61 15       	cp	r22, r1
    609a:	71 05       	cpc	r23, r1
    609c:	21 f0       	breq	.+8      	; 0x60a6 <_ZN6StringaSERKS_+0x20>
    609e:	44 81       	ldd	r20, Z+4	; 0x04
    60a0:	55 81       	ldd	r21, Z+5	; 0x05
    60a2:	be df       	rcall	.-132    	; 0x6020 <_ZN6String4copyEPKcj>
    60a4:	01 c0       	rjmp	.+2      	; 0x60a8 <_ZN6StringaSERKS_+0x22>
    60a6:	75 df       	rcall	.-278    	; 0x5f92 <_ZN6String10invalidateEv>
    60a8:	ce 01       	movw	r24, r28
    60aa:	df 91       	pop	r29
    60ac:	cf 91       	pop	r28
    60ae:	08 95       	ret

000060b0 <_ZN6StringC1ERKS_>:
    60b0:	fc 01       	movw	r30, r24
    60b2:	11 82       	std	Z+1, r1	; 0x01
    60b4:	10 82       	st	Z, r1
    60b6:	13 82       	std	Z+3, r1	; 0x03
    60b8:	12 82       	std	Z+2, r1	; 0x02
    60ba:	15 82       	std	Z+5, r1	; 0x05
    60bc:	14 82       	std	Z+4, r1	; 0x04
    60be:	e3 cf       	rjmp	.-58     	; 0x6086 <_ZN6StringaSERKS_>

000060c0 <_ZN6StringaSEPKc>:
    60c0:	cf 93       	push	r28
    60c2:	df 93       	push	r29
    60c4:	ec 01       	movw	r28, r24
    60c6:	61 15       	cp	r22, r1
    60c8:	71 05       	cpc	r23, r1
    60ca:	51 f0       	breq	.+20     	; 0x60e0 <_ZN6StringaSEPKc+0x20>
    60cc:	fb 01       	movw	r30, r22
    60ce:	01 90       	ld	r0, Z+
    60d0:	00 20       	and	r0, r0
    60d2:	e9 f7       	brne	.-6      	; 0x60ce <_ZN6StringaSEPKc+0xe>
    60d4:	31 97       	sbiw	r30, 0x01	; 1
    60d6:	af 01       	movw	r20, r30
    60d8:	46 1b       	sub	r20, r22
    60da:	57 0b       	sbc	r21, r23
    60dc:	a1 df       	rcall	.-190    	; 0x6020 <_ZN6String4copyEPKcj>
    60de:	01 c0       	rjmp	.+2      	; 0x60e2 <_ZN6StringaSEPKc+0x22>
    60e0:	58 df       	rcall	.-336    	; 0x5f92 <_ZN6String10invalidateEv>
    60e2:	ce 01       	movw	r24, r28
    60e4:	df 91       	pop	r29
    60e6:	cf 91       	pop	r28
    60e8:	08 95       	ret

000060ea <_ZN6String6concatEPKcj>:
    60ea:	ef 92       	push	r14
    60ec:	ff 92       	push	r15
    60ee:	0f 93       	push	r16
    60f0:	1f 93       	push	r17
    60f2:	cf 93       	push	r28
    60f4:	df 93       	push	r29
    60f6:	fc 01       	movw	r30, r24
    60f8:	24 81       	ldd	r18, Z+4	; 0x04
    60fa:	35 81       	ldd	r19, Z+5	; 0x05
    60fc:	61 15       	cp	r22, r1
    60fe:	71 05       	cpc	r23, r1
    6100:	11 f4       	brne	.+4      	; 0x6106 <_ZN6String6concatEPKcj+0x1c>
    6102:	80 e0       	ldi	r24, 0x00	; 0
    6104:	18 c0       	rjmp	.+48     	; 0x6136 <_ZN6String6concatEPKcj+0x4c>
    6106:	41 15       	cp	r20, r1
    6108:	51 05       	cpc	r21, r1
    610a:	a1 f0       	breq	.+40     	; 0x6134 <_ZN6String6concatEPKcj+0x4a>
    610c:	7b 01       	movw	r14, r22
    610e:	ec 01       	movw	r28, r24
    6110:	8a 01       	movw	r16, r20
    6112:	02 0f       	add	r16, r18
    6114:	13 1f       	adc	r17, r19
    6116:	b8 01       	movw	r22, r16
    6118:	68 df       	rcall	.-304    	; 0x5fea <_ZN6String7reserveEj>
    611a:	88 23       	and	r24, r24
    611c:	91 f3       	breq	.-28     	; 0x6102 <_ZN6String6concatEPKcj+0x18>
    611e:	28 81       	ld	r18, Y
    6120:	39 81       	ldd	r19, Y+1	; 0x01
    6122:	8c 81       	ldd	r24, Y+4	; 0x04
    6124:	9d 81       	ldd	r25, Y+5	; 0x05
    6126:	b7 01       	movw	r22, r14
    6128:	82 0f       	add	r24, r18
    612a:	93 1f       	adc	r25, r19
    612c:	0e 94 9e 4d 	call	0x9b3c	; 0x9b3c <strcpy>
    6130:	1d 83       	std	Y+5, r17	; 0x05
    6132:	0c 83       	std	Y+4, r16	; 0x04
    6134:	81 e0       	ldi	r24, 0x01	; 1
    6136:	df 91       	pop	r29
    6138:	cf 91       	pop	r28
    613a:	1f 91       	pop	r17
    613c:	0f 91       	pop	r16
    613e:	ff 90       	pop	r15
    6140:	ef 90       	pop	r14
    6142:	08 95       	ret

00006144 <_ZN6String6concatEh>:
    6144:	ef 92       	push	r14
    6146:	ff 92       	push	r15
    6148:	0f 93       	push	r16
    614a:	1f 93       	push	r17
    614c:	cf 93       	push	r28
    614e:	df 93       	push	r29
    6150:	00 d0       	rcall	.+0      	; 0x6152 <_ZN6String6concatEh+0xe>
    6152:	1f 92       	push	r1
    6154:	cd b7       	in	r28, 0x3d	; 61
    6156:	de b7       	in	r29, 0x3e	; 62
    6158:	7c 01       	movw	r14, r24
    615a:	86 2f       	mov	r24, r22
    615c:	4a e0       	ldi	r20, 0x0A	; 10
    615e:	8e 01       	movw	r16, r28
    6160:	0f 5f       	subi	r16, 0xFF	; 255
    6162:	1f 4f       	sbci	r17, 0xFF	; 255
    6164:	b8 01       	movw	r22, r16
    6166:	90 e0       	ldi	r25, 0x00	; 0
    6168:	0e 94 b4 4d 	call	0x9b68	; 0x9b68 <__itoa_ncheck>
    616c:	f8 01       	movw	r30, r16
    616e:	01 90       	ld	r0, Z+
    6170:	00 20       	and	r0, r0
    6172:	e9 f7       	brne	.-6      	; 0x616e <_ZN6String6concatEh+0x2a>
    6174:	31 97       	sbiw	r30, 0x01	; 1
    6176:	af 01       	movw	r20, r30
    6178:	40 1b       	sub	r20, r16
    617a:	51 0b       	sbc	r21, r17
    617c:	b8 01       	movw	r22, r16
    617e:	c7 01       	movw	r24, r14
    6180:	b4 df       	rcall	.-152    	; 0x60ea <_ZN6String6concatEPKcj>
    6182:	0f 90       	pop	r0
    6184:	0f 90       	pop	r0
    6186:	0f 90       	pop	r0
    6188:	0f 90       	pop	r0
    618a:	df 91       	pop	r29
    618c:	cf 91       	pop	r28
    618e:	1f 91       	pop	r17
    6190:	0f 91       	pop	r16
    6192:	ff 90       	pop	r15
    6194:	ef 90       	pop	r14
    6196:	08 95       	ret

00006198 <_ZN6String6concatEi>:
    6198:	ef 92       	push	r14
    619a:	ff 92       	push	r15
    619c:	0f 93       	push	r16
    619e:	1f 93       	push	r17
    61a0:	cf 93       	push	r28
    61a2:	df 93       	push	r29
    61a4:	cd b7       	in	r28, 0x3d	; 61
    61a6:	de b7       	in	r29, 0x3e	; 62
    61a8:	28 97       	sbiw	r28, 0x08	; 8
    61aa:	0f b6       	in	r0, 0x3f	; 63
    61ac:	f8 94       	cli
    61ae:	de bf       	out	0x3e, r29	; 62
    61b0:	0f be       	out	0x3f, r0	; 63
    61b2:	cd bf       	out	0x3d, r28	; 61
    61b4:	7c 01       	movw	r14, r24
    61b6:	cb 01       	movw	r24, r22
    61b8:	4a e0       	ldi	r20, 0x0A	; 10
    61ba:	8e 01       	movw	r16, r28
    61bc:	0f 5f       	subi	r16, 0xFF	; 255
    61be:	1f 4f       	sbci	r17, 0xFF	; 255
    61c0:	b8 01       	movw	r22, r16
    61c2:	0e 94 b4 4d 	call	0x9b68	; 0x9b68 <__itoa_ncheck>
    61c6:	f8 01       	movw	r30, r16
    61c8:	01 90       	ld	r0, Z+
    61ca:	00 20       	and	r0, r0
    61cc:	e9 f7       	brne	.-6      	; 0x61c8 <_ZN6String6concatEi+0x30>
    61ce:	31 97       	sbiw	r30, 0x01	; 1
    61d0:	af 01       	movw	r20, r30
    61d2:	40 1b       	sub	r20, r16
    61d4:	51 0b       	sbc	r21, r17
    61d6:	b8 01       	movw	r22, r16
    61d8:	c7 01       	movw	r24, r14
    61da:	87 df       	rcall	.-242    	; 0x60ea <_ZN6String6concatEPKcj>
    61dc:	28 96       	adiw	r28, 0x08	; 8
    61de:	0f b6       	in	r0, 0x3f	; 63
    61e0:	f8 94       	cli
    61e2:	de bf       	out	0x3e, r29	; 62
    61e4:	0f be       	out	0x3f, r0	; 63
    61e6:	cd bf       	out	0x3d, r28	; 61
    61e8:	df 91       	pop	r29
    61ea:	cf 91       	pop	r28
    61ec:	1f 91       	pop	r17
    61ee:	0f 91       	pop	r16
    61f0:	ff 90       	pop	r15
    61f2:	ef 90       	pop	r14
    61f4:	08 95       	ret

000061f6 <_ZplRK15StringSumHelperPKc>:
    61f6:	cf 93       	push	r28
    61f8:	df 93       	push	r29
    61fa:	ec 01       	movw	r28, r24
    61fc:	61 15       	cp	r22, r1
    61fe:	71 05       	cpc	r23, r1
    6200:	59 f0       	breq	.+22     	; 0x6218 <_ZplRK15StringSumHelperPKc+0x22>
    6202:	fb 01       	movw	r30, r22
    6204:	01 90       	ld	r0, Z+
    6206:	00 20       	and	r0, r0
    6208:	e9 f7       	brne	.-6      	; 0x6204 <_ZplRK15StringSumHelperPKc+0xe>
    620a:	31 97       	sbiw	r30, 0x01	; 1
    620c:	af 01       	movw	r20, r30
    620e:	46 1b       	sub	r20, r22
    6210:	57 0b       	sbc	r21, r23
    6212:	6b df       	rcall	.-298    	; 0x60ea <_ZN6String6concatEPKcj>
    6214:	81 11       	cpse	r24, r1
    6216:	02 c0       	rjmp	.+4      	; 0x621c <_ZplRK15StringSumHelperPKc+0x26>
    6218:	ce 01       	movw	r24, r28
    621a:	bb de       	rcall	.-650    	; 0x5f92 <_ZN6String10invalidateEv>
    621c:	ce 01       	movw	r24, r28
    621e:	df 91       	pop	r29
    6220:	cf 91       	pop	r28
    6222:	08 95       	ret

00006224 <_ZplRK15StringSumHelperh>:
    6224:	cf 93       	push	r28
    6226:	df 93       	push	r29
    6228:	ec 01       	movw	r28, r24
    622a:	8c df       	rcall	.-232    	; 0x6144 <_ZN6String6concatEh>
    622c:	81 11       	cpse	r24, r1
    622e:	02 c0       	rjmp	.+4      	; 0x6234 <_ZplRK15StringSumHelperh+0x10>
    6230:	ce 01       	movw	r24, r28
    6232:	af de       	rcall	.-674    	; 0x5f92 <_ZN6String10invalidateEv>
    6234:	ce 01       	movw	r24, r28
    6236:	df 91       	pop	r29
    6238:	cf 91       	pop	r28
    623a:	08 95       	ret

0000623c <_ZplRK15StringSumHelperi>:
    623c:	cf 93       	push	r28
    623e:	df 93       	push	r29
    6240:	ec 01       	movw	r28, r24
    6242:	aa df       	rcall	.-172    	; 0x6198 <_ZN6String6concatEi>
    6244:	81 11       	cpse	r24, r1
    6246:	02 c0       	rjmp	.+4      	; 0x624c <_ZplRK15StringSumHelperi+0x10>
    6248:	ce 01       	movw	r24, r28
    624a:	a3 de       	rcall	.-698    	; 0x5f92 <_ZN6String10invalidateEv>
    624c:	ce 01       	movw	r24, r28
    624e:	df 91       	pop	r29
    6250:	cf 91       	pop	r28
    6252:	08 95       	ret

00006254 <_ZNK6StringixEj>:
    6254:	fc 01       	movw	r30, r24
    6256:	24 81       	ldd	r18, Z+4	; 0x04
    6258:	35 81       	ldd	r19, Z+5	; 0x05
    625a:	62 17       	cp	r22, r18
    625c:	73 07       	cpc	r23, r19
    625e:	48 f4       	brcc	.+18     	; 0x6272 <_ZNK6StringixEj+0x1e>
    6260:	80 81       	ld	r24, Z
    6262:	91 81       	ldd	r25, Z+1	; 0x01
    6264:	00 97       	sbiw	r24, 0x00	; 0
    6266:	29 f0       	breq	.+10     	; 0x6272 <_ZNK6StringixEj+0x1e>
    6268:	fc 01       	movw	r30, r24
    626a:	e6 0f       	add	r30, r22
    626c:	f7 1f       	adc	r31, r23
    626e:	80 81       	ld	r24, Z
    6270:	08 95       	ret
    6272:	80 e0       	ldi	r24, 0x00	; 0
    6274:	08 95       	ret

00006276 <_ZNK6String6charAtEj>:
    6276:	ee cf       	rjmp	.-36     	; 0x6254 <_ZNK6StringixEj>

00006278 <_ZNK6String8getBytesEPhjj>:
    6278:	0f 93       	push	r16
    627a:	1f 93       	push	r17
    627c:	cf 93       	push	r28
    627e:	df 93       	push	r29
    6280:	41 15       	cp	r20, r1
    6282:	51 05       	cpc	r21, r1
    6284:	19 f1       	breq	.+70     	; 0x62cc <_ZNK6String8getBytesEPhjj+0x54>
    6286:	61 15       	cp	r22, r1
    6288:	71 05       	cpc	r23, r1
    628a:	01 f1       	breq	.+64     	; 0x62cc <_ZNK6String8getBytesEPhjj+0x54>
    628c:	dc 01       	movw	r26, r24
    628e:	14 96       	adiw	r26, 0x04	; 4
    6290:	ed 91       	ld	r30, X+
    6292:	fc 91       	ld	r31, X
    6294:	15 97       	sbiw	r26, 0x05	; 5
    6296:	2e 17       	cp	r18, r30
    6298:	3f 07       	cpc	r19, r31
    629a:	18 f0       	brcs	.+6      	; 0x62a2 <_ZNK6String8getBytesEPhjj+0x2a>
    629c:	fb 01       	movw	r30, r22
    629e:	10 82       	st	Z, r1
    62a0:	15 c0       	rjmp	.+42     	; 0x62cc <_ZNK6String8getBytesEPhjj+0x54>
    62a2:	e2 1b       	sub	r30, r18
    62a4:	f3 0b       	sbc	r31, r19
    62a6:	ea 01       	movw	r28, r20
    62a8:	21 97       	sbiw	r28, 0x01	; 1
    62aa:	ec 17       	cp	r30, r28
    62ac:	fd 07       	cpc	r31, r29
    62ae:	08 f4       	brcc	.+2      	; 0x62b2 <_ZNK6String8getBytesEPhjj+0x3a>
    62b0:	ef 01       	movw	r28, r30
    62b2:	8b 01       	movw	r16, r22
    62b4:	fc 01       	movw	r30, r24
    62b6:	60 81       	ld	r22, Z
    62b8:	71 81       	ldd	r23, Z+1	; 0x01
    62ba:	62 0f       	add	r22, r18
    62bc:	73 1f       	adc	r23, r19
    62be:	ae 01       	movw	r20, r28
    62c0:	c8 01       	movw	r24, r16
    62c2:	0e 94 a5 4d 	call	0x9b4a	; 0x9b4a <strncpy>
    62c6:	c0 0f       	add	r28, r16
    62c8:	d1 1f       	adc	r29, r17
    62ca:	18 82       	st	Y, r1
    62cc:	df 91       	pop	r29
    62ce:	cf 91       	pop	r28
    62d0:	1f 91       	pop	r17
    62d2:	0f 91       	pop	r16
    62d4:	08 95       	ret

000062d6 <_ZNK6String9substringEjj>:
	}
	return found;
}

String String::substring(unsigned int left, unsigned int right) const
{
    62d6:	bf 92       	push	r11
    62d8:	cf 92       	push	r12
    62da:	df 92       	push	r13
    62dc:	ef 92       	push	r14
    62de:	ff 92       	push	r15
    62e0:	0f 93       	push	r16
    62e2:	1f 93       	push	r17
    62e4:	cf 93       	push	r28
    62e6:	df 93       	push	r29
    62e8:	7c 01       	movw	r14, r24
    62ea:	6b 01       	movw	r12, r22
    62ec:	8a 01       	movw	r16, r20
    62ee:	e9 01       	movw	r28, r18
	if (left > right) {
    62f0:	24 17       	cp	r18, r20
    62f2:	35 07       	cpc	r19, r21
    62f4:	20 f4       	brcc	.+8      	; 0x62fe <_ZNK6String9substringEjj+0x28>
    62f6:	81 2f       	mov	r24, r17
    62f8:	89 01       	movw	r16, r18
    62fa:	c4 2f       	mov	r28, r20
    62fc:	d8 2f       	mov	r29, r24
		unsigned int temp = right;
		right = left;
		left = temp;
	}
	String out;
    62fe:	69 e2       	ldi	r22, 0x29	; 41
    6300:	74 e0       	ldi	r23, 0x04	; 4
    6302:	c7 01       	movw	r24, r14
    6304:	ac de       	rcall	.-680    	; 0x605e <_ZN6StringC1EPKc>
	if (left >= len) return out;
    6306:	d6 01       	movw	r26, r12
    6308:	14 96       	adiw	r26, 0x04	; 4
    630a:	8d 91       	ld	r24, X+
    630c:	9c 91       	ld	r25, X
    630e:	15 97       	sbiw	r26, 0x05	; 5
    6310:	08 17       	cp	r16, r24
    6312:	19 07       	cpc	r17, r25
    6314:	c8 f4       	brcc	.+50     	; 0x6348 <_ZNK6String9substringEjj+0x72>
    6316:	8c 17       	cp	r24, r28
    6318:	9d 07       	cpc	r25, r29
    631a:	08 f4       	brcc	.+2      	; 0x631e <_ZNK6String9substringEjj+0x48>
    631c:	ec 01       	movw	r28, r24
	if (right > len) right = len;
	char temp = buffer[right];  // save the replaced character
    631e:	d6 01       	movw	r26, r12
    6320:	ed 91       	ld	r30, X+
    6322:	fc 91       	ld	r31, X
    6324:	11 97       	sbiw	r26, 0x01	; 1
    6326:	ec 0f       	add	r30, r28
    6328:	fd 1f       	adc	r31, r29
    632a:	b0 80       	ld	r11, Z
	buffer[right] = '\0';	
    632c:	10 82       	st	Z, r1
	out = buffer + left;  // pointer arithmetic
    632e:	4d 91       	ld	r20, X+
    6330:	5c 91       	ld	r21, X
    6332:	ba 01       	movw	r22, r20
    6334:	60 0f       	add	r22, r16
    6336:	71 1f       	adc	r23, r17
    6338:	c7 01       	movw	r24, r14
    633a:	c2 de       	rcall	.-636    	; 0x60c0 <_ZN6StringaSEPKc>
	buffer[right] = temp;  //restore character
    633c:	d6 01       	movw	r26, r12
    633e:	ed 91       	ld	r30, X+
    6340:	fc 91       	ld	r31, X
    6342:	ec 0f       	add	r30, r28
    6344:	fd 1f       	adc	r31, r29
    6346:	b0 82       	st	Z, r11
	return out;
}
    6348:	c7 01       	movw	r24, r14
    634a:	df 91       	pop	r29
    634c:	cf 91       	pop	r28
    634e:	1f 91       	pop	r17
    6350:	0f 91       	pop	r16
    6352:	ff 90       	pop	r15
    6354:	ef 90       	pop	r14
    6356:	df 90       	pop	r13
    6358:	cf 90       	pop	r12
    635a:	bf 90       	pop	r11
    635c:	08 95       	ret

0000635e <_ZN7URTouch15touch_WriteDataEh>:
void URTouch::touch_WriteData(byte data)
{
    635e:	fc 01       	movw	r30, r24
	byte temp;

	temp=data;
	cbi(P_CLK, B_CLK);
    6360:	a4 81       	ldd	r26, Z+4	; 0x04
    6362:	b5 81       	ldd	r27, Z+5	; 0x05
    6364:	9c 91       	ld	r25, X
    6366:	86 85       	ldd	r24, Z+14	; 0x0e
    6368:	80 95       	com	r24
    636a:	89 23       	and	r24, r25
    636c:	8c 93       	st	X, r24
    636e:	98 e0       	ldi	r25, 0x08	; 8
    6370:	a0 85       	ldd	r26, Z+8	; 0x08
    6372:	b1 85       	ldd	r27, Z+9	; 0x09
    6374:	80 89       	ldd	r24, Z+16	; 0x10

	for(byte count=0; count<8; count++)
	{
		if(temp & 0x80)
			sbi(P_DIN, B_DIN);
    6376:	2c 91       	ld	r18, X
	temp=data;
	cbi(P_CLK, B_CLK);

	for(byte count=0; count<8; count++)
	{
		if(temp & 0x80)
    6378:	67 ff       	sbrs	r22, 7
    637a:	02 c0       	rjmp	.+4      	; 0x6380 <_ZN7URTouch15touch_WriteDataEh+0x22>
			sbi(P_DIN, B_DIN);
    637c:	82 2b       	or	r24, r18
    637e:	02 c0       	rjmp	.+4      	; 0x6384 <_ZN7URTouch15touch_WriteDataEh+0x26>
		else
			cbi(P_DIN, B_DIN);
    6380:	80 95       	com	r24
    6382:	82 23       	and	r24, r18
    6384:	8c 93       	st	X, r24
		temp = temp << 1; 
    6386:	66 0f       	add	r22, r22
		cbi(P_CLK, B_CLK);                
    6388:	a4 81       	ldd	r26, Z+4	; 0x04
    638a:	b5 81       	ldd	r27, Z+5	; 0x05
    638c:	2c 91       	ld	r18, X
    638e:	86 85       	ldd	r24, Z+14	; 0x0e
    6390:	80 95       	com	r24
    6392:	82 23       	and	r24, r18
    6394:	8c 93       	st	X, r24
		sbi(P_CLK, B_CLK);
    6396:	a4 81       	ldd	r26, Z+4	; 0x04
    6398:	b5 81       	ldd	r27, Z+5	; 0x05
    639a:	2c 91       	ld	r18, X
    639c:	86 85       	ldd	r24, Z+14	; 0x0e
    639e:	82 2b       	or	r24, r18
    63a0:	8c 93       	st	X, r24
    63a2:	91 50       	subi	r25, 0x01	; 1
	byte temp;

	temp=data;
	cbi(P_CLK, B_CLK);

	for(byte count=0; count<8; count++)
    63a4:	29 f7       	brne	.-54     	; 0x6370 <_ZN7URTouch15touch_WriteDataEh+0x12>
			cbi(P_DIN, B_DIN);
		temp = temp << 1; 
		cbi(P_CLK, B_CLK);                
		sbi(P_CLK, B_CLK);
	}
}
    63a6:	08 95       	ret

000063a8 <_ZN7URTouch14touch_ReadDataEv>:

word URTouch::touch_ReadData()
{
    63a8:	fc 01       	movw	r30, r24
    63aa:	2c e0       	ldi	r18, 0x0C	; 12
	word data = 0;
    63ac:	80 e0       	ldi	r24, 0x00	; 0
    63ae:	90 e0       	ldi	r25, 0x00	; 0

	for(byte count=0; count<12; count++)
	{
		data <<= 1;
    63b0:	88 0f       	add	r24, r24
    63b2:	99 1f       	adc	r25, r25
		sbi(P_CLK, B_CLK);
    63b4:	a4 81       	ldd	r26, Z+4	; 0x04
    63b6:	b5 81       	ldd	r27, Z+5	; 0x05
    63b8:	4c 91       	ld	r20, X
    63ba:	36 85       	ldd	r19, Z+14	; 0x0e
    63bc:	34 2b       	or	r19, r20
    63be:	3c 93       	st	X, r19
		cbi(P_CLK, B_CLK);                
    63c0:	a4 81       	ldd	r26, Z+4	; 0x04
    63c2:	b5 81       	ldd	r27, Z+5	; 0x05
    63c4:	4c 91       	ld	r20, X
    63c6:	36 85       	ldd	r19, Z+14	; 0x0e
    63c8:	30 95       	com	r19
    63ca:	34 23       	and	r19, r20
    63cc:	3c 93       	st	X, r19
		if (rbi(P_DOUT, B_DOUT))
    63ce:	a2 85       	ldd	r26, Z+10	; 0x0a
    63d0:	b3 85       	ldd	r27, Z+11	; 0x0b
    63d2:	4c 91       	ld	r20, X
    63d4:	31 89       	ldd	r19, Z+17	; 0x11
    63d6:	34 23       	and	r19, r20
    63d8:	09 f0       	breq	.+2      	; 0x63dc <_ZN7URTouch14touch_ReadDataEv+0x34>
			data++;
    63da:	01 96       	adiw	r24, 0x01	; 1
    63dc:	21 50       	subi	r18, 0x01	; 1

word URTouch::touch_ReadData()
{
	word data = 0;

	for(byte count=0; count<12; count++)
    63de:	41 f7       	brne	.-48     	; 0x63b0 <_ZN7URTouch14touch_ReadDataEv+0x8>
		cbi(P_CLK, B_CLK);                
		if (rbi(P_DOUT, B_DOUT))
			data++;
	}
	return(data);
}
    63e0:	08 95       	ret

000063e2 <_ZN7URTouchC1Ehhhhh>:
	#include "hardware/pic32/HW_PIC32.inc"
#elif defined(__arm__)
	#include "hardware/arm/HW_ARM.inc"
#endif

URTouch::URTouch(byte tclk, byte tcs, byte din, byte dout, byte irq)
    63e2:	ef 92       	push	r14
    63e4:	0f 93       	push	r16
    63e6:	fc 01       	movw	r30, r24
{
	T_CLK	= tclk;
    63e8:	63 8b       	std	Z+19, r22	; 0x13
	T_CS	= tcs;
    63ea:	44 8b       	std	Z+20, r20	; 0x14
	T_DIN	= din;
    63ec:	25 8b       	std	Z+21, r18	; 0x15
	T_DOUT	= dout;
    63ee:	06 8b       	std	Z+22, r16	; 0x16
	T_IRQ	= irq;
    63f0:	e7 8a       	std	Z+23, r14	; 0x17
}
    63f2:	0f 91       	pop	r16
    63f4:	ef 90       	pop	r14
    63f6:	08 95       	ret

000063f8 <_ZN7URTouch9InitTouchEh>:

void URTouch::InitTouch(byte orientation)
{
    63f8:	cf 93       	push	r28
    63fa:	df 93       	push	r29
    63fc:	ec 01       	movw	r28, r24
	orient					= orientation;
    63fe:	6c 8f       	std	Y+28, r22	; 0x1c
	_default_orientation	= CAL_S>>31;
    6400:	18 8e       	std	Y+24, r1	; 0x18
    6402:	19 8e       	std	Y+25, r1	; 0x19
    6404:	1a 8e       	std	Y+26, r1	; 0x1a
    6406:	1b 8e       	std	Y+27, r1	; 0x1b
	touch_x_left			= (CAL_X>>14) & 0x3FFF;
    6408:	8e ed       	ldi	r24, 0xDE	; 222
    640a:	90 e0       	ldi	r25, 0x00	; 0
    640c:	a0 e0       	ldi	r26, 0x00	; 0
    640e:	b0 e0       	ldi	r27, 0x00	; 0
    6410:	8b a7       	std	Y+43, r24	; 0x2b
    6412:	9c a7       	std	Y+44, r25	; 0x2c
    6414:	ad a7       	std	Y+45, r26	; 0x2d
    6416:	be a7       	std	Y+46, r27	; 0x2e
	touch_x_right			= CAL_X & 0x3FFF;
    6418:	86 e6       	ldi	r24, 0x66	; 102
    641a:	9f e0       	ldi	r25, 0x0F	; 15
    641c:	a0 e0       	ldi	r26, 0x00	; 0
    641e:	b0 e0       	ldi	r27, 0x00	; 0
    6420:	8f a7       	std	Y+47, r24	; 0x2f
    6422:	98 ab       	std	Y+48, r25	; 0x30
    6424:	a9 ab       	std	Y+49, r26	; 0x31
    6426:	ba ab       	std	Y+50, r27	; 0x32
	touch_y_top				= (CAL_Y>>14) & 0x3FFF;
    6428:	8d e0       	ldi	r24, 0x0D	; 13
    642a:	9f e0       	ldi	r25, 0x0F	; 15
    642c:	a0 e0       	ldi	r26, 0x00	; 0
    642e:	b0 e0       	ldi	r27, 0x00	; 0
    6430:	8b ab       	std	Y+51, r24	; 0x33
    6432:	9c ab       	std	Y+52, r25	; 0x34
    6434:	ad ab       	std	Y+53, r26	; 0x35
    6436:	be ab       	std	Y+54, r27	; 0x36
	touch_y_bottom			= CAL_Y & 0x3FFF;
    6438:	85 e5       	ldi	r24, 0x55	; 85
    643a:	91 e0       	ldi	r25, 0x01	; 1
    643c:	a0 e0       	ldi	r26, 0x00	; 0
    643e:	b0 e0       	ldi	r27, 0x00	; 0
    6440:	8f ab       	std	Y+55, r24	; 0x37
    6442:	98 af       	std	Y+56, r25	; 0x38
    6444:	a9 af       	std	Y+57, r26	; 0x39
    6446:	ba af       	std	Y+58, r27	; 0x3a
	disp_x_size				= (CAL_S>>12) & 0x0FFF;
    6448:	8f ee       	ldi	r24, 0xEF	; 239
    644a:	90 e0       	ldi	r25, 0x00	; 0
    644c:	a0 e0       	ldi	r26, 0x00	; 0
    644e:	b0 e0       	ldi	r27, 0x00	; 0
    6450:	8f 8f       	std	Y+31, r24	; 0x1f
    6452:	98 a3       	std	Y+32, r25	; 0x20
    6454:	a9 a3       	std	Y+33, r26	; 0x21
    6456:	ba a3       	std	Y+34, r27	; 0x22
	disp_y_size				= CAL_S & 0x0FFF;
    6458:	8f e3       	ldi	r24, 0x3F	; 63
    645a:	91 e0       	ldi	r25, 0x01	; 1
    645c:	a0 e0       	ldi	r26, 0x00	; 0
    645e:	b0 e0       	ldi	r27, 0x00	; 0
    6460:	8b a3       	std	Y+35, r24	; 0x23
    6462:	9c a3       	std	Y+36, r25	; 0x24
    6464:	ad a3       	std	Y+37, r26	; 0x25
    6466:	be a3       	std	Y+38, r27	; 0x26
	prec					= 10;
    6468:	8a e0       	ldi	r24, 0x0A	; 10
    646a:	8d 8f       	std	Y+29, r24	; 0x1d

	P_CLK	= portOutputRegister(digitalPinToPort(T_CLK));
    646c:	8b 89       	ldd	r24, Y+19	; 0x13
    646e:	28 2f       	mov	r18, r24
    6470:	30 e0       	ldi	r19, 0x00	; 0
    6472:	f9 01       	movw	r30, r18
    6474:	e6 55       	subi	r30, 0x56	; 86
    6476:	fe 4c       	sbci	r31, 0xCE	; 206
    6478:	e4 91       	lpm	r30, Z
    647a:	f0 e0       	ldi	r31, 0x00	; 0
    647c:	ee 0f       	add	r30, r30
    647e:	ff 1f       	adc	r31, r31
    6480:	e6 5f       	subi	r30, 0xF6	; 246
    6482:	fd 4c       	sbci	r31, 0xCD	; 205
    6484:	45 91       	lpm	r20, Z+
    6486:	54 91       	lpm	r21, Z
    6488:	5d 83       	std	Y+5, r21	; 0x05
    648a:	4c 83       	std	Y+4, r20	; 0x04
	B_CLK	= digitalPinToBitMask(T_CLK);
    648c:	f9 01       	movw	r30, r18
    648e:	ec 59       	subi	r30, 0x9C	; 156
    6490:	fe 4c       	sbci	r31, 0xCE	; 206
    6492:	e4 91       	lpm	r30, Z
    6494:	ee 87       	std	Y+14, r30	; 0x0e
	P_CS	= portOutputRegister(digitalPinToPort(T_CS));
    6496:	2c 89       	ldd	r18, Y+20	; 0x14
    6498:	30 e0       	ldi	r19, 0x00	; 0
    649a:	f9 01       	movw	r30, r18
    649c:	e6 55       	subi	r30, 0x56	; 86
    649e:	fe 4c       	sbci	r31, 0xCE	; 206
    64a0:	e4 91       	lpm	r30, Z
    64a2:	f0 e0       	ldi	r31, 0x00	; 0
    64a4:	ee 0f       	add	r30, r30
    64a6:	ff 1f       	adc	r31, r31
    64a8:	e6 5f       	subi	r30, 0xF6	; 246
    64aa:	fd 4c       	sbci	r31, 0xCD	; 205
    64ac:	45 91       	lpm	r20, Z+
    64ae:	54 91       	lpm	r21, Z
    64b0:	5f 83       	std	Y+7, r21	; 0x07
    64b2:	4e 83       	std	Y+6, r20	; 0x06
	B_CS	= digitalPinToBitMask(T_CS);
    64b4:	f9 01       	movw	r30, r18
    64b6:	ec 59       	subi	r30, 0x9C	; 156
    64b8:	fe 4c       	sbci	r31, 0xCE	; 206
    64ba:	e4 91       	lpm	r30, Z
    64bc:	ef 87       	std	Y+15, r30	; 0x0f
	P_DIN	= portOutputRegister(digitalPinToPort(T_DIN));
    64be:	2d 89       	ldd	r18, Y+21	; 0x15
    64c0:	30 e0       	ldi	r19, 0x00	; 0
    64c2:	f9 01       	movw	r30, r18
    64c4:	e6 55       	subi	r30, 0x56	; 86
    64c6:	fe 4c       	sbci	r31, 0xCE	; 206
    64c8:	e4 91       	lpm	r30, Z
    64ca:	f0 e0       	ldi	r31, 0x00	; 0
    64cc:	ee 0f       	add	r30, r30
    64ce:	ff 1f       	adc	r31, r31
    64d0:	e6 5f       	subi	r30, 0xF6	; 246
    64d2:	fd 4c       	sbci	r31, 0xCD	; 205
    64d4:	45 91       	lpm	r20, Z+
    64d6:	54 91       	lpm	r21, Z
    64d8:	59 87       	std	Y+9, r21	; 0x09
    64da:	48 87       	std	Y+8, r20	; 0x08
	B_DIN	= digitalPinToBitMask(T_DIN);
    64dc:	f9 01       	movw	r30, r18
    64de:	ec 59       	subi	r30, 0x9C	; 156
    64e0:	fe 4c       	sbci	r31, 0xCE	; 206
    64e2:	e4 91       	lpm	r30, Z
    64e4:	e8 8b       	std	Y+16, r30	; 0x10
	P_DOUT	= portInputRegister(digitalPinToPort(T_DOUT));
    64e6:	2e 89       	ldd	r18, Y+22	; 0x16
    64e8:	30 e0       	ldi	r19, 0x00	; 0
    64ea:	f9 01       	movw	r30, r18
    64ec:	e6 55       	subi	r30, 0x56	; 86
    64ee:	fe 4c       	sbci	r31, 0xCE	; 206
    64f0:	e4 91       	lpm	r30, Z
    64f2:	f0 e0       	ldi	r31, 0x00	; 0
    64f4:	ee 0f       	add	r30, r30
    64f6:	ff 1f       	adc	r31, r31
    64f8:	e0 51       	subi	r30, 0x10	; 16
    64fa:	fe 4c       	sbci	r31, 0xCE	; 206
    64fc:	45 91       	lpm	r20, Z+
    64fe:	54 91       	lpm	r21, Z
    6500:	5b 87       	std	Y+11, r21	; 0x0b
    6502:	4a 87       	std	Y+10, r20	; 0x0a
	B_DOUT	= digitalPinToBitMask(T_DOUT);
    6504:	f9 01       	movw	r30, r18
    6506:	ec 59       	subi	r30, 0x9C	; 156
    6508:	fe 4c       	sbci	r31, 0xCE	; 206
    650a:	e4 91       	lpm	r30, Z
    650c:	e9 8b       	std	Y+17, r30	; 0x11
	P_IRQ	= portInputRegister(digitalPinToPort(T_IRQ));
    650e:	2f 89       	ldd	r18, Y+23	; 0x17
    6510:	30 e0       	ldi	r19, 0x00	; 0
    6512:	f9 01       	movw	r30, r18
    6514:	e6 55       	subi	r30, 0x56	; 86
    6516:	fe 4c       	sbci	r31, 0xCE	; 206
    6518:	e4 91       	lpm	r30, Z
    651a:	f0 e0       	ldi	r31, 0x00	; 0
    651c:	ee 0f       	add	r30, r30
    651e:	ff 1f       	adc	r31, r31
    6520:	e0 51       	subi	r30, 0x10	; 16
    6522:	fe 4c       	sbci	r31, 0xCE	; 206
    6524:	45 91       	lpm	r20, Z+
    6526:	54 91       	lpm	r21, Z
    6528:	5d 87       	std	Y+13, r21	; 0x0d
    652a:	4c 87       	std	Y+12, r20	; 0x0c
	B_IRQ	= digitalPinToBitMask(T_IRQ);
    652c:	f9 01       	movw	r30, r18
    652e:	ec 59       	subi	r30, 0x9C	; 156
    6530:	fe 4c       	sbci	r31, 0xCE	; 206
    6532:	e4 91       	lpm	r30, Z
    6534:	ea 8b       	std	Y+18, r30	; 0x12

	pinMode(T_CLK,  OUTPUT);
    6536:	61 e0       	ldi	r22, 0x01	; 1
    6538:	0e 94 a0 49 	call	0x9340	; 0x9340 <pinMode>
    pinMode(T_CS,   OUTPUT);
    653c:	61 e0       	ldi	r22, 0x01	; 1
    653e:	8c 89       	ldd	r24, Y+20	; 0x14
    6540:	0e 94 a0 49 	call	0x9340	; 0x9340 <pinMode>
    pinMode(T_DIN,  OUTPUT);
    6544:	61 e0       	ldi	r22, 0x01	; 1
    6546:	8d 89       	ldd	r24, Y+21	; 0x15
    6548:	0e 94 a0 49 	call	0x9340	; 0x9340 <pinMode>
    pinMode(T_DOUT, INPUT);
    654c:	60 e0       	ldi	r22, 0x00	; 0
    654e:	8e 89       	ldd	r24, Y+22	; 0x16
    6550:	0e 94 a0 49 	call	0x9340	; 0x9340 <pinMode>
    pinMode(T_IRQ,  OUTPUT);
    6554:	61 e0       	ldi	r22, 0x01	; 1
    6556:	8f 89       	ldd	r24, Y+23	; 0x17
    6558:	0e 94 a0 49 	call	0x9340	; 0x9340 <pinMode>

	sbi(P_CS, B_CS);
    655c:	ee 81       	ldd	r30, Y+6	; 0x06
    655e:	ff 81       	ldd	r31, Y+7	; 0x07
    6560:	90 81       	ld	r25, Z
    6562:	8f 85       	ldd	r24, Y+15	; 0x0f
    6564:	89 2b       	or	r24, r25
    6566:	80 83       	st	Z, r24
	sbi(P_CLK, B_CLK);
    6568:	ec 81       	ldd	r30, Y+4	; 0x04
    656a:	fd 81       	ldd	r31, Y+5	; 0x05
    656c:	90 81       	ld	r25, Z
    656e:	8e 85       	ldd	r24, Y+14	; 0x0e
    6570:	89 2b       	or	r24, r25
    6572:	80 83       	st	Z, r24
	sbi(P_DIN, B_DIN);
    6574:	e8 85       	ldd	r30, Y+8	; 0x08
    6576:	f9 85       	ldd	r31, Y+9	; 0x09
    6578:	90 81       	ld	r25, Z
    657a:	88 89       	ldd	r24, Y+16	; 0x10
    657c:	89 2b       	or	r24, r25
    657e:	80 83       	st	Z, r24
	sbi(P_IRQ, B_IRQ);
    6580:	ec 85       	ldd	r30, Y+12	; 0x0c
    6582:	fd 85       	ldd	r31, Y+13	; 0x0d
    6584:	90 81       	ld	r25, Z
    6586:	8a 89       	ldd	r24, Y+18	; 0x12
    6588:	89 2b       	or	r24, r25
    658a:	80 83       	st	Z, r24
}
    658c:	df 91       	pop	r29
    658e:	cf 91       	pop	r28
    6590:	08 95       	ret

00006592 <_ZN7URTouch4readEv>:

void URTouch::read()
{
    6592:	2f 92       	push	r2
    6594:	3f 92       	push	r3
    6596:	4f 92       	push	r4
    6598:	5f 92       	push	r5
    659a:	6f 92       	push	r6
    659c:	7f 92       	push	r7
    659e:	8f 92       	push	r8
    65a0:	9f 92       	push	r9
    65a2:	af 92       	push	r10
    65a4:	bf 92       	push	r11
    65a6:	cf 92       	push	r12
    65a8:	df 92       	push	r13
    65aa:	ef 92       	push	r14
    65ac:	ff 92       	push	r15
    65ae:	0f 93       	push	r16
    65b0:	1f 93       	push	r17
    65b2:	cf 93       	push	r28
    65b4:	df 93       	push	r29
    65b6:	cd b7       	in	r28, 0x3d	; 61
    65b8:	de b7       	in	r29, 0x3e	; 62
    65ba:	62 97       	sbiw	r28, 0x12	; 18
    65bc:	0f b6       	in	r0, 0x3f	; 63
    65be:	f8 94       	cli
    65c0:	de bf       	out	0x3e, r29	; 62
    65c2:	0f be       	out	0x3f, r0	; 63
    65c4:	cd bf       	out	0x3d, r28	; 61
    65c6:	9a 8b       	std	Y+18, r25	; 0x12
    65c8:	89 8b       	std	Y+17, r24	; 0x11
	unsigned long ty=0, temp_y=0;
	unsigned long minx=99999, maxx=0;
	unsigned long miny=99999, maxy=0;
	int datacount=0;

	cbi(P_CS, B_CS);                    
    65ca:	dc 01       	movw	r26, r24
    65cc:	16 96       	adiw	r26, 0x06	; 6
    65ce:	ed 91       	ld	r30, X+
    65d0:	fc 91       	ld	r31, X
    65d2:	17 97       	sbiw	r26, 0x07	; 7
    65d4:	90 81       	ld	r25, Z
    65d6:	1f 96       	adiw	r26, 0x0f	; 15
    65d8:	8c 91       	ld	r24, X
    65da:	1f 97       	sbiw	r26, 0x0f	; 15
    65dc:	80 95       	com	r24
    65de:	89 23       	and	r24, r25
    65e0:	80 83       	st	Z, r24

	pinMode(T_IRQ,  INPUT);
    65e2:	60 e0       	ldi	r22, 0x00	; 0
    65e4:	57 96       	adiw	r26, 0x17	; 23
    65e6:	8c 91       	ld	r24, X
    65e8:	0e 94 a0 49 	call	0x9340	; 0x9340 <pinMode>
	for (int i=0; i<prec; i++)
    65ec:	21 2c       	mov	r2, r1
    65ee:	31 2c       	mov	r3, r1
{
	unsigned long tx=0, temp_x=0;
	unsigned long ty=0, temp_y=0;
	unsigned long minx=99999, maxx=0;
	unsigned long miny=99999, maxy=0;
	int datacount=0;
    65f0:	00 e0       	ldi	r16, 0x00	; 0
    65f2:	10 e0       	ldi	r17, 0x00	; 0
void URTouch::read()
{
	unsigned long tx=0, temp_x=0;
	unsigned long ty=0, temp_y=0;
	unsigned long minx=99999, maxx=0;
	unsigned long miny=99999, maxy=0;
    65f4:	1d 86       	std	Y+13, r1	; 0x0d
    65f6:	1e 86       	std	Y+14, r1	; 0x0e
    65f8:	1f 86       	std	Y+15, r1	; 0x0f
    65fa:	18 8a       	std	Y+16, r1	; 0x10
    65fc:	2f e9       	ldi	r18, 0x9F	; 159
    65fe:	36 e8       	ldi	r19, 0x86	; 134
    6600:	41 e0       	ldi	r20, 0x01	; 1
    6602:	50 e0       	ldi	r21, 0x00	; 0
    6604:	29 87       	std	Y+9, r18	; 0x09
    6606:	3a 87       	std	Y+10, r19	; 0x0a
    6608:	4b 87       	std	Y+11, r20	; 0x0b
    660a:	5c 87       	std	Y+12, r21	; 0x0c

void URTouch::read()
{
	unsigned long tx=0, temp_x=0;
	unsigned long ty=0, temp_y=0;
	unsigned long minx=99999, maxx=0;
    660c:	c1 2c       	mov	r12, r1
    660e:	d1 2c       	mov	r13, r1
    6610:	76 01       	movw	r14, r12
    6612:	2d 83       	std	Y+5, r18	; 0x05
    6614:	3e 83       	std	Y+6, r19	; 0x06
    6616:	4f 83       	std	Y+7, r20	; 0x07
    6618:	58 87       	std	Y+8, r21	; 0x08
}

void URTouch::read()
{
	unsigned long tx=0, temp_x=0;
	unsigned long ty=0, temp_y=0;
    661a:	41 2c       	mov	r4, r1
    661c:	51 2c       	mov	r5, r1
    661e:	32 01       	movw	r6, r4
	sbi(P_IRQ, B_IRQ);
}

void URTouch::read()
{
	unsigned long tx=0, temp_x=0;
    6620:	19 82       	std	Y+1, r1	; 0x01
    6622:	1a 82       	std	Y+2, r1	; 0x02
    6624:	1b 82       	std	Y+3, r1	; 0x03
    6626:	1c 82       	std	Y+4, r1	; 0x04
	int datacount=0;

	cbi(P_CS, B_CS);                    

	pinMode(T_IRQ,  INPUT);
	for (int i=0; i<prec; i++)
    6628:	a9 89       	ldd	r26, Y+17	; 0x11
    662a:	ba 89       	ldd	r27, Y+18	; 0x12
    662c:	5d 96       	adiw	r26, 0x1d	; 29
    662e:	8c 91       	ld	r24, X
    6630:	5d 97       	sbiw	r26, 0x1d	; 29
    6632:	90 e0       	ldi	r25, 0x00	; 0
    6634:	28 16       	cp	r2, r24
    6636:	39 06       	cpc	r3, r25
    6638:	0c f0       	brlt	.+2      	; 0x663c <_ZN7URTouch4readEv+0xaa>
    663a:	b3 c0       	rjmp	.+358    	; 0x67a2 <_ZN7URTouch4readEv+0x210>
	{
		if (!rbi(P_IRQ, B_IRQ))
    663c:	a9 89       	ldd	r26, Y+17	; 0x11
    663e:	ba 89       	ldd	r27, Y+18	; 0x12
    6640:	1c 96       	adiw	r26, 0x0c	; 12
    6642:	ed 91       	ld	r30, X+
    6644:	fc 91       	ld	r31, X
    6646:	1d 97       	sbiw	r26, 0x0d	; 13
    6648:	90 81       	ld	r25, Z
    664a:	52 96       	adiw	r26, 0x12	; 18
    664c:	8c 91       	ld	r24, X
    664e:	52 97       	sbiw	r26, 0x12	; 18
    6650:	89 23       	and	r24, r25
    6652:	09 f0       	breq	.+2      	; 0x6656 <_ZN7URTouch4readEv+0xc4>
    6654:	a2 c0       	rjmp	.+324    	; 0x679a <_ZN7URTouch4readEv+0x208>
		{
			touch_WriteData(0x90);        
    6656:	60 e9       	ldi	r22, 0x90	; 144
    6658:	cd 01       	movw	r24, r26
    665a:	81 de       	rcall	.-766    	; 0x635e <_ZN7URTouch15touch_WriteDataEh>
			pulse_high(P_CLK, B_CLK);
    665c:	a9 89       	ldd	r26, Y+17	; 0x11
    665e:	ba 89       	ldd	r27, Y+18	; 0x12
    6660:	14 96       	adiw	r26, 0x04	; 4
    6662:	ed 91       	ld	r30, X+
    6664:	fc 91       	ld	r31, X
    6666:	15 97       	sbiw	r26, 0x05	; 5
    6668:	90 81       	ld	r25, Z
    666a:	1e 96       	adiw	r26, 0x0e	; 14
    666c:	8c 91       	ld	r24, X
    666e:	1e 97       	sbiw	r26, 0x0e	; 14
    6670:	89 2b       	or	r24, r25
    6672:	80 83       	st	Z, r24
    6674:	14 96       	adiw	r26, 0x04	; 4
    6676:	ed 91       	ld	r30, X+
    6678:	fc 91       	ld	r31, X
    667a:	15 97       	sbiw	r26, 0x05	; 5
    667c:	80 81       	ld	r24, Z
    667e:	1e 96       	adiw	r26, 0x0e	; 14
    6680:	9c 91       	ld	r25, X
    6682:	1e 97       	sbiw	r26, 0x0e	; 14
    6684:	90 95       	com	r25
    6686:	89 23       	and	r24, r25
    6688:	80 83       	st	Z, r24
			temp_x=touch_ReadData();
    668a:	cd 01       	movw	r24, r26
    668c:	8d de       	rcall	.-742    	; 0x63a8 <_ZN7URTouch14touch_ReadDataEv>

			if (!rbi(P_IRQ, B_IRQ))
    668e:	a9 89       	ldd	r26, Y+17	; 0x11
    6690:	ba 89       	ldd	r27, Y+18	; 0x12
    6692:	1c 96       	adiw	r26, 0x0c	; 12
    6694:	ed 91       	ld	r30, X+
    6696:	fc 91       	ld	r31, X
    6698:	1d 97       	sbiw	r26, 0x0d	; 13
    669a:	30 81       	ld	r19, Z
    669c:	52 96       	adiw	r26, 0x12	; 18
    669e:	2c 91       	ld	r18, X
    66a0:	52 97       	sbiw	r26, 0x12	; 18
    66a2:	23 23       	and	r18, r19
    66a4:	09 f0       	breq	.+2      	; 0x66a8 <_ZN7URTouch4readEv+0x116>
    66a6:	79 c0       	rjmp	.+242    	; 0x679a <_ZN7URTouch4readEv+0x208>
	{
		if (!rbi(P_IRQ, B_IRQ))
		{
			touch_WriteData(0x90);        
			pulse_high(P_CLK, B_CLK);
			temp_x=touch_ReadData();
    66a8:	4c 01       	movw	r8, r24
    66aa:	a1 2c       	mov	r10, r1
    66ac:	b1 2c       	mov	r11, r1

			if (!rbi(P_IRQ, B_IRQ))
			{
				touch_WriteData(0xD0);      
    66ae:	60 ed       	ldi	r22, 0xD0	; 208
    66b0:	cd 01       	movw	r24, r26
    66b2:	55 de       	rcall	.-854    	; 0x635e <_ZN7URTouch15touch_WriteDataEh>
				pulse_high(P_CLK, B_CLK);
    66b4:	a9 89       	ldd	r26, Y+17	; 0x11
    66b6:	ba 89       	ldd	r27, Y+18	; 0x12
    66b8:	14 96       	adiw	r26, 0x04	; 4
    66ba:	ed 91       	ld	r30, X+
    66bc:	fc 91       	ld	r31, X
    66be:	15 97       	sbiw	r26, 0x05	; 5
    66c0:	90 81       	ld	r25, Z
    66c2:	1e 96       	adiw	r26, 0x0e	; 14
    66c4:	8c 91       	ld	r24, X
    66c6:	1e 97       	sbiw	r26, 0x0e	; 14
    66c8:	89 2b       	or	r24, r25
    66ca:	80 83       	st	Z, r24
    66cc:	14 96       	adiw	r26, 0x04	; 4
    66ce:	ed 91       	ld	r30, X+
    66d0:	fc 91       	ld	r31, X
    66d2:	15 97       	sbiw	r26, 0x05	; 5
    66d4:	80 81       	ld	r24, Z
    66d6:	1e 96       	adiw	r26, 0x0e	; 14
    66d8:	9c 91       	ld	r25, X
    66da:	1e 97       	sbiw	r26, 0x0e	; 14
    66dc:	90 95       	com	r25
    66de:	89 23       	and	r24, r25
    66e0:	80 83       	st	Z, r24
				temp_y=touch_ReadData();
    66e2:	cd 01       	movw	r24, r26
    66e4:	61 de       	rcall	.-830    	; 0x63a8 <_ZN7URTouch14touch_ReadDataEv>

				if ((temp_x>0) and (temp_x<4096) and (temp_y>0) and (temp_y<4096))
    66e6:	b5 01       	movw	r22, r10
    66e8:	a4 01       	movw	r20, r8
    66ea:	41 50       	subi	r20, 0x01	; 1
    66ec:	51 09       	sbc	r21, r1
    66ee:	61 09       	sbc	r22, r1
    66f0:	71 09       	sbc	r23, r1
    66f2:	4f 3f       	cpi	r20, 0xFF	; 255
    66f4:	5f 40       	sbci	r21, 0x0F	; 15
    66f6:	61 05       	cpc	r22, r1
    66f8:	71 05       	cpc	r23, r1
    66fa:	08 f0       	brcs	.+2      	; 0x66fe <_ZN7URTouch4readEv+0x16c>
    66fc:	4e c0       	rjmp	.+156    	; 0x679a <_ZN7URTouch4readEv+0x208>
    66fe:	9c 01       	movw	r18, r24
    6700:	21 50       	subi	r18, 0x01	; 1
    6702:	31 09       	sbc	r19, r1
    6704:	2f 3f       	cpi	r18, 0xFF	; 255
    6706:	3f 40       	sbci	r19, 0x0F	; 15
    6708:	08 f0       	brcs	.+2      	; 0x670c <_ZN7URTouch4readEv+0x17a>
    670a:	47 c0       	rjmp	.+142    	; 0x679a <_ZN7URTouch4readEv+0x208>

			if (!rbi(P_IRQ, B_IRQ))
			{
				touch_WriteData(0xD0);      
				pulse_high(P_CLK, B_CLK);
				temp_y=touch_ReadData();
    670c:	a0 e0       	ldi	r26, 0x00	; 0
    670e:	b0 e0       	ldi	r27, 0x00	; 0

				if ((temp_x>0) and (temp_x<4096) and (temp_y>0) and (temp_y<4096))
				{
					tx+=temp_x;
    6710:	29 81       	ldd	r18, Y+1	; 0x01
    6712:	3a 81       	ldd	r19, Y+2	; 0x02
    6714:	4b 81       	ldd	r20, Y+3	; 0x03
    6716:	5c 81       	ldd	r21, Y+4	; 0x04
    6718:	28 0d       	add	r18, r8
    671a:	39 1d       	adc	r19, r9
    671c:	4a 1d       	adc	r20, r10
    671e:	5b 1d       	adc	r21, r11
    6720:	29 83       	std	Y+1, r18	; 0x01
    6722:	3a 83       	std	Y+2, r19	; 0x02
    6724:	4b 83       	std	Y+3, r20	; 0x03
    6726:	5c 83       	std	Y+4, r21	; 0x04
					ty+=temp_y;
    6728:	48 0e       	add	r4, r24
    672a:	59 1e       	adc	r5, r25
    672c:	6a 1e       	adc	r6, r26
    672e:	7b 1e       	adc	r7, r27
					if (prec>5)
    6730:	e9 89       	ldd	r30, Y+17	; 0x11
    6732:	fa 89       	ldd	r31, Y+18	; 0x12
    6734:	25 8d       	ldd	r18, Z+29	; 0x1d
    6736:	26 30       	cpi	r18, 0x06	; 6
    6738:	70 f1       	brcs	.+92     	; 0x6796 <_ZN7URTouch4readEv+0x204>
    673a:	2d 81       	ldd	r18, Y+5	; 0x05
    673c:	3e 81       	ldd	r19, Y+6	; 0x06
    673e:	4f 81       	ldd	r20, Y+7	; 0x07
    6740:	58 85       	ldd	r21, Y+8	; 0x08
    6742:	82 16       	cp	r8, r18
    6744:	93 06       	cpc	r9, r19
    6746:	a4 06       	cpc	r10, r20
    6748:	b5 06       	cpc	r11, r21
    674a:	20 f4       	brcc	.+8      	; 0x6754 <_ZN7URTouch4readEv+0x1c2>
    674c:	8d 82       	std	Y+5, r8	; 0x05
    674e:	9e 82       	std	Y+6, r9	; 0x06
    6750:	af 82       	std	Y+7, r10	; 0x07
    6752:	b8 86       	std	Y+8, r11	; 0x08
    6754:	c8 14       	cp	r12, r8
    6756:	d9 04       	cpc	r13, r9
    6758:	ea 04       	cpc	r14, r10
    675a:	fb 04       	cpc	r15, r11
    675c:	10 f4       	brcc	.+4      	; 0x6762 <_ZN7URTouch4readEv+0x1d0>
    675e:	75 01       	movw	r14, r10
    6760:	64 01       	movw	r12, r8
    6762:	29 85       	ldd	r18, Y+9	; 0x09
    6764:	3a 85       	ldd	r19, Y+10	; 0x0a
    6766:	4b 85       	ldd	r20, Y+11	; 0x0b
    6768:	5c 85       	ldd	r21, Y+12	; 0x0c
    676a:	82 17       	cp	r24, r18
    676c:	93 07       	cpc	r25, r19
    676e:	a4 07       	cpc	r26, r20
    6770:	b5 07       	cpc	r27, r21
    6772:	20 f4       	brcc	.+8      	; 0x677c <_ZN7URTouch4readEv+0x1ea>
    6774:	89 87       	std	Y+9, r24	; 0x09
    6776:	9a 87       	std	Y+10, r25	; 0x0a
    6778:	ab 87       	std	Y+11, r26	; 0x0b
    677a:	bc 87       	std	Y+12, r27	; 0x0c
    677c:	2d 85       	ldd	r18, Y+13	; 0x0d
    677e:	3e 85       	ldd	r19, Y+14	; 0x0e
    6780:	4f 85       	ldd	r20, Y+15	; 0x0f
    6782:	58 89       	ldd	r21, Y+16	; 0x10
    6784:	28 17       	cp	r18, r24
    6786:	39 07       	cpc	r19, r25
    6788:	4a 07       	cpc	r20, r26
    678a:	5b 07       	cpc	r21, r27
    678c:	20 f4       	brcc	.+8      	; 0x6796 <_ZN7URTouch4readEv+0x204>
    678e:	8d 87       	std	Y+13, r24	; 0x0d
    6790:	9e 87       	std	Y+14, r25	; 0x0e
    6792:	af 87       	std	Y+15, r26	; 0x0f
    6794:	b8 8b       	std	Y+16, r27	; 0x10
						if (temp_y<miny)
							miny=temp_y;
						if (temp_y>maxy)
							maxy=temp_y;
					}
					datacount++;
    6796:	0f 5f       	subi	r16, 0xFF	; 255
    6798:	1f 4f       	sbci	r17, 0xFF	; 255
	int datacount=0;

	cbi(P_CS, B_CS);                    

	pinMode(T_IRQ,  INPUT);
	for (int i=0; i<prec; i++)
    679a:	3f ef       	ldi	r19, 0xFF	; 255
    679c:	23 1a       	sub	r2, r19
    679e:	33 0a       	sbc	r3, r19
    67a0:	43 cf       	rjmp	.-378    	; 0x6628 <_ZN7URTouch4readEv+0x96>
    67a2:	53 01       	movw	r10, r6
    67a4:	42 01       	movw	r8, r4
    67a6:	49 80       	ldd	r4, Y+1	; 0x01
    67a8:	5a 80       	ldd	r5, Y+2	; 0x02
    67aa:	6b 80       	ldd	r6, Y+3	; 0x03
    67ac:	7c 80       	ldd	r7, Y+4	; 0x04
					datacount++;
				}
			}
		}
	}
	pinMode(T_IRQ,  OUTPUT);
    67ae:	61 e0       	ldi	r22, 0x01	; 1
    67b0:	57 96       	adiw	r26, 0x17	; 23
    67b2:	8c 91       	ld	r24, X
    67b4:	0e 94 a0 49 	call	0x9340	; 0x9340 <pinMode>

	if (prec>5)
    67b8:	e9 89       	ldd	r30, Y+17	; 0x11
    67ba:	fa 89       	ldd	r31, Y+18	; 0x12
    67bc:	85 8d       	ldd	r24, Z+29	; 0x1d
    67be:	86 30       	cpi	r24, 0x06	; 6
    67c0:	f0 f0       	brcs	.+60     	; 0x67fe <_ZN7URTouch4readEv+0x26c>
    67c2:	2d 81       	ldd	r18, Y+5	; 0x05
    67c4:	3e 81       	ldd	r19, Y+6	; 0x06
    67c6:	4f 81       	ldd	r20, Y+7	; 0x07
    67c8:	58 85       	ldd	r21, Y+8	; 0x08
    67ca:	c2 0e       	add	r12, r18
    67cc:	d3 1e       	adc	r13, r19
    67ce:	e4 1e       	adc	r14, r20
    67d0:	f5 1e       	adc	r15, r21
	{
		tx = tx-(minx+maxx);
    67d2:	4c 18       	sub	r4, r12
    67d4:	5d 08       	sbc	r5, r13
    67d6:	6e 08       	sbc	r6, r14
    67d8:	7f 08       	sbc	r7, r15
    67da:	89 85       	ldd	r24, Y+9	; 0x09
    67dc:	9a 85       	ldd	r25, Y+10	; 0x0a
    67de:	ab 85       	ldd	r26, Y+11	; 0x0b
    67e0:	bc 85       	ldd	r27, Y+12	; 0x0c
    67e2:	2d 85       	ldd	r18, Y+13	; 0x0d
    67e4:	3e 85       	ldd	r19, Y+14	; 0x0e
    67e6:	4f 85       	ldd	r20, Y+15	; 0x0f
    67e8:	58 89       	ldd	r21, Y+16	; 0x10
    67ea:	82 0f       	add	r24, r18
    67ec:	93 1f       	adc	r25, r19
    67ee:	a4 1f       	adc	r26, r20
    67f0:	b5 1f       	adc	r27, r21
		ty = ty-(miny+maxy);
    67f2:	88 1a       	sub	r8, r24
    67f4:	99 0a       	sbc	r9, r25
    67f6:	aa 0a       	sbc	r10, r26
    67f8:	bb 0a       	sbc	r11, r27
		datacount -= 2;
    67fa:	02 50       	subi	r16, 0x02	; 2
    67fc:	11 09       	sbc	r17, r1
	}

	sbi(P_CS, B_CS);                    
    67fe:	a9 89       	ldd	r26, Y+17	; 0x11
    6800:	ba 89       	ldd	r27, Y+18	; 0x12
    6802:	16 96       	adiw	r26, 0x06	; 6
    6804:	ed 91       	ld	r30, X+
    6806:	fc 91       	ld	r31, X
    6808:	17 97       	sbiw	r26, 0x07	; 7
    680a:	90 81       	ld	r25, Z
    680c:	1f 96       	adiw	r26, 0x0f	; 15
    680e:	8c 91       	ld	r24, X
    6810:	1f 97       	sbiw	r26, 0x0f	; 15
    6812:	89 2b       	or	r24, r25
    6814:	80 83       	st	Z, r24
	if ((datacount==(prec-2)) or (datacount==PREC_LOW))
    6816:	5d 96       	adiw	r26, 0x1d	; 29
    6818:	8c 91       	ld	r24, X
    681a:	90 e0       	ldi	r25, 0x00	; 0
    681c:	02 97       	sbiw	r24, 0x02	; 2
    681e:	08 17       	cp	r16, r24
    6820:	19 07       	cpc	r17, r25
    6822:	19 f0       	breq	.+6      	; 0x682a <_ZN7URTouch4readEv+0x298>
    6824:	01 30       	cpi	r16, 0x01	; 1
    6826:	11 05       	cpc	r17, r1
    6828:	a9 f5       	brne	.+106    	; 0x6894 <_ZN7URTouch4readEv+0x302>
	{
		if (orient == _default_orientation)
    682a:	e9 89       	ldd	r30, Y+17	; 0x11
    682c:	fa 89       	ldd	r31, Y+18	; 0x12
    682e:	84 8d       	ldd	r24, Z+28	; 0x1c
    6830:	90 e0       	ldi	r25, 0x00	; 0
    6832:	a0 e0       	ldi	r26, 0x00	; 0
    6834:	b0 e0       	ldi	r27, 0x00	; 0
    6836:	40 8d       	ldd	r20, Z+24	; 0x18
    6838:	51 8d       	ldd	r21, Z+25	; 0x19
    683a:	62 8d       	ldd	r22, Z+26	; 0x1a
    683c:	73 8d       	ldd	r23, Z+27	; 0x1b
    683e:	68 01       	movw	r12, r16
    6840:	11 0f       	add	r17, r17
    6842:	ee 08       	sbc	r14, r14
    6844:	ff 08       	sbc	r15, r15
    6846:	84 17       	cp	r24, r20
    6848:	95 07       	cpc	r25, r21
    684a:	a6 07       	cpc	r26, r22
    684c:	b7 07       	cpc	r27, r23
    684e:	69 f4       	brne	.+26     	; 0x686a <_ZN7URTouch4readEv+0x2d8>
		{
			TP_X=ty/datacount;
    6850:	c5 01       	movw	r24, r10
    6852:	b4 01       	movw	r22, r8
    6854:	a7 01       	movw	r20, r14
    6856:	96 01       	movw	r18, r12
    6858:	0e 94 1a 4b 	call	0x9634	; 0x9634 <__udivmodsi4>
    685c:	a9 89       	ldd	r26, Y+17	; 0x11
    685e:	ba 89       	ldd	r27, Y+18	; 0x12
    6860:	2d 93       	st	X+, r18
    6862:	3c 93       	st	X, r19
			TP_Y=tx/datacount;
    6864:	c3 01       	movw	r24, r6
    6866:	b2 01       	movw	r22, r4
    6868:	0c c0       	rjmp	.+24     	; 0x6882 <_ZN7URTouch4readEv+0x2f0>
		}
		else
		{
			TP_X=tx/datacount;
    686a:	c3 01       	movw	r24, r6
    686c:	b2 01       	movw	r22, r4
    686e:	a7 01       	movw	r20, r14
    6870:	96 01       	movw	r18, r12
    6872:	0e 94 1a 4b 	call	0x9634	; 0x9634 <__udivmodsi4>
    6876:	a9 89       	ldd	r26, Y+17	; 0x11
    6878:	ba 89       	ldd	r27, Y+18	; 0x12
    687a:	2d 93       	st	X+, r18
    687c:	3c 93       	st	X, r19
			TP_Y=ty/datacount;
    687e:	c5 01       	movw	r24, r10
    6880:	b4 01       	movw	r22, r8
    6882:	a7 01       	movw	r20, r14
    6884:	96 01       	movw	r18, r12
    6886:	0e 94 1a 4b 	call	0x9634	; 0x9634 <__udivmodsi4>
    688a:	e9 89       	ldd	r30, Y+17	; 0x11
    688c:	fa 89       	ldd	r31, Y+18	; 0x12
    688e:	33 83       	std	Z+3, r19	; 0x03
    6890:	22 83       	std	Z+2, r18	; 0x02
    6892:	0b c0       	rjmp	.+22     	; 0x68aa <_ZN7URTouch4readEv+0x318>
		}
	}
	else
	{
		TP_X=-1;
    6894:	8f ef       	ldi	r24, 0xFF	; 255
    6896:	9f ef       	ldi	r25, 0xFF	; 255
    6898:	a9 89       	ldd	r26, Y+17	; 0x11
    689a:	ba 89       	ldd	r27, Y+18	; 0x12
    689c:	11 96       	adiw	r26, 0x01	; 1
    689e:	9c 93       	st	X, r25
    68a0:	8e 93       	st	-X, r24
		TP_Y=-1;
    68a2:	13 96       	adiw	r26, 0x03	; 3
    68a4:	9c 93       	st	X, r25
    68a6:	8e 93       	st	-X, r24
    68a8:	12 97       	sbiw	r26, 0x02	; 2
	}
}
    68aa:	62 96       	adiw	r28, 0x12	; 18
    68ac:	0f b6       	in	r0, 0x3f	; 63
    68ae:	f8 94       	cli
    68b0:	de bf       	out	0x3e, r29	; 62
    68b2:	0f be       	out	0x3f, r0	; 63
    68b4:	cd bf       	out	0x3d, r28	; 61
    68b6:	df 91       	pop	r29
    68b8:	cf 91       	pop	r28
    68ba:	1f 91       	pop	r17
    68bc:	0f 91       	pop	r16
    68be:	ff 90       	pop	r15
    68c0:	ef 90       	pop	r14
    68c2:	df 90       	pop	r13
    68c4:	cf 90       	pop	r12
    68c6:	bf 90       	pop	r11
    68c8:	af 90       	pop	r10
    68ca:	9f 90       	pop	r9
    68cc:	8f 90       	pop	r8
    68ce:	7f 90       	pop	r7
    68d0:	6f 90       	pop	r6
    68d2:	5f 90       	pop	r5
    68d4:	4f 90       	pop	r4
    68d6:	3f 90       	pop	r3
    68d8:	2f 90       	pop	r2
    68da:	08 95       	ret

000068dc <_ZN7URTouch13dataAvailableEv>:

bool URTouch::dataAvailable()
{
    68dc:	1f 93       	push	r17
    68de:	cf 93       	push	r28
    68e0:	df 93       	push	r29
    68e2:	ec 01       	movw	r28, r24
	bool avail;
	pinMode(T_IRQ,  INPUT);
    68e4:	60 e0       	ldi	r22, 0x00	; 0
    68e6:	8f 89       	ldd	r24, Y+23	; 0x17
    68e8:	0e 94 a0 49 	call	0x9340	; 0x9340 <pinMode>
	avail = !(rbi(P_IRQ, B_IRQ));
    68ec:	ec 85       	ldd	r30, Y+12	; 0x0c
    68ee:	fd 85       	ldd	r31, Y+13	; 0x0d
    68f0:	90 81       	ld	r25, Z
    68f2:	8a 89       	ldd	r24, Y+18	; 0x12
    68f4:	98 23       	and	r25, r24
    68f6:	11 e0       	ldi	r17, 0x01	; 1
    68f8:	09 f0       	breq	.+2      	; 0x68fc <_ZN7URTouch13dataAvailableEv+0x20>
    68fa:	10 e0       	ldi	r17, 0x00	; 0
	pinMode(T_IRQ,  OUTPUT);
    68fc:	61 e0       	ldi	r22, 0x01	; 1
    68fe:	8f 89       	ldd	r24, Y+23	; 0x17
    6900:	0e 94 a0 49 	call	0x9340	; 0x9340 <pinMode>
	return avail;
}
    6904:	81 2f       	mov	r24, r17
    6906:	df 91       	pop	r29
    6908:	cf 91       	pop	r28
    690a:	1f 91       	pop	r17
    690c:	08 95       	ret

0000690e <_ZN7URTouch4getXEv>:

int16_t URTouch::getX()
{
    690e:	4f 92       	push	r4
    6910:	5f 92       	push	r5
    6912:	6f 92       	push	r6
    6914:	7f 92       	push	r7
    6916:	8f 92       	push	r8
    6918:	9f 92       	push	r9
    691a:	af 92       	push	r10
    691c:	bf 92       	push	r11
    691e:	cf 92       	push	r12
    6920:	df 92       	push	r13
    6922:	ef 92       	push	r14
    6924:	ff 92       	push	r15
    6926:	0f 93       	push	r16
    6928:	1f 93       	push	r17
    692a:	fc 01       	movw	r30, r24
	long c;

	if ((TP_X==-1) or (TP_Y==-1))
    692c:	40 81       	ld	r20, Z
    692e:	51 81       	ldd	r21, Z+1	; 0x01
    6930:	4f 3f       	cpi	r20, 0xFF	; 255
    6932:	2f ef       	ldi	r18, 0xFF	; 255
    6934:	52 07       	cpc	r21, r18
    6936:	09 f4       	brne	.+2      	; 0x693a <_ZN7URTouch4getXEv+0x2c>
    6938:	a1 c0       	rjmp	.+322    	; 0x6a7c <_ZN7URTouch4getXEv+0x16e>
    693a:	82 81       	ldd	r24, Z+2	; 0x02
    693c:	93 81       	ldd	r25, Z+3	; 0x03
    693e:	8f 3f       	cpi	r24, 0xFF	; 255
    6940:	af ef       	ldi	r26, 0xFF	; 255
    6942:	9a 07       	cpc	r25, r26
    6944:	09 f4       	brne	.+2      	; 0x6948 <_ZN7URTouch4getXEv+0x3a>
    6946:	9c c0       	rjmp	.+312    	; 0x6a80 <_ZN7URTouch4getXEv+0x172>
		return -1;
	if (orient == _default_orientation)
    6948:	80 8d       	ldd	r24, Z+24	; 0x18
    694a:	91 8d       	ldd	r25, Z+25	; 0x19
    694c:	a2 8d       	ldd	r26, Z+26	; 0x1a
    694e:	b3 8d       	ldd	r27, Z+27	; 0x1b
    6950:	24 8d       	ldd	r18, Z+28	; 0x1c
    6952:	82 2e       	mov	r8, r18
    6954:	91 2c       	mov	r9, r1
    6956:	a1 2c       	mov	r10, r1
    6958:	b1 2c       	mov	r11, r1
    695a:	05 2e       	mov	r0, r21
    695c:	00 0c       	add	r0, r0
    695e:	66 0b       	sbc	r22, r22
    6960:	77 0b       	sbc	r23, r23
    6962:	e3 a0       	ldd	r14, Z+35	; 0x23
    6964:	f4 a0       	ldd	r15, Z+36	; 0x24
    6966:	05 a1       	ldd	r16, Z+37	; 0x25
    6968:	16 a1       	ldd	r17, Z+38	; 0x26
    696a:	88 16       	cp	r8, r24
    696c:	99 06       	cpc	r9, r25
    696e:	aa 06       	cpc	r10, r26
    6970:	bb 06       	cpc	r11, r27
    6972:	61 f5       	brne	.+88     	; 0x69cc <_ZN7URTouch4getXEv+0xbe>
	{
		c = long(long(TP_X - touch_x_left) * (disp_x_size)) / long(touch_x_right - touch_x_left);
    6974:	43 a4       	ldd	r4, Z+43	; 0x2b
    6976:	54 a4       	ldd	r5, Z+44	; 0x2c
    6978:	65 a4       	ldd	r6, Z+45	; 0x2d
    697a:	76 a4       	ldd	r7, Z+46	; 0x2e
    697c:	87 8c       	ldd	r8, Z+31	; 0x1f
    697e:	90 a0       	ldd	r9, Z+32	; 0x20
    6980:	a1 a0       	ldd	r10, Z+33	; 0x21
    6982:	b2 a0       	ldd	r11, Z+34	; 0x22
    6984:	9a 01       	movw	r18, r20
    6986:	ab 01       	movw	r20, r22
    6988:	24 19       	sub	r18, r4
    698a:	35 09       	sbc	r19, r5
    698c:	46 09       	sbc	r20, r6
    698e:	57 09       	sbc	r21, r7
    6990:	c5 01       	movw	r24, r10
    6992:	b4 01       	movw	r22, r8
    6994:	0e 94 d8 4a 	call	0x95b0	; 0x95b0 <__mulsi3>
    6998:	27 a5       	ldd	r18, Z+47	; 0x2f
    699a:	30 a9       	ldd	r19, Z+48	; 0x30
    699c:	41 a9       	ldd	r20, Z+49	; 0x31
    699e:	52 a9       	ldd	r21, Z+50	; 0x32
    69a0:	24 19       	sub	r18, r4
    69a2:	35 09       	sbc	r19, r5
    69a4:	46 09       	sbc	r20, r6
    69a6:	57 09       	sbc	r21, r7
    69a8:	0e 94 3c 4b 	call	0x9678	; 0x9678 <__divmodsi4>
    69ac:	57 ff       	sbrs	r21, 7
    69ae:	03 c0       	rjmp	.+6      	; 0x69b6 <_ZN7URTouch4getXEv+0xa8>
    69b0:	20 e0       	ldi	r18, 0x00	; 0
    69b2:	30 e0       	ldi	r19, 0x00	; 0
    69b4:	a9 01       	movw	r20, r18
    69b6:	ca 01       	movw	r24, r20
    69b8:	b9 01       	movw	r22, r18
    69ba:	82 16       	cp	r8, r18
    69bc:	93 06       	cpc	r9, r19
    69be:	a4 06       	cpc	r10, r20
    69c0:	b5 06       	cpc	r11, r21
    69c2:	0c f0       	brlt	.+2      	; 0x69c6 <_ZN7URTouch4getXEv+0xb8>
    69c4:	4a c0       	rjmp	.+148    	; 0x6a5a <_ZN7URTouch4getXEv+0x14c>
    69c6:	c5 01       	movw	r24, r10
    69c8:	b4 01       	movw	r22, r8
    69ca:	47 c0       	rjmp	.+142    	; 0x6a5a <_ZN7URTouch4getXEv+0x14c>
    69cc:	83 a8       	ldd	r8, Z+51	; 0x33
    69ce:	94 a8       	ldd	r9, Z+52	; 0x34
    69d0:	a5 a8       	ldd	r10, Z+53	; 0x35
    69d2:	b6 a8       	ldd	r11, Z+54	; 0x36
    69d4:	47 a8       	ldd	r4, Z+55	; 0x37
    69d6:	50 ac       	ldd	r5, Z+56	; 0x38
    69d8:	61 ac       	ldd	r6, Z+57	; 0x39
    69da:	72 ac       	ldd	r7, Z+58	; 0x3a
		if (c>disp_x_size)
			c = disp_x_size;
	}
	else
	{
		if (_default_orientation == PORTRAIT)
    69dc:	89 2b       	or	r24, r25
    69de:	8a 2b       	or	r24, r26
    69e0:	8b 2b       	or	r24, r27
    69e2:	c9 f4       	brne	.+50     	; 0x6a16 <_ZN7URTouch4getXEv+0x108>
			c = long(long(TP_X - touch_y_top) * (-disp_y_size)) / long(touch_y_bottom - touch_y_top) + long(disp_y_size);
    69e4:	d5 01       	movw	r26, r10
    69e6:	c4 01       	movw	r24, r8
    69e8:	84 1b       	sub	r24, r20
    69ea:	95 0b       	sbc	r25, r21
    69ec:	a6 0b       	sbc	r26, r22
    69ee:	b7 0b       	sbc	r27, r23
    69f0:	9c 01       	movw	r18, r24
    69f2:	ad 01       	movw	r20, r26
    69f4:	c8 01       	movw	r24, r16
    69f6:	b7 01       	movw	r22, r14
    69f8:	0e 94 d8 4a 	call	0x95b0	; 0x95b0 <__mulsi3>
    69fc:	a3 01       	movw	r20, r6
    69fe:	92 01       	movw	r18, r4
    6a00:	28 19       	sub	r18, r8
    6a02:	39 09       	sbc	r19, r9
    6a04:	4a 09       	sbc	r20, r10
    6a06:	5b 09       	sbc	r21, r11
    6a08:	0e 94 3c 4b 	call	0x9678	; 0x9678 <__divmodsi4>
    6a0c:	2e 0d       	add	r18, r14
    6a0e:	3f 1d       	adc	r19, r15
    6a10:	40 1f       	adc	r20, r16
    6a12:	51 1f       	adc	r21, r17
    6a14:	12 c0       	rjmp	.+36     	; 0x6a3a <_ZN7URTouch4getXEv+0x12c>
		else
			c = long(long(TP_X - touch_y_top) * (disp_y_size)) / long(touch_y_bottom - touch_y_top);
    6a16:	9a 01       	movw	r18, r20
    6a18:	ab 01       	movw	r20, r22
    6a1a:	28 19       	sub	r18, r8
    6a1c:	39 09       	sbc	r19, r9
    6a1e:	4a 09       	sbc	r20, r10
    6a20:	5b 09       	sbc	r21, r11
    6a22:	c8 01       	movw	r24, r16
    6a24:	b7 01       	movw	r22, r14
    6a26:	0e 94 d8 4a 	call	0x95b0	; 0x95b0 <__mulsi3>
    6a2a:	a3 01       	movw	r20, r6
    6a2c:	92 01       	movw	r18, r4
    6a2e:	28 19       	sub	r18, r8
    6a30:	39 09       	sbc	r19, r9
    6a32:	4a 09       	sbc	r20, r10
    6a34:	5b 09       	sbc	r21, r11
    6a36:	0e 94 3c 4b 	call	0x9678	; 0x9678 <__divmodsi4>
    6a3a:	da 01       	movw	r26, r20
    6a3c:	c9 01       	movw	r24, r18
    6a3e:	57 ff       	sbrs	r21, 7
    6a40:	03 c0       	rjmp	.+6      	; 0x6a48 <_ZN7URTouch4getXEv+0x13a>
    6a42:	80 e0       	ldi	r24, 0x00	; 0
    6a44:	90 e0       	ldi	r25, 0x00	; 0
    6a46:	dc 01       	movw	r26, r24
    6a48:	bc 01       	movw	r22, r24
    6a4a:	cd 01       	movw	r24, r26
    6a4c:	e6 16       	cp	r14, r22
    6a4e:	f7 06       	cpc	r15, r23
    6a50:	08 07       	cpc	r16, r24
    6a52:	19 07       	cpc	r17, r25
    6a54:	14 f4       	brge	.+4      	; 0x6a5a <_ZN7URTouch4getXEv+0x14c>
    6a56:	c8 01       	movw	r24, r16
    6a58:	b7 01       	movw	r22, r14
		if (c<0)
			c = 0;
		if (c>disp_y_size)
			c = disp_y_size;
	}
	c=map(c,0,disp_y_size,disp_y_size,0);
    6a5a:	1f 92       	push	r1
    6a5c:	1f 92       	push	r1
    6a5e:	1f 92       	push	r1
    6a60:	1f 92       	push	r1
    6a62:	57 01       	movw	r10, r14
    6a64:	68 01       	movw	r12, r16
    6a66:	20 e0       	ldi	r18, 0x00	; 0
    6a68:	30 e0       	ldi	r19, 0x00	; 0
    6a6a:	a9 01       	movw	r20, r18
    6a6c:	0e 94 0b 4a 	call	0x9416	; 0x9416 <_Z3maplllll>
	return c;
    6a70:	cb 01       	movw	r24, r22
    6a72:	0f 90       	pop	r0
    6a74:	0f 90       	pop	r0
    6a76:	0f 90       	pop	r0
    6a78:	0f 90       	pop	r0
    6a7a:	02 c0       	rjmp	.+4      	; 0x6a80 <_ZN7URTouch4getXEv+0x172>
int16_t URTouch::getX()
{
	long c;

	if ((TP_X==-1) or (TP_Y==-1))
		return -1;
    6a7c:	8f ef       	ldi	r24, 0xFF	; 255
    6a7e:	9f ef       	ldi	r25, 0xFF	; 255
		if (c>disp_y_size)
			c = disp_y_size;
	}
	c=map(c,0,disp_y_size,disp_y_size,0);
	return c;
}
    6a80:	1f 91       	pop	r17
    6a82:	0f 91       	pop	r16
    6a84:	ff 90       	pop	r15
    6a86:	ef 90       	pop	r14
    6a88:	df 90       	pop	r13
    6a8a:	cf 90       	pop	r12
    6a8c:	bf 90       	pop	r11
    6a8e:	af 90       	pop	r10
    6a90:	9f 90       	pop	r9
    6a92:	8f 90       	pop	r8
    6a94:	7f 90       	pop	r7
    6a96:	6f 90       	pop	r6
    6a98:	5f 90       	pop	r5
    6a9a:	4f 90       	pop	r4
    6a9c:	08 95       	ret

00006a9e <_ZN7URTouch4getYEv>:

int16_t URTouch::getY()
{
    6a9e:	4f 92       	push	r4
    6aa0:	5f 92       	push	r5
    6aa2:	6f 92       	push	r6
    6aa4:	7f 92       	push	r7
    6aa6:	8f 92       	push	r8
    6aa8:	9f 92       	push	r9
    6aaa:	af 92       	push	r10
    6aac:	bf 92       	push	r11
    6aae:	cf 92       	push	r12
    6ab0:	df 92       	push	r13
    6ab2:	ef 92       	push	r14
    6ab4:	ff 92       	push	r15
    6ab6:	0f 93       	push	r16
    6ab8:	1f 93       	push	r17
    6aba:	fc 01       	movw	r30, r24
	int c;

	if ((TP_X==-1) or (TP_Y==-1))
    6abc:	60 81       	ld	r22, Z
    6abe:	71 81       	ldd	r23, Z+1	; 0x01
    6ac0:	6f 3f       	cpi	r22, 0xFF	; 255
    6ac2:	8f ef       	ldi	r24, 0xFF	; 255
    6ac4:	78 07       	cpc	r23, r24
    6ac6:	09 f4       	brne	.+2      	; 0x6aca <_ZN7URTouch4getYEv+0x2c>
    6ac8:	a0 c0       	rjmp	.+320    	; 0x6c0a <_ZN7URTouch4getYEv+0x16c>
    6aca:	62 81       	ldd	r22, Z+2	; 0x02
    6acc:	73 81       	ldd	r23, Z+3	; 0x03
    6ace:	6f 3f       	cpi	r22, 0xFF	; 255
    6ad0:	9f ef       	ldi	r25, 0xFF	; 255
    6ad2:	79 07       	cpc	r23, r25
    6ad4:	09 f4       	brne	.+2      	; 0x6ad8 <_ZN7URTouch4getYEv+0x3a>
    6ad6:	99 c0       	rjmp	.+306    	; 0x6c0a <_ZN7URTouch4getYEv+0x16c>
		return -1;
	if (orient == _default_orientation)
    6ad8:	80 8d       	ldd	r24, Z+24	; 0x18
    6ada:	91 8d       	ldd	r25, Z+25	; 0x19
    6adc:	a2 8d       	ldd	r26, Z+26	; 0x1a
    6ade:	b3 8d       	ldd	r27, Z+27	; 0x1b
    6ae0:	84 8c       	ldd	r8, Z+28	; 0x1c
    6ae2:	91 2c       	mov	r9, r1
    6ae4:	a1 2c       	mov	r10, r1
    6ae6:	b1 2c       	mov	r11, r1
    6ae8:	ab 01       	movw	r20, r22
    6aea:	77 0f       	add	r23, r23
    6aec:	66 0b       	sbc	r22, r22
    6aee:	77 0b       	sbc	r23, r23
    6af0:	e7 8c       	ldd	r14, Z+31	; 0x1f
    6af2:	f0 a0       	ldd	r15, Z+32	; 0x20
    6af4:	01 a1       	ldd	r16, Z+33	; 0x21
    6af6:	12 a1       	ldd	r17, Z+34	; 0x22
    6af8:	88 16       	cp	r8, r24
    6afa:	99 06       	cpc	r9, r25
    6afc:	aa 06       	cpc	r10, r26
    6afe:	bb 06       	cpc	r11, r27
    6b00:	69 f5       	brne	.+90     	; 0x6b5c <_ZN7URTouch4getYEv+0xbe>
	{
		c = long(long(TP_Y - touch_y_top) * (disp_y_size)) / long(touch_y_bottom - touch_y_top);
    6b02:	43 a8       	ldd	r4, Z+51	; 0x33
    6b04:	54 a8       	ldd	r5, Z+52	; 0x34
    6b06:	65 a8       	ldd	r6, Z+53	; 0x35
    6b08:	76 a8       	ldd	r7, Z+54	; 0x36
    6b0a:	83 a0       	ldd	r8, Z+35	; 0x23
    6b0c:	94 a0       	ldd	r9, Z+36	; 0x24
    6b0e:	a5 a0       	ldd	r10, Z+37	; 0x25
    6b10:	b6 a0       	ldd	r11, Z+38	; 0x26
    6b12:	9a 01       	movw	r18, r20
    6b14:	ab 01       	movw	r20, r22
    6b16:	24 19       	sub	r18, r4
    6b18:	35 09       	sbc	r19, r5
    6b1a:	46 09       	sbc	r20, r6
    6b1c:	57 09       	sbc	r21, r7
    6b1e:	c5 01       	movw	r24, r10
    6b20:	b4 01       	movw	r22, r8
    6b22:	0e 94 d8 4a 	call	0x95b0	; 0x95b0 <__mulsi3>
    6b26:	27 a9       	ldd	r18, Z+55	; 0x37
    6b28:	30 ad       	ldd	r19, Z+56	; 0x38
    6b2a:	41 ad       	ldd	r20, Z+57	; 0x39
    6b2c:	52 ad       	ldd	r21, Z+58	; 0x3a
    6b2e:	24 19       	sub	r18, r4
    6b30:	35 09       	sbc	r19, r5
    6b32:	46 09       	sbc	r20, r6
    6b34:	57 09       	sbc	r21, r7
    6b36:	0e 94 3c 4b 	call	0x9678	; 0x9678 <__divmodsi4>
    6b3a:	37 ff       	sbrs	r19, 7
    6b3c:	02 c0       	rjmp	.+4      	; 0x6b42 <_ZN7URTouch4getYEv+0xa4>
    6b3e:	20 e0       	ldi	r18, 0x00	; 0
    6b40:	30 e0       	ldi	r19, 0x00	; 0
		if (c<0)
			c = 0;
		if (c>disp_y_size)
    6b42:	c9 01       	movw	r24, r18
    6b44:	03 2e       	mov	r0, r19
    6b46:	00 0c       	add	r0, r0
    6b48:	aa 0b       	sbc	r26, r26
    6b4a:	bb 0b       	sbc	r27, r27
    6b4c:	88 16       	cp	r8, r24
    6b4e:	99 06       	cpc	r9, r25
    6b50:	aa 06       	cpc	r10, r26
    6b52:	bb 06       	cpc	r11, r27
    6b54:	0c f0       	brlt	.+2      	; 0x6b58 <_ZN7URTouch4getYEv+0xba>
    6b56:	46 c0       	rjmp	.+140    	; 0x6be4 <_ZN7URTouch4getYEv+0x146>
			c = disp_y_size;
    6b58:	94 01       	movw	r18, r8
    6b5a:	44 c0       	rjmp	.+136    	; 0x6be4 <_ZN7URTouch4getYEv+0x146>
    6b5c:	83 a4       	ldd	r8, Z+43	; 0x2b
    6b5e:	94 a4       	ldd	r9, Z+44	; 0x2c
    6b60:	a5 a4       	ldd	r10, Z+45	; 0x2d
    6b62:	b6 a4       	ldd	r11, Z+46	; 0x2e
    6b64:	47 a4       	ldd	r4, Z+47	; 0x2f
    6b66:	50 a8       	ldd	r5, Z+48	; 0x30
    6b68:	61 a8       	ldd	r6, Z+49	; 0x31
    6b6a:	72 a8       	ldd	r7, Z+50	; 0x32
	}
	else
	{
		if (_default_orientation == PORTRAIT)
    6b6c:	89 2b       	or	r24, r25
    6b6e:	8a 2b       	or	r24, r26
    6b70:	8b 2b       	or	r24, r27
    6b72:	99 f4       	brne	.+38     	; 0x6b9a <_ZN7URTouch4getYEv+0xfc>
			c = long(long(TP_Y - touch_x_left) * (disp_x_size)) / long(touch_x_right - touch_x_left);
    6b74:	9a 01       	movw	r18, r20
    6b76:	ab 01       	movw	r20, r22
    6b78:	28 19       	sub	r18, r8
    6b7a:	39 09       	sbc	r19, r9
    6b7c:	4a 09       	sbc	r20, r10
    6b7e:	5b 09       	sbc	r21, r11
    6b80:	c8 01       	movw	r24, r16
    6b82:	b7 01       	movw	r22, r14
    6b84:	0e 94 d8 4a 	call	0x95b0	; 0x95b0 <__mulsi3>
    6b88:	a3 01       	movw	r20, r6
    6b8a:	92 01       	movw	r18, r4
    6b8c:	28 19       	sub	r18, r8
    6b8e:	39 09       	sbc	r19, r9
    6b90:	4a 09       	sbc	r20, r10
    6b92:	5b 09       	sbc	r21, r11
    6b94:	0e 94 3c 4b 	call	0x9678	; 0x9678 <__divmodsi4>
    6b98:	16 c0       	rjmp	.+44     	; 0x6bc6 <_ZN7URTouch4getYEv+0x128>
		else
			c = long(long(TP_Y - touch_x_left) * (-disp_x_size)) / long(touch_x_right - touch_x_left) + long(disp_x_size);
    6b9a:	d5 01       	movw	r26, r10
    6b9c:	c4 01       	movw	r24, r8
    6b9e:	84 1b       	sub	r24, r20
    6ba0:	95 0b       	sbc	r25, r21
    6ba2:	a6 0b       	sbc	r26, r22
    6ba4:	b7 0b       	sbc	r27, r23
    6ba6:	9c 01       	movw	r18, r24
    6ba8:	ad 01       	movw	r20, r26
    6baa:	c8 01       	movw	r24, r16
    6bac:	b7 01       	movw	r22, r14
    6bae:	0e 94 d8 4a 	call	0x95b0	; 0x95b0 <__mulsi3>
    6bb2:	a3 01       	movw	r20, r6
    6bb4:	92 01       	movw	r18, r4
    6bb6:	28 19       	sub	r18, r8
    6bb8:	39 09       	sbc	r19, r9
    6bba:	4a 09       	sbc	r20, r10
    6bbc:	5b 09       	sbc	r21, r11
    6bbe:	0e 94 3c 4b 	call	0x9678	; 0x9678 <__divmodsi4>
    6bc2:	2e 0d       	add	r18, r14
    6bc4:	3f 1d       	adc	r19, r15
    6bc6:	37 ff       	sbrs	r19, 7
    6bc8:	02 c0       	rjmp	.+4      	; 0x6bce <_ZN7URTouch4getYEv+0x130>
    6bca:	20 e0       	ldi	r18, 0x00	; 0
    6bcc:	30 e0       	ldi	r19, 0x00	; 0
		if (c<0)
			c = 0;
		if (c>disp_x_size)
    6bce:	c9 01       	movw	r24, r18
    6bd0:	03 2e       	mov	r0, r19
    6bd2:	00 0c       	add	r0, r0
    6bd4:	aa 0b       	sbc	r26, r26
    6bd6:	bb 0b       	sbc	r27, r27
    6bd8:	e8 16       	cp	r14, r24
    6bda:	f9 06       	cpc	r15, r25
    6bdc:	0a 07       	cpc	r16, r26
    6bde:	1b 07       	cpc	r17, r27
    6be0:	0c f4       	brge	.+2      	; 0x6be4 <_ZN7URTouch4getYEv+0x146>
			c = disp_x_size;
    6be2:	97 01       	movw	r18, r14
	}
	c=map(c,0,disp_x_size,disp_x_size,0);
    6be4:	b9 01       	movw	r22, r18
    6be6:	33 0f       	add	r19, r19
    6be8:	88 0b       	sbc	r24, r24
    6bea:	99 0b       	sbc	r25, r25
    6bec:	1f 92       	push	r1
    6bee:	1f 92       	push	r1
    6bf0:	1f 92       	push	r1
    6bf2:	1f 92       	push	r1
    6bf4:	57 01       	movw	r10, r14
    6bf6:	68 01       	movw	r12, r16
    6bf8:	20 e0       	ldi	r18, 0x00	; 0
    6bfa:	30 e0       	ldi	r19, 0x00	; 0
    6bfc:	a9 01       	movw	r20, r18
    6bfe:	0e 94 0b 4a 	call	0x9416	; 0x9416 <_Z3maplllll>
	return c;
    6c02:	0f 90       	pop	r0
    6c04:	0f 90       	pop	r0
    6c06:	0f 90       	pop	r0
    6c08:	0f 90       	pop	r0
}
    6c0a:	cb 01       	movw	r24, r22
    6c0c:	1f 91       	pop	r17
    6c0e:	0f 91       	pop	r16
    6c10:	ff 90       	pop	r15
    6c12:	ef 90       	pop	r14
    6c14:	df 90       	pop	r13
    6c16:	cf 90       	pop	r12
    6c18:	bf 90       	pop	r11
    6c1a:	af 90       	pop	r10
    6c1c:	9f 90       	pop	r9
    6c1e:	8f 90       	pop	r8
    6c20:	7f 90       	pop	r7
    6c22:	6f 90       	pop	r6
    6c24:	5f 90       	pop	r5
    6c26:	4f 90       	pop	r4
    6c28:	08 95       	ret

00006c2a <_ZN7URTouch12setPrecisionEh>:

void URTouch::setPrecision(byte precision)
{
    6c2a:	fc 01       	movw	r30, r24
	switch (precision)
    6c2c:	62 30       	cpi	r22, 0x02	; 2
    6c2e:	69 f0       	breq	.+26     	; 0x6c4a <_ZN7URTouch12setPrecisionEh+0x20>
    6c30:	20 f4       	brcc	.+8      	; 0x6c3a <_ZN7URTouch12setPrecisionEh+0x10>
    6c32:	61 30       	cpi	r22, 0x01	; 1
    6c34:	51 f4       	brne	.+20     	; 0x6c4a <_ZN7URTouch12setPrecisionEh+0x20>
	{
		case PREC_LOW:
			prec=1;		// DO NOT CHANGE!
    6c36:	65 8f       	std	Z+29, r22	; 0x1d
			break;
    6c38:	08 95       	ret
	return c;
}

void URTouch::setPrecision(byte precision)
{
	switch (precision)
    6c3a:	63 30       	cpi	r22, 0x03	; 3
    6c3c:	21 f0       	breq	.+8      	; 0x6c46 <_ZN7URTouch12setPrecisionEh+0x1c>
    6c3e:	64 30       	cpi	r22, 0x04	; 4
    6c40:	21 f4       	brne	.+8      	; 0x6c4a <_ZN7URTouch12setPrecisionEh+0x20>
			break;
		case PREC_HI:
			prec=27;	// Iterations + 2
			break;
		case PREC_EXTREME:
			prec=102;	// Iterations + 2
    6c42:	86 e6       	ldi	r24, 0x66	; 102
    6c44:	03 c0       	rjmp	.+6      	; 0x6c4c <_ZN7URTouch12setPrecisionEh+0x22>
			break;
		case PREC_MEDIUM:
			prec=12;	// Iterations + 2
			break;
		case PREC_HI:
			prec=27;	// Iterations + 2
    6c46:	8b e1       	ldi	r24, 0x1B	; 27
    6c48:	01 c0       	rjmp	.+2      	; 0x6c4c <_ZN7URTouch12setPrecisionEh+0x22>
			break;
		case PREC_EXTREME:
			prec=102;	// Iterations + 2
			break;
		default:
			prec=12;	// Iterations + 2
    6c4a:	8c e0       	ldi	r24, 0x0C	; 12
    6c4c:	85 8f       	std	Z+29, r24	; 0x1d
    6c4e:	08 95       	ret

00006c50 <_ZN4UTFT12LCD_Writ_BusEcch>:
				if ((st[i]==' ') || (st[i]=='-'))
					st[i]=filler;
		}
		else
		{
			for (int i=0; i<sizeof(st); i++)
    6c50:	fc 01       	movw	r30, r24
    6c52:	28 30       	cpi	r18, 0x08	; 8
    6c54:	09 f4       	brne	.+2      	; 0x6c58 <_ZN4UTFT12LCD_Writ_BusEcch+0x8>
    6c56:	ee c0       	rjmp	.+476    	; 0x6e34 <_ZN4UTFT12LCD_Writ_BusEcch+0x1e4>
    6c58:	18 f4       	brcc	.+6      	; 0x6c60 <_ZN4UTFT12LCD_Writ_BusEcch+0x10>
    6c5a:	21 30       	cpi	r18, 0x01	; 1
    6c5c:	41 f0       	breq	.+16     	; 0x6c6e <_ZN4UTFT12LCD_Writ_BusEcch+0x1e>
    6c5e:	08 95       	ret
    6c60:	20 31       	cpi	r18, 0x10	; 16
    6c62:	09 f4       	brne	.+2      	; 0x6c66 <_ZN4UTFT12LCD_Writ_BusEcch+0x16>
    6c64:	f7 c0       	rjmp	.+494    	; 0x6e54 <_ZN4UTFT12LCD_Writ_BusEcch+0x204>
    6c66:	21 31       	cpi	r18, 0x11	; 17
    6c68:	09 f4       	brne	.+2      	; 0x6c6c <_ZN4UTFT12LCD_Writ_BusEcch+0x1c>
    6c6a:	02 c1       	rjmp	.+516    	; 0x6e70 <_ZN4UTFT12LCD_Writ_BusEcch+0x220>
    6c6c:	08 95       	ret
    6c6e:	87 85       	ldd	r24, Z+15	; 0x0f
    6c70:	84 30       	cpi	r24, 0x04	; 4
    6c72:	c1 f4       	brne	.+48     	; 0x6ca4 <_ZN4UTFT12LCD_Writ_BusEcch+0x54>
    6c74:	a0 8d       	ldd	r26, Z+24	; 0x18
    6c76:	b1 8d       	ldd	r27, Z+25	; 0x19
    6c78:	82 a1       	ldd	r24, Z+34	; 0x22
    6c7a:	9c 91       	ld	r25, X
    6c7c:	61 30       	cpi	r22, 0x01	; 1
    6c7e:	11 f4       	brne	.+4      	; 0x6c84 <_ZN4UTFT12LCD_Writ_BusEcch+0x34>
    6c80:	89 2b       	or	r24, r25
    6c82:	02 c0       	rjmp	.+4      	; 0x6c88 <_ZN4UTFT12LCD_Writ_BusEcch+0x38>
    6c84:	80 95       	com	r24
    6c86:	89 23       	and	r24, r25
    6c88:	8c 93       	st	X, r24
    6c8a:	a2 8d       	ldd	r26, Z+26	; 0x1a
    6c8c:	b3 8d       	ldd	r27, Z+27	; 0x1b
    6c8e:	9c 91       	ld	r25, X
    6c90:	83 a1       	ldd	r24, Z+35	; 0x23
    6c92:	80 95       	com	r24
    6c94:	89 23       	and	r24, r25
    6c96:	8c 93       	st	X, r24
    6c98:	a2 8d       	ldd	r26, Z+26	; 0x1a
    6c9a:	b3 8d       	ldd	r27, Z+27	; 0x1b
    6c9c:	9c 91       	ld	r25, X
    6c9e:	83 a1       	ldd	r24, Z+35	; 0x23
    6ca0:	89 2b       	or	r24, r25
    6ca2:	08 c0       	rjmp	.+16     	; 0x6cb4 <_ZN4UTFT12LCD_Writ_BusEcch+0x64>
    6ca4:	a0 89       	ldd	r26, Z+16	; 0x10
    6ca6:	b1 89       	ldd	r27, Z+17	; 0x11
    6ca8:	86 8d       	ldd	r24, Z+30	; 0x1e
    6caa:	9c 91       	ld	r25, X
    6cac:	61 30       	cpi	r22, 0x01	; 1
    6cae:	c1 f3       	breq	.-16     	; 0x6ca0 <_ZN4UTFT12LCD_Writ_BusEcch+0x50>
    6cb0:	80 95       	com	r24
    6cb2:	89 23       	and	r24, r25
    6cb4:	8c 93       	st	X, r24
    6cb6:	a0 8d       	ldd	r26, Z+24	; 0x18
    6cb8:	b1 8d       	ldd	r27, Z+25	; 0x19
    6cba:	82 a1       	ldd	r24, Z+34	; 0x22
    6cbc:	9c 91       	ld	r25, X
    6cbe:	47 ff       	sbrs	r20, 7
    6cc0:	02 c0       	rjmp	.+4      	; 0x6cc6 <_ZN4UTFT12LCD_Writ_BusEcch+0x76>
    6cc2:	89 2b       	or	r24, r25
    6cc4:	02 c0       	rjmp	.+4      	; 0x6cca <_ZN4UTFT12LCD_Writ_BusEcch+0x7a>
    6cc6:	80 95       	com	r24
    6cc8:	89 23       	and	r24, r25
    6cca:	8c 93       	st	X, r24
    6ccc:	a2 8d       	ldd	r26, Z+26	; 0x1a
    6cce:	b3 8d       	ldd	r27, Z+27	; 0x1b
    6cd0:	9c 91       	ld	r25, X
    6cd2:	83 a1       	ldd	r24, Z+35	; 0x23
    6cd4:	80 95       	com	r24
    6cd6:	89 23       	and	r24, r25
    6cd8:	8c 93       	st	X, r24
    6cda:	a2 8d       	ldd	r26, Z+26	; 0x1a
    6cdc:	b3 8d       	ldd	r27, Z+27	; 0x1b
    6cde:	9c 91       	ld	r25, X
    6ce0:	83 a1       	ldd	r24, Z+35	; 0x23
    6ce2:	89 2b       	or	r24, r25
    6ce4:	8c 93       	st	X, r24
    6ce6:	a0 8d       	ldd	r26, Z+24	; 0x18
    6ce8:	b1 8d       	ldd	r27, Z+25	; 0x19
    6cea:	82 a1       	ldd	r24, Z+34	; 0x22
    6cec:	9c 91       	ld	r25, X
    6cee:	46 ff       	sbrs	r20, 6
    6cf0:	02 c0       	rjmp	.+4      	; 0x6cf6 <_ZN4UTFT12LCD_Writ_BusEcch+0xa6>
    6cf2:	89 2b       	or	r24, r25
    6cf4:	02 c0       	rjmp	.+4      	; 0x6cfa <_ZN4UTFT12LCD_Writ_BusEcch+0xaa>
    6cf6:	80 95       	com	r24
    6cf8:	89 23       	and	r24, r25
    6cfa:	8c 93       	st	X, r24
    6cfc:	a2 8d       	ldd	r26, Z+26	; 0x1a
    6cfe:	b3 8d       	ldd	r27, Z+27	; 0x1b
    6d00:	9c 91       	ld	r25, X
    6d02:	83 a1       	ldd	r24, Z+35	; 0x23
    6d04:	80 95       	com	r24
    6d06:	89 23       	and	r24, r25
    6d08:	8c 93       	st	X, r24
    6d0a:	a2 8d       	ldd	r26, Z+26	; 0x1a
    6d0c:	b3 8d       	ldd	r27, Z+27	; 0x1b
    6d0e:	9c 91       	ld	r25, X
    6d10:	83 a1       	ldd	r24, Z+35	; 0x23
    6d12:	89 2b       	or	r24, r25
    6d14:	8c 93       	st	X, r24
    6d16:	a0 8d       	ldd	r26, Z+24	; 0x18
    6d18:	b1 8d       	ldd	r27, Z+25	; 0x19
    6d1a:	82 a1       	ldd	r24, Z+34	; 0x22
    6d1c:	9c 91       	ld	r25, X
    6d1e:	45 ff       	sbrs	r20, 5
    6d20:	02 c0       	rjmp	.+4      	; 0x6d26 <_ZN4UTFT12LCD_Writ_BusEcch+0xd6>
    6d22:	89 2b       	or	r24, r25
    6d24:	02 c0       	rjmp	.+4      	; 0x6d2a <_ZN4UTFT12LCD_Writ_BusEcch+0xda>
    6d26:	80 95       	com	r24
    6d28:	89 23       	and	r24, r25
    6d2a:	8c 93       	st	X, r24
    6d2c:	a2 8d       	ldd	r26, Z+26	; 0x1a
    6d2e:	b3 8d       	ldd	r27, Z+27	; 0x1b
    6d30:	9c 91       	ld	r25, X
    6d32:	83 a1       	ldd	r24, Z+35	; 0x23
    6d34:	80 95       	com	r24
    6d36:	89 23       	and	r24, r25
    6d38:	8c 93       	st	X, r24
    6d3a:	a2 8d       	ldd	r26, Z+26	; 0x1a
    6d3c:	b3 8d       	ldd	r27, Z+27	; 0x1b
    6d3e:	9c 91       	ld	r25, X
    6d40:	83 a1       	ldd	r24, Z+35	; 0x23
    6d42:	89 2b       	or	r24, r25
    6d44:	8c 93       	st	X, r24
    6d46:	a0 8d       	ldd	r26, Z+24	; 0x18
    6d48:	b1 8d       	ldd	r27, Z+25	; 0x19
    6d4a:	82 a1       	ldd	r24, Z+34	; 0x22
    6d4c:	9c 91       	ld	r25, X
    6d4e:	44 ff       	sbrs	r20, 4
    6d50:	02 c0       	rjmp	.+4      	; 0x6d56 <_ZN4UTFT12LCD_Writ_BusEcch+0x106>
    6d52:	89 2b       	or	r24, r25
    6d54:	02 c0       	rjmp	.+4      	; 0x6d5a <_ZN4UTFT12LCD_Writ_BusEcch+0x10a>
    6d56:	80 95       	com	r24
    6d58:	89 23       	and	r24, r25
    6d5a:	8c 93       	st	X, r24
    6d5c:	a2 8d       	ldd	r26, Z+26	; 0x1a
    6d5e:	b3 8d       	ldd	r27, Z+27	; 0x1b
    6d60:	9c 91       	ld	r25, X
    6d62:	83 a1       	ldd	r24, Z+35	; 0x23
    6d64:	80 95       	com	r24
    6d66:	89 23       	and	r24, r25
    6d68:	8c 93       	st	X, r24
    6d6a:	a2 8d       	ldd	r26, Z+26	; 0x1a
    6d6c:	b3 8d       	ldd	r27, Z+27	; 0x1b
    6d6e:	9c 91       	ld	r25, X
    6d70:	83 a1       	ldd	r24, Z+35	; 0x23
    6d72:	89 2b       	or	r24, r25
    6d74:	8c 93       	st	X, r24
    6d76:	a0 8d       	ldd	r26, Z+24	; 0x18
    6d78:	b1 8d       	ldd	r27, Z+25	; 0x19
    6d7a:	82 a1       	ldd	r24, Z+34	; 0x22
    6d7c:	9c 91       	ld	r25, X
    6d7e:	43 ff       	sbrs	r20, 3
    6d80:	02 c0       	rjmp	.+4      	; 0x6d86 <_ZN4UTFT12LCD_Writ_BusEcch+0x136>
    6d82:	89 2b       	or	r24, r25
    6d84:	02 c0       	rjmp	.+4      	; 0x6d8a <_ZN4UTFT12LCD_Writ_BusEcch+0x13a>
    6d86:	80 95       	com	r24
    6d88:	89 23       	and	r24, r25
    6d8a:	8c 93       	st	X, r24
    6d8c:	a2 8d       	ldd	r26, Z+26	; 0x1a
    6d8e:	b3 8d       	ldd	r27, Z+27	; 0x1b
    6d90:	9c 91       	ld	r25, X
    6d92:	83 a1       	ldd	r24, Z+35	; 0x23
    6d94:	80 95       	com	r24
    6d96:	89 23       	and	r24, r25
    6d98:	8c 93       	st	X, r24
    6d9a:	a2 8d       	ldd	r26, Z+26	; 0x1a
    6d9c:	b3 8d       	ldd	r27, Z+27	; 0x1b
    6d9e:	9c 91       	ld	r25, X
    6da0:	83 a1       	ldd	r24, Z+35	; 0x23
    6da2:	89 2b       	or	r24, r25
    6da4:	8c 93       	st	X, r24
    6da6:	a0 8d       	ldd	r26, Z+24	; 0x18
    6da8:	b1 8d       	ldd	r27, Z+25	; 0x19
    6daa:	82 a1       	ldd	r24, Z+34	; 0x22
    6dac:	9c 91       	ld	r25, X
    6dae:	42 ff       	sbrs	r20, 2
    6db0:	02 c0       	rjmp	.+4      	; 0x6db6 <_ZN4UTFT12LCD_Writ_BusEcch+0x166>
    6db2:	89 2b       	or	r24, r25
    6db4:	02 c0       	rjmp	.+4      	; 0x6dba <_ZN4UTFT12LCD_Writ_BusEcch+0x16a>
    6db6:	80 95       	com	r24
    6db8:	89 23       	and	r24, r25
    6dba:	8c 93       	st	X, r24
    6dbc:	a2 8d       	ldd	r26, Z+26	; 0x1a
    6dbe:	b3 8d       	ldd	r27, Z+27	; 0x1b
    6dc0:	9c 91       	ld	r25, X
    6dc2:	83 a1       	ldd	r24, Z+35	; 0x23
    6dc4:	80 95       	com	r24
    6dc6:	89 23       	and	r24, r25
    6dc8:	8c 93       	st	X, r24
    6dca:	a2 8d       	ldd	r26, Z+26	; 0x1a
    6dcc:	b3 8d       	ldd	r27, Z+27	; 0x1b
    6dce:	9c 91       	ld	r25, X
    6dd0:	83 a1       	ldd	r24, Z+35	; 0x23
    6dd2:	89 2b       	or	r24, r25
    6dd4:	8c 93       	st	X, r24
    6dd6:	a0 8d       	ldd	r26, Z+24	; 0x18
    6dd8:	b1 8d       	ldd	r27, Z+25	; 0x19
    6dda:	82 a1       	ldd	r24, Z+34	; 0x22
    6ddc:	9c 91       	ld	r25, X
    6dde:	41 ff       	sbrs	r20, 1
    6de0:	02 c0       	rjmp	.+4      	; 0x6de6 <_ZN4UTFT12LCD_Writ_BusEcch+0x196>
    6de2:	89 2b       	or	r24, r25
    6de4:	02 c0       	rjmp	.+4      	; 0x6dea <_ZN4UTFT12LCD_Writ_BusEcch+0x19a>
    6de6:	80 95       	com	r24
    6de8:	89 23       	and	r24, r25
    6dea:	8c 93       	st	X, r24
    6dec:	a2 8d       	ldd	r26, Z+26	; 0x1a
    6dee:	b3 8d       	ldd	r27, Z+27	; 0x1b
    6df0:	9c 91       	ld	r25, X
    6df2:	83 a1       	ldd	r24, Z+35	; 0x23
    6df4:	80 95       	com	r24
    6df6:	89 23       	and	r24, r25
    6df8:	8c 93       	st	X, r24
    6dfa:	a2 8d       	ldd	r26, Z+26	; 0x1a
    6dfc:	b3 8d       	ldd	r27, Z+27	; 0x1b
    6dfe:	9c 91       	ld	r25, X
    6e00:	83 a1       	ldd	r24, Z+35	; 0x23
    6e02:	89 2b       	or	r24, r25
    6e04:	8c 93       	st	X, r24
    6e06:	a0 8d       	ldd	r26, Z+24	; 0x18
    6e08:	b1 8d       	ldd	r27, Z+25	; 0x19
    6e0a:	82 a1       	ldd	r24, Z+34	; 0x22
    6e0c:	9c 91       	ld	r25, X
    6e0e:	40 ff       	sbrs	r20, 0
    6e10:	02 c0       	rjmp	.+4      	; 0x6e16 <_ZN4UTFT12LCD_Writ_BusEcch+0x1c6>
    6e12:	89 2b       	or	r24, r25
    6e14:	02 c0       	rjmp	.+4      	; 0x6e1a <_ZN4UTFT12LCD_Writ_BusEcch+0x1ca>
    6e16:	80 95       	com	r24
    6e18:	89 23       	and	r24, r25
    6e1a:	8c 93       	st	X, r24
    6e1c:	a2 8d       	ldd	r26, Z+26	; 0x1a
    6e1e:	b3 8d       	ldd	r27, Z+27	; 0x1b
    6e20:	9c 91       	ld	r25, X
    6e22:	83 a1       	ldd	r24, Z+35	; 0x23
    6e24:	80 95       	com	r24
    6e26:	89 23       	and	r24, r25
    6e28:	8c 93       	st	X, r24
    6e2a:	a2 8d       	ldd	r26, Z+26	; 0x1a
    6e2c:	b3 8d       	ldd	r27, Z+27	; 0x1b
    6e2e:	9c 91       	ld	r25, X
    6e30:	83 a1       	ldd	r24, Z+35	; 0x23
    6e32:	a2 c0       	rjmp	.+324    	; 0x6f78 <_ZN4UTFT12LCD_Writ_BusEcch+0x328>
    6e34:	62 b9       	out	0x02, r22	; 2
    6e36:	a2 89       	ldd	r26, Z+18	; 0x12
    6e38:	b3 89       	ldd	r27, Z+19	; 0x13
    6e3a:	9c 91       	ld	r25, X
    6e3c:	87 8d       	ldd	r24, Z+31	; 0x1f
    6e3e:	80 95       	com	r24
    6e40:	89 23       	and	r24, r25
    6e42:	8c 93       	st	X, r24
    6e44:	a2 89       	ldd	r26, Z+18	; 0x12
    6e46:	b3 89       	ldd	r27, Z+19	; 0x13
    6e48:	9c 91       	ld	r25, X
    6e4a:	87 8d       	ldd	r24, Z+31	; 0x1f
    6e4c:	89 2b       	or	r24, r25
    6e4e:	8c 93       	st	X, r24
    6e50:	42 b9       	out	0x02, r20	; 2
    6e52:	02 c0       	rjmp	.+4      	; 0x6e58 <_ZN4UTFT12LCD_Writ_BusEcch+0x208>
    6e54:	62 b9       	out	0x02, r22	; 2
    6e56:	48 b9       	out	0x08, r20	; 8
    6e58:	a2 89       	ldd	r26, Z+18	; 0x12
    6e5a:	b3 89       	ldd	r27, Z+19	; 0x13
    6e5c:	9c 91       	ld	r25, X
    6e5e:	87 8d       	ldd	r24, Z+31	; 0x1f
    6e60:	80 95       	com	r24
    6e62:	89 23       	and	r24, r25
    6e64:	8c 93       	st	X, r24
    6e66:	a2 89       	ldd	r26, Z+18	; 0x12
    6e68:	b3 89       	ldd	r27, Z+19	; 0x13
    6e6a:	9c 91       	ld	r25, X
    6e6c:	87 8d       	ldd	r24, Z+31	; 0x1f
    6e6e:	84 c0       	rjmp	.+264    	; 0x6f78 <_ZN4UTFT12LCD_Writ_BusEcch+0x328>
    6e70:	a5 98       	cbi	0x14, 5	; 20
    6e72:	94 b3       	in	r25, 0x14	; 20
    6e74:	86 2f       	mov	r24, r22
    6e76:	80 71       	andi	r24, 0x10	; 16
    6e78:	88 0f       	add	r24, r24
    6e7a:	89 2b       	or	r24, r25
    6e7c:	84 bb       	out	0x14, r24	; 20
    6e7e:	80 91 02 01 	lds	r24, 0x0102	; 0x800102 <__TEXT_REGION_LENGTH__+0x700102>
    6e82:	87 7e       	andi	r24, 0xE7	; 231
    6e84:	80 93 02 01 	sts	0x0102, r24	; 0x800102 <__TEXT_REGION_LENGTH__+0x700102>
    6e88:	90 91 02 01 	lds	r25, 0x0102	; 0x800102 <__TEXT_REGION_LENGTH__+0x700102>
    6e8c:	86 2f       	mov	r24, r22
    6e8e:	80 7c       	andi	r24, 0xC0	; 192
    6e90:	86 95       	lsr	r24
    6e92:	86 95       	lsr	r24
    6e94:	86 95       	lsr	r24
    6e96:	89 2b       	or	r24, r25
    6e98:	80 93 02 01 	sts	0x0102, r24	; 0x800102 <__TEXT_REGION_LENGTH__+0x700102>
    6e9c:	8e b1       	in	r24, 0x0e	; 14
    6e9e:	84 7c       	andi	r24, 0xC4	; 196
    6ea0:	8e b9       	out	0x0e, r24	; 14
    6ea2:	9e b1       	in	r25, 0x0e	; 14
    6ea4:	26 2f       	mov	r18, r22
    6ea6:	2c 70       	andi	r18, 0x0C	; 12
    6ea8:	22 0f       	add	r18, r18
    6eaa:	22 0f       	add	r18, r18
    6eac:	86 2f       	mov	r24, r22
    6eae:	83 70       	andi	r24, 0x03	; 3
    6eb0:	28 0f       	add	r18, r24
    6eb2:	86 2f       	mov	r24, r22
    6eb4:	80 72       	andi	r24, 0x20	; 32
    6eb6:	68 2f       	mov	r22, r24
    6eb8:	70 e0       	ldi	r23, 0x00	; 0
    6eba:	75 95       	asr	r23
    6ebc:	67 95       	ror	r22
    6ebe:	75 95       	asr	r23
    6ec0:	67 95       	ror	r22
    6ec2:	62 0f       	add	r22, r18
    6ec4:	69 2b       	or	r22, r25
    6ec6:	6e b9       	out	0x0e, r22	; 14
    6ec8:	a4 8d       	ldd	r26, Z+28	; 0x1c
    6eca:	b5 8d       	ldd	r27, Z+29	; 0x1d
    6ecc:	9c 91       	ld	r25, X
    6ece:	84 a1       	ldd	r24, Z+36	; 0x24
    6ed0:	80 95       	com	r24
    6ed2:	89 23       	and	r24, r25
    6ed4:	8c 93       	st	X, r24
    6ed6:	a4 8d       	ldd	r26, Z+28	; 0x1c
    6ed8:	b5 8d       	ldd	r27, Z+29	; 0x1d
    6eda:	9c 91       	ld	r25, X
    6edc:	84 a1       	ldd	r24, Z+36	; 0x24
    6ede:	89 2b       	or	r24, r25
    6ee0:	8c 93       	st	X, r24
    6ee2:	a4 8d       	ldd	r26, Z+28	; 0x1c
    6ee4:	b5 8d       	ldd	r27, Z+29	; 0x1d
    6ee6:	9c 91       	ld	r25, X
    6ee8:	84 a1       	ldd	r24, Z+36	; 0x24
    6eea:	80 95       	com	r24
    6eec:	89 23       	and	r24, r25
    6eee:	8c 93       	st	X, r24
    6ef0:	a4 89       	ldd	r26, Z+20	; 0x14
    6ef2:	b5 89       	ldd	r27, Z+21	; 0x15
    6ef4:	9c 91       	ld	r25, X
    6ef6:	80 a1       	ldd	r24, Z+32	; 0x20
    6ef8:	80 95       	com	r24
    6efa:	89 23       	and	r24, r25
    6efc:	8c 93       	st	X, r24
    6efe:	a5 98       	cbi	0x14, 5	; 20
    6f00:	94 b3       	in	r25, 0x14	; 20
    6f02:	84 2f       	mov	r24, r20
    6f04:	80 71       	andi	r24, 0x10	; 16
    6f06:	88 0f       	add	r24, r24
    6f08:	89 2b       	or	r24, r25
    6f0a:	84 bb       	out	0x14, r24	; 20
    6f0c:	80 91 02 01 	lds	r24, 0x0102	; 0x800102 <__TEXT_REGION_LENGTH__+0x700102>
    6f10:	87 7e       	andi	r24, 0xE7	; 231
    6f12:	80 93 02 01 	sts	0x0102, r24	; 0x800102 <__TEXT_REGION_LENGTH__+0x700102>
    6f16:	90 91 02 01 	lds	r25, 0x0102	; 0x800102 <__TEXT_REGION_LENGTH__+0x700102>
    6f1a:	84 2f       	mov	r24, r20
    6f1c:	80 7c       	andi	r24, 0xC0	; 192
    6f1e:	86 95       	lsr	r24
    6f20:	86 95       	lsr	r24
    6f22:	86 95       	lsr	r24
    6f24:	89 2b       	or	r24, r25
    6f26:	80 93 02 01 	sts	0x0102, r24	; 0x800102 <__TEXT_REGION_LENGTH__+0x700102>
    6f2a:	8e b1       	in	r24, 0x0e	; 14
    6f2c:	84 7c       	andi	r24, 0xC4	; 196
    6f2e:	8e b9       	out	0x0e, r24	; 14
    6f30:	9e b1       	in	r25, 0x0e	; 14
    6f32:	24 2f       	mov	r18, r20
    6f34:	2c 70       	andi	r18, 0x0C	; 12
    6f36:	22 0f       	add	r18, r18
    6f38:	22 0f       	add	r18, r18
    6f3a:	84 2f       	mov	r24, r20
    6f3c:	83 70       	andi	r24, 0x03	; 3
    6f3e:	28 0f       	add	r18, r24
    6f40:	84 2f       	mov	r24, r20
    6f42:	80 72       	andi	r24, 0x20	; 32
    6f44:	48 2f       	mov	r20, r24
    6f46:	50 e0       	ldi	r21, 0x00	; 0
    6f48:	55 95       	asr	r21
    6f4a:	47 95       	ror	r20
    6f4c:	55 95       	asr	r21
    6f4e:	47 95       	ror	r20
    6f50:	42 0f       	add	r20, r18
    6f52:	49 2b       	or	r20, r25
    6f54:	4e b9       	out	0x0e, r20	; 14
    6f56:	a2 89       	ldd	r26, Z+18	; 0x12
    6f58:	b3 89       	ldd	r27, Z+19	; 0x13
    6f5a:	9c 91       	ld	r25, X
    6f5c:	87 8d       	ldd	r24, Z+31	; 0x1f
    6f5e:	80 95       	com	r24
    6f60:	89 23       	and	r24, r25
    6f62:	8c 93       	st	X, r24
    6f64:	a2 89       	ldd	r26, Z+18	; 0x12
    6f66:	b3 89       	ldd	r27, Z+19	; 0x13
    6f68:	9c 91       	ld	r25, X
    6f6a:	87 8d       	ldd	r24, Z+31	; 0x1f
    6f6c:	89 2b       	or	r24, r25
    6f6e:	8c 93       	st	X, r24
    6f70:	a4 89       	ldd	r26, Z+20	; 0x14
    6f72:	b5 89       	ldd	r27, Z+21	; 0x15
    6f74:	9c 91       	ld	r25, X
    6f76:	80 a1       	ldd	r24, Z+32	; 0x20
    6f78:	89 2b       	or	r24, r25
    6f7a:	8c 93       	st	X, r24
    6f7c:	08 95       	ret

00006f7e <_ZN4UTFT24_set_direction_registersEh>:
    6f7e:	61 31       	cpi	r22, 0x11	; 17
    6f80:	31 f0       	breq	.+12     	; 0x6f8e <_ZN4UTFT24_set_direction_registersEh+0x10>
    6f82:	8f ef       	ldi	r24, 0xFF	; 255
    6f84:	81 b9       	out	0x01, r24	; 1
    6f86:	60 31       	cpi	r22, 0x10	; 16
    6f88:	49 f4       	brne	.+18     	; 0x6f9c <_ZN4UTFT24_set_direction_registersEh+0x1e>
    6f8a:	87 b9       	out	0x07, r24	; 7
    6f8c:	08 95       	ret
    6f8e:	88 e1       	ldi	r24, 0x18	; 24
    6f90:	80 93 01 01 	sts	0x0101, r24	; 0x800101 <__TEXT_REGION_LENGTH__+0x700101>
    6f94:	80 e2       	ldi	r24, 0x20	; 32
    6f96:	83 bb       	out	0x13, r24	; 19
    6f98:	8b e3       	ldi	r24, 0x3B	; 59
    6f9a:	8d b9       	out	0x0d, r24	; 13
    6f9c:	08 95       	ret

00006f9e <_ZN4UTFT13_fast_fill_16Eiil>:
    6f9e:	8f 92       	push	r8
    6fa0:	9f 92       	push	r9
    6fa2:	af 92       	push	r10
    6fa4:	bf 92       	push	r11
    6fa6:	cf 92       	push	r12
    6fa8:	df 92       	push	r13
    6faa:	ef 92       	push	r14
    6fac:	ff 92       	push	r15
    6fae:	0f 93       	push	r16
    6fb0:	1f 93       	push	r17
    6fb2:	cf 93       	push	r28
    6fb4:	df 93       	push	r29
    6fb6:	ec 01       	movw	r28, r24
    6fb8:	68 01       	movw	r12, r16
    6fba:	79 01       	movw	r14, r18
    6fbc:	62 b9       	out	0x02, r22	; 2
    6fbe:	48 b9       	out	0x08, r20	; 8
    6fc0:	c9 01       	movw	r24, r18
    6fc2:	b8 01       	movw	r22, r16
    6fc4:	20 e1       	ldi	r18, 0x10	; 16
    6fc6:	30 e0       	ldi	r19, 0x00	; 0
    6fc8:	40 e0       	ldi	r20, 0x00	; 0
    6fca:	50 e0       	ldi	r21, 0x00	; 0
    6fcc:	0e 94 3c 4b 	call	0x9678	; 0x9678 <__divmodsi4>
    6fd0:	49 01       	movw	r8, r18
    6fd2:	5a 01       	movw	r10, r20
    6fd4:	80 e0       	ldi	r24, 0x00	; 0
    6fd6:	90 e0       	ldi	r25, 0x00	; 0
    6fd8:	dc 01       	movw	r26, r24
    6fda:	88 15       	cp	r24, r8
    6fdc:	99 05       	cpc	r25, r9
    6fde:	aa 05       	cpc	r26, r10
    6fe0:	bb 05       	cpc	r27, r11
    6fe2:	0c f0       	brlt	.+2      	; 0x6fe6 <_ZN4UTFT13_fast_fill_16Eiil+0x48>
    6fe4:	d4 c0       	rjmp	.+424    	; 0x718e <_ZN4UTFT13_fast_fill_16Eiil+0x1f0>
    6fe6:	ea 89       	ldd	r30, Y+18	; 0x12
    6fe8:	fb 89       	ldd	r31, Y+19	; 0x13
    6fea:	30 81       	ld	r19, Z
    6fec:	2f 8d       	ldd	r18, Y+31	; 0x1f
    6fee:	20 95       	com	r18
    6ff0:	23 23       	and	r18, r19
    6ff2:	20 83       	st	Z, r18
    6ff4:	ea 89       	ldd	r30, Y+18	; 0x12
    6ff6:	fb 89       	ldd	r31, Y+19	; 0x13
    6ff8:	30 81       	ld	r19, Z
    6ffa:	2f 8d       	ldd	r18, Y+31	; 0x1f
    6ffc:	23 2b       	or	r18, r19
    6ffe:	20 83       	st	Z, r18
    7000:	ea 89       	ldd	r30, Y+18	; 0x12
    7002:	fb 89       	ldd	r31, Y+19	; 0x13
    7004:	30 81       	ld	r19, Z
    7006:	2f 8d       	ldd	r18, Y+31	; 0x1f
    7008:	20 95       	com	r18
    700a:	23 23       	and	r18, r19
    700c:	20 83       	st	Z, r18
    700e:	ea 89       	ldd	r30, Y+18	; 0x12
    7010:	fb 89       	ldd	r31, Y+19	; 0x13
    7012:	30 81       	ld	r19, Z
    7014:	2f 8d       	ldd	r18, Y+31	; 0x1f
    7016:	23 2b       	or	r18, r19
    7018:	20 83       	st	Z, r18
    701a:	ea 89       	ldd	r30, Y+18	; 0x12
    701c:	fb 89       	ldd	r31, Y+19	; 0x13
    701e:	30 81       	ld	r19, Z
    7020:	2f 8d       	ldd	r18, Y+31	; 0x1f
    7022:	20 95       	com	r18
    7024:	23 23       	and	r18, r19
    7026:	20 83       	st	Z, r18
    7028:	ea 89       	ldd	r30, Y+18	; 0x12
    702a:	fb 89       	ldd	r31, Y+19	; 0x13
    702c:	30 81       	ld	r19, Z
    702e:	2f 8d       	ldd	r18, Y+31	; 0x1f
    7030:	23 2b       	or	r18, r19
    7032:	20 83       	st	Z, r18
    7034:	ea 89       	ldd	r30, Y+18	; 0x12
    7036:	fb 89       	ldd	r31, Y+19	; 0x13
    7038:	30 81       	ld	r19, Z
    703a:	2f 8d       	ldd	r18, Y+31	; 0x1f
    703c:	20 95       	com	r18
    703e:	23 23       	and	r18, r19
    7040:	20 83       	st	Z, r18
    7042:	ea 89       	ldd	r30, Y+18	; 0x12
    7044:	fb 89       	ldd	r31, Y+19	; 0x13
    7046:	30 81       	ld	r19, Z
    7048:	2f 8d       	ldd	r18, Y+31	; 0x1f
    704a:	23 2b       	or	r18, r19
    704c:	20 83       	st	Z, r18
    704e:	ea 89       	ldd	r30, Y+18	; 0x12
    7050:	fb 89       	ldd	r31, Y+19	; 0x13
    7052:	30 81       	ld	r19, Z
    7054:	2f 8d       	ldd	r18, Y+31	; 0x1f
    7056:	20 95       	com	r18
    7058:	23 23       	and	r18, r19
    705a:	20 83       	st	Z, r18
    705c:	ea 89       	ldd	r30, Y+18	; 0x12
    705e:	fb 89       	ldd	r31, Y+19	; 0x13
    7060:	30 81       	ld	r19, Z
    7062:	2f 8d       	ldd	r18, Y+31	; 0x1f
    7064:	23 2b       	or	r18, r19
    7066:	20 83       	st	Z, r18
    7068:	ea 89       	ldd	r30, Y+18	; 0x12
    706a:	fb 89       	ldd	r31, Y+19	; 0x13
    706c:	30 81       	ld	r19, Z
    706e:	2f 8d       	ldd	r18, Y+31	; 0x1f
    7070:	20 95       	com	r18
    7072:	23 23       	and	r18, r19
    7074:	20 83       	st	Z, r18
    7076:	ea 89       	ldd	r30, Y+18	; 0x12
    7078:	fb 89       	ldd	r31, Y+19	; 0x13
    707a:	30 81       	ld	r19, Z
    707c:	2f 8d       	ldd	r18, Y+31	; 0x1f
    707e:	23 2b       	or	r18, r19
    7080:	20 83       	st	Z, r18
    7082:	ea 89       	ldd	r30, Y+18	; 0x12
    7084:	fb 89       	ldd	r31, Y+19	; 0x13
    7086:	30 81       	ld	r19, Z
    7088:	2f 8d       	ldd	r18, Y+31	; 0x1f
    708a:	20 95       	com	r18
    708c:	23 23       	and	r18, r19
    708e:	20 83       	st	Z, r18
    7090:	ea 89       	ldd	r30, Y+18	; 0x12
    7092:	fb 89       	ldd	r31, Y+19	; 0x13
    7094:	30 81       	ld	r19, Z
    7096:	2f 8d       	ldd	r18, Y+31	; 0x1f
    7098:	23 2b       	or	r18, r19
    709a:	20 83       	st	Z, r18
    709c:	ea 89       	ldd	r30, Y+18	; 0x12
    709e:	fb 89       	ldd	r31, Y+19	; 0x13
    70a0:	30 81       	ld	r19, Z
    70a2:	2f 8d       	ldd	r18, Y+31	; 0x1f
    70a4:	20 95       	com	r18
    70a6:	23 23       	and	r18, r19
    70a8:	20 83       	st	Z, r18
    70aa:	ea 89       	ldd	r30, Y+18	; 0x12
    70ac:	fb 89       	ldd	r31, Y+19	; 0x13
    70ae:	30 81       	ld	r19, Z
    70b0:	2f 8d       	ldd	r18, Y+31	; 0x1f
    70b2:	23 2b       	or	r18, r19
    70b4:	20 83       	st	Z, r18
    70b6:	ea 89       	ldd	r30, Y+18	; 0x12
    70b8:	fb 89       	ldd	r31, Y+19	; 0x13
    70ba:	30 81       	ld	r19, Z
    70bc:	2f 8d       	ldd	r18, Y+31	; 0x1f
    70be:	20 95       	com	r18
    70c0:	23 23       	and	r18, r19
    70c2:	20 83       	st	Z, r18
    70c4:	ea 89       	ldd	r30, Y+18	; 0x12
    70c6:	fb 89       	ldd	r31, Y+19	; 0x13
    70c8:	30 81       	ld	r19, Z
    70ca:	2f 8d       	ldd	r18, Y+31	; 0x1f
    70cc:	23 2b       	or	r18, r19
    70ce:	20 83       	st	Z, r18
    70d0:	ea 89       	ldd	r30, Y+18	; 0x12
    70d2:	fb 89       	ldd	r31, Y+19	; 0x13
    70d4:	30 81       	ld	r19, Z
    70d6:	2f 8d       	ldd	r18, Y+31	; 0x1f
    70d8:	20 95       	com	r18
    70da:	23 23       	and	r18, r19
    70dc:	20 83       	st	Z, r18
    70de:	ea 89       	ldd	r30, Y+18	; 0x12
    70e0:	fb 89       	ldd	r31, Y+19	; 0x13
    70e2:	30 81       	ld	r19, Z
    70e4:	2f 8d       	ldd	r18, Y+31	; 0x1f
    70e6:	23 2b       	or	r18, r19
    70e8:	20 83       	st	Z, r18
    70ea:	ea 89       	ldd	r30, Y+18	; 0x12
    70ec:	fb 89       	ldd	r31, Y+19	; 0x13
    70ee:	30 81       	ld	r19, Z
    70f0:	2f 8d       	ldd	r18, Y+31	; 0x1f
    70f2:	20 95       	com	r18
    70f4:	23 23       	and	r18, r19
    70f6:	20 83       	st	Z, r18
    70f8:	ea 89       	ldd	r30, Y+18	; 0x12
    70fa:	fb 89       	ldd	r31, Y+19	; 0x13
    70fc:	30 81       	ld	r19, Z
    70fe:	2f 8d       	ldd	r18, Y+31	; 0x1f
    7100:	23 2b       	or	r18, r19
    7102:	20 83       	st	Z, r18
    7104:	ea 89       	ldd	r30, Y+18	; 0x12
    7106:	fb 89       	ldd	r31, Y+19	; 0x13
    7108:	30 81       	ld	r19, Z
    710a:	2f 8d       	ldd	r18, Y+31	; 0x1f
    710c:	20 95       	com	r18
    710e:	23 23       	and	r18, r19
    7110:	20 83       	st	Z, r18
    7112:	ea 89       	ldd	r30, Y+18	; 0x12
    7114:	fb 89       	ldd	r31, Y+19	; 0x13
    7116:	30 81       	ld	r19, Z
    7118:	2f 8d       	ldd	r18, Y+31	; 0x1f
    711a:	23 2b       	or	r18, r19
    711c:	20 83       	st	Z, r18
    711e:	ea 89       	ldd	r30, Y+18	; 0x12
    7120:	fb 89       	ldd	r31, Y+19	; 0x13
    7122:	30 81       	ld	r19, Z
    7124:	2f 8d       	ldd	r18, Y+31	; 0x1f
    7126:	20 95       	com	r18
    7128:	23 23       	and	r18, r19
    712a:	20 83       	st	Z, r18
    712c:	ea 89       	ldd	r30, Y+18	; 0x12
    712e:	fb 89       	ldd	r31, Y+19	; 0x13
    7130:	30 81       	ld	r19, Z
    7132:	2f 8d       	ldd	r18, Y+31	; 0x1f
    7134:	23 2b       	or	r18, r19
    7136:	20 83       	st	Z, r18
    7138:	ea 89       	ldd	r30, Y+18	; 0x12
    713a:	fb 89       	ldd	r31, Y+19	; 0x13
    713c:	30 81       	ld	r19, Z
    713e:	2f 8d       	ldd	r18, Y+31	; 0x1f
    7140:	20 95       	com	r18
    7142:	23 23       	and	r18, r19
    7144:	20 83       	st	Z, r18
    7146:	ea 89       	ldd	r30, Y+18	; 0x12
    7148:	fb 89       	ldd	r31, Y+19	; 0x13
    714a:	30 81       	ld	r19, Z
    714c:	2f 8d       	ldd	r18, Y+31	; 0x1f
    714e:	23 2b       	or	r18, r19
    7150:	20 83       	st	Z, r18
    7152:	ea 89       	ldd	r30, Y+18	; 0x12
    7154:	fb 89       	ldd	r31, Y+19	; 0x13
    7156:	30 81       	ld	r19, Z
    7158:	2f 8d       	ldd	r18, Y+31	; 0x1f
    715a:	20 95       	com	r18
    715c:	23 23       	and	r18, r19
    715e:	20 83       	st	Z, r18
    7160:	ea 89       	ldd	r30, Y+18	; 0x12
    7162:	fb 89       	ldd	r31, Y+19	; 0x13
    7164:	30 81       	ld	r19, Z
    7166:	2f 8d       	ldd	r18, Y+31	; 0x1f
    7168:	23 2b       	or	r18, r19
    716a:	20 83       	st	Z, r18
    716c:	ea 89       	ldd	r30, Y+18	; 0x12
    716e:	fb 89       	ldd	r31, Y+19	; 0x13
    7170:	40 81       	ld	r20, Z
    7172:	3f 8d       	ldd	r19, Y+31	; 0x1f
    7174:	30 95       	com	r19
    7176:	34 23       	and	r19, r20
    7178:	30 83       	st	Z, r19
    717a:	ea 89       	ldd	r30, Y+18	; 0x12
    717c:	fb 89       	ldd	r31, Y+19	; 0x13
    717e:	20 81       	ld	r18, Z
    7180:	3f 8d       	ldd	r19, Y+31	; 0x1f
    7182:	32 2b       	or	r19, r18
    7184:	30 83       	st	Z, r19
    7186:	01 96       	adiw	r24, 0x01	; 1
    7188:	a1 1d       	adc	r26, r1
    718a:	b1 1d       	adc	r27, r1
    718c:	26 cf       	rjmp	.-436    	; 0x6fda <_ZN4UTFT13_fast_fill_16Eiil+0x3c>
    718e:	d7 01       	movw	r26, r14
    7190:	c6 01       	movw	r24, r12
    7192:	8f 70       	andi	r24, 0x0F	; 15
    7194:	99 27       	eor	r25, r25
    7196:	aa 27       	eor	r26, r26
    7198:	bb 27       	eor	r27, r27
    719a:	89 2b       	or	r24, r25
    719c:	8a 2b       	or	r24, r26
    719e:	8b 2b       	or	r24, r27
    71a0:	19 f1       	breq	.+70     	; 0x71e8 <_ZN4UTFT13_fast_fill_16Eiil+0x24a>
    71a2:	c7 01       	movw	r24, r14
    71a4:	b6 01       	movw	r22, r12
    71a6:	20 e1       	ldi	r18, 0x10	; 16
    71a8:	30 e0       	ldi	r19, 0x00	; 0
    71aa:	40 e0       	ldi	r20, 0x00	; 0
    71ac:	50 e0       	ldi	r21, 0x00	; 0
    71ae:	0e 94 3c 4b 	call	0x9678	; 0x9678 <__divmodsi4>
    71b2:	c1 2c       	mov	r12, r1
    71b4:	d1 2c       	mov	r13, r1
    71b6:	76 01       	movw	r14, r12
    71b8:	6c 15       	cp	r22, r12
    71ba:	7d 05       	cpc	r23, r13
    71bc:	8e 05       	cpc	r24, r14
    71be:	9f 05       	cpc	r25, r15
    71c0:	9c f0       	brlt	.+38     	; 0x71e8 <_ZN4UTFT13_fast_fill_16Eiil+0x24a>
    71c2:	ea 89       	ldd	r30, Y+18	; 0x12
    71c4:	fb 89       	ldd	r31, Y+19	; 0x13
    71c6:	30 81       	ld	r19, Z
    71c8:	2f 8d       	ldd	r18, Y+31	; 0x1f
    71ca:	20 95       	com	r18
    71cc:	23 23       	and	r18, r19
    71ce:	20 83       	st	Z, r18
    71d0:	ea 89       	ldd	r30, Y+18	; 0x12
    71d2:	fb 89       	ldd	r31, Y+19	; 0x13
    71d4:	30 81       	ld	r19, Z
    71d6:	2f 8d       	ldd	r18, Y+31	; 0x1f
    71d8:	23 2b       	or	r18, r19
    71da:	20 83       	st	Z, r18
    71dc:	2f ef       	ldi	r18, 0xFF	; 255
    71de:	c2 1a       	sub	r12, r18
    71e0:	d2 0a       	sbc	r13, r18
    71e2:	e2 0a       	sbc	r14, r18
    71e4:	f2 0a       	sbc	r15, r18
    71e6:	e8 cf       	rjmp	.-48     	; 0x71b8 <_ZN4UTFT13_fast_fill_16Eiil+0x21a>
    71e8:	df 91       	pop	r29
    71ea:	cf 91       	pop	r28
    71ec:	1f 91       	pop	r17
    71ee:	0f 91       	pop	r16
    71f0:	ff 90       	pop	r15
    71f2:	ef 90       	pop	r14
    71f4:	df 90       	pop	r13
    71f6:	cf 90       	pop	r12
    71f8:	bf 90       	pop	r11
    71fa:	af 90       	pop	r10
    71fc:	9f 90       	pop	r9
    71fe:	8f 90       	pop	r8
    7200:	08 95       	ret

00007202 <_ZN4UTFT12_fast_fill_8Eil>:
    7202:	8f 92       	push	r8
    7204:	9f 92       	push	r9
    7206:	af 92       	push	r10
    7208:	bf 92       	push	r11
    720a:	cf 92       	push	r12
    720c:	df 92       	push	r13
    720e:	ef 92       	push	r14
    7210:	ff 92       	push	r15
    7212:	cf 93       	push	r28
    7214:	df 93       	push	r29
    7216:	ec 01       	movw	r28, r24
    7218:	69 01       	movw	r12, r18
    721a:	7a 01       	movw	r14, r20
    721c:	62 b9       	out	0x02, r22	; 2
    721e:	ca 01       	movw	r24, r20
    7220:	b9 01       	movw	r22, r18
    7222:	20 e1       	ldi	r18, 0x10	; 16
    7224:	30 e0       	ldi	r19, 0x00	; 0
    7226:	40 e0       	ldi	r20, 0x00	; 0
    7228:	50 e0       	ldi	r21, 0x00	; 0
    722a:	0e 94 3c 4b 	call	0x9678	; 0x9678 <__divmodsi4>
    722e:	49 01       	movw	r8, r18
    7230:	5a 01       	movw	r10, r20
    7232:	80 e0       	ldi	r24, 0x00	; 0
    7234:	90 e0       	ldi	r25, 0x00	; 0
    7236:	dc 01       	movw	r26, r24
    7238:	88 15       	cp	r24, r8
    723a:	99 05       	cpc	r25, r9
    723c:	aa 05       	cpc	r26, r10
    723e:	bb 05       	cpc	r27, r11
    7240:	0c f0       	brlt	.+2      	; 0x7244 <_ZN4UTFT12_fast_fill_8Eil+0x42>
    7242:	a4 c1       	rjmp	.+840    	; 0x758c <_ZN4UTFT12_fast_fill_8Eil+0x38a>
    7244:	ea 89       	ldd	r30, Y+18	; 0x12
    7246:	fb 89       	ldd	r31, Y+19	; 0x13
    7248:	30 81       	ld	r19, Z
    724a:	2f 8d       	ldd	r18, Y+31	; 0x1f
    724c:	20 95       	com	r18
    724e:	23 23       	and	r18, r19
    7250:	20 83       	st	Z, r18
    7252:	ea 89       	ldd	r30, Y+18	; 0x12
    7254:	fb 89       	ldd	r31, Y+19	; 0x13
    7256:	30 81       	ld	r19, Z
    7258:	2f 8d       	ldd	r18, Y+31	; 0x1f
    725a:	23 2b       	or	r18, r19
    725c:	20 83       	st	Z, r18
    725e:	ea 89       	ldd	r30, Y+18	; 0x12
    7260:	fb 89       	ldd	r31, Y+19	; 0x13
    7262:	30 81       	ld	r19, Z
    7264:	2f 8d       	ldd	r18, Y+31	; 0x1f
    7266:	20 95       	com	r18
    7268:	23 23       	and	r18, r19
    726a:	20 83       	st	Z, r18
    726c:	ea 89       	ldd	r30, Y+18	; 0x12
    726e:	fb 89       	ldd	r31, Y+19	; 0x13
    7270:	30 81       	ld	r19, Z
    7272:	2f 8d       	ldd	r18, Y+31	; 0x1f
    7274:	23 2b       	or	r18, r19
    7276:	20 83       	st	Z, r18
    7278:	ea 89       	ldd	r30, Y+18	; 0x12
    727a:	fb 89       	ldd	r31, Y+19	; 0x13
    727c:	30 81       	ld	r19, Z
    727e:	2f 8d       	ldd	r18, Y+31	; 0x1f
    7280:	20 95       	com	r18
    7282:	23 23       	and	r18, r19
    7284:	20 83       	st	Z, r18
    7286:	ea 89       	ldd	r30, Y+18	; 0x12
    7288:	fb 89       	ldd	r31, Y+19	; 0x13
    728a:	30 81       	ld	r19, Z
    728c:	2f 8d       	ldd	r18, Y+31	; 0x1f
    728e:	23 2b       	or	r18, r19
    7290:	20 83       	st	Z, r18
    7292:	ea 89       	ldd	r30, Y+18	; 0x12
    7294:	fb 89       	ldd	r31, Y+19	; 0x13
    7296:	30 81       	ld	r19, Z
    7298:	2f 8d       	ldd	r18, Y+31	; 0x1f
    729a:	20 95       	com	r18
    729c:	23 23       	and	r18, r19
    729e:	20 83       	st	Z, r18
    72a0:	ea 89       	ldd	r30, Y+18	; 0x12
    72a2:	fb 89       	ldd	r31, Y+19	; 0x13
    72a4:	30 81       	ld	r19, Z
    72a6:	2f 8d       	ldd	r18, Y+31	; 0x1f
    72a8:	23 2b       	or	r18, r19
    72aa:	20 83       	st	Z, r18
    72ac:	ea 89       	ldd	r30, Y+18	; 0x12
    72ae:	fb 89       	ldd	r31, Y+19	; 0x13
    72b0:	30 81       	ld	r19, Z
    72b2:	2f 8d       	ldd	r18, Y+31	; 0x1f
    72b4:	20 95       	com	r18
    72b6:	23 23       	and	r18, r19
    72b8:	20 83       	st	Z, r18
    72ba:	ea 89       	ldd	r30, Y+18	; 0x12
    72bc:	fb 89       	ldd	r31, Y+19	; 0x13
    72be:	30 81       	ld	r19, Z
    72c0:	2f 8d       	ldd	r18, Y+31	; 0x1f
    72c2:	23 2b       	or	r18, r19
    72c4:	20 83       	st	Z, r18
    72c6:	ea 89       	ldd	r30, Y+18	; 0x12
    72c8:	fb 89       	ldd	r31, Y+19	; 0x13
    72ca:	30 81       	ld	r19, Z
    72cc:	2f 8d       	ldd	r18, Y+31	; 0x1f
    72ce:	20 95       	com	r18
    72d0:	23 23       	and	r18, r19
    72d2:	20 83       	st	Z, r18
    72d4:	ea 89       	ldd	r30, Y+18	; 0x12
    72d6:	fb 89       	ldd	r31, Y+19	; 0x13
    72d8:	30 81       	ld	r19, Z
    72da:	2f 8d       	ldd	r18, Y+31	; 0x1f
    72dc:	23 2b       	or	r18, r19
    72de:	20 83       	st	Z, r18
    72e0:	ea 89       	ldd	r30, Y+18	; 0x12
    72e2:	fb 89       	ldd	r31, Y+19	; 0x13
    72e4:	30 81       	ld	r19, Z
    72e6:	2f 8d       	ldd	r18, Y+31	; 0x1f
    72e8:	20 95       	com	r18
    72ea:	23 23       	and	r18, r19
    72ec:	20 83       	st	Z, r18
    72ee:	ea 89       	ldd	r30, Y+18	; 0x12
    72f0:	fb 89       	ldd	r31, Y+19	; 0x13
    72f2:	30 81       	ld	r19, Z
    72f4:	2f 8d       	ldd	r18, Y+31	; 0x1f
    72f6:	23 2b       	or	r18, r19
    72f8:	20 83       	st	Z, r18
    72fa:	ea 89       	ldd	r30, Y+18	; 0x12
    72fc:	fb 89       	ldd	r31, Y+19	; 0x13
    72fe:	30 81       	ld	r19, Z
    7300:	2f 8d       	ldd	r18, Y+31	; 0x1f
    7302:	20 95       	com	r18
    7304:	23 23       	and	r18, r19
    7306:	20 83       	st	Z, r18
    7308:	ea 89       	ldd	r30, Y+18	; 0x12
    730a:	fb 89       	ldd	r31, Y+19	; 0x13
    730c:	30 81       	ld	r19, Z
    730e:	2f 8d       	ldd	r18, Y+31	; 0x1f
    7310:	23 2b       	or	r18, r19
    7312:	20 83       	st	Z, r18
    7314:	ea 89       	ldd	r30, Y+18	; 0x12
    7316:	fb 89       	ldd	r31, Y+19	; 0x13
    7318:	30 81       	ld	r19, Z
    731a:	2f 8d       	ldd	r18, Y+31	; 0x1f
    731c:	20 95       	com	r18
    731e:	23 23       	and	r18, r19
    7320:	20 83       	st	Z, r18
    7322:	ea 89       	ldd	r30, Y+18	; 0x12
    7324:	fb 89       	ldd	r31, Y+19	; 0x13
    7326:	30 81       	ld	r19, Z
    7328:	2f 8d       	ldd	r18, Y+31	; 0x1f
    732a:	23 2b       	or	r18, r19
    732c:	20 83       	st	Z, r18
    732e:	ea 89       	ldd	r30, Y+18	; 0x12
    7330:	fb 89       	ldd	r31, Y+19	; 0x13
    7332:	30 81       	ld	r19, Z
    7334:	2f 8d       	ldd	r18, Y+31	; 0x1f
    7336:	20 95       	com	r18
    7338:	23 23       	and	r18, r19
    733a:	20 83       	st	Z, r18
    733c:	ea 89       	ldd	r30, Y+18	; 0x12
    733e:	fb 89       	ldd	r31, Y+19	; 0x13
    7340:	30 81       	ld	r19, Z
    7342:	2f 8d       	ldd	r18, Y+31	; 0x1f
    7344:	23 2b       	or	r18, r19
    7346:	20 83       	st	Z, r18
    7348:	ea 89       	ldd	r30, Y+18	; 0x12
    734a:	fb 89       	ldd	r31, Y+19	; 0x13
    734c:	30 81       	ld	r19, Z
    734e:	2f 8d       	ldd	r18, Y+31	; 0x1f
    7350:	20 95       	com	r18
    7352:	23 23       	and	r18, r19
    7354:	20 83       	st	Z, r18
    7356:	ea 89       	ldd	r30, Y+18	; 0x12
    7358:	fb 89       	ldd	r31, Y+19	; 0x13
    735a:	30 81       	ld	r19, Z
    735c:	2f 8d       	ldd	r18, Y+31	; 0x1f
    735e:	23 2b       	or	r18, r19
    7360:	20 83       	st	Z, r18
    7362:	ea 89       	ldd	r30, Y+18	; 0x12
    7364:	fb 89       	ldd	r31, Y+19	; 0x13
    7366:	30 81       	ld	r19, Z
    7368:	2f 8d       	ldd	r18, Y+31	; 0x1f
    736a:	20 95       	com	r18
    736c:	23 23       	and	r18, r19
    736e:	20 83       	st	Z, r18
    7370:	ea 89       	ldd	r30, Y+18	; 0x12
    7372:	fb 89       	ldd	r31, Y+19	; 0x13
    7374:	30 81       	ld	r19, Z
    7376:	2f 8d       	ldd	r18, Y+31	; 0x1f
    7378:	23 2b       	or	r18, r19
    737a:	20 83       	st	Z, r18
    737c:	ea 89       	ldd	r30, Y+18	; 0x12
    737e:	fb 89       	ldd	r31, Y+19	; 0x13
    7380:	30 81       	ld	r19, Z
    7382:	2f 8d       	ldd	r18, Y+31	; 0x1f
    7384:	20 95       	com	r18
    7386:	23 23       	and	r18, r19
    7388:	20 83       	st	Z, r18
    738a:	ea 89       	ldd	r30, Y+18	; 0x12
    738c:	fb 89       	ldd	r31, Y+19	; 0x13
    738e:	30 81       	ld	r19, Z
    7390:	2f 8d       	ldd	r18, Y+31	; 0x1f
    7392:	23 2b       	or	r18, r19
    7394:	20 83       	st	Z, r18
    7396:	ea 89       	ldd	r30, Y+18	; 0x12
    7398:	fb 89       	ldd	r31, Y+19	; 0x13
    739a:	30 81       	ld	r19, Z
    739c:	2f 8d       	ldd	r18, Y+31	; 0x1f
    739e:	20 95       	com	r18
    73a0:	23 23       	and	r18, r19
    73a2:	20 83       	st	Z, r18
    73a4:	ea 89       	ldd	r30, Y+18	; 0x12
    73a6:	fb 89       	ldd	r31, Y+19	; 0x13
    73a8:	30 81       	ld	r19, Z
    73aa:	2f 8d       	ldd	r18, Y+31	; 0x1f
    73ac:	23 2b       	or	r18, r19
    73ae:	20 83       	st	Z, r18
    73b0:	ea 89       	ldd	r30, Y+18	; 0x12
    73b2:	fb 89       	ldd	r31, Y+19	; 0x13
    73b4:	30 81       	ld	r19, Z
    73b6:	2f 8d       	ldd	r18, Y+31	; 0x1f
    73b8:	20 95       	com	r18
    73ba:	23 23       	and	r18, r19
    73bc:	20 83       	st	Z, r18
    73be:	ea 89       	ldd	r30, Y+18	; 0x12
    73c0:	fb 89       	ldd	r31, Y+19	; 0x13
    73c2:	30 81       	ld	r19, Z
    73c4:	2f 8d       	ldd	r18, Y+31	; 0x1f
    73c6:	23 2b       	or	r18, r19
    73c8:	20 83       	st	Z, r18
    73ca:	ea 89       	ldd	r30, Y+18	; 0x12
    73cc:	fb 89       	ldd	r31, Y+19	; 0x13
    73ce:	30 81       	ld	r19, Z
    73d0:	2f 8d       	ldd	r18, Y+31	; 0x1f
    73d2:	20 95       	com	r18
    73d4:	23 23       	and	r18, r19
    73d6:	20 83       	st	Z, r18
    73d8:	ea 89       	ldd	r30, Y+18	; 0x12
    73da:	fb 89       	ldd	r31, Y+19	; 0x13
    73dc:	30 81       	ld	r19, Z
    73de:	2f 8d       	ldd	r18, Y+31	; 0x1f
    73e0:	23 2b       	or	r18, r19
    73e2:	20 83       	st	Z, r18
    73e4:	ea 89       	ldd	r30, Y+18	; 0x12
    73e6:	fb 89       	ldd	r31, Y+19	; 0x13
    73e8:	30 81       	ld	r19, Z
    73ea:	2f 8d       	ldd	r18, Y+31	; 0x1f
    73ec:	20 95       	com	r18
    73ee:	23 23       	and	r18, r19
    73f0:	20 83       	st	Z, r18
    73f2:	ea 89       	ldd	r30, Y+18	; 0x12
    73f4:	fb 89       	ldd	r31, Y+19	; 0x13
    73f6:	30 81       	ld	r19, Z
    73f8:	2f 8d       	ldd	r18, Y+31	; 0x1f
    73fa:	23 2b       	or	r18, r19
    73fc:	20 83       	st	Z, r18
    73fe:	ea 89       	ldd	r30, Y+18	; 0x12
    7400:	fb 89       	ldd	r31, Y+19	; 0x13
    7402:	30 81       	ld	r19, Z
    7404:	2f 8d       	ldd	r18, Y+31	; 0x1f
    7406:	20 95       	com	r18
    7408:	23 23       	and	r18, r19
    740a:	20 83       	st	Z, r18
    740c:	ea 89       	ldd	r30, Y+18	; 0x12
    740e:	fb 89       	ldd	r31, Y+19	; 0x13
    7410:	30 81       	ld	r19, Z
    7412:	2f 8d       	ldd	r18, Y+31	; 0x1f
    7414:	23 2b       	or	r18, r19
    7416:	20 83       	st	Z, r18
    7418:	ea 89       	ldd	r30, Y+18	; 0x12
    741a:	fb 89       	ldd	r31, Y+19	; 0x13
    741c:	30 81       	ld	r19, Z
    741e:	2f 8d       	ldd	r18, Y+31	; 0x1f
    7420:	20 95       	com	r18
    7422:	23 23       	and	r18, r19
    7424:	20 83       	st	Z, r18
    7426:	ea 89       	ldd	r30, Y+18	; 0x12
    7428:	fb 89       	ldd	r31, Y+19	; 0x13
    742a:	30 81       	ld	r19, Z
    742c:	2f 8d       	ldd	r18, Y+31	; 0x1f
    742e:	23 2b       	or	r18, r19
    7430:	20 83       	st	Z, r18
    7432:	ea 89       	ldd	r30, Y+18	; 0x12
    7434:	fb 89       	ldd	r31, Y+19	; 0x13
    7436:	30 81       	ld	r19, Z
    7438:	2f 8d       	ldd	r18, Y+31	; 0x1f
    743a:	20 95       	com	r18
    743c:	23 23       	and	r18, r19
    743e:	20 83       	st	Z, r18
    7440:	ea 89       	ldd	r30, Y+18	; 0x12
    7442:	fb 89       	ldd	r31, Y+19	; 0x13
    7444:	30 81       	ld	r19, Z
    7446:	2f 8d       	ldd	r18, Y+31	; 0x1f
    7448:	23 2b       	or	r18, r19
    744a:	20 83       	st	Z, r18
    744c:	ea 89       	ldd	r30, Y+18	; 0x12
    744e:	fb 89       	ldd	r31, Y+19	; 0x13
    7450:	30 81       	ld	r19, Z
    7452:	2f 8d       	ldd	r18, Y+31	; 0x1f
    7454:	20 95       	com	r18
    7456:	23 23       	and	r18, r19
    7458:	20 83       	st	Z, r18
    745a:	ea 89       	ldd	r30, Y+18	; 0x12
    745c:	fb 89       	ldd	r31, Y+19	; 0x13
    745e:	30 81       	ld	r19, Z
    7460:	2f 8d       	ldd	r18, Y+31	; 0x1f
    7462:	23 2b       	or	r18, r19
    7464:	20 83       	st	Z, r18
    7466:	ea 89       	ldd	r30, Y+18	; 0x12
    7468:	fb 89       	ldd	r31, Y+19	; 0x13
    746a:	30 81       	ld	r19, Z
    746c:	2f 8d       	ldd	r18, Y+31	; 0x1f
    746e:	20 95       	com	r18
    7470:	23 23       	and	r18, r19
    7472:	20 83       	st	Z, r18
    7474:	ea 89       	ldd	r30, Y+18	; 0x12
    7476:	fb 89       	ldd	r31, Y+19	; 0x13
    7478:	30 81       	ld	r19, Z
    747a:	2f 8d       	ldd	r18, Y+31	; 0x1f
    747c:	23 2b       	or	r18, r19
    747e:	20 83       	st	Z, r18
    7480:	ea 89       	ldd	r30, Y+18	; 0x12
    7482:	fb 89       	ldd	r31, Y+19	; 0x13
    7484:	30 81       	ld	r19, Z
    7486:	2f 8d       	ldd	r18, Y+31	; 0x1f
    7488:	20 95       	com	r18
    748a:	23 23       	and	r18, r19
    748c:	20 83       	st	Z, r18
    748e:	ea 89       	ldd	r30, Y+18	; 0x12
    7490:	fb 89       	ldd	r31, Y+19	; 0x13
    7492:	30 81       	ld	r19, Z
    7494:	2f 8d       	ldd	r18, Y+31	; 0x1f
    7496:	23 2b       	or	r18, r19
    7498:	20 83       	st	Z, r18
    749a:	ea 89       	ldd	r30, Y+18	; 0x12
    749c:	fb 89       	ldd	r31, Y+19	; 0x13
    749e:	30 81       	ld	r19, Z
    74a0:	2f 8d       	ldd	r18, Y+31	; 0x1f
    74a2:	20 95       	com	r18
    74a4:	23 23       	and	r18, r19
    74a6:	20 83       	st	Z, r18
    74a8:	ea 89       	ldd	r30, Y+18	; 0x12
    74aa:	fb 89       	ldd	r31, Y+19	; 0x13
    74ac:	30 81       	ld	r19, Z
    74ae:	2f 8d       	ldd	r18, Y+31	; 0x1f
    74b0:	23 2b       	or	r18, r19
    74b2:	20 83       	st	Z, r18
    74b4:	ea 89       	ldd	r30, Y+18	; 0x12
    74b6:	fb 89       	ldd	r31, Y+19	; 0x13
    74b8:	30 81       	ld	r19, Z
    74ba:	2f 8d       	ldd	r18, Y+31	; 0x1f
    74bc:	20 95       	com	r18
    74be:	23 23       	and	r18, r19
    74c0:	20 83       	st	Z, r18
    74c2:	ea 89       	ldd	r30, Y+18	; 0x12
    74c4:	fb 89       	ldd	r31, Y+19	; 0x13
    74c6:	30 81       	ld	r19, Z
    74c8:	2f 8d       	ldd	r18, Y+31	; 0x1f
    74ca:	23 2b       	or	r18, r19
    74cc:	20 83       	st	Z, r18
    74ce:	ea 89       	ldd	r30, Y+18	; 0x12
    74d0:	fb 89       	ldd	r31, Y+19	; 0x13
    74d2:	30 81       	ld	r19, Z
    74d4:	2f 8d       	ldd	r18, Y+31	; 0x1f
    74d6:	20 95       	com	r18
    74d8:	23 23       	and	r18, r19
    74da:	20 83       	st	Z, r18
    74dc:	ea 89       	ldd	r30, Y+18	; 0x12
    74de:	fb 89       	ldd	r31, Y+19	; 0x13
    74e0:	30 81       	ld	r19, Z
    74e2:	2f 8d       	ldd	r18, Y+31	; 0x1f
    74e4:	23 2b       	or	r18, r19
    74e6:	20 83       	st	Z, r18
    74e8:	ea 89       	ldd	r30, Y+18	; 0x12
    74ea:	fb 89       	ldd	r31, Y+19	; 0x13
    74ec:	30 81       	ld	r19, Z
    74ee:	2f 8d       	ldd	r18, Y+31	; 0x1f
    74f0:	20 95       	com	r18
    74f2:	23 23       	and	r18, r19
    74f4:	20 83       	st	Z, r18
    74f6:	ea 89       	ldd	r30, Y+18	; 0x12
    74f8:	fb 89       	ldd	r31, Y+19	; 0x13
    74fa:	30 81       	ld	r19, Z
    74fc:	2f 8d       	ldd	r18, Y+31	; 0x1f
    74fe:	23 2b       	or	r18, r19
    7500:	20 83       	st	Z, r18
    7502:	ea 89       	ldd	r30, Y+18	; 0x12
    7504:	fb 89       	ldd	r31, Y+19	; 0x13
    7506:	30 81       	ld	r19, Z
    7508:	2f 8d       	ldd	r18, Y+31	; 0x1f
    750a:	20 95       	com	r18
    750c:	23 23       	and	r18, r19
    750e:	20 83       	st	Z, r18
    7510:	ea 89       	ldd	r30, Y+18	; 0x12
    7512:	fb 89       	ldd	r31, Y+19	; 0x13
    7514:	30 81       	ld	r19, Z
    7516:	2f 8d       	ldd	r18, Y+31	; 0x1f
    7518:	23 2b       	or	r18, r19
    751a:	20 83       	st	Z, r18
    751c:	ea 89       	ldd	r30, Y+18	; 0x12
    751e:	fb 89       	ldd	r31, Y+19	; 0x13
    7520:	30 81       	ld	r19, Z
    7522:	2f 8d       	ldd	r18, Y+31	; 0x1f
    7524:	20 95       	com	r18
    7526:	23 23       	and	r18, r19
    7528:	20 83       	st	Z, r18
    752a:	ea 89       	ldd	r30, Y+18	; 0x12
    752c:	fb 89       	ldd	r31, Y+19	; 0x13
    752e:	30 81       	ld	r19, Z
    7530:	2f 8d       	ldd	r18, Y+31	; 0x1f
    7532:	23 2b       	or	r18, r19
    7534:	20 83       	st	Z, r18
    7536:	ea 89       	ldd	r30, Y+18	; 0x12
    7538:	fb 89       	ldd	r31, Y+19	; 0x13
    753a:	30 81       	ld	r19, Z
    753c:	2f 8d       	ldd	r18, Y+31	; 0x1f
    753e:	20 95       	com	r18
    7540:	23 23       	and	r18, r19
    7542:	20 83       	st	Z, r18
    7544:	ea 89       	ldd	r30, Y+18	; 0x12
    7546:	fb 89       	ldd	r31, Y+19	; 0x13
    7548:	30 81       	ld	r19, Z
    754a:	2f 8d       	ldd	r18, Y+31	; 0x1f
    754c:	23 2b       	or	r18, r19
    754e:	20 83       	st	Z, r18
    7550:	ea 89       	ldd	r30, Y+18	; 0x12
    7552:	fb 89       	ldd	r31, Y+19	; 0x13
    7554:	30 81       	ld	r19, Z
    7556:	2f 8d       	ldd	r18, Y+31	; 0x1f
    7558:	20 95       	com	r18
    755a:	23 23       	and	r18, r19
    755c:	20 83       	st	Z, r18
    755e:	ea 89       	ldd	r30, Y+18	; 0x12
    7560:	fb 89       	ldd	r31, Y+19	; 0x13
    7562:	30 81       	ld	r19, Z
    7564:	2f 8d       	ldd	r18, Y+31	; 0x1f
    7566:	23 2b       	or	r18, r19
    7568:	20 83       	st	Z, r18
    756a:	ea 89       	ldd	r30, Y+18	; 0x12
    756c:	fb 89       	ldd	r31, Y+19	; 0x13
    756e:	40 81       	ld	r20, Z
    7570:	3f 8d       	ldd	r19, Y+31	; 0x1f
    7572:	30 95       	com	r19
    7574:	34 23       	and	r19, r20
    7576:	30 83       	st	Z, r19
    7578:	ea 89       	ldd	r30, Y+18	; 0x12
    757a:	fb 89       	ldd	r31, Y+19	; 0x13
    757c:	20 81       	ld	r18, Z
    757e:	3f 8d       	ldd	r19, Y+31	; 0x1f
    7580:	32 2b       	or	r19, r18
    7582:	30 83       	st	Z, r19
    7584:	01 96       	adiw	r24, 0x01	; 1
    7586:	a1 1d       	adc	r26, r1
    7588:	b1 1d       	adc	r27, r1
    758a:	56 ce       	rjmp	.-852    	; 0x7238 <_ZN4UTFT12_fast_fill_8Eil+0x36>
    758c:	d7 01       	movw	r26, r14
    758e:	c6 01       	movw	r24, r12
    7590:	8f 70       	andi	r24, 0x0F	; 15
    7592:	99 27       	eor	r25, r25
    7594:	aa 27       	eor	r26, r26
    7596:	bb 27       	eor	r27, r27
    7598:	89 2b       	or	r24, r25
    759a:	8a 2b       	or	r24, r26
    759c:	8b 2b       	or	r24, r27
    759e:	81 f1       	breq	.+96     	; 0x7600 <_ZN4UTFT12_fast_fill_8Eil+0x3fe>
    75a0:	c7 01       	movw	r24, r14
    75a2:	b6 01       	movw	r22, r12
    75a4:	20 e1       	ldi	r18, 0x10	; 16
    75a6:	30 e0       	ldi	r19, 0x00	; 0
    75a8:	40 e0       	ldi	r20, 0x00	; 0
    75aa:	50 e0       	ldi	r21, 0x00	; 0
    75ac:	0e 94 3c 4b 	call	0x9678	; 0x9678 <__divmodsi4>
    75b0:	c1 2c       	mov	r12, r1
    75b2:	d1 2c       	mov	r13, r1
    75b4:	76 01       	movw	r14, r12
    75b6:	6c 15       	cp	r22, r12
    75b8:	7d 05       	cpc	r23, r13
    75ba:	8e 05       	cpc	r24, r14
    75bc:	9f 05       	cpc	r25, r15
    75be:	04 f1       	brlt	.+64     	; 0x7600 <_ZN4UTFT12_fast_fill_8Eil+0x3fe>
    75c0:	ea 89       	ldd	r30, Y+18	; 0x12
    75c2:	fb 89       	ldd	r31, Y+19	; 0x13
    75c4:	30 81       	ld	r19, Z
    75c6:	2f 8d       	ldd	r18, Y+31	; 0x1f
    75c8:	20 95       	com	r18
    75ca:	23 23       	and	r18, r19
    75cc:	20 83       	st	Z, r18
    75ce:	ea 89       	ldd	r30, Y+18	; 0x12
    75d0:	fb 89       	ldd	r31, Y+19	; 0x13
    75d2:	30 81       	ld	r19, Z
    75d4:	2f 8d       	ldd	r18, Y+31	; 0x1f
    75d6:	23 2b       	or	r18, r19
    75d8:	20 83       	st	Z, r18
    75da:	ea 89       	ldd	r30, Y+18	; 0x12
    75dc:	fb 89       	ldd	r31, Y+19	; 0x13
    75de:	30 81       	ld	r19, Z
    75e0:	2f 8d       	ldd	r18, Y+31	; 0x1f
    75e2:	20 95       	com	r18
    75e4:	23 23       	and	r18, r19
    75e6:	20 83       	st	Z, r18
    75e8:	ea 89       	ldd	r30, Y+18	; 0x12
    75ea:	fb 89       	ldd	r31, Y+19	; 0x13
    75ec:	30 81       	ld	r19, Z
    75ee:	2f 8d       	ldd	r18, Y+31	; 0x1f
    75f0:	23 2b       	or	r18, r19
    75f2:	20 83       	st	Z, r18
    75f4:	2f ef       	ldi	r18, 0xFF	; 255
    75f6:	c2 1a       	sub	r12, r18
    75f8:	d2 0a       	sbc	r13, r18
    75fa:	e2 0a       	sbc	r14, r18
    75fc:	f2 0a       	sbc	r15, r18
    75fe:	db cf       	rjmp	.-74     	; 0x75b6 <_ZN4UTFT12_fast_fill_8Eil+0x3b4>
    7600:	df 91       	pop	r29
    7602:	cf 91       	pop	r28
    7604:	ff 90       	pop	r15
    7606:	ef 90       	pop	r14
    7608:	df 90       	pop	r13
    760a:	cf 90       	pop	r12
    760c:	bf 90       	pop	r11
    760e:	af 90       	pop	r10
    7610:	9f 90       	pop	r9
    7612:	8f 90       	pop	r8
    7614:	08 95       	ret

00007616 <_ZN4UTFTC1Ehiiiii>:
    7616:	4f 92       	push	r4
    7618:	5f 92       	push	r5
    761a:	6f 92       	push	r6
    761c:	7f 92       	push	r7
    761e:	af 92       	push	r10
    7620:	bf 92       	push	r11
    7622:	cf 92       	push	r12
    7624:	df 92       	push	r13
    7626:	ef 92       	push	r14
    7628:	ff 92       	push	r15
    762a:	0f 93       	push	r16
    762c:	1f 93       	push	r17
    762e:	cf 93       	push	r28
    7630:	df 93       	push	r29
    7632:	cd b7       	in	r28, 0x3d	; 61
    7634:	de b7       	in	r29, 0x3e	; 62
    7636:	c4 5a       	subi	r28, 0xA4	; 164
    7638:	d1 09       	sbc	r29, r1
    763a:	0f b6       	in	r0, 0x3f	; 63
    763c:	f8 94       	cli
    763e:	de bf       	out	0x3e, r29	; 62
    7640:	0f be       	out	0x3f, r0	; 63
    7642:	cd bf       	out	0x3d, r28	; 61
    7644:	5c 01       	movw	r10, r24
    7646:	80 e4       	ldi	r24, 0x40	; 64
    7648:	e0 e2       	ldi	r30, 0x20	; 32
    764a:	f2 e0       	ldi	r31, 0x02	; 2
    764c:	de 01       	movw	r26, r28
    764e:	af 5b       	subi	r26, 0xBF	; 191
    7650:	bf 4f       	sbci	r27, 0xFF	; 255
    7652:	01 90       	ld	r0, Z+
    7654:	0d 92       	st	X+, r0
    7656:	8a 95       	dec	r24
    7658:	e1 f7       	brne	.-8      	; 0x7652 <_ZN4UTFTC1Ehiiiii+0x3c>
    765a:	80 e4       	ldi	r24, 0x40	; 64
    765c:	e0 e6       	ldi	r30, 0x60	; 96
    765e:	f2 e0       	ldi	r31, 0x02	; 2
    7660:	de 01       	movw	r26, r28
    7662:	11 96       	adiw	r26, 0x01	; 1
    7664:	01 90       	ld	r0, Z+
    7666:	0d 92       	st	X+, r0
    7668:	8a 95       	dec	r24
    766a:	e1 f7       	brne	.-8      	; 0x7664 <_ZN4UTFTC1Ehiiiii+0x4e>
    766c:	80 e2       	ldi	r24, 0x20	; 32
    766e:	e0 ea       	ldi	r30, 0xA0	; 160
    7670:	f2 e0       	ldi	r31, 0x02	; 2
    7672:	de 01       	movw	r26, r28
    7674:	af 57       	subi	r26, 0x7F	; 127
    7676:	bf 4f       	sbci	r27, 0xFF	; 255
    7678:	01 90       	ld	r0, Z+
    767a:	0d 92       	st	X+, r0
    767c:	8a 95       	dec	r24
    767e:	e1 f7       	brne	.-8      	; 0x7678 <_ZN4UTFTC1Ehiiiii+0x62>
    7680:	86 2f       	mov	r24, r22
    7682:	90 e0       	ldi	r25, 0x00	; 0
    7684:	fc 01       	movw	r30, r24
    7686:	ee 0f       	add	r30, r30
    7688:	ff 1f       	adc	r31, r31
    768a:	a1 e4       	ldi	r26, 0x41	; 65
    768c:	b0 e0       	ldi	r27, 0x00	; 0
    768e:	ac 0f       	add	r26, r28
    7690:	bd 1f       	adc	r27, r29
    7692:	ae 0f       	add	r26, r30
    7694:	bf 1f       	adc	r27, r31
    7696:	0d 90       	ld	r0, X+
    7698:	bc 91       	ld	r27, X
    769a:	a0 2d       	mov	r26, r0
    769c:	2d 01       	movw	r4, r26
    769e:	61 2c       	mov	r6, r1
    76a0:	71 2c       	mov	r7, r1
    76a2:	d5 01       	movw	r26, r10
    76a4:	15 96       	adiw	r26, 0x05	; 5
    76a6:	4d 92       	st	X+, r4
    76a8:	5d 92       	st	X+, r5
    76aa:	6d 92       	st	X+, r6
    76ac:	7c 92       	st	X, r7
    76ae:	18 97       	sbiw	r26, 0x08	; 8
    76b0:	a1 e0       	ldi	r26, 0x01	; 1
    76b2:	b0 e0       	ldi	r27, 0x00	; 0
    76b4:	ac 0f       	add	r26, r28
    76b6:	bd 1f       	adc	r27, r29
    76b8:	ea 0f       	add	r30, r26
    76ba:	fb 1f       	adc	r31, r27
    76bc:	40 80       	ld	r4, Z
    76be:	51 80       	ldd	r5, Z+1	; 0x01
    76c0:	61 2c       	mov	r6, r1
    76c2:	71 2c       	mov	r7, r1
    76c4:	f5 01       	movw	r30, r10
    76c6:	41 86       	std	Z+9, r4	; 0x09
    76c8:	52 86       	std	Z+10, r5	; 0x0a
    76ca:	63 86       	std	Z+11, r6	; 0x0b
    76cc:	74 86       	std	Z+12, r7	; 0x0c
    76ce:	e1 e8       	ldi	r30, 0x81	; 129
    76d0:	f0 e0       	ldi	r31, 0x00	; 0
    76d2:	ec 0f       	add	r30, r28
    76d4:	fd 1f       	adc	r31, r29
    76d6:	e8 0f       	add	r30, r24
    76d8:	f9 1f       	adc	r31, r25
    76da:	80 81       	ld	r24, Z
    76dc:	d5 01       	movw	r26, r10
    76de:	1e 96       	adiw	r26, 0x0e	; 14
    76e0:	8c 93       	st	X, r24
    76e2:	1e 97       	sbiw	r26, 0x0e	; 14
    76e4:	1d 96       	adiw	r26, 0x0d	; 13
    76e6:	6c 93       	st	X, r22
    76e8:	1d 97       	sbiw	r26, 0x0d	; 13
    76ea:	95 96       	adiw	r26, 0x25	; 37
    76ec:	4c 93       	st	X, r20
    76ee:	95 97       	sbiw	r26, 0x25	; 37
    76f0:	96 96       	adiw	r26, 0x26	; 38
    76f2:	2c 93       	st	X, r18
    76f4:	96 97       	sbiw	r26, 0x26	; 38
    76f6:	97 96       	adiw	r26, 0x27	; 39
    76f8:	0c 93       	st	X, r16
    76fa:	97 97       	sbiw	r26, 0x27	; 39
    76fc:	98 96       	adiw	r26, 0x28	; 40
    76fe:	ec 92       	st	X, r14
    7700:	98 97       	sbiw	r26, 0x28	; 40
    7702:	99 96       	adiw	r26, 0x29	; 41
    7704:	cc 92       	st	X, r12
    7706:	99 97       	sbiw	r26, 0x29	; 41
    7708:	84 30       	cpi	r24, 0x04	; 4
    770a:	31 f4       	brne	.+12     	; 0x7718 <_ZN4UTFTC1Ehiiiii+0x102>
    770c:	91 e0       	ldi	r25, 0x01	; 1
    770e:	1e 96       	adiw	r26, 0x0e	; 14
    7710:	9c 93       	st	X, r25
    7712:	1e 97       	sbiw	r26, 0x0e	; 14
    7714:	1f 96       	adiw	r26, 0x0f	; 15
    7716:	8c 93       	st	X, r24
    7718:	f5 01       	movw	r30, r10
    771a:	86 85       	ldd	r24, Z+14	; 0x0e
    771c:	85 30       	cpi	r24, 0x05	; 5
    771e:	19 f4       	brne	.+6      	; 0x7726 <_ZN4UTFTC1Ehiiiii+0x110>
    7720:	91 e0       	ldi	r25, 0x01	; 1
    7722:	96 87       	std	Z+14, r25	; 0x0e
    7724:	87 87       	std	Z+15, r24	; 0x0f
    7726:	d5 01       	movw	r26, r10
    7728:	1e 96       	adiw	r26, 0x0e	; 14
    772a:	6c 91       	ld	r22, X
    772c:	61 30       	cpi	r22, 0x01	; 1
    772e:	09 f4       	brne	.+2      	; 0x7732 <_ZN4UTFTC1Ehiiiii+0x11c>
    7730:	be c0       	rjmp	.+380    	; 0x78ae <_ZN4UTFTC1Ehiiiii+0x298>
    7732:	c5 01       	movw	r24, r10
    7734:	cd 55       	subi	r28, 0x5D	; 93
    7736:	df 4f       	sbci	r29, 0xFF	; 255
    7738:	28 83       	st	Y, r18
    773a:	c3 5a       	subi	r28, 0xA3	; 163
    773c:	d0 40       	sbci	r29, 0x00	; 0
    773e:	cc 55       	subi	r28, 0x5C	; 92
    7740:	df 4f       	sbci	r29, 0xFF	; 255
    7742:	38 83       	st	Y, r19
    7744:	c4 5a       	subi	r28, 0xA4	; 164
    7746:	d0 40       	sbci	r29, 0x00	; 0
    7748:	cf 55       	subi	r28, 0x5F	; 95
    774a:	df 4f       	sbci	r29, 0xFF	; 255
    774c:	48 83       	st	Y, r20
    774e:	c1 5a       	subi	r28, 0xA1	; 161
    7750:	d0 40       	sbci	r29, 0x00	; 0
    7752:	ce 55       	subi	r28, 0x5E	; 94
    7754:	df 4f       	sbci	r29, 0xFF	; 255
    7756:	58 83       	st	Y, r21
    7758:	c2 5a       	subi	r28, 0xA2	; 162
    775a:	d0 40       	sbci	r29, 0x00	; 0
    775c:	10 dc       	rcall	.-2016   	; 0x6f7e <_ZN4UTFT24_set_direction_registersEh>
    775e:	cf 55       	subi	r28, 0x5F	; 95
    7760:	df 4f       	sbci	r29, 0xFF	; 255
    7762:	48 81       	ld	r20, Y
    7764:	c1 5a       	subi	r28, 0xA1	; 161
    7766:	d0 40       	sbci	r29, 0x00	; 0
    7768:	84 2f       	mov	r24, r20
    776a:	ce 55       	subi	r28, 0x5E	; 94
    776c:	df 4f       	sbci	r29, 0xFF	; 255
    776e:	58 81       	ld	r21, Y
    7770:	c2 5a       	subi	r28, 0xA2	; 162
    7772:	d0 40       	sbci	r29, 0x00	; 0
    7774:	95 2f       	mov	r25, r21
    7776:	fc 01       	movw	r30, r24
    7778:	e6 55       	subi	r30, 0x56	; 86
    777a:	fe 4c       	sbci	r31, 0xCE	; 206
    777c:	e4 91       	lpm	r30, Z
    777e:	f0 e0       	ldi	r31, 0x00	; 0
    7780:	ee 0f       	add	r30, r30
    7782:	ff 1f       	adc	r31, r31
    7784:	e6 5f       	subi	r30, 0xF6	; 246
    7786:	fd 4c       	sbci	r31, 0xCD	; 205
    7788:	45 91       	lpm	r20, Z+
    778a:	54 91       	lpm	r21, Z
    778c:	f5 01       	movw	r30, r10
    778e:	51 8b       	std	Z+17, r21	; 0x11
    7790:	40 8b       	std	Z+16, r20	; 0x10
    7792:	fc 01       	movw	r30, r24
    7794:	ec 59       	subi	r30, 0x9C	; 156
    7796:	fe 4c       	sbci	r31, 0xCE	; 206
    7798:	e4 91       	lpm	r30, Z
    779a:	d5 01       	movw	r26, r10
    779c:	5e 96       	adiw	r26, 0x1e	; 30
    779e:	ec 93       	st	X, r30
    77a0:	5e 97       	sbiw	r26, 0x1e	; 30
    77a2:	cd 55       	subi	r28, 0x5D	; 93
    77a4:	df 4f       	sbci	r29, 0xFF	; 255
    77a6:	28 81       	ld	r18, Y
    77a8:	c3 5a       	subi	r28, 0xA3	; 163
    77aa:	d0 40       	sbci	r29, 0x00	; 0
    77ac:	82 2f       	mov	r24, r18
    77ae:	cc 55       	subi	r28, 0x5C	; 92
    77b0:	df 4f       	sbci	r29, 0xFF	; 255
    77b2:	38 81       	ld	r19, Y
    77b4:	c4 5a       	subi	r28, 0xA4	; 164
    77b6:	d0 40       	sbci	r29, 0x00	; 0
    77b8:	93 2f       	mov	r25, r19
    77ba:	fc 01       	movw	r30, r24
    77bc:	e6 55       	subi	r30, 0x56	; 86
    77be:	fe 4c       	sbci	r31, 0xCE	; 206
    77c0:	e4 91       	lpm	r30, Z
    77c2:	f0 e0       	ldi	r31, 0x00	; 0
    77c4:	ee 0f       	add	r30, r30
    77c6:	ff 1f       	adc	r31, r31
    77c8:	e6 5f       	subi	r30, 0xF6	; 246
    77ca:	fd 4c       	sbci	r31, 0xCD	; 205
    77cc:	25 91       	lpm	r18, Z+
    77ce:	34 91       	lpm	r19, Z
    77d0:	f5 01       	movw	r30, r10
    77d2:	33 8b       	std	Z+19, r19	; 0x13
    77d4:	22 8b       	std	Z+18, r18	; 0x12
    77d6:	fc 01       	movw	r30, r24
    77d8:	ec 59       	subi	r30, 0x9C	; 156
    77da:	fe 4c       	sbci	r31, 0xCE	; 206
    77dc:	e4 91       	lpm	r30, Z
    77de:	5f 96       	adiw	r26, 0x1f	; 31
    77e0:	ec 93       	st	X, r30
    77e2:	5f 97       	sbiw	r26, 0x1f	; 31
    77e4:	f8 01       	movw	r30, r16
    77e6:	e6 55       	subi	r30, 0x56	; 86
    77e8:	fe 4c       	sbci	r31, 0xCE	; 206
    77ea:	e4 91       	lpm	r30, Z
    77ec:	f0 e0       	ldi	r31, 0x00	; 0
    77ee:	ee 0f       	add	r30, r30
    77f0:	ff 1f       	adc	r31, r31
    77f2:	e6 5f       	subi	r30, 0xF6	; 246
    77f4:	fd 4c       	sbci	r31, 0xCD	; 205
    77f6:	25 91       	lpm	r18, Z+
    77f8:	34 91       	lpm	r19, Z
    77fa:	f5 01       	movw	r30, r10
    77fc:	35 8b       	std	Z+21, r19	; 0x15
    77fe:	24 8b       	std	Z+20, r18	; 0x14
    7800:	f8 01       	movw	r30, r16
    7802:	ec 59       	subi	r30, 0x9C	; 156
    7804:	fe 4c       	sbci	r31, 0xCE	; 206
    7806:	e4 91       	lpm	r30, Z
    7808:	90 96       	adiw	r26, 0x20	; 32
    780a:	ec 93       	st	X, r30
    780c:	90 97       	sbiw	r26, 0x20	; 32
    780e:	f7 01       	movw	r30, r14
    7810:	e6 55       	subi	r30, 0x56	; 86
    7812:	fe 4c       	sbci	r31, 0xCE	; 206
    7814:	e4 91       	lpm	r30, Z
    7816:	f0 e0       	ldi	r31, 0x00	; 0
    7818:	ee 0f       	add	r30, r30
    781a:	ff 1f       	adc	r31, r31
    781c:	e6 5f       	subi	r30, 0xF6	; 246
    781e:	fd 4c       	sbci	r31, 0xCD	; 205
    7820:	85 91       	lpm	r24, Z+
    7822:	94 91       	lpm	r25, Z
    7824:	f5 01       	movw	r30, r10
    7826:	97 8b       	std	Z+23, r25	; 0x17
    7828:	86 8b       	std	Z+22, r24	; 0x16
    782a:	f7 01       	movw	r30, r14
    782c:	ec 59       	subi	r30, 0x9C	; 156
    782e:	fe 4c       	sbci	r31, 0xCE	; 206
    7830:	e4 90       	lpm	r14, Z
    7832:	91 96       	adiw	r26, 0x21	; 33
    7834:	ec 92       	st	X, r14
    7836:	91 97       	sbiw	r26, 0x21	; 33
    7838:	1e 96       	adiw	r26, 0x0e	; 14
    783a:	8c 91       	ld	r24, X
    783c:	81 31       	cpi	r24, 0x11	; 17
    783e:	09 f0       	breq	.+2      	; 0x7842 <_ZN4UTFTC1Ehiiiii+0x22c>
    7840:	ab c0       	rjmp	.+342    	; 0x7998 <_ZN4UTFTC1Ehiiiii+0x382>
    7842:	f6 01       	movw	r30, r12
    7844:	e6 55       	subi	r30, 0x56	; 86
    7846:	fe 4c       	sbci	r31, 0xCE	; 206
    7848:	e4 91       	lpm	r30, Z
    784a:	f0 e0       	ldi	r31, 0x00	; 0
    784c:	ee 0f       	add	r30, r30
    784e:	ff 1f       	adc	r31, r31
    7850:	e6 5f       	subi	r30, 0xF6	; 246
    7852:	fd 4c       	sbci	r31, 0xCD	; 205
    7854:	a5 91       	lpm	r26, Z+
    7856:	b4 91       	lpm	r27, Z
    7858:	f5 01       	movw	r30, r10
    785a:	b5 8f       	std	Z+29, r27	; 0x1d
    785c:	a4 8f       	std	Z+28, r26	; 0x1c
    785e:	f6 01       	movw	r30, r12
    7860:	ec 59       	subi	r30, 0x9C	; 156
    7862:	fe 4c       	sbci	r31, 0xCE	; 206
    7864:	94 91       	lpm	r25, Z
    7866:	f5 01       	movw	r30, r10
    7868:	94 a3       	std	Z+36, r25	; 0x24
    786a:	8c 91       	ld	r24, X
    786c:	e9 2f       	mov	r30, r25
    786e:	e0 95       	com	r30
    7870:	e8 23       	and	r30, r24
    7872:	ec 93       	st	X, r30
    7874:	61 e0       	ldi	r22, 0x01	; 1
    7876:	88 e0       	ldi	r24, 0x08	; 8
    7878:	0e 94 a0 49 	call	0x9340	; 0x9340 <pinMode>
    787c:	60 e0       	ldi	r22, 0x00	; 0
    787e:	88 e0       	ldi	r24, 0x08	; 8
    7880:	cc 55       	subi	r28, 0x5C	; 92
    7882:	df 4f       	sbci	r29, 0xFF	; 255
    7884:	0f b6       	in	r0, 0x3f	; 63
    7886:	f8 94       	cli
    7888:	de bf       	out	0x3e, r29	; 62
    788a:	0f be       	out	0x3f, r0	; 63
    788c:	cd bf       	out	0x3d, r28	; 61
    788e:	df 91       	pop	r29
    7890:	cf 91       	pop	r28
    7892:	1f 91       	pop	r17
    7894:	0f 91       	pop	r16
    7896:	ff 90       	pop	r15
    7898:	ef 90       	pop	r14
    789a:	df 90       	pop	r13
    789c:	cf 90       	pop	r12
    789e:	bf 90       	pop	r11
    78a0:	af 90       	pop	r10
    78a2:	7f 90       	pop	r7
    78a4:	6f 90       	pop	r6
    78a6:	5f 90       	pop	r5
    78a8:	4f 90       	pop	r4
    78aa:	0c 94 dc 49 	jmp	0x93b8	; 0x93b8 <digitalWrite>
    78ae:	ca 01       	movw	r24, r20
    78b0:	fa 01       	movw	r30, r20
    78b2:	e6 55       	subi	r30, 0x56	; 86
    78b4:	fe 4c       	sbci	r31, 0xCE	; 206
    78b6:	e4 91       	lpm	r30, Z
    78b8:	f0 e0       	ldi	r31, 0x00	; 0
    78ba:	ee 0f       	add	r30, r30
    78bc:	ff 1f       	adc	r31, r31
    78be:	e6 5f       	subi	r30, 0xF6	; 246
    78c0:	fd 4c       	sbci	r31, 0xCD	; 205
    78c2:	45 91       	lpm	r20, Z+
    78c4:	54 91       	lpm	r21, Z
    78c6:	d5 01       	movw	r26, r10
    78c8:	59 96       	adiw	r26, 0x19	; 25
    78ca:	5c 93       	st	X, r21
    78cc:	4e 93       	st	-X, r20
    78ce:	58 97       	sbiw	r26, 0x18	; 24
    78d0:	fc 01       	movw	r30, r24
    78d2:	ec 59       	subi	r30, 0x9C	; 156
    78d4:	fe 4c       	sbci	r31, 0xCE	; 206
    78d6:	e4 91       	lpm	r30, Z
    78d8:	92 96       	adiw	r26, 0x22	; 34
    78da:	ec 93       	st	X, r30
    78dc:	92 97       	sbiw	r26, 0x22	; 34
    78de:	c9 01       	movw	r24, r18
    78e0:	f9 01       	movw	r30, r18
    78e2:	e6 55       	subi	r30, 0x56	; 86
    78e4:	fe 4c       	sbci	r31, 0xCE	; 206
    78e6:	e4 91       	lpm	r30, Z
    78e8:	f0 e0       	ldi	r31, 0x00	; 0
    78ea:	ee 0f       	add	r30, r30
    78ec:	ff 1f       	adc	r31, r31
    78ee:	e6 5f       	subi	r30, 0xF6	; 246
    78f0:	fd 4c       	sbci	r31, 0xCD	; 205
    78f2:	25 91       	lpm	r18, Z+
    78f4:	34 91       	lpm	r19, Z
    78f6:	f5 01       	movw	r30, r10
    78f8:	33 8f       	std	Z+27, r19	; 0x1b
    78fa:	22 8f       	std	Z+26, r18	; 0x1a
    78fc:	fc 01       	movw	r30, r24
    78fe:	ec 59       	subi	r30, 0x9C	; 156
    7900:	fe 4c       	sbci	r31, 0xCE	; 206
    7902:	e4 91       	lpm	r30, Z
    7904:	93 96       	adiw	r26, 0x23	; 35
    7906:	ec 93       	st	X, r30
    7908:	93 97       	sbiw	r26, 0x23	; 35
    790a:	f8 01       	movw	r30, r16
    790c:	e6 55       	subi	r30, 0x56	; 86
    790e:	fe 4c       	sbci	r31, 0xCE	; 206
    7910:	e4 91       	lpm	r30, Z
    7912:	f0 e0       	ldi	r31, 0x00	; 0
    7914:	ee 0f       	add	r30, r30
    7916:	ff 1f       	adc	r31, r31
    7918:	e6 5f       	subi	r30, 0xF6	; 246
    791a:	fd 4c       	sbci	r31, 0xCD	; 205
    791c:	25 91       	lpm	r18, Z+
    791e:	34 91       	lpm	r19, Z
    7920:	f5 01       	movw	r30, r10
    7922:	35 8b       	std	Z+21, r19	; 0x15
    7924:	24 8b       	std	Z+20, r18	; 0x14
    7926:	f8 01       	movw	r30, r16
    7928:	ec 59       	subi	r30, 0x9C	; 156
    792a:	fe 4c       	sbci	r31, 0xCE	; 206
    792c:	e4 91       	lpm	r30, Z
    792e:	90 96       	adiw	r26, 0x20	; 32
    7930:	ec 93       	st	X, r30
    7932:	bf ef       	ldi	r27, 0xFF	; 255
    7934:	eb 16       	cp	r14, r27
    7936:	f1 04       	cpc	r15, r1
    7938:	a9 f0       	breq	.+42     	; 0x7964 <_ZN4UTFTC1Ehiiiii+0x34e>
    793a:	f7 01       	movw	r30, r14
    793c:	e6 55       	subi	r30, 0x56	; 86
    793e:	fe 4c       	sbci	r31, 0xCE	; 206
    7940:	e4 91       	lpm	r30, Z
    7942:	f0 e0       	ldi	r31, 0x00	; 0
    7944:	ee 0f       	add	r30, r30
    7946:	ff 1f       	adc	r31, r31
    7948:	e6 5f       	subi	r30, 0xF6	; 246
    794a:	fd 4c       	sbci	r31, 0xCD	; 205
    794c:	85 91       	lpm	r24, Z+
    794e:	94 91       	lpm	r25, Z
    7950:	f5 01       	movw	r30, r10
    7952:	97 8b       	std	Z+23, r25	; 0x17
    7954:	86 8b       	std	Z+22, r24	; 0x16
    7956:	f7 01       	movw	r30, r14
    7958:	ec 59       	subi	r30, 0x9C	; 156
    795a:	fe 4c       	sbci	r31, 0xCE	; 206
    795c:	e4 90       	lpm	r14, Z
    795e:	d5 01       	movw	r26, r10
    7960:	91 96       	adiw	r26, 0x21	; 33
    7962:	ec 92       	st	X, r14
    7964:	f5 01       	movw	r30, r10
    7966:	87 85       	ldd	r24, Z+15	; 0x0f
    7968:	84 30       	cpi	r24, 0x04	; 4
    796a:	b1 f0       	breq	.+44     	; 0x7998 <_ZN4UTFTC1Ehiiiii+0x382>
    796c:	f6 01       	movw	r30, r12
    796e:	e6 55       	subi	r30, 0x56	; 86
    7970:	fe 4c       	sbci	r31, 0xCE	; 206
    7972:	e4 91       	lpm	r30, Z
    7974:	f0 e0       	ldi	r31, 0x00	; 0
    7976:	ee 0f       	add	r30, r30
    7978:	ff 1f       	adc	r31, r31
    797a:	e6 5f       	subi	r30, 0xF6	; 246
    797c:	fd 4c       	sbci	r31, 0xCD	; 205
    797e:	25 91       	lpm	r18, Z+
    7980:	34 91       	lpm	r19, Z
    7982:	d5 01       	movw	r26, r10
    7984:	51 96       	adiw	r26, 0x11	; 17
    7986:	3c 93       	st	X, r19
    7988:	2e 93       	st	-X, r18
    798a:	50 97       	sbiw	r26, 0x10	; 16
    798c:	f6 01       	movw	r30, r12
    798e:	ec 59       	subi	r30, 0x9C	; 156
    7990:	fe 4c       	sbci	r31, 0xCE	; 206
    7992:	e4 91       	lpm	r30, Z
    7994:	5e 96       	adiw	r26, 0x1e	; 30
    7996:	ec 93       	st	X, r30
    7998:	cc 55       	subi	r28, 0x5C	; 92
    799a:	df 4f       	sbci	r29, 0xFF	; 255
    799c:	0f b6       	in	r0, 0x3f	; 63
    799e:	f8 94       	cli
    79a0:	de bf       	out	0x3e, r29	; 62
    79a2:	0f be       	out	0x3f, r0	; 63
    79a4:	cd bf       	out	0x3d, r28	; 61
    79a6:	df 91       	pop	r29
    79a8:	cf 91       	pop	r28
    79aa:	1f 91       	pop	r17
    79ac:	0f 91       	pop	r16
    79ae:	ff 90       	pop	r15
    79b0:	ef 90       	pop	r14
    79b2:	df 90       	pop	r13
    79b4:	cf 90       	pop	r12
    79b6:	bf 90       	pop	r11
    79b8:	af 90       	pop	r10
    79ba:	7f 90       	pop	r7
    79bc:	6f 90       	pop	r6
    79be:	5f 90       	pop	r5
    79c0:	4f 90       	pop	r4
    79c2:	08 95       	ret

000079c4 <_ZN4UTFT13LCD_Write_COMEc>:
    79c4:	46 2f       	mov	r20, r22
    79c6:	dc 01       	movw	r26, r24
    79c8:	1e 96       	adiw	r26, 0x0e	; 14
    79ca:	2c 91       	ld	r18, X
    79cc:	1e 97       	sbiw	r26, 0x0e	; 14
    79ce:	21 30       	cpi	r18, 0x01	; 1
    79d0:	71 f0       	breq	.+28     	; 0x79ee <_ZN4UTFT13LCD_Write_COMEc+0x2a>
    79d2:	50 96       	adiw	r26, 0x10	; 16
    79d4:	ed 91       	ld	r30, X+
    79d6:	fc 91       	ld	r31, X
    79d8:	51 97       	sbiw	r26, 0x11	; 17
    79da:	30 81       	ld	r19, Z
    79dc:	5e 96       	adiw	r26, 0x1e	; 30
    79de:	2c 91       	ld	r18, X
    79e0:	5e 97       	sbiw	r26, 0x1e	; 30
    79e2:	20 95       	com	r18
    79e4:	23 23       	and	r18, r19
    79e6:	20 83       	st	Z, r18
    79e8:	1e 96       	adiw	r26, 0x0e	; 14
    79ea:	2c 91       	ld	r18, X
    79ec:	01 c0       	rjmp	.+2      	; 0x79f0 <_ZN4UTFT13LCD_Write_COMEc+0x2c>
    79ee:	21 e0       	ldi	r18, 0x01	; 1
    79f0:	60 e0       	ldi	r22, 0x00	; 0
    79f2:	2e c9       	rjmp	.-3492   	; 0x6c50 <_ZN4UTFT12LCD_Writ_BusEcch>

000079f4 <_ZN4UTFT14LCD_Write_DATAEcc>:
    79f4:	1f 93       	push	r17
    79f6:	cf 93       	push	r28
    79f8:	df 93       	push	r29
    79fa:	dc 01       	movw	r26, r24
    79fc:	1e 96       	adiw	r26, 0x0e	; 14
    79fe:	2c 91       	ld	r18, X
    7a00:	1e 97       	sbiw	r26, 0x0e	; 14
    7a02:	21 30       	cpi	r18, 0x01	; 1
    7a04:	69 f0       	breq	.+26     	; 0x7a20 <_ZN4UTFT14LCD_Write_DATAEcc+0x2c>
    7a06:	50 96       	adiw	r26, 0x10	; 16
    7a08:	ed 91       	ld	r30, X+
    7a0a:	fc 91       	ld	r31, X
    7a0c:	51 97       	sbiw	r26, 0x11	; 17
    7a0e:	30 81       	ld	r19, Z
    7a10:	5e 96       	adiw	r26, 0x1e	; 30
    7a12:	2c 91       	ld	r18, X
    7a14:	5e 97       	sbiw	r26, 0x1e	; 30
    7a16:	23 2b       	or	r18, r19
    7a18:	20 83       	st	Z, r18
    7a1a:	1e 96       	adiw	r26, 0x0e	; 14
    7a1c:	2c 91       	ld	r18, X
    7a1e:	0a c0       	rjmp	.+20     	; 0x7a34 <_ZN4UTFT14LCD_Write_DATAEcc+0x40>
    7a20:	14 2f       	mov	r17, r20
    7a22:	46 2f       	mov	r20, r22
    7a24:	ec 01       	movw	r28, r24
    7a26:	21 e0       	ldi	r18, 0x01	; 1
    7a28:	61 e0       	ldi	r22, 0x01	; 1
    7a2a:	12 d9       	rcall	.-3548   	; 0x6c50 <_ZN4UTFT12LCD_Writ_BusEcch>
    7a2c:	2e 85       	ldd	r18, Y+14	; 0x0e
    7a2e:	41 2f       	mov	r20, r17
    7a30:	61 e0       	ldi	r22, 0x01	; 1
    7a32:	ce 01       	movw	r24, r28
    7a34:	df 91       	pop	r29
    7a36:	cf 91       	pop	r28
    7a38:	1f 91       	pop	r17
    7a3a:	0a c9       	rjmp	.-3564   	; 0x6c50 <_ZN4UTFT12LCD_Writ_BusEcch>

00007a3c <_ZN4UTFT14LCD_Write_DATAEc>:
    7a3c:	46 2f       	mov	r20, r22
    7a3e:	dc 01       	movw	r26, r24
    7a40:	1e 96       	adiw	r26, 0x0e	; 14
    7a42:	2c 91       	ld	r18, X
    7a44:	1e 97       	sbiw	r26, 0x0e	; 14
    7a46:	21 30       	cpi	r18, 0x01	; 1
    7a48:	71 f0       	breq	.+28     	; 0x7a66 <_ZN4UTFT14LCD_Write_DATAEc+0x2a>
    7a4a:	50 96       	adiw	r26, 0x10	; 16
    7a4c:	ed 91       	ld	r30, X+
    7a4e:	fc 91       	ld	r31, X
    7a50:	51 97       	sbiw	r26, 0x11	; 17
    7a52:	30 81       	ld	r19, Z
    7a54:	5e 96       	adiw	r26, 0x1e	; 30
    7a56:	2c 91       	ld	r18, X
    7a58:	5e 97       	sbiw	r26, 0x1e	; 30
    7a5a:	23 2b       	or	r18, r19
    7a5c:	20 83       	st	Z, r18
    7a5e:	1e 96       	adiw	r26, 0x0e	; 14
    7a60:	2c 91       	ld	r18, X
    7a62:	60 e0       	ldi	r22, 0x00	; 0
    7a64:	02 c0       	rjmp	.+4      	; 0x7a6a <_ZN4UTFT14LCD_Write_DATAEc+0x2e>
    7a66:	21 e0       	ldi	r18, 0x01	; 1
    7a68:	61 e0       	ldi	r22, 0x01	; 1
    7a6a:	f2 c8       	rjmp	.-3612   	; 0x6c50 <_ZN4UTFT12LCD_Writ_BusEcch>

00007a6c <_ZN4UTFT7InitLCDEh>:
    7a6c:	cf 93       	push	r28
    7a6e:	df 93       	push	r29
    7a70:	ec 01       	movw	r28, r24
    7a72:	6c 83       	std	Y+4, r22	; 0x04
    7a74:	61 e0       	ldi	r22, 0x01	; 1
    7a76:	8d a1       	ldd	r24, Y+37	; 0x25
    7a78:	0e 94 a0 49 	call	0x9340	; 0x9340 <pinMode>
    7a7c:	61 e0       	ldi	r22, 0x01	; 1
    7a7e:	8e a1       	ldd	r24, Y+38	; 0x26
    7a80:	0e 94 a0 49 	call	0x9340	; 0x9340 <pinMode>
    7a84:	61 e0       	ldi	r22, 0x01	; 1
    7a86:	8f a1       	ldd	r24, Y+39	; 0x27
    7a88:	0e 94 a0 49 	call	0x9340	; 0x9340 <pinMode>
    7a8c:	88 a5       	ldd	r24, Y+40	; 0x28
    7a8e:	8f 3f       	cpi	r24, 0xFF	; 255
    7a90:	19 f0       	breq	.+6      	; 0x7a98 <_ZN4UTFT7InitLCDEh+0x2c>
    7a92:	61 e0       	ldi	r22, 0x01	; 1
    7a94:	0e 94 a0 49 	call	0x9340	; 0x9340 <pinMode>
    7a98:	8e 85       	ldd	r24, Y+14	; 0x0e
    7a9a:	81 31       	cpi	r24, 0x11	; 17
    7a9c:	29 f0       	breq	.+10     	; 0x7aa8 <_ZN4UTFT7InitLCDEh+0x3c>
    7a9e:	81 30       	cpi	r24, 0x01	; 1
    7aa0:	39 f4       	brne	.+14     	; 0x7ab0 <_ZN4UTFT7InitLCDEh+0x44>
    7aa2:	8f 85       	ldd	r24, Y+15	; 0x0f
    7aa4:	85 30       	cpi	r24, 0x05	; 5
    7aa6:	21 f4       	brne	.+8      	; 0x7ab0 <_ZN4UTFT7InitLCDEh+0x44>
    7aa8:	61 e0       	ldi	r22, 0x01	; 1
    7aaa:	89 a5       	ldd	r24, Y+41	; 0x29
    7aac:	0e 94 a0 49 	call	0x9340	; 0x9340 <pinMode>
    7ab0:	6e 85       	ldd	r22, Y+14	; 0x0e
    7ab2:	61 30       	cpi	r22, 0x01	; 1
    7ab4:	11 f0       	breq	.+4      	; 0x7aba <_ZN4UTFT7InitLCDEh+0x4e>
    7ab6:	ce 01       	movw	r24, r28
    7ab8:	62 da       	rcall	.-2876   	; 0x6f7e <_ZN4UTFT24_set_direction_registersEh>
    7aba:	ee 89       	ldd	r30, Y+22	; 0x16
    7abc:	ff 89       	ldd	r31, Y+23	; 0x17
    7abe:	90 81       	ld	r25, Z
    7ac0:	89 a1       	ldd	r24, Y+33	; 0x21
    7ac2:	89 2b       	or	r24, r25
    7ac4:	80 83       	st	Z, r24
    7ac6:	65 e0       	ldi	r22, 0x05	; 5
    7ac8:	70 e0       	ldi	r23, 0x00	; 0
    7aca:	80 e0       	ldi	r24, 0x00	; 0
    7acc:	90 e0       	ldi	r25, 0x00	; 0
    7ace:	0e 94 28 2f 	call	0x5e50	; 0x5e50 <delay>
    7ad2:	ee 89       	ldd	r30, Y+22	; 0x16
    7ad4:	ff 89       	ldd	r31, Y+23	; 0x17
    7ad6:	90 81       	ld	r25, Z
    7ad8:	89 a1       	ldd	r24, Y+33	; 0x21
    7ada:	80 95       	com	r24
    7adc:	89 23       	and	r24, r25
    7ade:	80 83       	st	Z, r24
    7ae0:	6f e0       	ldi	r22, 0x0F	; 15
    7ae2:	70 e0       	ldi	r23, 0x00	; 0
    7ae4:	80 e0       	ldi	r24, 0x00	; 0
    7ae6:	90 e0       	ldi	r25, 0x00	; 0
    7ae8:	0e 94 28 2f 	call	0x5e50	; 0x5e50 <delay>
    7aec:	ee 89       	ldd	r30, Y+22	; 0x16
    7aee:	ff 89       	ldd	r31, Y+23	; 0x17
    7af0:	90 81       	ld	r25, Z
    7af2:	89 a1       	ldd	r24, Y+33	; 0x21
    7af4:	89 2b       	or	r24, r25
    7af6:	80 83       	st	Z, r24
    7af8:	6f e0       	ldi	r22, 0x0F	; 15
    7afa:	70 e0       	ldi	r23, 0x00	; 0
    7afc:	80 e0       	ldi	r24, 0x00	; 0
    7afe:	90 e0       	ldi	r25, 0x00	; 0
    7b00:	0e 94 28 2f 	call	0x5e50	; 0x5e50 <delay>
    7b04:	ec 89       	ldd	r30, Y+20	; 0x14
    7b06:	fd 89       	ldd	r31, Y+21	; 0x15
    7b08:	90 81       	ld	r25, Z
    7b0a:	88 a1       	ldd	r24, Y+32	; 0x20
    7b0c:	80 95       	com	r24
    7b0e:	89 23       	and	r24, r25
    7b10:	80 83       	st	Z, r24
    7b12:	8d 85       	ldd	r24, Y+13	; 0x0d
    7b14:	81 31       	cpi	r24, 0x11	; 17
    7b16:	09 f0       	breq	.+2      	; 0x7b1a <_ZN4UTFT7InitLCDEh+0xae>
    7b18:	93 c0       	rjmp	.+294    	; 0x7c40 <_ZN4UTFT7InitLCDEh+0x1d4>
    7b1a:	6b ec       	ldi	r22, 0xCB	; 203
    7b1c:	ce 01       	movw	r24, r28
    7b1e:	52 df       	rcall	.-348    	; 0x79c4 <_ZN4UTFT13LCD_Write_COMEc>
    7b20:	69 e3       	ldi	r22, 0x39	; 57
    7b22:	ce 01       	movw	r24, r28
    7b24:	8b df       	rcall	.-234    	; 0x7a3c <_ZN4UTFT14LCD_Write_DATAEc>
    7b26:	6c e2       	ldi	r22, 0x2C	; 44
    7b28:	ce 01       	movw	r24, r28
    7b2a:	88 df       	rcall	.-240    	; 0x7a3c <_ZN4UTFT14LCD_Write_DATAEc>
    7b2c:	60 e0       	ldi	r22, 0x00	; 0
    7b2e:	ce 01       	movw	r24, r28
    7b30:	85 df       	rcall	.-246    	; 0x7a3c <_ZN4UTFT14LCD_Write_DATAEc>
    7b32:	64 e3       	ldi	r22, 0x34	; 52
    7b34:	ce 01       	movw	r24, r28
    7b36:	82 df       	rcall	.-252    	; 0x7a3c <_ZN4UTFT14LCD_Write_DATAEc>
    7b38:	62 e0       	ldi	r22, 0x02	; 2
    7b3a:	ce 01       	movw	r24, r28
    7b3c:	7f df       	rcall	.-258    	; 0x7a3c <_ZN4UTFT14LCD_Write_DATAEc>
    7b3e:	6f ec       	ldi	r22, 0xCF	; 207
    7b40:	ce 01       	movw	r24, r28
    7b42:	40 df       	rcall	.-384    	; 0x79c4 <_ZN4UTFT13LCD_Write_COMEc>
    7b44:	60 e0       	ldi	r22, 0x00	; 0
    7b46:	ce 01       	movw	r24, r28
    7b48:	79 df       	rcall	.-270    	; 0x7a3c <_ZN4UTFT14LCD_Write_DATAEc>
    7b4a:	61 ec       	ldi	r22, 0xC1	; 193
    7b4c:	ce 01       	movw	r24, r28
    7b4e:	76 df       	rcall	.-276    	; 0x7a3c <_ZN4UTFT14LCD_Write_DATAEc>
    7b50:	60 e3       	ldi	r22, 0x30	; 48
    7b52:	ce 01       	movw	r24, r28
    7b54:	73 df       	rcall	.-282    	; 0x7a3c <_ZN4UTFT14LCD_Write_DATAEc>
    7b56:	68 ee       	ldi	r22, 0xE8	; 232
    7b58:	ce 01       	movw	r24, r28
    7b5a:	34 df       	rcall	.-408    	; 0x79c4 <_ZN4UTFT13LCD_Write_COMEc>
    7b5c:	65 e8       	ldi	r22, 0x85	; 133
    7b5e:	ce 01       	movw	r24, r28
    7b60:	6d df       	rcall	.-294    	; 0x7a3c <_ZN4UTFT14LCD_Write_DATAEc>
    7b62:	60 e0       	ldi	r22, 0x00	; 0
    7b64:	ce 01       	movw	r24, r28
    7b66:	6a df       	rcall	.-300    	; 0x7a3c <_ZN4UTFT14LCD_Write_DATAEc>
    7b68:	68 e7       	ldi	r22, 0x78	; 120
    7b6a:	ce 01       	movw	r24, r28
    7b6c:	67 df       	rcall	.-306    	; 0x7a3c <_ZN4UTFT14LCD_Write_DATAEc>
    7b6e:	6a ee       	ldi	r22, 0xEA	; 234
    7b70:	ce 01       	movw	r24, r28
    7b72:	28 df       	rcall	.-432    	; 0x79c4 <_ZN4UTFT13LCD_Write_COMEc>
    7b74:	60 e0       	ldi	r22, 0x00	; 0
    7b76:	ce 01       	movw	r24, r28
    7b78:	61 df       	rcall	.-318    	; 0x7a3c <_ZN4UTFT14LCD_Write_DATAEc>
    7b7a:	60 e0       	ldi	r22, 0x00	; 0
    7b7c:	ce 01       	movw	r24, r28
    7b7e:	5e df       	rcall	.-324    	; 0x7a3c <_ZN4UTFT14LCD_Write_DATAEc>
    7b80:	6d ee       	ldi	r22, 0xED	; 237
    7b82:	ce 01       	movw	r24, r28
    7b84:	1f df       	rcall	.-450    	; 0x79c4 <_ZN4UTFT13LCD_Write_COMEc>
    7b86:	64 e6       	ldi	r22, 0x64	; 100
    7b88:	ce 01       	movw	r24, r28
    7b8a:	58 df       	rcall	.-336    	; 0x7a3c <_ZN4UTFT14LCD_Write_DATAEc>
    7b8c:	63 e0       	ldi	r22, 0x03	; 3
    7b8e:	ce 01       	movw	r24, r28
    7b90:	55 df       	rcall	.-342    	; 0x7a3c <_ZN4UTFT14LCD_Write_DATAEc>
    7b92:	62 e1       	ldi	r22, 0x12	; 18
    7b94:	ce 01       	movw	r24, r28
    7b96:	52 df       	rcall	.-348    	; 0x7a3c <_ZN4UTFT14LCD_Write_DATAEc>
    7b98:	61 e8       	ldi	r22, 0x81	; 129
    7b9a:	ce 01       	movw	r24, r28
    7b9c:	4f df       	rcall	.-354    	; 0x7a3c <_ZN4UTFT14LCD_Write_DATAEc>
    7b9e:	67 ef       	ldi	r22, 0xF7	; 247
    7ba0:	ce 01       	movw	r24, r28
    7ba2:	10 df       	rcall	.-480    	; 0x79c4 <_ZN4UTFT13LCD_Write_COMEc>
    7ba4:	60 e2       	ldi	r22, 0x20	; 32
    7ba6:	ce 01       	movw	r24, r28
    7ba8:	49 df       	rcall	.-366    	; 0x7a3c <_ZN4UTFT14LCD_Write_DATAEc>
    7baa:	60 ec       	ldi	r22, 0xC0	; 192
    7bac:	ce 01       	movw	r24, r28
    7bae:	0a df       	rcall	.-492    	; 0x79c4 <_ZN4UTFT13LCD_Write_COMEc>
    7bb0:	63 e2       	ldi	r22, 0x23	; 35
    7bb2:	ce 01       	movw	r24, r28
    7bb4:	43 df       	rcall	.-378    	; 0x7a3c <_ZN4UTFT14LCD_Write_DATAEc>
    7bb6:	61 ec       	ldi	r22, 0xC1	; 193
    7bb8:	ce 01       	movw	r24, r28
    7bba:	04 df       	rcall	.-504    	; 0x79c4 <_ZN4UTFT13LCD_Write_COMEc>
    7bbc:	60 e1       	ldi	r22, 0x10	; 16
    7bbe:	ce 01       	movw	r24, r28
    7bc0:	3d df       	rcall	.-390    	; 0x7a3c <_ZN4UTFT14LCD_Write_DATAEc>
    7bc2:	65 ec       	ldi	r22, 0xC5	; 197
    7bc4:	ce 01       	movw	r24, r28
    7bc6:	fe de       	rcall	.-516    	; 0x79c4 <_ZN4UTFT13LCD_Write_COMEc>
    7bc8:	6e e3       	ldi	r22, 0x3E	; 62
    7bca:	ce 01       	movw	r24, r28
    7bcc:	37 df       	rcall	.-402    	; 0x7a3c <_ZN4UTFT14LCD_Write_DATAEc>
    7bce:	68 e2       	ldi	r22, 0x28	; 40
    7bd0:	ce 01       	movw	r24, r28
    7bd2:	34 df       	rcall	.-408    	; 0x7a3c <_ZN4UTFT14LCD_Write_DATAEc>
    7bd4:	67 ec       	ldi	r22, 0xC7	; 199
    7bd6:	ce 01       	movw	r24, r28
    7bd8:	f5 de       	rcall	.-534    	; 0x79c4 <_ZN4UTFT13LCD_Write_COMEc>
    7bda:	66 e8       	ldi	r22, 0x86	; 134
    7bdc:	ce 01       	movw	r24, r28
    7bde:	2e df       	rcall	.-420    	; 0x7a3c <_ZN4UTFT14LCD_Write_DATAEc>
    7be0:	66 e3       	ldi	r22, 0x36	; 54
    7be2:	ce 01       	movw	r24, r28
    7be4:	ef de       	rcall	.-546    	; 0x79c4 <_ZN4UTFT13LCD_Write_COMEc>
    7be6:	60 e8       	ldi	r22, 0x80	; 128
    7be8:	ce 01       	movw	r24, r28
    7bea:	28 df       	rcall	.-432    	; 0x7a3c <_ZN4UTFT14LCD_Write_DATAEc>
    7bec:	6a e3       	ldi	r22, 0x3A	; 58
    7bee:	ce 01       	movw	r24, r28
    7bf0:	e9 de       	rcall	.-558    	; 0x79c4 <_ZN4UTFT13LCD_Write_COMEc>
    7bf2:	65 e5       	ldi	r22, 0x55	; 85
    7bf4:	ce 01       	movw	r24, r28
    7bf6:	22 df       	rcall	.-444    	; 0x7a3c <_ZN4UTFT14LCD_Write_DATAEc>
    7bf8:	61 eb       	ldi	r22, 0xB1	; 177
    7bfa:	ce 01       	movw	r24, r28
    7bfc:	e3 de       	rcall	.-570    	; 0x79c4 <_ZN4UTFT13LCD_Write_COMEc>
    7bfe:	60 e0       	ldi	r22, 0x00	; 0
    7c00:	ce 01       	movw	r24, r28
    7c02:	1c df       	rcall	.-456    	; 0x7a3c <_ZN4UTFT14LCD_Write_DATAEc>
    7c04:	68 e1       	ldi	r22, 0x18	; 24
    7c06:	ce 01       	movw	r24, r28
    7c08:	19 df       	rcall	.-462    	; 0x7a3c <_ZN4UTFT14LCD_Write_DATAEc>
    7c0a:	66 eb       	ldi	r22, 0xB6	; 182
    7c0c:	ce 01       	movw	r24, r28
    7c0e:	da de       	rcall	.-588    	; 0x79c4 <_ZN4UTFT13LCD_Write_COMEc>
    7c10:	68 e0       	ldi	r22, 0x08	; 8
    7c12:	ce 01       	movw	r24, r28
    7c14:	13 df       	rcall	.-474    	; 0x7a3c <_ZN4UTFT14LCD_Write_DATAEc>
    7c16:	62 e8       	ldi	r22, 0x82	; 130
    7c18:	ce 01       	movw	r24, r28
    7c1a:	10 df       	rcall	.-480    	; 0x7a3c <_ZN4UTFT14LCD_Write_DATAEc>
    7c1c:	67 e2       	ldi	r22, 0x27	; 39
    7c1e:	ce 01       	movw	r24, r28
    7c20:	0d df       	rcall	.-486    	; 0x7a3c <_ZN4UTFT14LCD_Write_DATAEc>
    7c22:	61 e1       	ldi	r22, 0x11	; 17
    7c24:	ce 01       	movw	r24, r28
    7c26:	ce de       	rcall	.-612    	; 0x79c4 <_ZN4UTFT13LCD_Write_COMEc>
    7c28:	68 e7       	ldi	r22, 0x78	; 120
    7c2a:	70 e0       	ldi	r23, 0x00	; 0
    7c2c:	80 e0       	ldi	r24, 0x00	; 0
    7c2e:	90 e0       	ldi	r25, 0x00	; 0
    7c30:	0e 94 28 2f 	call	0x5e50	; 0x5e50 <delay>
    7c34:	69 e2       	ldi	r22, 0x29	; 41
    7c36:	ce 01       	movw	r24, r28
    7c38:	c5 de       	rcall	.-630    	; 0x79c4 <_ZN4UTFT13LCD_Write_COMEc>
    7c3a:	6c e2       	ldi	r22, 0x2C	; 44
    7c3c:	ce 01       	movw	r24, r28
    7c3e:	c2 de       	rcall	.-636    	; 0x79c4 <_ZN4UTFT13LCD_Write_COMEc>
    7c40:	ec 89       	ldd	r30, Y+20	; 0x14
    7c42:	fd 89       	ldd	r31, Y+21	; 0x15
    7c44:	90 81       	ld	r25, Z
    7c46:	88 a1       	ldd	r24, Y+32	; 0x20
    7c48:	89 2b       	or	r24, r25
    7c4a:	80 83       	st	Z, r24
    7c4c:	8f ef       	ldi	r24, 0xFF	; 255
    7c4e:	88 83       	st	Y, r24
    7c50:	89 83       	std	Y+1, r24	; 0x01
    7c52:	1a 82       	std	Y+2, r1	; 0x02
    7c54:	1b 82       	std	Y+3, r1	; 0x03
    7c56:	18 aa       	std	Y+48, r1	; 0x30
    7c58:	1b a6       	std	Y+43, r1	; 0x2b
    7c5a:	1a a6       	std	Y+42, r1	; 0x2a
    7c5c:	df 91       	pop	r29
    7c5e:	cf 91       	pop	r28
    7c60:	08 95       	ret

00007c62 <_ZN4UTFT5setXYEjjjj>:
    7c62:	af 92       	push	r10
    7c64:	bf 92       	push	r11
    7c66:	cf 92       	push	r12
    7c68:	df 92       	push	r13
    7c6a:	ef 92       	push	r14
    7c6c:	ff 92       	push	r15
    7c6e:	0f 93       	push	r16
    7c70:	1f 93       	push	r17
    7c72:	cf 93       	push	r28
    7c74:	df 93       	push	r29
    7c76:	1f 92       	push	r1
    7c78:	1f 92       	push	r1
    7c7a:	cd b7       	in	r28, 0x3d	; 61
    7c7c:	de b7       	in	r29, 0x3e	; 62
    7c7e:	5c 01       	movw	r10, r24
    7c80:	6b 01       	movw	r12, r22
    7c82:	79 01       	movw	r14, r18
    7c84:	fc 01       	movw	r30, r24
    7c86:	84 81       	ldd	r24, Z+4	; 0x04
    7c88:	81 30       	cpi	r24, 0x01	; 1
    7c8a:	59 f4       	brne	.+22     	; 0x7ca2 <_ZN4UTFT5setXYEjjjj+0x40>
    7c8c:	81 85       	ldd	r24, Z+9	; 0x09
    7c8e:	92 85       	ldd	r25, Z+10	; 0x0a
    7c90:	9c 01       	movw	r18, r24
    7c92:	26 1b       	sub	r18, r22
    7c94:	37 0b       	sbc	r19, r23
    7c96:	8e 19       	sub	r24, r14
    7c98:	9f 09       	sbc	r25, r15
    7c9a:	78 01       	movw	r14, r16
    7c9c:	89 01       	movw	r16, r18
    7c9e:	6a 01       	movw	r12, r20
    7ca0:	ac 01       	movw	r20, r24
    7ca2:	f5 01       	movw	r30, r10
    7ca4:	85 85       	ldd	r24, Z+13	; 0x0d
    7ca6:	81 31       	cpi	r24, 0x11	; 17
    7ca8:	89 f5       	brne	.+98     	; 0x7d0c <_ZN4UTFT5setXYEjjjj+0xaa>
    7caa:	6a e2       	ldi	r22, 0x2A	; 42
    7cac:	c5 01       	movw	r24, r10
    7cae:	4a 83       	std	Y+2, r20	; 0x02
    7cb0:	59 83       	std	Y+1, r21	; 0x01
    7cb2:	88 de       	rcall	.-752    	; 0x79c4 <_ZN4UTFT13LCD_Write_COMEc>
    7cb4:	6d 2d       	mov	r22, r13
    7cb6:	c5 01       	movw	r24, r10
    7cb8:	c1 de       	rcall	.-638    	; 0x7a3c <_ZN4UTFT14LCD_Write_DATAEc>
    7cba:	6c 2d       	mov	r22, r12
    7cbc:	c5 01       	movw	r24, r10
    7cbe:	be de       	rcall	.-644    	; 0x7a3c <_ZN4UTFT14LCD_Write_DATAEc>
    7cc0:	6f 2d       	mov	r22, r15
    7cc2:	c5 01       	movw	r24, r10
    7cc4:	bb de       	rcall	.-650    	; 0x7a3c <_ZN4UTFT14LCD_Write_DATAEc>
    7cc6:	6e 2d       	mov	r22, r14
    7cc8:	c5 01       	movw	r24, r10
    7cca:	b8 de       	rcall	.-656    	; 0x7a3c <_ZN4UTFT14LCD_Write_DATAEc>
    7ccc:	6b e2       	ldi	r22, 0x2B	; 43
    7cce:	c5 01       	movw	r24, r10
    7cd0:	79 de       	rcall	.-782    	; 0x79c4 <_ZN4UTFT13LCD_Write_COMEc>
    7cd2:	59 81       	ldd	r21, Y+1	; 0x01
    7cd4:	65 2f       	mov	r22, r21
    7cd6:	c5 01       	movw	r24, r10
    7cd8:	b1 de       	rcall	.-670    	; 0x7a3c <_ZN4UTFT14LCD_Write_DATAEc>
    7cda:	4a 81       	ldd	r20, Y+2	; 0x02
    7cdc:	64 2f       	mov	r22, r20
    7cde:	c5 01       	movw	r24, r10
    7ce0:	ad de       	rcall	.-678    	; 0x7a3c <_ZN4UTFT14LCD_Write_DATAEc>
    7ce2:	61 2f       	mov	r22, r17
    7ce4:	c5 01       	movw	r24, r10
    7ce6:	aa de       	rcall	.-684    	; 0x7a3c <_ZN4UTFT14LCD_Write_DATAEc>
    7ce8:	60 2f       	mov	r22, r16
    7cea:	c5 01       	movw	r24, r10
    7cec:	a7 de       	rcall	.-690    	; 0x7a3c <_ZN4UTFT14LCD_Write_DATAEc>
    7cee:	6c e2       	ldi	r22, 0x2C	; 44
    7cf0:	c5 01       	movw	r24, r10
    7cf2:	0f 90       	pop	r0
    7cf4:	0f 90       	pop	r0
    7cf6:	df 91       	pop	r29
    7cf8:	cf 91       	pop	r28
    7cfa:	1f 91       	pop	r17
    7cfc:	0f 91       	pop	r16
    7cfe:	ff 90       	pop	r15
    7d00:	ef 90       	pop	r14
    7d02:	df 90       	pop	r13
    7d04:	cf 90       	pop	r12
    7d06:	bf 90       	pop	r11
    7d08:	af 90       	pop	r10
    7d0a:	5c ce       	rjmp	.-840    	; 0x79c4 <_ZN4UTFT13LCD_Write_COMEc>
    7d0c:	0f 90       	pop	r0
    7d0e:	0f 90       	pop	r0
    7d10:	df 91       	pop	r29
    7d12:	cf 91       	pop	r28
    7d14:	1f 91       	pop	r17
    7d16:	0f 91       	pop	r16
    7d18:	ff 90       	pop	r15
    7d1a:	ef 90       	pop	r14
    7d1c:	df 90       	pop	r13
    7d1e:	cf 90       	pop	r12
    7d20:	bf 90       	pop	r11
    7d22:	af 90       	pop	r10
    7d24:	08 95       	ret

00007d26 <_ZN4UTFT5clrXYEv>:
    7d26:	0f 93       	push	r16
    7d28:	1f 93       	push	r17
    7d2a:	fc 01       	movw	r30, r24
    7d2c:	64 81       	ldd	r22, Z+4	; 0x04
    7d2e:	21 85       	ldd	r18, Z+9	; 0x09
    7d30:	32 85       	ldd	r19, Z+10	; 0x0a
    7d32:	45 81       	ldd	r20, Z+5	; 0x05
    7d34:	56 81       	ldd	r21, Z+6	; 0x06
    7d36:	61 11       	cpse	r22, r1
    7d38:	03 c0       	rjmp	.+6      	; 0x7d40 <_ZN4UTFT5clrXYEv+0x1a>
    7d3a:	89 01       	movw	r16, r18
    7d3c:	9a 01       	movw	r18, r20
    7d3e:	01 c0       	rjmp	.+2      	; 0x7d42 <_ZN4UTFT5clrXYEv+0x1c>
    7d40:	8a 01       	movw	r16, r20
    7d42:	40 e0       	ldi	r20, 0x00	; 0
    7d44:	50 e0       	ldi	r21, 0x00	; 0
    7d46:	60 e0       	ldi	r22, 0x00	; 0
    7d48:	70 e0       	ldi	r23, 0x00	; 0
    7d4a:	8b df       	rcall	.-234    	; 0x7c62 <_ZN4UTFT5setXYEjjjj>
    7d4c:	1f 91       	pop	r17
    7d4e:	0f 91       	pop	r16
    7d50:	08 95       	ret

00007d52 <_ZN4UTFT6clrScrEv>:
    7d52:	cf 92       	push	r12
    7d54:	df 92       	push	r13
    7d56:	ef 92       	push	r14
    7d58:	ff 92       	push	r15
    7d5a:	0f 93       	push	r16
    7d5c:	1f 93       	push	r17
    7d5e:	cf 93       	push	r28
    7d60:	df 93       	push	r29
    7d62:	ec 01       	movw	r28, r24
    7d64:	ec 89       	ldd	r30, Y+20	; 0x14
    7d66:	fd 89       	ldd	r31, Y+21	; 0x15
    7d68:	90 81       	ld	r25, Z
    7d6a:	88 a1       	ldd	r24, Y+32	; 0x20
    7d6c:	80 95       	com	r24
    7d6e:	89 23       	and	r24, r25
    7d70:	80 83       	st	Z, r24
    7d72:	ce 01       	movw	r24, r28
    7d74:	d8 df       	rcall	.-80     	; 0x7d26 <_ZN4UTFT5clrXYEv>
    7d76:	8e 85       	ldd	r24, Y+14	; 0x0e
    7d78:	81 30       	cpi	r24, 0x01	; 1
    7d7a:	31 f0       	breq	.+12     	; 0x7d88 <_ZN4UTFT6clrScrEv+0x36>
    7d7c:	e8 89       	ldd	r30, Y+16	; 0x10
    7d7e:	f9 89       	ldd	r31, Y+17	; 0x11
    7d80:	90 81       	ld	r25, Z
    7d82:	8e 8d       	ldd	r24, Y+30	; 0x1e
    7d84:	89 2b       	or	r24, r25
    7d86:	80 83       	st	Z, r24
    7d88:	ee 85       	ldd	r30, Y+14	; 0x0e
    7d8a:	4d 81       	ldd	r20, Y+5	; 0x05
    7d8c:	5e 81       	ldd	r21, Y+6	; 0x06
    7d8e:	6f 81       	ldd	r22, Y+7	; 0x07
    7d90:	78 85       	ldd	r23, Y+8	; 0x08
    7d92:	89 85       	ldd	r24, Y+9	; 0x09
    7d94:	9a 85       	ldd	r25, Y+10	; 0x0a
    7d96:	ab 85       	ldd	r26, Y+11	; 0x0b
    7d98:	bc 85       	ldd	r27, Y+12	; 0x0c
    7d9a:	e0 31       	cpi	r30, 0x10	; 16
    7d9c:	b9 f4       	brne	.+46     	; 0x7dcc <_ZN4UTFT6clrScrEv+0x7a>
    7d9e:	9a 01       	movw	r18, r20
    7da0:	ab 01       	movw	r20, r22
    7da2:	2f 5f       	subi	r18, 0xFF	; 255
    7da4:	3f 4f       	sbci	r19, 0xFF	; 255
    7da6:	4f 4f       	sbci	r20, 0xFF	; 255
    7da8:	5f 4f       	sbci	r21, 0xFF	; 255
    7daa:	bc 01       	movw	r22, r24
    7dac:	cd 01       	movw	r24, r26
    7dae:	6f 5f       	subi	r22, 0xFF	; 255
    7db0:	7f 4f       	sbci	r23, 0xFF	; 255
    7db2:	8f 4f       	sbci	r24, 0xFF	; 255
    7db4:	9f 4f       	sbci	r25, 0xFF	; 255
    7db6:	0e 94 d8 4a 	call	0x95b0	; 0x95b0 <__mulsi3>
    7dba:	8b 01       	movw	r16, r22
    7dbc:	9c 01       	movw	r18, r24
    7dbe:	40 e0       	ldi	r20, 0x00	; 0
    7dc0:	50 e0       	ldi	r21, 0x00	; 0
    7dc2:	60 e0       	ldi	r22, 0x00	; 0
    7dc4:	70 e0       	ldi	r23, 0x00	; 0
    7dc6:	ce 01       	movw	r24, r28
    7dc8:	ea d8       	rcall	.-3628   	; 0x6f9e <_ZN4UTFT13_fast_fill_16Eiil>
    7dca:	4d c0       	rjmp	.+154    	; 0x7e66 <_ZN4UTFT6clrScrEv+0x114>
    7dcc:	e8 30       	cpi	r30, 0x08	; 8
    7dce:	a9 f4       	brne	.+42     	; 0x7dfa <_ZN4UTFT6clrScrEv+0xa8>
    7dd0:	9a 01       	movw	r18, r20
    7dd2:	ab 01       	movw	r20, r22
    7dd4:	2f 5f       	subi	r18, 0xFF	; 255
    7dd6:	3f 4f       	sbci	r19, 0xFF	; 255
    7dd8:	4f 4f       	sbci	r20, 0xFF	; 255
    7dda:	5f 4f       	sbci	r21, 0xFF	; 255
    7ddc:	bc 01       	movw	r22, r24
    7dde:	cd 01       	movw	r24, r26
    7de0:	6f 5f       	subi	r22, 0xFF	; 255
    7de2:	7f 4f       	sbci	r23, 0xFF	; 255
    7de4:	8f 4f       	sbci	r24, 0xFF	; 255
    7de6:	9f 4f       	sbci	r25, 0xFF	; 255
    7de8:	0e 94 d8 4a 	call	0x95b0	; 0x95b0 <__mulsi3>
    7dec:	9b 01       	movw	r18, r22
    7dee:	ac 01       	movw	r20, r24
    7df0:	60 e0       	ldi	r22, 0x00	; 0
    7df2:	70 e0       	ldi	r23, 0x00	; 0
    7df4:	ce 01       	movw	r24, r28
    7df6:	05 da       	rcall	.-3062   	; 0x7202 <_ZN4UTFT12_fast_fill_8Eil>
    7df8:	36 c0       	rjmp	.+108    	; 0x7e66 <_ZN4UTFT6clrScrEv+0x114>
    7dfa:	c1 2c       	mov	r12, r1
    7dfc:	d1 2c       	mov	r13, r1
    7dfe:	76 01       	movw	r14, r12
    7e00:	8d 81       	ldd	r24, Y+5	; 0x05
    7e02:	9e 81       	ldd	r25, Y+6	; 0x06
    7e04:	af 81       	ldd	r26, Y+7	; 0x07
    7e06:	b8 85       	ldd	r27, Y+8	; 0x08
    7e08:	9c 01       	movw	r18, r24
    7e0a:	ad 01       	movw	r20, r26
    7e0c:	2f 5f       	subi	r18, 0xFF	; 255
    7e0e:	3f 4f       	sbci	r19, 0xFF	; 255
    7e10:	4f 4f       	sbci	r20, 0xFF	; 255
    7e12:	5f 4f       	sbci	r21, 0xFF	; 255
    7e14:	89 85       	ldd	r24, Y+9	; 0x09
    7e16:	9a 85       	ldd	r25, Y+10	; 0x0a
    7e18:	ab 85       	ldd	r26, Y+11	; 0x0b
    7e1a:	bc 85       	ldd	r27, Y+12	; 0x0c
    7e1c:	bc 01       	movw	r22, r24
    7e1e:	cd 01       	movw	r24, r26
    7e20:	6f 5f       	subi	r22, 0xFF	; 255
    7e22:	7f 4f       	sbci	r23, 0xFF	; 255
    7e24:	8f 4f       	sbci	r24, 0xFF	; 255
    7e26:	9f 4f       	sbci	r25, 0xFF	; 255
    7e28:	0e 94 d8 4a 	call	0x95b0	; 0x95b0 <__mulsi3>
    7e2c:	c6 16       	cp	r12, r22
    7e2e:	d7 06       	cpc	r13, r23
    7e30:	e8 06       	cpc	r14, r24
    7e32:	f9 06       	cpc	r15, r25
    7e34:	c4 f4       	brge	.+48     	; 0x7e66 <_ZN4UTFT6clrScrEv+0x114>
    7e36:	2e 85       	ldd	r18, Y+14	; 0x0e
    7e38:	21 30       	cpi	r18, 0x01	; 1
    7e3a:	19 f0       	breq	.+6      	; 0x7e42 <_ZN4UTFT6clrScrEv+0xf0>
    7e3c:	40 e0       	ldi	r20, 0x00	; 0
    7e3e:	60 e0       	ldi	r22, 0x00	; 0
    7e40:	09 c0       	rjmp	.+18     	; 0x7e54 <_ZN4UTFT6clrScrEv+0x102>
    7e42:	21 e0       	ldi	r18, 0x01	; 1
    7e44:	40 e0       	ldi	r20, 0x00	; 0
    7e46:	61 e0       	ldi	r22, 0x01	; 1
    7e48:	ce 01       	movw	r24, r28
    7e4a:	0e 94 28 36 	call	0x6c50	; 0x6c50 <_ZN4UTFT12LCD_Writ_BusEcch>
    7e4e:	2e 85       	ldd	r18, Y+14	; 0x0e
    7e50:	40 e0       	ldi	r20, 0x00	; 0
    7e52:	61 e0       	ldi	r22, 0x01	; 1
    7e54:	ce 01       	movw	r24, r28
    7e56:	0e 94 28 36 	call	0x6c50	; 0x6c50 <_ZN4UTFT12LCD_Writ_BusEcch>
    7e5a:	8f ef       	ldi	r24, 0xFF	; 255
    7e5c:	c8 1a       	sub	r12, r24
    7e5e:	d8 0a       	sbc	r13, r24
    7e60:	e8 0a       	sbc	r14, r24
    7e62:	f8 0a       	sbc	r15, r24
    7e64:	cd cf       	rjmp	.-102    	; 0x7e00 <_ZN4UTFT6clrScrEv+0xae>
    7e66:	ec 89       	ldd	r30, Y+20	; 0x14
    7e68:	fd 89       	ldd	r31, Y+21	; 0x15
    7e6a:	90 81       	ld	r25, Z
    7e6c:	88 a1       	ldd	r24, Y+32	; 0x20
    7e6e:	89 2b       	or	r24, r25
    7e70:	80 83       	st	Z, r24
    7e72:	df 91       	pop	r29
    7e74:	cf 91       	pop	r28
    7e76:	1f 91       	pop	r17
    7e78:	0f 91       	pop	r16
    7e7a:	ff 90       	pop	r15
    7e7c:	ef 90       	pop	r14
    7e7e:	df 90       	pop	r13
    7e80:	cf 90       	pop	r12
    7e82:	08 95       	ret

00007e84 <_ZN4UTFT8setColorEhhh>:
    7e84:	34 2f       	mov	r19, r20
    7e86:	32 95       	swap	r19
    7e88:	36 95       	lsr	r19
    7e8a:	37 70       	andi	r19, 0x07	; 7
    7e8c:	68 7f       	andi	r22, 0xF8	; 248
    7e8e:	63 2b       	or	r22, r19
    7e90:	fc 01       	movw	r30, r24
    7e92:	60 83       	st	Z, r22
    7e94:	4c 71       	andi	r20, 0x1C	; 28
    7e96:	f8 e0       	ldi	r31, 0x08	; 8
    7e98:	4f 9f       	mul	r20, r31
    7e9a:	a0 01       	movw	r20, r0
    7e9c:	11 24       	eor	r1, r1
    7e9e:	26 95       	lsr	r18
    7ea0:	26 95       	lsr	r18
    7ea2:	26 95       	lsr	r18
    7ea4:	42 2b       	or	r20, r18
    7ea6:	fc 01       	movw	r30, r24
    7ea8:	41 83       	std	Z+1, r20	; 0x01
    7eaa:	08 95       	ret

00007eac <_ZN4UTFT12setBackColorEhhh>:
    7eac:	fc 01       	movw	r30, r24
    7eae:	84 2f       	mov	r24, r20
    7eb0:	82 95       	swap	r24
    7eb2:	86 95       	lsr	r24
    7eb4:	87 70       	andi	r24, 0x07	; 7
    7eb6:	68 7f       	andi	r22, 0xF8	; 248
    7eb8:	68 2b       	or	r22, r24
    7eba:	62 83       	std	Z+2, r22	; 0x02
    7ebc:	4c 71       	andi	r20, 0x1C	; 28
    7ebe:	88 e0       	ldi	r24, 0x08	; 8
    7ec0:	48 9f       	mul	r20, r24
    7ec2:	a0 01       	movw	r20, r0
    7ec4:	11 24       	eor	r1, r1
    7ec6:	26 95       	lsr	r18
    7ec8:	26 95       	lsr	r18
    7eca:	26 95       	lsr	r18
    7ecc:	42 2b       	or	r20, r18
    7ece:	43 83       	std	Z+3, r20	; 0x03
    7ed0:	10 aa       	std	Z+48, r1	; 0x30
    7ed2:	08 95       	ret

00007ed4 <_ZN4UTFT8setPixelEj>:
    7ed4:	46 2f       	mov	r20, r22
    7ed6:	67 2f       	mov	r22, r23
    7ed8:	8d cd       	rjmp	.-1254   	; 0x79f4 <_ZN4UTFT14LCD_Write_DATAEcc>

00007eda <_ZN4UTFT9drawPixelEii>:
    7eda:	0f 93       	push	r16
    7edc:	1f 93       	push	r17
    7ede:	cf 93       	push	r28
    7ee0:	df 93       	push	r29
    7ee2:	ec 01       	movw	r28, r24
    7ee4:	ec 89       	ldd	r30, Y+20	; 0x14
    7ee6:	fd 89       	ldd	r31, Y+21	; 0x15
    7ee8:	90 81       	ld	r25, Z
    7eea:	88 a1       	ldd	r24, Y+32	; 0x20
    7eec:	80 95       	com	r24
    7eee:	89 23       	and	r24, r25
    7ef0:	80 83       	st	Z, r24
    7ef2:	8a 01       	movw	r16, r20
    7ef4:	9b 01       	movw	r18, r22
    7ef6:	ce 01       	movw	r24, r28
    7ef8:	b4 de       	rcall	.-664    	; 0x7c62 <_ZN4UTFT5setXYEjjjj>
    7efa:	68 81       	ld	r22, Y
    7efc:	70 e0       	ldi	r23, 0x00	; 0
    7efe:	76 2f       	mov	r23, r22
    7f00:	66 27       	eor	r22, r22
    7f02:	89 81       	ldd	r24, Y+1	; 0x01
    7f04:	68 2b       	or	r22, r24
    7f06:	ce 01       	movw	r24, r28
    7f08:	e5 df       	rcall	.-54     	; 0x7ed4 <_ZN4UTFT8setPixelEj>
    7f0a:	ec 89       	ldd	r30, Y+20	; 0x14
    7f0c:	fd 89       	ldd	r31, Y+21	; 0x15
    7f0e:	90 81       	ld	r25, Z
    7f10:	88 a1       	ldd	r24, Y+32	; 0x20
    7f12:	89 2b       	or	r24, r25
    7f14:	80 83       	st	Z, r24
    7f16:	ce 01       	movw	r24, r28
    7f18:	df 91       	pop	r29
    7f1a:	cf 91       	pop	r28
    7f1c:	1f 91       	pop	r17
    7f1e:	0f 91       	pop	r16
    7f20:	02 cf       	rjmp	.-508    	; 0x7d26 <_ZN4UTFT5clrXYEv>

00007f22 <_ZN4UTFT9drawHLineEiii>:
    7f22:	ef 92       	push	r14
    7f24:	ff 92       	push	r15
    7f26:	0f 93       	push	r16
    7f28:	1f 93       	push	r17
    7f2a:	cf 93       	push	r28
    7f2c:	df 93       	push	r29
    7f2e:	ec 01       	movw	r28, r24
    7f30:	79 01       	movw	r14, r18
    7f32:	37 ff       	sbrs	r19, 7
    7f34:	05 c0       	rjmp	.+10     	; 0x7f40 <_ZN4UTFT9drawHLineEiii+0x1e>
    7f36:	62 0f       	add	r22, r18
    7f38:	73 1f       	adc	r23, r19
    7f3a:	f1 94       	neg	r15
    7f3c:	e1 94       	neg	r14
    7f3e:	f1 08       	sbc	r15, r1
    7f40:	ec 89       	ldd	r30, Y+20	; 0x14
    7f42:	fd 89       	ldd	r31, Y+21	; 0x15
    7f44:	90 81       	ld	r25, Z
    7f46:	88 a1       	ldd	r24, Y+32	; 0x20
    7f48:	80 95       	com	r24
    7f4a:	89 23       	and	r24, r25
    7f4c:	80 83       	st	Z, r24
    7f4e:	9b 01       	movw	r18, r22
    7f50:	2e 0d       	add	r18, r14
    7f52:	3f 1d       	adc	r19, r15
    7f54:	8a 01       	movw	r16, r20
    7f56:	ce 01       	movw	r24, r28
    7f58:	84 de       	rcall	.-760    	; 0x7c62 <_ZN4UTFT5setXYEjjjj>
    7f5a:	8e 85       	ldd	r24, Y+14	; 0x0e
    7f5c:	80 31       	cpi	r24, 0x10	; 16
    7f5e:	89 f4       	brne	.+34     	; 0x7f82 <_ZN4UTFT9drawHLineEiii+0x60>
    7f60:	e8 89       	ldd	r30, Y+16	; 0x10
    7f62:	f9 89       	ldd	r31, Y+17	; 0x11
    7f64:	90 81       	ld	r25, Z
    7f66:	8e 8d       	ldd	r24, Y+30	; 0x1e
    7f68:	89 2b       	or	r24, r25
    7f6a:	80 83       	st	Z, r24
    7f6c:	87 01       	movw	r16, r14
    7f6e:	ff 0c       	add	r15, r15
    7f70:	22 0b       	sbc	r18, r18
    7f72:	33 0b       	sbc	r19, r19
    7f74:	49 81       	ldd	r20, Y+1	; 0x01
    7f76:	50 e0       	ldi	r21, 0x00	; 0
    7f78:	68 81       	ld	r22, Y
    7f7a:	70 e0       	ldi	r23, 0x00	; 0
    7f7c:	ce 01       	movw	r24, r28
    7f7e:	0f d8       	rcall	.-4066   	; 0x6f9e <_ZN4UTFT13_fast_fill_16Eiil>
    7f80:	20 c0       	rjmp	.+64     	; 0x7fc2 <_ZN4UTFT9drawHLineEiii+0xa0>
    7f82:	88 30       	cpi	r24, 0x08	; 8
    7f84:	99 f4       	brne	.+38     	; 0x7fac <_ZN4UTFT9drawHLineEiii+0x8a>
    7f86:	98 81       	ld	r25, Y
    7f88:	89 81       	ldd	r24, Y+1	; 0x01
    7f8a:	98 13       	cpse	r25, r24
    7f8c:	0f c0       	rjmp	.+30     	; 0x7fac <_ZN4UTFT9drawHLineEiii+0x8a>
    7f8e:	e8 89       	ldd	r30, Y+16	; 0x10
    7f90:	f9 89       	ldd	r31, Y+17	; 0x11
    7f92:	90 81       	ld	r25, Z
    7f94:	8e 8d       	ldd	r24, Y+30	; 0x1e
    7f96:	89 2b       	or	r24, r25
    7f98:	80 83       	st	Z, r24
    7f9a:	97 01       	movw	r18, r14
    7f9c:	ff 0c       	add	r15, r15
    7f9e:	44 0b       	sbc	r20, r20
    7fa0:	55 0b       	sbc	r21, r21
    7fa2:	68 81       	ld	r22, Y
    7fa4:	70 e0       	ldi	r23, 0x00	; 0
    7fa6:	ce 01       	movw	r24, r28
    7fa8:	2c d9       	rcall	.-3496   	; 0x7202 <_ZN4UTFT12_fast_fill_8Eil>
    7faa:	0b c0       	rjmp	.+22     	; 0x7fc2 <_ZN4UTFT9drawHLineEiii+0xa0>
    7fac:	00 e0       	ldi	r16, 0x00	; 0
    7fae:	10 e0       	ldi	r17, 0x00	; 0
    7fb0:	49 81       	ldd	r20, Y+1	; 0x01
    7fb2:	68 81       	ld	r22, Y
    7fb4:	ce 01       	movw	r24, r28
    7fb6:	1e dd       	rcall	.-1476   	; 0x79f4 <_ZN4UTFT14LCD_Write_DATAEcc>
    7fb8:	0f 5f       	subi	r16, 0xFF	; 255
    7fba:	1f 4f       	sbci	r17, 0xFF	; 255
    7fbc:	e0 16       	cp	r14, r16
    7fbe:	f1 06       	cpc	r15, r17
    7fc0:	bc f7       	brge	.-18     	; 0x7fb0 <_ZN4UTFT9drawHLineEiii+0x8e>
    7fc2:	ec 89       	ldd	r30, Y+20	; 0x14
    7fc4:	fd 89       	ldd	r31, Y+21	; 0x15
    7fc6:	90 81       	ld	r25, Z
    7fc8:	88 a1       	ldd	r24, Y+32	; 0x20
    7fca:	89 2b       	or	r24, r25
    7fcc:	80 83       	st	Z, r24
    7fce:	ce 01       	movw	r24, r28
    7fd0:	df 91       	pop	r29
    7fd2:	cf 91       	pop	r28
    7fd4:	1f 91       	pop	r17
    7fd6:	0f 91       	pop	r16
    7fd8:	ff 90       	pop	r15
    7fda:	ef 90       	pop	r14
    7fdc:	a4 ce       	rjmp	.-696    	; 0x7d26 <_ZN4UTFT5clrXYEv>

00007fde <_ZN4UTFT13fillRoundRectEiiii>:
    7fde:	2f 92       	push	r2
    7fe0:	3f 92       	push	r3
    7fe2:	4f 92       	push	r4
    7fe4:	5f 92       	push	r5
    7fe6:	6f 92       	push	r6
    7fe8:	7f 92       	push	r7
    7fea:	8f 92       	push	r8
    7fec:	9f 92       	push	r9
    7fee:	af 92       	push	r10
    7ff0:	bf 92       	push	r11
    7ff2:	cf 92       	push	r12
    7ff4:	df 92       	push	r13
    7ff6:	ef 92       	push	r14
    7ff8:	ff 92       	push	r15
    7ffa:	0f 93       	push	r16
    7ffc:	1f 93       	push	r17
    7ffe:	cf 93       	push	r28
    8000:	df 93       	push	r29
    8002:	cd b7       	in	r28, 0x3d	; 61
    8004:	de b7       	in	r29, 0x3e	; 62
    8006:	2a 97       	sbiw	r28, 0x0a	; 10
    8008:	0f b6       	in	r0, 0x3f	; 63
    800a:	f8 94       	cli
    800c:	de bf       	out	0x3e, r29	; 62
    800e:	0f be       	out	0x3f, r0	; 63
    8010:	cd bf       	out	0x3d, r28	; 61
    8012:	5c 01       	movw	r10, r24
    8014:	7b 01       	movw	r14, r22
    8016:	6a 01       	movw	r12, r20
    8018:	26 17       	cp	r18, r22
    801a:	37 07       	cpc	r19, r23
    801c:	24 f4       	brge	.+8      	; 0x8026 <_ZN4UTFT13fillRoundRectEiiii+0x48>
    801e:	8f 2d       	mov	r24, r15
    8020:	79 01       	movw	r14, r18
    8022:	26 2f       	mov	r18, r22
    8024:	38 2f       	mov	r19, r24
    8026:	0c 15       	cp	r16, r12
    8028:	1d 05       	cpc	r17, r13
    802a:	2c f4       	brge	.+10     	; 0x8036 <_ZN4UTFT13fillRoundRectEiiii+0x58>
    802c:	9c 2d       	mov	r25, r12
    802e:	8d 2d       	mov	r24, r13
    8030:	68 01       	movw	r12, r16
    8032:	09 2f       	mov	r16, r25
    8034:	18 2f       	mov	r17, r24
    8036:	c9 01       	movw	r24, r18
    8038:	8e 19       	sub	r24, r14
    803a:	9f 09       	sbc	r25, r15
    803c:	9a 87       	std	Y+10, r25	; 0x0a
    803e:	89 87       	std	Y+9, r24	; 0x09
    8040:	05 97       	sbiw	r24, 0x05	; 5
    8042:	0c f4       	brge	.+2      	; 0x8046 <_ZN4UTFT13fillRoundRectEiiii+0x68>
    8044:	5f c0       	rjmp	.+190    	; 0x8104 <_ZN4UTFT13fillRoundRectEiiii+0x126>
    8046:	c8 01       	movw	r24, r16
    8048:	8c 19       	sub	r24, r12
    804a:	9d 09       	sbc	r25, r13
    804c:	85 30       	cpi	r24, 0x05	; 5
    804e:	91 05       	cpc	r25, r1
    8050:	0c f4       	brge	.+2      	; 0x8054 <_ZN4UTFT13fillRoundRectEiiii+0x76>
    8052:	58 c0       	rjmp	.+176    	; 0x8104 <_ZN4UTFT13fillRoundRectEiiii+0x126>
    8054:	fc 01       	movw	r30, r24
    8056:	f5 95       	asr	r31
    8058:	e7 95       	ror	r30
    805a:	fc 83       	std	Y+4, r31	; 0x04
    805c:	eb 83       	std	Y+3, r30	; 0x03
    805e:	81 2c       	mov	r8, r1
    8060:	91 2c       	mov	r9, r1
    8062:	29 85       	ldd	r18, Y+9	; 0x09
    8064:	3a 85       	ldd	r19, Y+10	; 0x0a
    8066:	24 50       	subi	r18, 0x04	; 4
    8068:	31 09       	sbc	r19, r1
    806a:	3a 83       	std	Y+2, r19	; 0x02
    806c:	29 83       	std	Y+1, r18	; 0x01
    806e:	17 01       	movw	r2, r14
    8070:	32 e0       	ldi	r19, 0x02	; 2
    8072:	23 0e       	add	r2, r19
    8074:	31 1c       	adc	r3, r1
    8076:	49 84       	ldd	r4, Y+9	; 0x09
    8078:	5a 84       	ldd	r5, Y+10	; 0x0a
    807a:	82 e0       	ldi	r24, 0x02	; 2
    807c:	48 1a       	sub	r4, r24
    807e:	51 08       	sbc	r5, r1
    8080:	37 01       	movw	r6, r14
    8082:	9f ef       	ldi	r25, 0xFF	; 255
    8084:	69 1a       	sub	r6, r25
    8086:	79 0a       	sbc	r7, r25
    8088:	f6 01       	movw	r30, r12
    808a:	31 96       	adiw	r30, 0x01	; 1
    808c:	fe 83       	std	Y+6, r31	; 0x06
    808e:	ed 83       	std	Y+5, r30	; 0x05
    8090:	98 01       	movw	r18, r16
    8092:	21 50       	subi	r18, 0x01	; 1
    8094:	31 09       	sbc	r19, r1
    8096:	38 87       	std	Y+8, r19	; 0x08
    8098:	2f 83       	std	Y+7, r18	; 0x07
    809a:	81 14       	cp	r8, r1
    809c:	91 04       	cpc	r9, r1
    809e:	79 f0       	breq	.+30     	; 0x80be <_ZN4UTFT13fillRoundRectEiiii+0xe0>
    80a0:	31 e0       	ldi	r19, 0x01	; 1
    80a2:	83 16       	cp	r8, r19
    80a4:	91 04       	cpc	r9, r1
    80a6:	b1 f4       	brne	.+44     	; 0x80d4 <_ZN4UTFT13fillRoundRectEiiii+0xf6>
    80a8:	92 01       	movw	r18, r4
    80aa:	4d 81       	ldd	r20, Y+5	; 0x05
    80ac:	5e 81       	ldd	r21, Y+6	; 0x06
    80ae:	b3 01       	movw	r22, r6
    80b0:	c5 01       	movw	r24, r10
    80b2:	37 df       	rcall	.-402    	; 0x7f22 <_ZN4UTFT9drawHLineEiii>
    80b4:	92 01       	movw	r18, r4
    80b6:	4f 81       	ldd	r20, Y+7	; 0x07
    80b8:	58 85       	ldd	r21, Y+8	; 0x08
    80ba:	b3 01       	movw	r22, r6
    80bc:	19 c0       	rjmp	.+50     	; 0x80f0 <_ZN4UTFT13fillRoundRectEiiii+0x112>
    80be:	29 81       	ldd	r18, Y+1	; 0x01
    80c0:	3a 81       	ldd	r19, Y+2	; 0x02
    80c2:	a6 01       	movw	r20, r12
    80c4:	b1 01       	movw	r22, r2
    80c6:	c5 01       	movw	r24, r10
    80c8:	2c df       	rcall	.-424    	; 0x7f22 <_ZN4UTFT9drawHLineEiii>
    80ca:	29 81       	ldd	r18, Y+1	; 0x01
    80cc:	3a 81       	ldd	r19, Y+2	; 0x02
    80ce:	a8 01       	movw	r20, r16
    80d0:	b1 01       	movw	r22, r2
    80d2:	0e c0       	rjmp	.+28     	; 0x80f0 <_ZN4UTFT13fillRoundRectEiiii+0x112>
    80d4:	29 85       	ldd	r18, Y+9	; 0x09
    80d6:	3a 85       	ldd	r19, Y+10	; 0x0a
    80d8:	a4 01       	movw	r20, r8
    80da:	4c 0d       	add	r20, r12
    80dc:	5d 1d       	adc	r21, r13
    80de:	b7 01       	movw	r22, r14
    80e0:	c5 01       	movw	r24, r10
    80e2:	1f df       	rcall	.-450    	; 0x7f22 <_ZN4UTFT9drawHLineEiii>
    80e4:	29 85       	ldd	r18, Y+9	; 0x09
    80e6:	3a 85       	ldd	r19, Y+10	; 0x0a
    80e8:	a8 01       	movw	r20, r16
    80ea:	48 19       	sub	r20, r8
    80ec:	59 09       	sbc	r21, r9
    80ee:	b7 01       	movw	r22, r14
    80f0:	c5 01       	movw	r24, r10
    80f2:	17 df       	rcall	.-466    	; 0x7f22 <_ZN4UTFT9drawHLineEiii>
    80f4:	8f ef       	ldi	r24, 0xFF	; 255
    80f6:	88 1a       	sub	r8, r24
    80f8:	98 0a       	sbc	r9, r24
    80fa:	eb 81       	ldd	r30, Y+3	; 0x03
    80fc:	fc 81       	ldd	r31, Y+4	; 0x04
    80fe:	e8 15       	cp	r30, r8
    8100:	f9 05       	cpc	r31, r9
    8102:	5c f6       	brge	.-106    	; 0x809a <_ZN4UTFT13fillRoundRectEiiii+0xbc>
    8104:	2a 96       	adiw	r28, 0x0a	; 10
    8106:	0f b6       	in	r0, 0x3f	; 63
    8108:	f8 94       	cli
    810a:	de bf       	out	0x3e, r29	; 62
    810c:	0f be       	out	0x3f, r0	; 63
    810e:	cd bf       	out	0x3d, r28	; 61
    8110:	df 91       	pop	r29
    8112:	cf 91       	pop	r28
    8114:	1f 91       	pop	r17
    8116:	0f 91       	pop	r16
    8118:	ff 90       	pop	r15
    811a:	ef 90       	pop	r14
    811c:	df 90       	pop	r13
    811e:	cf 90       	pop	r12
    8120:	bf 90       	pop	r11
    8122:	af 90       	pop	r10
    8124:	9f 90       	pop	r9
    8126:	8f 90       	pop	r8
    8128:	7f 90       	pop	r7
    812a:	6f 90       	pop	r6
    812c:	5f 90       	pop	r5
    812e:	4f 90       	pop	r4
    8130:	3f 90       	pop	r3
    8132:	2f 90       	pop	r2
    8134:	08 95       	ret

00008136 <_ZN4UTFT9drawVLineEiii>:
    8136:	ef 92       	push	r14
    8138:	ff 92       	push	r15
    813a:	0f 93       	push	r16
    813c:	1f 93       	push	r17
    813e:	cf 93       	push	r28
    8140:	df 93       	push	r29
    8142:	ec 01       	movw	r28, r24
    8144:	79 01       	movw	r14, r18
    8146:	37 ff       	sbrs	r19, 7
    8148:	05 c0       	rjmp	.+10     	; 0x8154 <_ZN4UTFT9drawVLineEiii+0x1e>
    814a:	42 0f       	add	r20, r18
    814c:	53 1f       	adc	r21, r19
    814e:	f1 94       	neg	r15
    8150:	e1 94       	neg	r14
    8152:	f1 08       	sbc	r15, r1
    8154:	ec 89       	ldd	r30, Y+20	; 0x14
    8156:	fd 89       	ldd	r31, Y+21	; 0x15
    8158:	90 81       	ld	r25, Z
    815a:	88 a1       	ldd	r24, Y+32	; 0x20
    815c:	80 95       	com	r24
    815e:	89 23       	and	r24, r25
    8160:	80 83       	st	Z, r24
    8162:	8a 01       	movw	r16, r20
    8164:	0e 0d       	add	r16, r14
    8166:	1f 1d       	adc	r17, r15
    8168:	9b 01       	movw	r18, r22
    816a:	ce 01       	movw	r24, r28
    816c:	7a dd       	rcall	.-1292   	; 0x7c62 <_ZN4UTFT5setXYEjjjj>
    816e:	8e 85       	ldd	r24, Y+14	; 0x0e
    8170:	80 31       	cpi	r24, 0x10	; 16
    8172:	91 f4       	brne	.+36     	; 0x8198 <_ZN4UTFT9drawVLineEiii+0x62>
    8174:	e8 89       	ldd	r30, Y+16	; 0x10
    8176:	f9 89       	ldd	r31, Y+17	; 0x11
    8178:	90 81       	ld	r25, Z
    817a:	8e 8d       	ldd	r24, Y+30	; 0x1e
    817c:	89 2b       	or	r24, r25
    817e:	80 83       	st	Z, r24
    8180:	87 01       	movw	r16, r14
    8182:	ff 0c       	add	r15, r15
    8184:	22 0b       	sbc	r18, r18
    8186:	33 0b       	sbc	r19, r19
    8188:	49 81       	ldd	r20, Y+1	; 0x01
    818a:	50 e0       	ldi	r21, 0x00	; 0
    818c:	68 81       	ld	r22, Y
    818e:	70 e0       	ldi	r23, 0x00	; 0
    8190:	ce 01       	movw	r24, r28
    8192:	0e 94 cf 37 	call	0x6f9e	; 0x6f9e <_ZN4UTFT13_fast_fill_16Eiil>
    8196:	20 c0       	rjmp	.+64     	; 0x81d8 <_ZN4UTFT9drawVLineEiii+0xa2>
    8198:	88 30       	cpi	r24, 0x08	; 8
    819a:	99 f4       	brne	.+38     	; 0x81c2 <_ZN4UTFT9drawVLineEiii+0x8c>
    819c:	98 81       	ld	r25, Y
    819e:	89 81       	ldd	r24, Y+1	; 0x01
    81a0:	98 13       	cpse	r25, r24
    81a2:	0f c0       	rjmp	.+30     	; 0x81c2 <_ZN4UTFT9drawVLineEiii+0x8c>
    81a4:	e8 89       	ldd	r30, Y+16	; 0x10
    81a6:	f9 89       	ldd	r31, Y+17	; 0x11
    81a8:	90 81       	ld	r25, Z
    81aa:	8e 8d       	ldd	r24, Y+30	; 0x1e
    81ac:	89 2b       	or	r24, r25
    81ae:	80 83       	st	Z, r24
    81b0:	97 01       	movw	r18, r14
    81b2:	ff 0c       	add	r15, r15
    81b4:	44 0b       	sbc	r20, r20
    81b6:	55 0b       	sbc	r21, r21
    81b8:	68 81       	ld	r22, Y
    81ba:	70 e0       	ldi	r23, 0x00	; 0
    81bc:	ce 01       	movw	r24, r28
    81be:	21 d8       	rcall	.-4030   	; 0x7202 <_ZN4UTFT12_fast_fill_8Eil>
    81c0:	0b c0       	rjmp	.+22     	; 0x81d8 <_ZN4UTFT9drawVLineEiii+0xa2>
    81c2:	00 e0       	ldi	r16, 0x00	; 0
    81c4:	10 e0       	ldi	r17, 0x00	; 0
    81c6:	49 81       	ldd	r20, Y+1	; 0x01
    81c8:	68 81       	ld	r22, Y
    81ca:	ce 01       	movw	r24, r28
    81cc:	13 dc       	rcall	.-2010   	; 0x79f4 <_ZN4UTFT14LCD_Write_DATAEcc>
    81ce:	0f 5f       	subi	r16, 0xFF	; 255
    81d0:	1f 4f       	sbci	r17, 0xFF	; 255
    81d2:	e0 16       	cp	r14, r16
    81d4:	f1 06       	cpc	r15, r17
    81d6:	bc f7       	brge	.-18     	; 0x81c6 <_ZN4UTFT9drawVLineEiii+0x90>
    81d8:	ec 89       	ldd	r30, Y+20	; 0x14
    81da:	fd 89       	ldd	r31, Y+21	; 0x15
    81dc:	90 81       	ld	r25, Z
    81de:	88 a1       	ldd	r24, Y+32	; 0x20
    81e0:	89 2b       	or	r24, r25
    81e2:	80 83       	st	Z, r24
    81e4:	ce 01       	movw	r24, r28
    81e6:	df 91       	pop	r29
    81e8:	cf 91       	pop	r28
    81ea:	1f 91       	pop	r17
    81ec:	0f 91       	pop	r16
    81ee:	ff 90       	pop	r15
    81f0:	ef 90       	pop	r14
    81f2:	99 cd       	rjmp	.-1230   	; 0x7d26 <_ZN4UTFT5clrXYEv>

000081f4 <_ZN4UTFT8drawRectEiiii>:
    81f4:	8f 92       	push	r8
    81f6:	9f 92       	push	r9
    81f8:	af 92       	push	r10
    81fa:	bf 92       	push	r11
    81fc:	cf 92       	push	r12
    81fe:	df 92       	push	r13
    8200:	ef 92       	push	r14
    8202:	ff 92       	push	r15
    8204:	0f 93       	push	r16
    8206:	1f 93       	push	r17
    8208:	cf 93       	push	r28
    820a:	df 93       	push	r29
    820c:	5c 01       	movw	r10, r24
    820e:	7b 01       	movw	r14, r22
    8210:	ea 01       	movw	r28, r20
    8212:	69 01       	movw	r12, r18
    8214:	26 17       	cp	r18, r22
    8216:	37 07       	cpc	r19, r23
    8218:	24 f4       	brge	.+8      	; 0x8222 <_ZN4UTFT8drawRectEiiii+0x2e>
    821a:	8f 2d       	mov	r24, r15
    821c:	79 01       	movw	r14, r18
    821e:	c6 2e       	mov	r12, r22
    8220:	d8 2e       	mov	r13, r24
    8222:	0c 17       	cp	r16, r28
    8224:	1d 07       	cpc	r17, r29
    8226:	2c f4       	brge	.+10     	; 0x8232 <_ZN4UTFT8drawRectEiiii+0x3e>
    8228:	9c 2f       	mov	r25, r28
    822a:	8d 2f       	mov	r24, r29
    822c:	e8 01       	movw	r28, r16
    822e:	09 2f       	mov	r16, r25
    8230:	18 2f       	mov	r17, r24
    8232:	46 01       	movw	r8, r12
    8234:	8e 18       	sub	r8, r14
    8236:	9f 08       	sbc	r9, r15
    8238:	94 01       	movw	r18, r8
    823a:	ae 01       	movw	r20, r28
    823c:	b7 01       	movw	r22, r14
    823e:	c5 01       	movw	r24, r10
    8240:	70 de       	rcall	.-800    	; 0x7f22 <_ZN4UTFT9drawHLineEiii>
    8242:	94 01       	movw	r18, r8
    8244:	a8 01       	movw	r20, r16
    8246:	b7 01       	movw	r22, r14
    8248:	c5 01       	movw	r24, r10
    824a:	6b de       	rcall	.-810    	; 0x7f22 <_ZN4UTFT9drawHLineEiii>
    824c:	0c 1b       	sub	r16, r28
    824e:	1d 0b       	sbc	r17, r29
    8250:	98 01       	movw	r18, r16
    8252:	ae 01       	movw	r20, r28
    8254:	b7 01       	movw	r22, r14
    8256:	c5 01       	movw	r24, r10
    8258:	6e df       	rcall	.-292    	; 0x8136 <_ZN4UTFT9drawVLineEiii>
    825a:	98 01       	movw	r18, r16
    825c:	ae 01       	movw	r20, r28
    825e:	b6 01       	movw	r22, r12
    8260:	c5 01       	movw	r24, r10
    8262:	df 91       	pop	r29
    8264:	cf 91       	pop	r28
    8266:	1f 91       	pop	r17
    8268:	0f 91       	pop	r16
    826a:	ff 90       	pop	r15
    826c:	ef 90       	pop	r14
    826e:	df 90       	pop	r13
    8270:	cf 90       	pop	r12
    8272:	bf 90       	pop	r11
    8274:	af 90       	pop	r10
    8276:	9f 90       	pop	r9
    8278:	8f 90       	pop	r8
    827a:	5d cf       	rjmp	.-326    	; 0x8136 <_ZN4UTFT9drawVLineEiii>

0000827c <_ZN4UTFT13drawRoundRectEiiii>:
    827c:	2f 92       	push	r2
    827e:	3f 92       	push	r3
    8280:	4f 92       	push	r4
    8282:	5f 92       	push	r5
    8284:	6f 92       	push	r6
    8286:	7f 92       	push	r7
    8288:	8f 92       	push	r8
    828a:	9f 92       	push	r9
    828c:	af 92       	push	r10
    828e:	bf 92       	push	r11
    8290:	cf 92       	push	r12
    8292:	df 92       	push	r13
    8294:	ef 92       	push	r14
    8296:	ff 92       	push	r15
    8298:	0f 93       	push	r16
    829a:	1f 93       	push	r17
    829c:	cf 93       	push	r28
    829e:	df 93       	push	r29
    82a0:	00 d0       	rcall	.+0      	; 0x82a2 <_ZN4UTFT13drawRoundRectEiiii+0x26>
    82a2:	1f 92       	push	r1
    82a4:	cd b7       	in	r28, 0x3d	; 61
    82a6:	de b7       	in	r29, 0x3e	; 62
    82a8:	7c 01       	movw	r14, r24
    82aa:	6b 01       	movw	r12, r22
    82ac:	5c 83       	std	Y+4, r21	; 0x04
    82ae:	4b 83       	std	Y+3, r20	; 0x03
    82b0:	39 01       	movw	r6, r18
    82b2:	26 17       	cp	r18, r22
    82b4:	37 07       	cpc	r19, r23
    82b6:	24 f4       	brge	.+8      	; 0x82c0 <_ZN4UTFT13drawRoundRectEiiii+0x44>
    82b8:	8d 2d       	mov	r24, r13
    82ba:	69 01       	movw	r12, r18
    82bc:	66 2e       	mov	r6, r22
    82be:	78 2e       	mov	r7, r24
    82c0:	2b 81       	ldd	r18, Y+3	; 0x03
    82c2:	3c 81       	ldd	r19, Y+4	; 0x04
    82c4:	02 17       	cp	r16, r18
    82c6:	13 07       	cpc	r17, r19
    82c8:	34 f4       	brge	.+12     	; 0x82d6 <_ZN4UTFT13drawRoundRectEiiii+0x5a>
    82ca:	9b 81       	ldd	r25, Y+3	; 0x03
    82cc:	8c 81       	ldd	r24, Y+4	; 0x04
    82ce:	1c 83       	std	Y+4, r17	; 0x04
    82d0:	0b 83       	std	Y+3, r16	; 0x03
    82d2:	09 2f       	mov	r16, r25
    82d4:	18 2f       	mov	r17, r24
    82d6:	13 01       	movw	r2, r6
    82d8:	2c 18       	sub	r2, r12
    82da:	3d 08       	sbc	r3, r13
    82dc:	35 e0       	ldi	r19, 0x05	; 5
    82de:	23 16       	cp	r2, r19
    82e0:	31 04       	cpc	r3, r1
    82e2:	0c f4       	brge	.+2      	; 0x82e6 <_ZN4UTFT13drawRoundRectEiiii+0x6a>
    82e4:	66 c0       	rjmp	.+204    	; 0x83b2 <_ZN4UTFT13drawRoundRectEiiii+0x136>
    82e6:	c8 01       	movw	r24, r16
    82e8:	eb 81       	ldd	r30, Y+3	; 0x03
    82ea:	fc 81       	ldd	r31, Y+4	; 0x04
    82ec:	8e 1b       	sub	r24, r30
    82ee:	9f 0b       	sbc	r25, r31
    82f0:	9a 83       	std	Y+2, r25	; 0x02
    82f2:	89 83       	std	Y+1, r24	; 0x01
    82f4:	05 97       	sbiw	r24, 0x05	; 5
    82f6:	0c f4       	brge	.+2      	; 0x82fa <_ZN4UTFT13drawRoundRectEiiii+0x7e>
    82f8:	5c c0       	rjmp	.+184    	; 0x83b2 <_ZN4UTFT13drawRoundRectEiiii+0x136>
    82fa:	5f 01       	movw	r10, r30
    82fc:	ff ef       	ldi	r31, 0xFF	; 255
    82fe:	af 1a       	sub	r10, r31
    8300:	bf 0a       	sbc	r11, r31
    8302:	46 01       	movw	r8, r12
    8304:	2f ef       	ldi	r18, 0xFF	; 255
    8306:	82 1a       	sub	r8, r18
    8308:	92 0a       	sbc	r9, r18
    830a:	a5 01       	movw	r20, r10
    830c:	b4 01       	movw	r22, r8
    830e:	c7 01       	movw	r24, r14
    8310:	e4 dd       	rcall	.-1080   	; 0x7eda <_ZN4UTFT9drawPixelEii>
    8312:	23 01       	movw	r4, r6
    8314:	31 e0       	ldi	r19, 0x01	; 1
    8316:	43 1a       	sub	r4, r19
    8318:	51 08       	sbc	r5, r1
    831a:	a5 01       	movw	r20, r10
    831c:	b2 01       	movw	r22, r4
    831e:	c7 01       	movw	r24, r14
    8320:	dc dd       	rcall	.-1096   	; 0x7eda <_ZN4UTFT9drawPixelEii>
    8322:	58 01       	movw	r10, r16
    8324:	81 e0       	ldi	r24, 0x01	; 1
    8326:	a8 1a       	sub	r10, r24
    8328:	b1 08       	sbc	r11, r1
    832a:	a5 01       	movw	r20, r10
    832c:	b4 01       	movw	r22, r8
    832e:	c7 01       	movw	r24, r14
    8330:	d4 dd       	rcall	.-1112   	; 0x7eda <_ZN4UTFT9drawPixelEii>
    8332:	a5 01       	movw	r20, r10
    8334:	b2 01       	movw	r22, r4
    8336:	c7 01       	movw	r24, r14
    8338:	d0 dd       	rcall	.-1120   	; 0x7eda <_ZN4UTFT9drawPixelEii>
    833a:	51 01       	movw	r10, r2
    833c:	94 e0       	ldi	r25, 0x04	; 4
    833e:	a9 1a       	sub	r10, r25
    8340:	b1 08       	sbc	r11, r1
    8342:	46 01       	movw	r8, r12
    8344:	e2 e0       	ldi	r30, 0x02	; 2
    8346:	8e 0e       	add	r8, r30
    8348:	91 1c       	adc	r9, r1
    834a:	95 01       	movw	r18, r10
    834c:	4b 81       	ldd	r20, Y+3	; 0x03
    834e:	5c 81       	ldd	r21, Y+4	; 0x04
    8350:	b4 01       	movw	r22, r8
    8352:	c7 01       	movw	r24, r14
    8354:	e6 dd       	rcall	.-1076   	; 0x7f22 <_ZN4UTFT9drawHLineEiii>
    8356:	95 01       	movw	r18, r10
    8358:	a8 01       	movw	r20, r16
    835a:	b4 01       	movw	r22, r8
    835c:	c7 01       	movw	r24, r14
    835e:	e1 dd       	rcall	.-1086   	; 0x7f22 <_ZN4UTFT9drawHLineEiii>
    8360:	09 81       	ldd	r16, Y+1	; 0x01
    8362:	1a 81       	ldd	r17, Y+2	; 0x02
    8364:	04 50       	subi	r16, 0x04	; 4
    8366:	11 09       	sbc	r17, r1
    8368:	ab 80       	ldd	r10, Y+3	; 0x03
    836a:	bc 80       	ldd	r11, Y+4	; 0x04
    836c:	f2 e0       	ldi	r31, 0x02	; 2
    836e:	af 0e       	add	r10, r31
    8370:	b1 1c       	adc	r11, r1
    8372:	98 01       	movw	r18, r16
    8374:	a5 01       	movw	r20, r10
    8376:	b6 01       	movw	r22, r12
    8378:	c7 01       	movw	r24, r14
    837a:	dd de       	rcall	.-582    	; 0x8136 <_ZN4UTFT9drawVLineEiii>
    837c:	98 01       	movw	r18, r16
    837e:	a5 01       	movw	r20, r10
    8380:	b3 01       	movw	r22, r6
    8382:	c7 01       	movw	r24, r14
    8384:	0f 90       	pop	r0
    8386:	0f 90       	pop	r0
    8388:	0f 90       	pop	r0
    838a:	0f 90       	pop	r0
    838c:	df 91       	pop	r29
    838e:	cf 91       	pop	r28
    8390:	1f 91       	pop	r17
    8392:	0f 91       	pop	r16
    8394:	ff 90       	pop	r15
    8396:	ef 90       	pop	r14
    8398:	df 90       	pop	r13
    839a:	cf 90       	pop	r12
    839c:	bf 90       	pop	r11
    839e:	af 90       	pop	r10
    83a0:	9f 90       	pop	r9
    83a2:	8f 90       	pop	r8
    83a4:	7f 90       	pop	r7
    83a6:	6f 90       	pop	r6
    83a8:	5f 90       	pop	r5
    83aa:	4f 90       	pop	r4
    83ac:	3f 90       	pop	r3
    83ae:	2f 90       	pop	r2
    83b0:	c2 ce       	rjmp	.-636    	; 0x8136 <_ZN4UTFT9drawVLineEiii>
    83b2:	0f 90       	pop	r0
    83b4:	0f 90       	pop	r0
    83b6:	0f 90       	pop	r0
    83b8:	0f 90       	pop	r0
    83ba:	df 91       	pop	r29
    83bc:	cf 91       	pop	r28
    83be:	1f 91       	pop	r17
    83c0:	0f 91       	pop	r16
    83c2:	ff 90       	pop	r15
    83c4:	ef 90       	pop	r14
    83c6:	df 90       	pop	r13
    83c8:	cf 90       	pop	r12
    83ca:	bf 90       	pop	r11
    83cc:	af 90       	pop	r10
    83ce:	9f 90       	pop	r9
    83d0:	8f 90       	pop	r8
    83d2:	7f 90       	pop	r7
    83d4:	6f 90       	pop	r6
    83d6:	5f 90       	pop	r5
    83d8:	4f 90       	pop	r4
    83da:	3f 90       	pop	r3
    83dc:	2f 90       	pop	r2
    83de:	08 95       	ret

000083e0 <_ZN4UTFT8fillRectEiiii>:
    83e0:	6f 92       	push	r6
    83e2:	7f 92       	push	r7
    83e4:	8f 92       	push	r8
    83e6:	9f 92       	push	r9
    83e8:	af 92       	push	r10
    83ea:	bf 92       	push	r11
    83ec:	cf 92       	push	r12
    83ee:	df 92       	push	r13
    83f0:	ef 92       	push	r14
    83f2:	ff 92       	push	r15
    83f4:	0f 93       	push	r16
    83f6:	1f 93       	push	r17
    83f8:	cf 93       	push	r28
    83fa:	df 93       	push	r29
    83fc:	ec 01       	movw	r28, r24
    83fe:	5b 01       	movw	r10, r22
    8400:	4a 01       	movw	r8, r20
    8402:	79 01       	movw	r14, r18
    8404:	68 01       	movw	r12, r16
    8406:	26 17       	cp	r18, r22
    8408:	37 07       	cpc	r19, r23
    840a:	24 f4       	brge	.+8      	; 0x8414 <_ZN4UTFT8fillRectEiiii+0x34>
    840c:	8b 2d       	mov	r24, r11
    840e:	59 01       	movw	r10, r18
    8410:	e6 2e       	mov	r14, r22
    8412:	f8 2e       	mov	r15, r24
    8414:	c8 14       	cp	r12, r8
    8416:	d9 04       	cpc	r13, r9
    8418:	2c f4       	brge	.+10     	; 0x8424 <_ZN4UTFT8fillRectEiiii+0x44>
    841a:	98 2d       	mov	r25, r8
    841c:	89 2d       	mov	r24, r9
    841e:	46 01       	movw	r8, r12
    8420:	c9 2e       	mov	r12, r25
    8422:	d8 2e       	mov	r13, r24
    8424:	8e 85       	ldd	r24, Y+14	; 0x0e
    8426:	80 31       	cpi	r24, 0x10	; 16
    8428:	d1 f5       	brne	.+116    	; 0x849e <_ZN4UTFT8fillRectEiiii+0xbe>
    842a:	ec 89       	ldd	r30, Y+20	; 0x14
    842c:	fd 89       	ldd	r31, Y+21	; 0x15
    842e:	90 81       	ld	r25, Z
    8430:	88 a1       	ldd	r24, Y+32	; 0x20
    8432:	80 95       	com	r24
    8434:	89 23       	and	r24, r25
    8436:	80 83       	st	Z, r24
    8438:	86 01       	movw	r16, r12
    843a:	97 01       	movw	r18, r14
    843c:	a4 01       	movw	r20, r8
    843e:	b5 01       	movw	r22, r10
    8440:	ce 01       	movw	r24, r28
    8442:	0f dc       	rcall	.-2018   	; 0x7c62 <_ZN4UTFT5setXYEjjjj>
    8444:	e8 89       	ldd	r30, Y+16	; 0x10
    8446:	f9 89       	ldd	r31, Y+17	; 0x11
    8448:	90 81       	ld	r25, Z
    844a:	8e 8d       	ldd	r24, Y+30	; 0x1e
    844c:	89 2b       	or	r24, r25
    844e:	80 83       	st	Z, r24
    8450:	97 01       	movw	r18, r14
    8452:	2a 19       	sub	r18, r10
    8454:	3b 09       	sbc	r19, r11
    8456:	c9 01       	movw	r24, r18
    8458:	33 0f       	add	r19, r19
    845a:	aa 0b       	sbc	r26, r26
    845c:	bb 0b       	sbc	r27, r27
    845e:	9c 01       	movw	r18, r24
    8460:	ad 01       	movw	r20, r26
    8462:	2f 5f       	subi	r18, 0xFF	; 255
    8464:	3f 4f       	sbci	r19, 0xFF	; 255
    8466:	4f 4f       	sbci	r20, 0xFF	; 255
    8468:	5f 4f       	sbci	r21, 0xFF	; 255
    846a:	b6 01       	movw	r22, r12
    846c:	68 19       	sub	r22, r8
    846e:	79 09       	sbc	r23, r9
    8470:	cb 01       	movw	r24, r22
    8472:	77 0f       	add	r23, r23
    8474:	aa 0b       	sbc	r26, r26
    8476:	bb 0b       	sbc	r27, r27
    8478:	bc 01       	movw	r22, r24
    847a:	cd 01       	movw	r24, r26
    847c:	6f 5f       	subi	r22, 0xFF	; 255
    847e:	7f 4f       	sbci	r23, 0xFF	; 255
    8480:	8f 4f       	sbci	r24, 0xFF	; 255
    8482:	9f 4f       	sbci	r25, 0xFF	; 255
    8484:	0e 94 d8 4a 	call	0x95b0	; 0x95b0 <__mulsi3>
    8488:	8b 01       	movw	r16, r22
    848a:	9c 01       	movw	r18, r24
    848c:	49 81       	ldd	r20, Y+1	; 0x01
    848e:	50 e0       	ldi	r21, 0x00	; 0
    8490:	88 81       	ld	r24, Y
    8492:	68 2f       	mov	r22, r24
    8494:	70 e0       	ldi	r23, 0x00	; 0
    8496:	ce 01       	movw	r24, r28
    8498:	0e 94 cf 37 	call	0x6f9e	; 0x6f9e <_ZN4UTFT13_fast_fill_16Eiil>
    849c:	3e c0       	rjmp	.+124    	; 0x851a <_ZN4UTFT8fillRectEiiii+0x13a>
    849e:	88 30       	cpi	r24, 0x08	; 8
    84a0:	09 f0       	breq	.+2      	; 0x84a4 <_ZN4UTFT8fillRectEiiii+0xc4>
    84a2:	42 c0       	rjmp	.+132    	; 0x8528 <_ZN4UTFT8fillRectEiiii+0x148>
    84a4:	98 81       	ld	r25, Y
    84a6:	89 81       	ldd	r24, Y+1	; 0x01
    84a8:	98 13       	cpse	r25, r24
    84aa:	3e c0       	rjmp	.+124    	; 0x8528 <_ZN4UTFT8fillRectEiiii+0x148>
    84ac:	ec 89       	ldd	r30, Y+20	; 0x14
    84ae:	fd 89       	ldd	r31, Y+21	; 0x15
    84b0:	90 81       	ld	r25, Z
    84b2:	88 a1       	ldd	r24, Y+32	; 0x20
    84b4:	80 95       	com	r24
    84b6:	89 23       	and	r24, r25
    84b8:	80 83       	st	Z, r24
    84ba:	86 01       	movw	r16, r12
    84bc:	97 01       	movw	r18, r14
    84be:	a4 01       	movw	r20, r8
    84c0:	b5 01       	movw	r22, r10
    84c2:	ce 01       	movw	r24, r28
    84c4:	ce db       	rcall	.-2148   	; 0x7c62 <_ZN4UTFT5setXYEjjjj>
    84c6:	e8 89       	ldd	r30, Y+16	; 0x10
    84c8:	f9 89       	ldd	r31, Y+17	; 0x11
    84ca:	90 81       	ld	r25, Z
    84cc:	8e 8d       	ldd	r24, Y+30	; 0x1e
    84ce:	89 2b       	or	r24, r25
    84d0:	80 83       	st	Z, r24
    84d2:	97 01       	movw	r18, r14
    84d4:	2a 19       	sub	r18, r10
    84d6:	3b 09       	sbc	r19, r11
    84d8:	c9 01       	movw	r24, r18
    84da:	33 0f       	add	r19, r19
    84dc:	aa 0b       	sbc	r26, r26
    84de:	bb 0b       	sbc	r27, r27
    84e0:	9c 01       	movw	r18, r24
    84e2:	ad 01       	movw	r20, r26
    84e4:	2f 5f       	subi	r18, 0xFF	; 255
    84e6:	3f 4f       	sbci	r19, 0xFF	; 255
    84e8:	4f 4f       	sbci	r20, 0xFF	; 255
    84ea:	5f 4f       	sbci	r21, 0xFF	; 255
    84ec:	b6 01       	movw	r22, r12
    84ee:	68 19       	sub	r22, r8
    84f0:	79 09       	sbc	r23, r9
    84f2:	cb 01       	movw	r24, r22
    84f4:	77 0f       	add	r23, r23
    84f6:	aa 0b       	sbc	r26, r26
    84f8:	bb 0b       	sbc	r27, r27
    84fa:	bc 01       	movw	r22, r24
    84fc:	cd 01       	movw	r24, r26
    84fe:	6f 5f       	subi	r22, 0xFF	; 255
    8500:	7f 4f       	sbci	r23, 0xFF	; 255
    8502:	8f 4f       	sbci	r24, 0xFF	; 255
    8504:	9f 4f       	sbci	r25, 0xFF	; 255
    8506:	0e 94 d8 4a 	call	0x95b0	; 0x95b0 <__mulsi3>
    850a:	9b 01       	movw	r18, r22
    850c:	ac 01       	movw	r20, r24
    850e:	88 81       	ld	r24, Y
    8510:	68 2f       	mov	r22, r24
    8512:	70 e0       	ldi	r23, 0x00	; 0
    8514:	ce 01       	movw	r24, r28
    8516:	0e 94 01 39 	call	0x7202	; 0x7202 <_ZN4UTFT12_fast_fill_8Eil>
    851a:	ec 89       	ldd	r30, Y+20	; 0x14
    851c:	fd 89       	ldd	r31, Y+21	; 0x15
    851e:	90 81       	ld	r25, Z
    8520:	88 a1       	ldd	r24, Y+32	; 0x20
    8522:	89 2b       	or	r24, r25
    8524:	80 83       	st	Z, r24
    8526:	48 c0       	rjmp	.+144    	; 0x85b8 <_ZN4UTFT8fillRectEiiii+0x1d8>
    8528:	8c 81       	ldd	r24, Y+4	; 0x04
    852a:	88 23       	and	r24, r24
    852c:	79 f0       	breq	.+30     	; 0x854c <_ZN4UTFT8fillRectEiiii+0x16c>
    852e:	37 01       	movw	r6, r14
    8530:	6a 18       	sub	r6, r10
    8532:	7b 08       	sbc	r7, r11
    8534:	77 fe       	sbrs	r7, 7
    8536:	03 c0       	rjmp	.+6      	; 0x853e <_ZN4UTFT8fillRectEiiii+0x15e>
    8538:	8f ef       	ldi	r24, 0xFF	; 255
    853a:	68 1a       	sub	r6, r24
    853c:	78 0a       	sbc	r7, r24
    853e:	75 94       	asr	r7
    8540:	67 94       	ror	r6
    8542:	00 e0       	ldi	r16, 0x00	; 0
    8544:	10 e0       	ldi	r17, 0x00	; 0
    8546:	c8 18       	sub	r12, r8
    8548:	d9 08       	sbc	r13, r9
    854a:	22 c0       	rjmp	.+68     	; 0x8590 <_ZN4UTFT8fillRectEiiii+0x1b0>
    854c:	36 01       	movw	r6, r12
    854e:	68 18       	sub	r6, r8
    8550:	79 08       	sbc	r7, r9
    8552:	77 fe       	sbrs	r7, 7
    8554:	03 c0       	rjmp	.+6      	; 0x855c <_ZN4UTFT8fillRectEiiii+0x17c>
    8556:	8f ef       	ldi	r24, 0xFF	; 255
    8558:	68 1a       	sub	r6, r24
    855a:	78 0a       	sbc	r7, r24
    855c:	75 94       	asr	r7
    855e:	67 94       	ror	r6
    8560:	00 e0       	ldi	r16, 0x00	; 0
    8562:	10 e0       	ldi	r17, 0x00	; 0
    8564:	ea 18       	sub	r14, r10
    8566:	fb 08       	sbc	r15, r11
    8568:	60 16       	cp	r6, r16
    856a:	71 06       	cpc	r7, r17
    856c:	2c f1       	brlt	.+74     	; 0x85b8 <_ZN4UTFT8fillRectEiiii+0x1d8>
    856e:	a8 01       	movw	r20, r16
    8570:	48 0d       	add	r20, r8
    8572:	59 1d       	adc	r21, r9
    8574:	97 01       	movw	r18, r14
    8576:	b5 01       	movw	r22, r10
    8578:	ce 01       	movw	r24, r28
    857a:	d3 dc       	rcall	.-1626   	; 0x7f22 <_ZN4UTFT9drawHLineEiii>
    857c:	a6 01       	movw	r20, r12
    857e:	40 1b       	sub	r20, r16
    8580:	51 0b       	sbc	r21, r17
    8582:	97 01       	movw	r18, r14
    8584:	b5 01       	movw	r22, r10
    8586:	ce 01       	movw	r24, r28
    8588:	cc dc       	rcall	.-1640   	; 0x7f22 <_ZN4UTFT9drawHLineEiii>
    858a:	0f 5f       	subi	r16, 0xFF	; 255
    858c:	1f 4f       	sbci	r17, 0xFF	; 255
    858e:	ec cf       	rjmp	.-40     	; 0x8568 <_ZN4UTFT8fillRectEiiii+0x188>
    8590:	60 16       	cp	r6, r16
    8592:	71 06       	cpc	r7, r17
    8594:	8c f0       	brlt	.+34     	; 0x85b8 <_ZN4UTFT8fillRectEiiii+0x1d8>
    8596:	b8 01       	movw	r22, r16
    8598:	6a 0d       	add	r22, r10
    859a:	7b 1d       	adc	r23, r11
    859c:	96 01       	movw	r18, r12
    859e:	a4 01       	movw	r20, r8
    85a0:	ce 01       	movw	r24, r28
    85a2:	c9 dd       	rcall	.-1134   	; 0x8136 <_ZN4UTFT9drawVLineEiii>
    85a4:	b7 01       	movw	r22, r14
    85a6:	60 1b       	sub	r22, r16
    85a8:	71 0b       	sbc	r23, r17
    85aa:	96 01       	movw	r18, r12
    85ac:	a4 01       	movw	r20, r8
    85ae:	ce 01       	movw	r24, r28
    85b0:	c2 dd       	rcall	.-1148   	; 0x8136 <_ZN4UTFT9drawVLineEiii>
    85b2:	0f 5f       	subi	r16, 0xFF	; 255
    85b4:	1f 4f       	sbci	r17, 0xFF	; 255
    85b6:	ec cf       	rjmp	.-40     	; 0x8590 <_ZN4UTFT8fillRectEiiii+0x1b0>
    85b8:	df 91       	pop	r29
    85ba:	cf 91       	pop	r28
    85bc:	1f 91       	pop	r17
    85be:	0f 91       	pop	r16
    85c0:	ff 90       	pop	r15
    85c2:	ef 90       	pop	r14
    85c4:	df 90       	pop	r13
    85c6:	cf 90       	pop	r12
    85c8:	bf 90       	pop	r11
    85ca:	af 90       	pop	r10
    85cc:	9f 90       	pop	r9
    85ce:	8f 90       	pop	r8
    85d0:	7f 90       	pop	r7
    85d2:	6f 90       	pop	r6
    85d4:	08 95       	ret

000085d6 <_ZN4UTFT8drawLineEiiii>:
    85d6:	2f 92       	push	r2
    85d8:	3f 92       	push	r3
    85da:	4f 92       	push	r4
    85dc:	5f 92       	push	r5
    85de:	6f 92       	push	r6
    85e0:	7f 92       	push	r7
    85e2:	8f 92       	push	r8
    85e4:	9f 92       	push	r9
    85e6:	af 92       	push	r10
    85e8:	bf 92       	push	r11
    85ea:	cf 92       	push	r12
    85ec:	df 92       	push	r13
    85ee:	ef 92       	push	r14
    85f0:	ff 92       	push	r15
    85f2:	0f 93       	push	r16
    85f4:	1f 93       	push	r17
    85f6:	cf 93       	push	r28
    85f8:	df 93       	push	r29
    85fa:	00 d0       	rcall	.+0      	; 0x85fc <_ZN4UTFT8drawLineEiiii+0x26>
    85fc:	1f 92       	push	r1
    85fe:	cd b7       	in	r28, 0x3d	; 61
    8600:	de b7       	in	r29, 0x3e	; 62
    8602:	6c 01       	movw	r12, r24
    8604:	7b 01       	movw	r14, r22
    8606:	5c 83       	std	Y+4, r21	; 0x04
    8608:	4b 83       	std	Y+3, r20	; 0x03
    860a:	59 01       	movw	r10, r18
    860c:	48 01       	movw	r8, r16
    860e:	40 17       	cp	r20, r16
    8610:	51 07       	cpc	r21, r17
    8612:	21 f4       	brne	.+8      	; 0x861c <_ZN4UTFT8drawLineEiiii+0x46>
    8614:	26 1b       	sub	r18, r22
    8616:	37 0b       	sbc	r19, r23
    8618:	84 dc       	rcall	.-1784   	; 0x7f22 <_ZN4UTFT9drawHLineEiii>
    861a:	98 c0       	rjmp	.+304    	; 0x874c <_ZN4UTFT8drawLineEiiii+0x176>
    861c:	62 17       	cp	r22, r18
    861e:	73 07       	cpc	r23, r19
    8620:	49 f4       	brne	.+18     	; 0x8634 <_ZN4UTFT8drawLineEiiii+0x5e>
    8622:	98 01       	movw	r18, r16
    8624:	8b 81       	ldd	r24, Y+3	; 0x03
    8626:	9c 81       	ldd	r25, Y+4	; 0x04
    8628:	28 1b       	sub	r18, r24
    862a:	39 0b       	sbc	r19, r25
    862c:	ac 01       	movw	r20, r24
    862e:	c6 01       	movw	r24, r12
    8630:	82 dd       	rcall	.-1276   	; 0x8136 <_ZN4UTFT9drawVLineEiii>
    8632:	8c c0       	rjmp	.+280    	; 0x874c <_ZN4UTFT8drawLineEiiii+0x176>
    8634:	62 17       	cp	r22, r18
    8636:	73 07       	cpc	r23, r19
    8638:	24 f4       	brge	.+8      	; 0x8642 <_ZN4UTFT8drawLineEiiii+0x6c>
    863a:	29 01       	movw	r4, r18
    863c:	46 1a       	sub	r4, r22
    863e:	57 0a       	sbc	r5, r23
    8640:	03 c0       	rjmp	.+6      	; 0x8648 <_ZN4UTFT8drawLineEiiii+0x72>
    8642:	2b 01       	movw	r4, r22
    8644:	42 1a       	sub	r4, r18
    8646:	53 0a       	sbc	r5, r19
    8648:	ea 14       	cp	r14, r10
    864a:	fb 04       	cpc	r15, r11
    864c:	24 f0       	brlt	.+8      	; 0x8656 <_ZN4UTFT8drawLineEiiii+0x80>
    864e:	22 24       	eor	r2, r2
    8650:	2a 94       	dec	r2
    8652:	32 2c       	mov	r3, r2
    8654:	03 c0       	rjmp	.+6      	; 0x865c <_ZN4UTFT8drawLineEiiii+0x86>
    8656:	22 24       	eor	r2, r2
    8658:	23 94       	inc	r2
    865a:	31 2c       	mov	r3, r1
    865c:	ab 81       	ldd	r26, Y+3	; 0x03
    865e:	bc 81       	ldd	r27, Y+4	; 0x04
    8660:	a8 15       	cp	r26, r8
    8662:	b9 05       	cpc	r27, r9
    8664:	24 f4       	brge	.+8      	; 0x866e <_ZN4UTFT8drawLineEiiii+0x98>
    8666:	34 01       	movw	r6, r8
    8668:	6a 1a       	sub	r6, r26
    866a:	7b 0a       	sbc	r7, r27
    866c:	04 c0       	rjmp	.+8      	; 0x8676 <_ZN4UTFT8drawLineEiiii+0xa0>
    866e:	6b 80       	ldd	r6, Y+3	; 0x03
    8670:	7c 80       	ldd	r7, Y+4	; 0x04
    8672:	68 18       	sub	r6, r8
    8674:	79 08       	sbc	r7, r9
    8676:	eb 81       	ldd	r30, Y+3	; 0x03
    8678:	fc 81       	ldd	r31, Y+4	; 0x04
    867a:	e8 15       	cp	r30, r8
    867c:	f9 05       	cpc	r31, r9
    867e:	2c f0       	brlt	.+10     	; 0x868a <_ZN4UTFT8drawLineEiiii+0xb4>
    8680:	2f ef       	ldi	r18, 0xFF	; 255
    8682:	3f ef       	ldi	r19, 0xFF	; 255
    8684:	3a 83       	std	Y+2, r19	; 0x02
    8686:	29 83       	std	Y+1, r18	; 0x01
    8688:	04 c0       	rjmp	.+8      	; 0x8692 <_ZN4UTFT8drawLineEiiii+0xbc>
    868a:	81 e0       	ldi	r24, 0x01	; 1
    868c:	90 e0       	ldi	r25, 0x00	; 0
    868e:	9a 83       	std	Y+2, r25	; 0x02
    8690:	89 83       	std	Y+1, r24	; 0x01
    8692:	d6 01       	movw	r26, r12
    8694:	54 96       	adiw	r26, 0x14	; 20
    8696:	ed 91       	ld	r30, X+
    8698:	fc 91       	ld	r31, X
    869a:	55 97       	sbiw	r26, 0x15	; 21
    869c:	90 81       	ld	r25, Z
    869e:	90 96       	adiw	r26, 0x20	; 32
    86a0:	8c 91       	ld	r24, X
    86a2:	80 95       	com	r24
    86a4:	89 23       	and	r24, r25
    86a6:	80 83       	st	Z, r24
    86a8:	46 14       	cp	r4, r6
    86aa:	57 04       	cpc	r5, r7
    86ac:	38 f5       	brcc	.+78     	; 0x86fc <_ZN4UTFT8drawLineEiiii+0x126>
    86ae:	53 01       	movw	r10, r6
    86b0:	b6 94       	lsr	r11
    86b2:	a7 94       	ror	r10
    86b4:	b1 94       	neg	r11
    86b6:	a1 94       	neg	r10
    86b8:	b1 08       	sbc	r11, r1
    86ba:	0b 81       	ldd	r16, Y+3	; 0x03
    86bc:	1c 81       	ldd	r17, Y+4	; 0x04
    86be:	97 01       	movw	r18, r14
    86c0:	a8 01       	movw	r20, r16
    86c2:	b7 01       	movw	r22, r14
    86c4:	c6 01       	movw	r24, r12
    86c6:	cd da       	rcall	.-2662   	; 0x7c62 <_ZN4UTFT5setXYEjjjj>
    86c8:	f6 01       	movw	r30, r12
    86ca:	41 81       	ldd	r20, Z+1	; 0x01
    86cc:	60 81       	ld	r22, Z
    86ce:	c6 01       	movw	r24, r12
    86d0:	91 d9       	rcall	.-3294   	; 0x79f4 <_ZN4UTFT14LCD_Write_DATAEcc>
    86d2:	2b 81       	ldd	r18, Y+3	; 0x03
    86d4:	3c 81       	ldd	r19, Y+4	; 0x04
    86d6:	28 15       	cp	r18, r8
    86d8:	39 05       	cpc	r19, r9
    86da:	09 f4       	brne	.+2      	; 0x86de <_ZN4UTFT8drawLineEiiii+0x108>
    86dc:	4f c0       	rjmp	.+158    	; 0x877c <_ZN4UTFT8drawLineEiiii+0x1a6>
    86de:	89 81       	ldd	r24, Y+1	; 0x01
    86e0:	9a 81       	ldd	r25, Y+2	; 0x02
    86e2:	28 0f       	add	r18, r24
    86e4:	39 1f       	adc	r19, r25
    86e6:	3c 83       	std	Y+4, r19	; 0x04
    86e8:	2b 83       	std	Y+3, r18	; 0x03
    86ea:	a4 0c       	add	r10, r4
    86ec:	b5 1c       	adc	r11, r5
    86ee:	b7 fc       	sbrc	r11, 7
    86f0:	e4 cf       	rjmp	.-56     	; 0x86ba <_ZN4UTFT8drawLineEiiii+0xe4>
    86f2:	e2 0c       	add	r14, r2
    86f4:	f3 1c       	adc	r15, r3
    86f6:	a6 18       	sub	r10, r6
    86f8:	b7 08       	sbc	r11, r7
    86fa:	df cf       	rjmp	.-66     	; 0x86ba <_ZN4UTFT8drawLineEiiii+0xe4>
    86fc:	42 01       	movw	r8, r4
    86fe:	96 94       	lsr	r9
    8700:	87 94       	ror	r8
    8702:	91 94       	neg	r9
    8704:	81 94       	neg	r8
    8706:	91 08       	sbc	r9, r1
    8708:	0b 81       	ldd	r16, Y+3	; 0x03
    870a:	1c 81       	ldd	r17, Y+4	; 0x04
    870c:	97 01       	movw	r18, r14
    870e:	a8 01       	movw	r20, r16
    8710:	b7 01       	movw	r22, r14
    8712:	c6 01       	movw	r24, r12
    8714:	a6 da       	rcall	.-2740   	; 0x7c62 <_ZN4UTFT5setXYEjjjj>
    8716:	d6 01       	movw	r26, r12
    8718:	11 96       	adiw	r26, 0x01	; 1
    871a:	4c 91       	ld	r20, X
    871c:	11 97       	sbiw	r26, 0x01	; 1
    871e:	6c 91       	ld	r22, X
    8720:	c6 01       	movw	r24, r12
    8722:	68 d9       	rcall	.-3376   	; 0x79f4 <_ZN4UTFT14LCD_Write_DATAEcc>
    8724:	ea 14       	cp	r14, r10
    8726:	fb 04       	cpc	r15, r11
    8728:	49 f1       	breq	.+82     	; 0x877c <_ZN4UTFT8drawLineEiiii+0x1a6>
    872a:	e2 0c       	add	r14, r2
    872c:	f3 1c       	adc	r15, r3
    872e:	86 0c       	add	r8, r6
    8730:	97 1c       	adc	r9, r7
    8732:	97 fc       	sbrc	r9, 7
    8734:	e9 cf       	rjmp	.-46     	; 0x8708 <_ZN4UTFT8drawLineEiiii+0x132>
    8736:	eb 81       	ldd	r30, Y+3	; 0x03
    8738:	fc 81       	ldd	r31, Y+4	; 0x04
    873a:	29 81       	ldd	r18, Y+1	; 0x01
    873c:	3a 81       	ldd	r19, Y+2	; 0x02
    873e:	e2 0f       	add	r30, r18
    8740:	f3 1f       	adc	r31, r19
    8742:	fc 83       	std	Y+4, r31	; 0x04
    8744:	eb 83       	std	Y+3, r30	; 0x03
    8746:	84 18       	sub	r8, r4
    8748:	95 08       	sbc	r9, r5
    874a:	de cf       	rjmp	.-68     	; 0x8708 <_ZN4UTFT8drawLineEiiii+0x132>
    874c:	c6 01       	movw	r24, r12
    874e:	0f 90       	pop	r0
    8750:	0f 90       	pop	r0
    8752:	0f 90       	pop	r0
    8754:	0f 90       	pop	r0
    8756:	df 91       	pop	r29
    8758:	cf 91       	pop	r28
    875a:	1f 91       	pop	r17
    875c:	0f 91       	pop	r16
    875e:	ff 90       	pop	r15
    8760:	ef 90       	pop	r14
    8762:	df 90       	pop	r13
    8764:	cf 90       	pop	r12
    8766:	bf 90       	pop	r11
    8768:	af 90       	pop	r10
    876a:	9f 90       	pop	r9
    876c:	8f 90       	pop	r8
    876e:	7f 90       	pop	r7
    8770:	6f 90       	pop	r6
    8772:	5f 90       	pop	r5
    8774:	4f 90       	pop	r4
    8776:	3f 90       	pop	r3
    8778:	2f 90       	pop	r2
    877a:	d5 ca       	rjmp	.-2646   	; 0x7d26 <_ZN4UTFT5clrXYEv>
    877c:	0f 90       	pop	r0
    877e:	0f 90       	pop	r0
    8780:	0f 90       	pop	r0
    8782:	0f 90       	pop	r0
    8784:	df 91       	pop	r29
    8786:	cf 91       	pop	r28
    8788:	1f 91       	pop	r17
    878a:	0f 91       	pop	r16
    878c:	ff 90       	pop	r15
    878e:	ef 90       	pop	r14
    8790:	df 90       	pop	r13
    8792:	cf 90       	pop	r12
    8794:	bf 90       	pop	r11
    8796:	af 90       	pop	r10
    8798:	9f 90       	pop	r9
    879a:	8f 90       	pop	r8
    879c:	7f 90       	pop	r7
    879e:	6f 90       	pop	r6
    87a0:	5f 90       	pop	r5
    87a2:	4f 90       	pop	r4
    87a4:	3f 90       	pop	r3
    87a6:	2f 90       	pop	r2
    87a8:	08 95       	ret

000087aa <_ZN4UTFT9printCharEhii>:
    87aa:	2f 92       	push	r2
    87ac:	3f 92       	push	r3
    87ae:	4f 92       	push	r4
    87b0:	5f 92       	push	r5
    87b2:	6f 92       	push	r6
    87b4:	7f 92       	push	r7
    87b6:	8f 92       	push	r8
    87b8:	9f 92       	push	r9
    87ba:	af 92       	push	r10
    87bc:	bf 92       	push	r11
    87be:	cf 92       	push	r12
    87c0:	df 92       	push	r13
    87c2:	ef 92       	push	r14
    87c4:	ff 92       	push	r15
    87c6:	0f 93       	push	r16
    87c8:	1f 93       	push	r17
    87ca:	cf 93       	push	r28
    87cc:	df 93       	push	r29
    87ce:	cd b7       	in	r28, 0x3d	; 61
    87d0:	de b7       	in	r29, 0x3e	; 62
    87d2:	28 97       	sbiw	r28, 0x08	; 8
    87d4:	0f b6       	in	r0, 0x3f	; 63
    87d6:	f8 94       	cli
    87d8:	de bf       	out	0x3e, r29	; 62
    87da:	0f be       	out	0x3f, r0	; 63
    87dc:	cd bf       	out	0x3d, r28	; 61
    87de:	98 87       	std	Y+8, r25	; 0x08
    87e0:	8f 83       	std	Y+7, r24	; 0x07
    87e2:	2a 01       	movw	r4, r20
    87e4:	19 01       	movw	r2, r18
    87e6:	dc 01       	movw	r26, r24
    87e8:	54 96       	adiw	r26, 0x14	; 20
    87ea:	ed 91       	ld	r30, X+
    87ec:	fc 91       	ld	r31, X
    87ee:	55 97       	sbiw	r26, 0x15	; 21
    87f0:	90 81       	ld	r25, Z
    87f2:	90 96       	adiw	r26, 0x20	; 32
    87f4:	8c 91       	ld	r24, X
    87f6:	90 97       	sbiw	r26, 0x20	; 32
    87f8:	80 95       	com	r24
    87fa:	89 23       	and	r24, r25
    87fc:	80 83       	st	Z, r24
    87fe:	d0 96       	adiw	r26, 0x30	; 48
    8800:	2c 91       	ld	r18, X
    8802:	d0 97       	sbiw	r26, 0x30	; 48
    8804:	9d 96       	adiw	r26, 0x2d	; 45
    8806:	9c 91       	ld	r25, X
    8808:	9d 97       	sbiw	r26, 0x2d	; 45
    880a:	9c 96       	adiw	r26, 0x2c	; 44
    880c:	8c 91       	ld	r24, X
    880e:	9c 97       	sbiw	r26, 0x2c	; 44
    8810:	e6 2e       	mov	r14, r22
    8812:	f1 2c       	mov	r15, r1
    8814:	21 11       	cpse	r18, r1
    8816:	2c c1       	rjmp	.+600    	; 0x8a70 <_ZN4UTFT9printCharEhii+0x2c6>
    8818:	14 96       	adiw	r26, 0x04	; 4
    881a:	2c 91       	ld	r18, X
    881c:	14 97       	sbiw	r26, 0x04	; 4
    881e:	21 11       	cpse	r18, r1
    8820:	99 c0       	rjmp	.+306    	; 0x8954 <_ZN4UTFT9printCharEhii+0x1aa>
    8822:	81 01       	movw	r16, r2
    8824:	09 0f       	add	r16, r25
    8826:	11 1d       	adc	r17, r1
    8828:	01 50       	subi	r16, 0x01	; 1
    882a:	11 09       	sbc	r17, r1
    882c:	9a 01       	movw	r18, r20
    882e:	28 0f       	add	r18, r24
    8830:	31 1d       	adc	r19, r1
    8832:	21 50       	subi	r18, 0x01	; 1
    8834:	31 09       	sbc	r19, r1
    8836:	a1 01       	movw	r20, r2
    8838:	b2 01       	movw	r22, r4
    883a:	cd 01       	movw	r24, r26
    883c:	12 da       	rcall	.-3036   	; 0x7c62 <_ZN4UTFT5setXYEjjjj>
    883e:	ef 81       	ldd	r30, Y+7	; 0x07
    8840:	f8 85       	ldd	r31, Y+8	; 0x08
    8842:	84 a5       	ldd	r24, Z+44	; 0x2c
    8844:	86 95       	lsr	r24
    8846:	86 95       	lsr	r24
    8848:	86 95       	lsr	r24
    884a:	95 a5       	ldd	r25, Z+45	; 0x2d
    884c:	26 a5       	ldd	r18, Z+46	; 0x2e
    884e:	e2 1a       	sub	r14, r18
    8850:	f1 08       	sbc	r15, r1
    8852:	89 9f       	mul	r24, r25
    8854:	c0 01       	movw	r24, r0
    8856:	11 24       	eor	r1, r1
    8858:	e8 9e       	mul	r14, r24
    885a:	90 01       	movw	r18, r0
    885c:	e9 9e       	mul	r14, r25
    885e:	30 0d       	add	r19, r0
    8860:	f8 9e       	mul	r15, r24
    8862:	30 0d       	add	r19, r0
    8864:	11 24       	eor	r1, r1
    8866:	79 01       	movw	r14, r18
    8868:	f4 e0       	ldi	r31, 0x04	; 4
    886a:	ef 0e       	add	r14, r31
    886c:	f1 1c       	adc	r15, r1
    886e:	a1 2c       	mov	r10, r1
    8870:	b1 2c       	mov	r11, r1
    8872:	af 81       	ldd	r26, Y+7	; 0x07
    8874:	b8 85       	ldd	r27, Y+8	; 0x08
    8876:	9c 96       	adiw	r26, 0x2c	; 44
    8878:	8c 91       	ld	r24, X
    887a:	9c 97       	sbiw	r26, 0x2c	; 44
    887c:	86 95       	lsr	r24
    887e:	86 95       	lsr	r24
    8880:	86 95       	lsr	r24
    8882:	9d 96       	adiw	r26, 0x2d	; 45
    8884:	9c 91       	ld	r25, X
    8886:	89 9f       	mul	r24, r25
    8888:	c0 01       	movw	r24, r0
    888a:	11 24       	eor	r1, r1
    888c:	a8 16       	cp	r10, r24
    888e:	b9 06       	cpc	r11, r25
    8890:	08 f0       	brcs	.+2      	; 0x8894 <_ZN4UTFT9printCharEhii+0xea>
    8892:	3a c0       	rjmp	.+116    	; 0x8908 <_ZN4UTFT9printCharEhii+0x15e>
    8894:	af 81       	ldd	r26, Y+7	; 0x07
    8896:	b8 85       	ldd	r27, Y+8	; 0x08
    8898:	9a 96       	adiw	r26, 0x2a	; 42
    889a:	ed 91       	ld	r30, X+
    889c:	fc 91       	ld	r31, X
    889e:	9b 97       	sbiw	r26, 0x2b	; 43
    88a0:	ee 0d       	add	r30, r14
    88a2:	ff 1d       	adc	r31, r15
    88a4:	e4 91       	lpm	r30, Z
    88a6:	67 e0       	ldi	r22, 0x07	; 7
    88a8:	c6 2e       	mov	r12, r22
    88aa:	d1 2c       	mov	r13, r1
    88ac:	0e 2f       	mov	r16, r30
    88ae:	10 e0       	ldi	r17, 0x00	; 0
    88b0:	c8 01       	movw	r24, r16
    88b2:	0c 2c       	mov	r0, r12
    88b4:	02 c0       	rjmp	.+4      	; 0x88ba <_ZN4UTFT9printCharEhii+0x110>
    88b6:	95 95       	asr	r25
    88b8:	87 95       	ror	r24
    88ba:	0a 94       	dec	r0
    88bc:	e2 f7       	brpl	.-8      	; 0x88b6 <_ZN4UTFT9printCharEhii+0x10c>
    88be:	80 ff       	sbrs	r24, 0
    88c0:	0a c0       	rjmp	.+20     	; 0x88d6 <_ZN4UTFT9printCharEhii+0x12c>
    88c2:	ef 81       	ldd	r30, Y+7	; 0x07
    88c4:	f8 85       	ldd	r31, Y+8	; 0x08
    88c6:	60 81       	ld	r22, Z
    88c8:	70 e0       	ldi	r23, 0x00	; 0
    88ca:	76 2f       	mov	r23, r22
    88cc:	66 27       	eor	r22, r22
    88ce:	81 81       	ldd	r24, Z+1	; 0x01
    88d0:	68 2b       	or	r22, r24
    88d2:	cf 01       	movw	r24, r30
    88d4:	0d c0       	rjmp	.+26     	; 0x88f0 <_ZN4UTFT9printCharEhii+0x146>
    88d6:	af 81       	ldd	r26, Y+7	; 0x07
    88d8:	b8 85       	ldd	r27, Y+8	; 0x08
    88da:	12 96       	adiw	r26, 0x02	; 2
    88dc:	6c 91       	ld	r22, X
    88de:	12 97       	sbiw	r26, 0x02	; 2
    88e0:	70 e0       	ldi	r23, 0x00	; 0
    88e2:	76 2f       	mov	r23, r22
    88e4:	66 27       	eor	r22, r22
    88e6:	13 96       	adiw	r26, 0x03	; 3
    88e8:	8c 91       	ld	r24, X
    88ea:	13 97       	sbiw	r26, 0x03	; 3
    88ec:	68 2b       	or	r22, r24
    88ee:	cd 01       	movw	r24, r26
    88f0:	f1 da       	rcall	.-2590   	; 0x7ed4 <_ZN4UTFT8setPixelEj>
    88f2:	b1 e0       	ldi	r27, 0x01	; 1
    88f4:	cb 1a       	sub	r12, r27
    88f6:	d1 08       	sbc	r13, r1
    88f8:	d8 f6       	brcc	.-74     	; 0x88b0 <_ZN4UTFT9printCharEhii+0x106>
    88fa:	ff ef       	ldi	r31, 0xFF	; 255
    88fc:	ef 1a       	sub	r14, r31
    88fe:	ff 0a       	sbc	r15, r31
    8900:	8f ef       	ldi	r24, 0xFF	; 255
    8902:	a8 1a       	sub	r10, r24
    8904:	b8 0a       	sbc	r11, r24
    8906:	b5 cf       	rjmp	.-150    	; 0x8872 <_ZN4UTFT9printCharEhii+0xc8>
    8908:	af 81       	ldd	r26, Y+7	; 0x07
    890a:	b8 85       	ldd	r27, Y+8	; 0x08
    890c:	54 96       	adiw	r26, 0x14	; 20
    890e:	ed 91       	ld	r30, X+
    8910:	fc 91       	ld	r31, X
    8912:	55 97       	sbiw	r26, 0x15	; 21
    8914:	90 81       	ld	r25, Z
    8916:	90 96       	adiw	r26, 0x20	; 32
    8918:	8c 91       	ld	r24, X
    891a:	90 97       	sbiw	r26, 0x20	; 32
    891c:	89 2b       	or	r24, r25
    891e:	80 83       	st	Z, r24
    8920:	cd 01       	movw	r24, r26
    8922:	28 96       	adiw	r28, 0x08	; 8
    8924:	0f b6       	in	r0, 0x3f	; 63
    8926:	f8 94       	cli
    8928:	de bf       	out	0x3e, r29	; 62
    892a:	0f be       	out	0x3f, r0	; 63
    892c:	cd bf       	out	0x3d, r28	; 61
    892e:	df 91       	pop	r29
    8930:	cf 91       	pop	r28
    8932:	1f 91       	pop	r17
    8934:	0f 91       	pop	r16
    8936:	ff 90       	pop	r15
    8938:	ef 90       	pop	r14
    893a:	df 90       	pop	r13
    893c:	cf 90       	pop	r12
    893e:	bf 90       	pop	r11
    8940:	af 90       	pop	r10
    8942:	9f 90       	pop	r9
    8944:	8f 90       	pop	r8
    8946:	7f 90       	pop	r7
    8948:	6f 90       	pop	r6
    894a:	5f 90       	pop	r5
    894c:	4f 90       	pop	r4
    894e:	3f 90       	pop	r3
    8950:	2f 90       	pop	r2
    8952:	e9 c9       	rjmp	.-3118   	; 0x7d26 <_ZN4UTFT5clrXYEv>
    8954:	86 95       	lsr	r24
    8956:	86 95       	lsr	r24
    8958:	86 95       	lsr	r24
    895a:	ef 81       	ldd	r30, Y+7	; 0x07
    895c:	f8 85       	ldd	r31, Y+8	; 0x08
    895e:	26 a5       	ldd	r18, Z+46	; 0x2e
    8960:	e2 1a       	sub	r14, r18
    8962:	f1 08       	sbc	r15, r1
    8964:	89 9f       	mul	r24, r25
    8966:	c0 01       	movw	r24, r0
    8968:	11 24       	eor	r1, r1
    896a:	e8 9e       	mul	r14, r24
    896c:	90 01       	movw	r18, r0
    896e:	e9 9e       	mul	r14, r25
    8970:	30 0d       	add	r19, r0
    8972:	f8 9e       	mul	r15, r24
    8974:	30 0d       	add	r19, r0
    8976:	11 24       	eor	r1, r1
    8978:	79 01       	movw	r14, r18
    897a:	f4 e0       	ldi	r31, 0x04	; 4
    897c:	ef 0e       	add	r14, r31
    897e:	f1 1c       	adc	r15, r1
    8980:	c1 2c       	mov	r12, r1
    8982:	d1 2c       	mov	r13, r1
    8984:	ef 81       	ldd	r30, Y+7	; 0x07
    8986:	f8 85       	ldd	r31, Y+8	; 0x08
    8988:	24 a5       	ldd	r18, Z+44	; 0x2c
    898a:	62 2f       	mov	r22, r18
    898c:	66 95       	lsr	r22
    898e:	66 95       	lsr	r22
    8990:	66 95       	lsr	r22
    8992:	85 a5       	ldd	r24, Z+45	; 0x2d
    8994:	68 9f       	mul	r22, r24
    8996:	c0 01       	movw	r24, r0
    8998:	11 24       	eor	r1, r1
    899a:	c8 16       	cp	r12, r24
    899c:	d9 06       	cpc	r13, r25
    899e:	08 f0       	brcs	.+2      	; 0x89a2 <_ZN4UTFT9printCharEhii+0x1f8>
    89a0:	b3 cf       	rjmp	.-154    	; 0x8908 <_ZN4UTFT9printCharEhii+0x15e>
    89a2:	70 e0       	ldi	r23, 0x00	; 0
    89a4:	c6 01       	movw	r24, r12
    89a6:	1f d6       	rcall	.+3134   	; 0x95e6 <__udivmodhi4>
    89a8:	ab 01       	movw	r20, r22
    89aa:	42 0d       	add	r20, r2
    89ac:	53 1d       	adc	r21, r3
    89ae:	c2 01       	movw	r24, r4
    89b0:	82 0f       	add	r24, r18
    89b2:	91 1d       	adc	r25, r1
    89b4:	9c 01       	movw	r18, r24
    89b6:	21 50       	subi	r18, 0x01	; 1
    89b8:	31 09       	sbc	r19, r1
    89ba:	8a 01       	movw	r16, r20
    89bc:	b2 01       	movw	r22, r4
    89be:	8f 81       	ldd	r24, Y+7	; 0x07
    89c0:	98 85       	ldd	r25, Y+8	; 0x08
    89c2:	4f d9       	rcall	.-3426   	; 0x7c62 <_ZN4UTFT5setXYEjjjj>
    89c4:	af 81       	ldd	r26, Y+7	; 0x07
    89c6:	b8 85       	ldd	r27, Y+8	; 0x08
    89c8:	9c 96       	adiw	r26, 0x2c	; 44
    89ca:	6c 90       	ld	r6, X
    89cc:	66 94       	lsr	r6
    89ce:	66 94       	lsr	r6
    89d0:	66 94       	lsr	r6
    89d2:	71 2c       	mov	r7, r1
    89d4:	47 01       	movw	r8, r14
    89d6:	b1 e0       	ldi	r27, 0x01	; 1
    89d8:	8b 1a       	sub	r8, r27
    89da:	91 08       	sbc	r9, r1
    89dc:	af 81       	ldd	r26, Y+7	; 0x07
    89de:	b8 85       	ldd	r27, Y+8	; 0x08
    89e0:	61 14       	cp	r6, r1
    89e2:	71 04       	cpc	r7, r1
    89e4:	d1 f1       	breq	.+116    	; 0x8a5a <_ZN4UTFT9printCharEhii+0x2b0>
    89e6:	9a 96       	adiw	r26, 0x2a	; 42
    89e8:	ed 91       	ld	r30, X+
    89ea:	fc 91       	ld	r31, X
    89ec:	9b 97       	sbiw	r26, 0x2b	; 43
    89ee:	c4 01       	movw	r24, r8
    89f0:	86 0d       	add	r24, r6
    89f2:	97 1d       	adc	r25, r7
    89f4:	e8 0f       	add	r30, r24
    89f6:	f9 1f       	adc	r31, r25
    89f8:	e4 91       	lpm	r30, Z
    89fa:	a1 2c       	mov	r10, r1
    89fc:	b1 2c       	mov	r11, r1
    89fe:	0e 2f       	mov	r16, r30
    8a00:	10 e0       	ldi	r17, 0x00	; 0
    8a02:	c8 01       	movw	r24, r16
    8a04:	0a 2c       	mov	r0, r10
    8a06:	02 c0       	rjmp	.+4      	; 0x8a0c <_ZN4UTFT9printCharEhii+0x262>
    8a08:	95 95       	asr	r25
    8a0a:	87 95       	ror	r24
    8a0c:	0a 94       	dec	r0
    8a0e:	e2 f7       	brpl	.-8      	; 0x8a08 <_ZN4UTFT9printCharEhii+0x25e>
    8a10:	80 ff       	sbrs	r24, 0
    8a12:	0a c0       	rjmp	.+20     	; 0x8a28 <_ZN4UTFT9printCharEhii+0x27e>
    8a14:	ef 81       	ldd	r30, Y+7	; 0x07
    8a16:	f8 85       	ldd	r31, Y+8	; 0x08
    8a18:	60 81       	ld	r22, Z
    8a1a:	70 e0       	ldi	r23, 0x00	; 0
    8a1c:	76 2f       	mov	r23, r22
    8a1e:	66 27       	eor	r22, r22
    8a20:	81 81       	ldd	r24, Z+1	; 0x01
    8a22:	68 2b       	or	r22, r24
    8a24:	cf 01       	movw	r24, r30
    8a26:	0d c0       	rjmp	.+26     	; 0x8a42 <_ZN4UTFT9printCharEhii+0x298>
    8a28:	af 81       	ldd	r26, Y+7	; 0x07
    8a2a:	b8 85       	ldd	r27, Y+8	; 0x08
    8a2c:	12 96       	adiw	r26, 0x02	; 2
    8a2e:	6c 91       	ld	r22, X
    8a30:	12 97       	sbiw	r26, 0x02	; 2
    8a32:	70 e0       	ldi	r23, 0x00	; 0
    8a34:	76 2f       	mov	r23, r22
    8a36:	66 27       	eor	r22, r22
    8a38:	13 96       	adiw	r26, 0x03	; 3
    8a3a:	8c 91       	ld	r24, X
    8a3c:	13 97       	sbiw	r26, 0x03	; 3
    8a3e:	68 2b       	or	r22, r24
    8a40:	cd 01       	movw	r24, r26
    8a42:	48 da       	rcall	.-2928   	; 0x7ed4 <_ZN4UTFT8setPixelEj>
    8a44:	bf ef       	ldi	r27, 0xFF	; 255
    8a46:	ab 1a       	sub	r10, r27
    8a48:	bb 0a       	sbc	r11, r27
    8a4a:	e8 e0       	ldi	r30, 0x08	; 8
    8a4c:	ae 16       	cp	r10, r30
    8a4e:	b1 04       	cpc	r11, r1
    8a50:	c1 f6       	brne	.-80     	; 0x8a02 <_ZN4UTFT9printCharEhii+0x258>
    8a52:	f1 e0       	ldi	r31, 0x01	; 1
    8a54:	6f 1a       	sub	r6, r31
    8a56:	71 08       	sbc	r7, r1
    8a58:	c1 cf       	rjmp	.-126    	; 0x89dc <_ZN4UTFT9printCharEhii+0x232>
    8a5a:	9c 96       	adiw	r26, 0x2c	; 44
    8a5c:	8c 91       	ld	r24, X
    8a5e:	86 95       	lsr	r24
    8a60:	86 95       	lsr	r24
    8a62:	86 95       	lsr	r24
    8a64:	90 e0       	ldi	r25, 0x00	; 0
    8a66:	e8 0e       	add	r14, r24
    8a68:	f9 1e       	adc	r15, r25
    8a6a:	c8 0e       	add	r12, r24
    8a6c:	d9 1e       	adc	r13, r25
    8a6e:	8a cf       	rjmp	.-236    	; 0x8984 <_ZN4UTFT9printCharEhii+0x1da>
    8a70:	86 95       	lsr	r24
    8a72:	86 95       	lsr	r24
    8a74:	86 95       	lsr	r24
    8a76:	af 81       	ldd	r26, Y+7	; 0x07
    8a78:	b8 85       	ldd	r27, Y+8	; 0x08
    8a7a:	9e 96       	adiw	r26, 0x2e	; 46
    8a7c:	2c 91       	ld	r18, X
    8a7e:	e2 1a       	sub	r14, r18
    8a80:	f1 08       	sbc	r15, r1
    8a82:	89 9f       	mul	r24, r25
    8a84:	c0 01       	movw	r24, r0
    8a86:	11 24       	eor	r1, r1
    8a88:	e8 9e       	mul	r14, r24
    8a8a:	30 01       	movw	r6, r0
    8a8c:	e9 9e       	mul	r14, r25
    8a8e:	70 0c       	add	r7, r0
    8a90:	f8 9e       	mul	r15, r24
    8a92:	70 0c       	add	r7, r0
    8a94:	11 24       	eor	r1, r1
    8a96:	b4 e0       	ldi	r27, 0x04	; 4
    8a98:	6b 0e       	add	r6, r27
    8a9a:	71 1c       	adc	r7, r1
    8a9c:	71 01       	movw	r14, r2
    8a9e:	ef 81       	ldd	r30, Y+7	; 0x07
    8aa0:	f8 85       	ldd	r31, Y+8	; 0x08
    8aa2:	85 a5       	ldd	r24, Z+45	; 0x2d
    8aa4:	90 e0       	ldi	r25, 0x00	; 0
    8aa6:	97 01       	movw	r18, r14
    8aa8:	22 19       	sub	r18, r2
    8aaa:	33 09       	sbc	r19, r3
    8aac:	28 17       	cp	r18, r24
    8aae:	39 07       	cpc	r19, r25
    8ab0:	08 f0       	brcs	.+2      	; 0x8ab4 <_ZN4UTFT9printCharEhii+0x30a>
    8ab2:	2a cf       	rjmp	.-428    	; 0x8908 <_ZN4UTFT9printCharEhii+0x15e>
    8ab4:	81 2c       	mov	r8, r1
    8ab6:	91 2c       	mov	r9, r1
    8ab8:	c1 2c       	mov	r12, r1
    8aba:	d1 2c       	mov	r13, r1
    8abc:	f7 01       	movw	r30, r14
    8abe:	31 96       	adiw	r30, 0x01	; 1
    8ac0:	fe 83       	std	Y+6, r31	; 0x06
    8ac2:	ed 83       	std	Y+5, r30	; 0x05
    8ac4:	af 81       	ldd	r26, Y+7	; 0x07
    8ac6:	b8 85       	ldd	r27, Y+8	; 0x08
    8ac8:	9c 96       	adiw	r26, 0x2c	; 44
    8aca:	8c 91       	ld	r24, X
    8acc:	86 95       	lsr	r24
    8ace:	86 95       	lsr	r24
    8ad0:	86 95       	lsr	r24
    8ad2:	90 e0       	ldi	r25, 0x00	; 0
    8ad4:	c8 16       	cp	r12, r24
    8ad6:	d9 06       	cpc	r13, r25
    8ad8:	0c f0       	brlt	.+2      	; 0x8adc <_ZN4UTFT9printCharEhii+0x332>
    8ada:	45 c0       	rjmp	.+138    	; 0x8b66 <_ZN4UTFT9printCharEhii+0x3bc>
    8adc:	af 81       	ldd	r26, Y+7	; 0x07
    8ade:	b8 85       	ldd	r27, Y+8	; 0x08
    8ae0:	9a 96       	adiw	r26, 0x2a	; 42
    8ae2:	ed 91       	ld	r30, X+
    8ae4:	fc 91       	ld	r31, X
    8ae6:	9b 97       	sbiw	r26, 0x2b	; 43
    8ae8:	c6 01       	movw	r24, r12
    8aea:	86 0d       	add	r24, r6
    8aec:	97 1d       	adc	r25, r7
    8aee:	e8 0f       	add	r30, r24
    8af0:	f9 1f       	adc	r31, r25
    8af2:	e4 91       	lpm	r30, Z
    8af4:	b2 01       	movw	r22, r4
    8af6:	68 0d       	add	r22, r8
    8af8:	79 1d       	adc	r23, r9
    8afa:	97 e0       	ldi	r25, 0x07	; 7
    8afc:	a9 2e       	mov	r10, r25
    8afe:	b1 2c       	mov	r11, r1
    8b00:	8e 2f       	mov	r24, r30
    8b02:	90 e0       	ldi	r25, 0x00	; 0
    8b04:	9c 83       	std	Y+4, r25	; 0x04
    8b06:	8b 83       	std	Y+3, r24	; 0x03
    8b08:	db 01       	movw	r26, r22
    8b0a:	11 96       	adiw	r26, 0x01	; 1
    8b0c:	ba 83       	std	Y+2, r27	; 0x02
    8b0e:	a9 83       	std	Y+1, r26	; 0x01
    8b10:	8b 81       	ldd	r24, Y+3	; 0x03
    8b12:	9c 81       	ldd	r25, Y+4	; 0x04
    8b14:	0a 2c       	mov	r0, r10
    8b16:	02 c0       	rjmp	.+4      	; 0x8b1c <_ZN4UTFT9printCharEhii+0x372>
    8b18:	95 95       	asr	r25
    8b1a:	87 95       	ror	r24
    8b1c:	0a 94       	dec	r0
    8b1e:	e2 f7       	brpl	.-8      	; 0x8b18 <_ZN4UTFT9printCharEhii+0x36e>
    8b20:	80 ff       	sbrs	r24, 0
    8b22:	11 c0       	rjmp	.+34     	; 0x8b46 <_ZN4UTFT9printCharEhii+0x39c>
    8b24:	0d 81       	ldd	r16, Y+5	; 0x05
    8b26:	1e 81       	ldd	r17, Y+6	; 0x06
    8b28:	9d 01       	movw	r18, r26
    8b2a:	a7 01       	movw	r20, r14
    8b2c:	8f 81       	ldd	r24, Y+7	; 0x07
    8b2e:	98 85       	ldd	r25, Y+8	; 0x08
    8b30:	98 d8       	rcall	.-3792   	; 0x7c62 <_ZN4UTFT5setXYEjjjj>
    8b32:	ef 81       	ldd	r30, Y+7	; 0x07
    8b34:	f8 85       	ldd	r31, Y+8	; 0x08
    8b36:	60 81       	ld	r22, Z
    8b38:	70 e0       	ldi	r23, 0x00	; 0
    8b3a:	76 2f       	mov	r23, r22
    8b3c:	66 27       	eor	r22, r22
    8b3e:	81 81       	ldd	r24, Z+1	; 0x01
    8b40:	68 2b       	or	r22, r24
    8b42:	cf 01       	movw	r24, r30
    8b44:	c7 d9       	rcall	.-3186   	; 0x7ed4 <_ZN4UTFT8setPixelEj>
    8b46:	f1 e0       	ldi	r31, 0x01	; 1
    8b48:	af 1a       	sub	r10, r31
    8b4a:	b1 08       	sbc	r11, r1
    8b4c:	69 81       	ldd	r22, Y+1	; 0x01
    8b4e:	7a 81       	ldd	r23, Y+2	; 0x02
    8b50:	8f ef       	ldi	r24, 0xFF	; 255
    8b52:	a8 16       	cp	r10, r24
    8b54:	b8 06       	cpc	r11, r24
    8b56:	c1 f6       	brne	.-80     	; 0x8b08 <_ZN4UTFT9printCharEhii+0x35e>
    8b58:	9f ef       	ldi	r25, 0xFF	; 255
    8b5a:	c9 1a       	sub	r12, r25
    8b5c:	d9 0a       	sbc	r13, r25
    8b5e:	a8 e0       	ldi	r26, 0x08	; 8
    8b60:	8a 0e       	add	r8, r26
    8b62:	91 1c       	adc	r9, r1
    8b64:	af cf       	rjmp	.-162    	; 0x8ac4 <_ZN4UTFT9printCharEhii+0x31a>
    8b66:	68 0e       	add	r6, r24
    8b68:	79 1e       	adc	r7, r25
    8b6a:	bf ef       	ldi	r27, 0xFF	; 255
    8b6c:	eb 1a       	sub	r14, r27
    8b6e:	fb 0a       	sbc	r15, r27
    8b70:	96 cf       	rjmp	.-212    	; 0x8a9e <_ZN4UTFT9printCharEhii+0x2f4>

00008b72 <_ZN4UTFT10rotateCharEhiiii>:
    8b72:	2f 92       	push	r2
    8b74:	3f 92       	push	r3
    8b76:	4f 92       	push	r4
    8b78:	5f 92       	push	r5
    8b7a:	6f 92       	push	r6
    8b7c:	7f 92       	push	r7
    8b7e:	8f 92       	push	r8
    8b80:	9f 92       	push	r9
    8b82:	af 92       	push	r10
    8b84:	bf 92       	push	r11
    8b86:	cf 92       	push	r12
    8b88:	df 92       	push	r13
    8b8a:	ef 92       	push	r14
    8b8c:	ff 92       	push	r15
    8b8e:	0f 93       	push	r16
    8b90:	1f 93       	push	r17
    8b92:	cf 93       	push	r28
    8b94:	df 93       	push	r29
    8b96:	cd b7       	in	r28, 0x3d	; 61
    8b98:	de b7       	in	r29, 0x3e	; 62
    8b9a:	ad 97       	sbiw	r28, 0x2d	; 45
    8b9c:	0f b6       	in	r0, 0x3f	; 63
    8b9e:	f8 94       	cli
    8ba0:	de bf       	out	0x3e, r29	; 62
    8ba2:	0f be       	out	0x3f, r0	; 63
    8ba4:	cd bf       	out	0x3d, r28	; 61
    8ba6:	9d a7       	std	Y+45, r25	; 0x2d
    8ba8:	8c a7       	std	Y+44, r24	; 0x2c
    8baa:	96 2e       	mov	r9, r22
    8bac:	5a 01       	movw	r10, r20
    8bae:	69 01       	movw	r12, r18
    8bb0:	1d 8f       	std	Y+29, r17	; 0x1d
    8bb2:	0c 8f       	std	Y+28, r16	; 0x1c
    8bb4:	b7 01       	movw	r22, r14
    8bb6:	ff 0c       	add	r15, r15
    8bb8:	88 0b       	sbc	r24, r24
    8bba:	99 0b       	sbc	r25, r25
    8bbc:	0e 94 be 2d 	call	0x5b7c	; 0x5b7c <__floatsisf>
    8bc0:	29 e2       	ldi	r18, 0x29	; 41
    8bc2:	3c e5       	ldi	r19, 0x5C	; 92
    8bc4:	4f e8       	ldi	r20, 0x8F	; 143
    8bc6:	5c e3       	ldi	r21, 0x3C	; 60
    8bc8:	0e 94 4a 2e 	call	0x5c94	; 0x5c94 <__mulsf3>
    8bcc:	2b 01       	movw	r4, r22
    8bce:	3c 01       	movw	r6, r24
    8bd0:	ac a5       	ldd	r26, Y+44	; 0x2c
    8bd2:	bd a5       	ldd	r27, Y+45	; 0x2d
    8bd4:	54 96       	adiw	r26, 0x14	; 20
    8bd6:	ed 91       	ld	r30, X+
    8bd8:	fc 91       	ld	r31, X
    8bda:	55 97       	sbiw	r26, 0x15	; 21
    8bdc:	90 81       	ld	r25, Z
    8bde:	90 96       	adiw	r26, 0x20	; 32
    8be0:	8c 91       	ld	r24, X
    8be2:	90 97       	sbiw	r26, 0x20	; 32
    8be4:	80 95       	com	r24
    8be6:	89 23       	and	r24, r25
    8be8:	80 83       	st	Z, r24
    8bea:	9c 96       	adiw	r26, 0x2c	; 44
    8bec:	8c 91       	ld	r24, X
    8bee:	9c 97       	sbiw	r26, 0x2c	; 44
    8bf0:	86 95       	lsr	r24
    8bf2:	86 95       	lsr	r24
    8bf4:	86 95       	lsr	r24
    8bf6:	9d 96       	adiw	r26, 0x2d	; 45
    8bf8:	9c 91       	ld	r25, X
    8bfa:	9d 97       	sbiw	r26, 0x2d	; 45
    8bfc:	29 2d       	mov	r18, r9
    8bfe:	30 e0       	ldi	r19, 0x00	; 0
    8c00:	9e 96       	adiw	r26, 0x2e	; 46
    8c02:	4c 91       	ld	r20, X
    8c04:	24 1b       	sub	r18, r20
    8c06:	31 09       	sbc	r19, r1
    8c08:	89 9f       	mul	r24, r25
    8c0a:	c0 01       	movw	r24, r0
    8c0c:	11 24       	eor	r1, r1
    8c0e:	28 9f       	mul	r18, r24
    8c10:	a0 01       	movw	r20, r0
    8c12:	29 9f       	mul	r18, r25
    8c14:	50 0d       	add	r21, r0
    8c16:	38 9f       	mul	r19, r24
    8c18:	50 0d       	add	r21, r0
    8c1a:	11 24       	eor	r1, r1
    8c1c:	fa 01       	movw	r30, r20
    8c1e:	34 96       	adiw	r30, 0x04	; 4
    8c20:	f9 87       	std	Y+9, r31	; 0x09
    8c22:	e8 87       	std	Y+8, r30	; 0x08
    8c24:	19 82       	std	Y+1, r1	; 0x01
    8c26:	95 01       	movw	r18, r10
    8c28:	bb 0c       	add	r11, r11
    8c2a:	44 0b       	sbc	r20, r20
    8c2c:	55 0b       	sbc	r21, r21
    8c2e:	2c a3       	std	Y+36, r18	; 0x24
    8c30:	3d a3       	std	Y+37, r19	; 0x25
    8c32:	4e a3       	std	Y+38, r20	; 0x26
    8c34:	5f a3       	std	Y+39, r21	; 0x27
    8c36:	c6 01       	movw	r24, r12
    8c38:	dd 0c       	add	r13, r13
    8c3a:	aa 0b       	sbc	r26, r26
    8c3c:	bb 0b       	sbc	r27, r27
    8c3e:	88 a7       	std	Y+40, r24	; 0x28
    8c40:	99 a7       	std	Y+41, r25	; 0x29
    8c42:	aa a7       	std	Y+42, r26	; 0x2a
    8c44:	bb a7       	std	Y+43, r27	; 0x2b
    8c46:	ac a5       	ldd	r26, Y+44	; 0x2c
    8c48:	bd a5       	ldd	r27, Y+45	; 0x2d
    8c4a:	9d 96       	adiw	r26, 0x2d	; 45
    8c4c:	8c 91       	ld	r24, X
    8c4e:	b9 81       	ldd	r27, Y+1	; 0x01
    8c50:	b8 17       	cp	r27, r24
    8c52:	08 f0       	brcs	.+2      	; 0x8c56 <_ZN4UTFT10rotateCharEhiiii+0xe4>
    8c54:	09 c1       	rjmp	.+530    	; 0x8e68 <_ZN4UTFT10rotateCharEhiiii+0x2f6>
    8c56:	1b 86       	std	Y+11, r1	; 0x0b
    8c58:	1a 86       	std	Y+10, r1	; 0x0a
    8c5a:	1b 82       	std	Y+3, r1	; 0x03
    8c5c:	1a 82       	std	Y+2, r1	; 0x02
    8c5e:	39 81       	ldd	r19, Y+1	; 0x01
    8c60:	23 2f       	mov	r18, r19
    8c62:	30 e0       	ldi	r19, 0x00	; 0
    8c64:	40 e0       	ldi	r20, 0x00	; 0
    8c66:	50 e0       	ldi	r21, 0x00	; 0
    8c68:	28 a3       	std	Y+32, r18	; 0x20
    8c6a:	39 a3       	std	Y+33, r19	; 0x21
    8c6c:	4a a3       	std	Y+34, r20	; 0x22
    8c6e:	5b a3       	std	Y+35, r21	; 0x23
    8c70:	ac a5       	ldd	r26, Y+44	; 0x2c
    8c72:	bd a5       	ldd	r27, Y+45	; 0x2d
    8c74:	9c 96       	adiw	r26, 0x2c	; 44
    8c76:	8c 91       	ld	r24, X
    8c78:	86 95       	lsr	r24
    8c7a:	86 95       	lsr	r24
    8c7c:	86 95       	lsr	r24
    8c7e:	90 e0       	ldi	r25, 0x00	; 0
    8c80:	ea 81       	ldd	r30, Y+2	; 0x02
    8c82:	fb 81       	ldd	r31, Y+3	; 0x03
    8c84:	e8 17       	cp	r30, r24
    8c86:	f9 07       	cpc	r31, r25
    8c88:	0c f0       	brlt	.+2      	; 0x8c8c <_ZN4UTFT10rotateCharEhiiii+0x11a>
    8c8a:	e4 c0       	rjmp	.+456    	; 0x8e54 <_ZN4UTFT10rotateCharEhiiii+0x2e2>
    8c8c:	ac a5       	ldd	r26, Y+44	; 0x2c
    8c8e:	bd a5       	ldd	r27, Y+45	; 0x2d
    8c90:	9a 96       	adiw	r26, 0x2a	; 42
    8c92:	ed 91       	ld	r30, X+
    8c94:	fc 91       	ld	r31, X
    8c96:	9b 97       	sbiw	r26, 0x2b	; 43
    8c98:	8a 81       	ldd	r24, Y+2	; 0x02
    8c9a:	9b 81       	ldd	r25, Y+3	; 0x03
    8c9c:	28 85       	ldd	r18, Y+8	; 0x08
    8c9e:	39 85       	ldd	r19, Y+9	; 0x09
    8ca0:	82 0f       	add	r24, r18
    8ca2:	93 1f       	adc	r25, r19
    8ca4:	e8 0f       	add	r30, r24
    8ca6:	f9 1f       	adc	r31, r25
    8ca8:	b4 90       	lpm	r11, Z
    8caa:	c3 01       	movw	r24, r6
    8cac:	b2 01       	movw	r22, r4
    8cae:	f2 d3       	rcall	.+2020   	; 0x9494 <cos>
    8cb0:	6c 83       	std	Y+4, r22	; 0x04
    8cb2:	7d 83       	std	Y+5, r23	; 0x05
    8cb4:	8e 83       	std	Y+6, r24	; 0x06
    8cb6:	9f 83       	std	Y+7, r25	; 0x07
    8cb8:	68 a1       	ldd	r22, Y+32	; 0x20
    8cba:	79 a1       	ldd	r23, Y+33	; 0x21
    8cbc:	8a a1       	ldd	r24, Y+34	; 0x22
    8cbe:	9b a1       	ldd	r25, Y+35	; 0x23
    8cc0:	0e 94 be 2d 	call	0x5b7c	; 0x5b7c <__floatsisf>
    8cc4:	6b 01       	movw	r12, r22
    8cc6:	7c 01       	movw	r14, r24
    8cc8:	c3 01       	movw	r24, r6
    8cca:	b2 01       	movw	r22, r4
    8ccc:	23 d4       	rcall	.+2118   	; 0x9514 <sin>
    8cce:	68 8b       	std	Y+16, r22	; 0x10
    8cd0:	79 8b       	std	Y+17, r23	; 0x11
    8cd2:	8a 8b       	std	Y+18, r24	; 0x12
    8cd4:	9b 8b       	std	Y+19, r25	; 0x13
    8cd6:	9b 01       	movw	r18, r22
    8cd8:	ac 01       	movw	r20, r24
    8cda:	c7 01       	movw	r24, r14
    8cdc:	b6 01       	movw	r22, r12
    8cde:	0e 94 4a 2e 	call	0x5c94	; 0x5c94 <__mulsf3>
    8ce2:	6c 8b       	std	Y+20, r22	; 0x14
    8ce4:	7d 8b       	std	Y+21, r23	; 0x15
    8ce6:	8e 8b       	std	Y+22, r24	; 0x16
    8ce8:	9f 8b       	std	Y+23, r25	; 0x17
    8cea:	2c 81       	ldd	r18, Y+4	; 0x04
    8cec:	3d 81       	ldd	r19, Y+5	; 0x05
    8cee:	4e 81       	ldd	r20, Y+6	; 0x06
    8cf0:	5f 81       	ldd	r21, Y+7	; 0x07
    8cf2:	c7 01       	movw	r24, r14
    8cf4:	b6 01       	movw	r22, r12
    8cf6:	0e 94 4a 2e 	call	0x5c94	; 0x5c94 <__mulsf3>
    8cfa:	68 8f       	std	Y+24, r22	; 0x18
    8cfc:	79 8f       	std	Y+25, r23	; 0x19
    8cfe:	8a 8f       	std	Y+26, r24	; 0x1a
    8d00:	9b 8f       	std	Y+27, r25	; 0x1b
    8d02:	21 2c       	mov	r2, r1
    8d04:	31 2c       	mov	r3, r1
    8d06:	4b 2d       	mov	r20, r11
    8d08:	50 e0       	ldi	r21, 0x00	; 0
    8d0a:	5f 8f       	std	Y+31, r21	; 0x1f
    8d0c:	4e 8f       	std	Y+30, r20	; 0x1e
    8d0e:	ac a5       	ldd	r26, Y+44	; 0x2c
    8d10:	bd a5       	ldd	r27, Y+45	; 0x2d
    8d12:	9c 96       	adiw	r26, 0x2c	; 44
    8d14:	2c 91       	ld	r18, X
    8d16:	ec 8d       	ldd	r30, Y+28	; 0x1c
    8d18:	fd 8d       	ldd	r31, Y+29	; 0x1d
    8d1a:	2e 9f       	mul	r18, r30
    8d1c:	c0 01       	movw	r24, r0
    8d1e:	2f 9f       	mul	r18, r31
    8d20:	90 0d       	add	r25, r0
    8d22:	11 24       	eor	r1, r1
    8d24:	6a 85       	ldd	r22, Y+10	; 0x0a
    8d26:	7b 85       	ldd	r23, Y+11	; 0x0b
    8d28:	62 0d       	add	r22, r2
    8d2a:	73 1d       	adc	r23, r3
    8d2c:	68 0f       	add	r22, r24
    8d2e:	79 1f       	adc	r23, r25
    8d30:	07 2e       	mov	r0, r23
    8d32:	00 0c       	add	r0, r0
    8d34:	88 0b       	sbc	r24, r24
    8d36:	99 0b       	sbc	r25, r25
    8d38:	0e 94 be 2d 	call	0x5b7c	; 0x5b7c <__floatsisf>
    8d3c:	4b 01       	movw	r8, r22
    8d3e:	5c 01       	movw	r10, r24
    8d40:	6c a1       	ldd	r22, Y+36	; 0x24
    8d42:	7d a1       	ldd	r23, Y+37	; 0x25
    8d44:	8e a1       	ldd	r24, Y+38	; 0x26
    8d46:	9f a1       	ldd	r25, Y+39	; 0x27
    8d48:	0e 94 be 2d 	call	0x5b7c	; 0x5b7c <__floatsisf>
    8d4c:	6b 01       	movw	r12, r22
    8d4e:	7c 01       	movw	r14, r24
    8d50:	2c 81       	ldd	r18, Y+4	; 0x04
    8d52:	3d 81       	ldd	r19, Y+5	; 0x05
    8d54:	4e 81       	ldd	r20, Y+6	; 0x06
    8d56:	5f 81       	ldd	r21, Y+7	; 0x07
    8d58:	c5 01       	movw	r24, r10
    8d5a:	b4 01       	movw	r22, r8
    8d5c:	0e 94 4a 2e 	call	0x5c94	; 0x5c94 <__mulsf3>
    8d60:	2c 89       	ldd	r18, Y+20	; 0x14
    8d62:	3d 89       	ldd	r19, Y+21	; 0x15
    8d64:	4e 89       	ldd	r20, Y+22	; 0x16
    8d66:	5f 89       	ldd	r21, Y+23	; 0x17
    8d68:	0e 94 26 2d 	call	0x5a4c	; 0x5a4c <__subsf3>
    8d6c:	9b 01       	movw	r18, r22
    8d6e:	ac 01       	movw	r20, r24
    8d70:	c7 01       	movw	r24, r14
    8d72:	b6 01       	movw	r22, r12
    8d74:	0e 94 27 2d 	call	0x5a4e	; 0x5a4e <__addsf3>
    8d78:	0e 94 8b 2d 	call	0x5b16	; 0x5b16 <__fixsfsi>
    8d7c:	6b 01       	movw	r12, r22
    8d7e:	7c 01       	movw	r14, r24
    8d80:	68 a5       	ldd	r22, Y+40	; 0x28
    8d82:	79 a5       	ldd	r23, Y+41	; 0x29
    8d84:	8a a5       	ldd	r24, Y+42	; 0x2a
    8d86:	9b a5       	ldd	r25, Y+43	; 0x2b
    8d88:	0e 94 be 2d 	call	0x5b7c	; 0x5b7c <__floatsisf>
    8d8c:	6c 87       	std	Y+12, r22	; 0x0c
    8d8e:	7d 87       	std	Y+13, r23	; 0x0d
    8d90:	8e 87       	std	Y+14, r24	; 0x0e
    8d92:	9f 87       	std	Y+15, r25	; 0x0f
    8d94:	28 89       	ldd	r18, Y+16	; 0x10
    8d96:	39 89       	ldd	r19, Y+17	; 0x11
    8d98:	4a 89       	ldd	r20, Y+18	; 0x12
    8d9a:	5b 89       	ldd	r21, Y+19	; 0x13
    8d9c:	c5 01       	movw	r24, r10
    8d9e:	b4 01       	movw	r22, r8
    8da0:	0e 94 4a 2e 	call	0x5c94	; 0x5c94 <__mulsf3>
    8da4:	9b 01       	movw	r18, r22
    8da6:	ac 01       	movw	r20, r24
    8da8:	68 8d       	ldd	r22, Y+24	; 0x18
    8daa:	79 8d       	ldd	r23, Y+25	; 0x19
    8dac:	8a 8d       	ldd	r24, Y+26	; 0x1a
    8dae:	9b 8d       	ldd	r25, Y+27	; 0x1b
    8db0:	0e 94 27 2d 	call	0x5a4e	; 0x5a4e <__addsf3>
    8db4:	9b 01       	movw	r18, r22
    8db6:	ac 01       	movw	r20, r24
    8db8:	6c 85       	ldd	r22, Y+12	; 0x0c
    8dba:	7d 85       	ldd	r23, Y+13	; 0x0d
    8dbc:	8e 85       	ldd	r24, Y+14	; 0x0e
    8dbe:	9f 85       	ldd	r25, Y+15	; 0x0f
    8dc0:	0e 94 27 2d 	call	0x5a4e	; 0x5a4e <__addsf3>
    8dc4:	0e 94 8b 2d 	call	0x5b16	; 0x5b16 <__fixsfsi>
    8dc8:	8b 01       	movw	r16, r22
    8dca:	0f 5f       	subi	r16, 0xFF	; 255
    8dcc:	1f 4f       	sbci	r17, 0xFF	; 255
    8dce:	96 01       	movw	r18, r12
    8dd0:	2f 5f       	subi	r18, 0xFF	; 255
    8dd2:	3f 4f       	sbci	r19, 0xFF	; 255
    8dd4:	ab 01       	movw	r20, r22
    8dd6:	b6 01       	movw	r22, r12
    8dd8:	8c a5       	ldd	r24, Y+44	; 0x2c
    8dda:	9d a5       	ldd	r25, Y+45	; 0x2d
    8ddc:	0e 94 31 3e 	call	0x7c62	; 0x7c62 <_ZN4UTFT5setXYEjjjj>
    8de0:	87 e0       	ldi	r24, 0x07	; 7
    8de2:	90 e0       	ldi	r25, 0x00	; 0
    8de4:	82 19       	sub	r24, r2
    8de6:	93 09       	sbc	r25, r3
    8de8:	2e 8d       	ldd	r18, Y+30	; 0x1e
    8dea:	3f 8d       	ldd	r19, Y+31	; 0x1f
    8dec:	02 c0       	rjmp	.+4      	; 0x8df2 <_ZN4UTFT10rotateCharEhiiii+0x280>
    8dee:	35 95       	asr	r19
    8df0:	27 95       	ror	r18
    8df2:	8a 95       	dec	r24
    8df4:	e2 f7       	brpl	.-8      	; 0x8dee <_ZN4UTFT10rotateCharEhiiii+0x27c>
    8df6:	20 ff       	sbrs	r18, 0
    8df8:	0c c0       	rjmp	.+24     	; 0x8e12 <_ZN4UTFT10rotateCharEhiiii+0x2a0>
    8dfa:	ac a5       	ldd	r26, Y+44	; 0x2c
    8dfc:	bd a5       	ldd	r27, Y+45	; 0x2d
    8dfe:	6c 91       	ld	r22, X
    8e00:	70 e0       	ldi	r23, 0x00	; 0
    8e02:	76 2f       	mov	r23, r22
    8e04:	66 27       	eor	r22, r22
    8e06:	11 96       	adiw	r26, 0x01	; 1
    8e08:	8c 91       	ld	r24, X
    8e0a:	11 97       	sbiw	r26, 0x01	; 1
    8e0c:	68 2b       	or	r22, r24
    8e0e:	cd 01       	movw	r24, r26
    8e10:	0c c0       	rjmp	.+24     	; 0x8e2a <_ZN4UTFT10rotateCharEhiiii+0x2b8>
    8e12:	ec a5       	ldd	r30, Y+44	; 0x2c
    8e14:	fd a5       	ldd	r31, Y+45	; 0x2d
    8e16:	80 a9       	ldd	r24, Z+48	; 0x30
    8e18:	81 11       	cpse	r24, r1
    8e1a:	08 c0       	rjmp	.+16     	; 0x8e2c <_ZN4UTFT10rotateCharEhiiii+0x2ba>
    8e1c:	62 81       	ldd	r22, Z+2	; 0x02
    8e1e:	70 e0       	ldi	r23, 0x00	; 0
    8e20:	76 2f       	mov	r23, r22
    8e22:	66 27       	eor	r22, r22
    8e24:	83 81       	ldd	r24, Z+3	; 0x03
    8e26:	68 2b       	or	r22, r24
    8e28:	cf 01       	movw	r24, r30
    8e2a:	54 d8       	rcall	.-3928   	; 0x7ed4 <_ZN4UTFT8setPixelEj>
    8e2c:	ff ef       	ldi	r31, 0xFF	; 255
    8e2e:	2f 1a       	sub	r2, r31
    8e30:	3f 0a       	sbc	r3, r31
    8e32:	28 e0       	ldi	r18, 0x08	; 8
    8e34:	22 16       	cp	r2, r18
    8e36:	31 04       	cpc	r3, r1
    8e38:	09 f0       	breq	.+2      	; 0x8e3c <_ZN4UTFT10rotateCharEhiiii+0x2ca>
    8e3a:	69 cf       	rjmp	.-302    	; 0x8d0e <_ZN4UTFT10rotateCharEhiiii+0x19c>
    8e3c:	4a 81       	ldd	r20, Y+2	; 0x02
    8e3e:	5b 81       	ldd	r21, Y+3	; 0x03
    8e40:	4f 5f       	subi	r20, 0xFF	; 255
    8e42:	5f 4f       	sbci	r21, 0xFF	; 255
    8e44:	5b 83       	std	Y+3, r21	; 0x03
    8e46:	4a 83       	std	Y+2, r20	; 0x02
    8e48:	8a 85       	ldd	r24, Y+10	; 0x0a
    8e4a:	9b 85       	ldd	r25, Y+11	; 0x0b
    8e4c:	08 96       	adiw	r24, 0x08	; 8
    8e4e:	9b 87       	std	Y+11, r25	; 0x0b
    8e50:	8a 87       	std	Y+10, r24	; 0x0a
    8e52:	0e cf       	rjmp	.-484    	; 0x8c70 <_ZN4UTFT10rotateCharEhiiii+0xfe>
    8e54:	28 85       	ldd	r18, Y+8	; 0x08
    8e56:	39 85       	ldd	r19, Y+9	; 0x09
    8e58:	28 0f       	add	r18, r24
    8e5a:	39 1f       	adc	r19, r25
    8e5c:	39 87       	std	Y+9, r19	; 0x09
    8e5e:	28 87       	std	Y+8, r18	; 0x08
    8e60:	39 81       	ldd	r19, Y+1	; 0x01
    8e62:	3f 5f       	subi	r19, 0xFF	; 255
    8e64:	39 83       	std	Y+1, r19	; 0x01
    8e66:	ef ce       	rjmp	.-546    	; 0x8c46 <_ZN4UTFT10rotateCharEhiiii+0xd4>
    8e68:	ac a5       	ldd	r26, Y+44	; 0x2c
    8e6a:	bd a5       	ldd	r27, Y+45	; 0x2d
    8e6c:	54 96       	adiw	r26, 0x14	; 20
    8e6e:	ed 91       	ld	r30, X+
    8e70:	fc 91       	ld	r31, X
    8e72:	55 97       	sbiw	r26, 0x15	; 21
    8e74:	90 81       	ld	r25, Z
    8e76:	90 96       	adiw	r26, 0x20	; 32
    8e78:	8c 91       	ld	r24, X
    8e7a:	90 97       	sbiw	r26, 0x20	; 32
    8e7c:	89 2b       	or	r24, r25
    8e7e:	80 83       	st	Z, r24
    8e80:	cd 01       	movw	r24, r26
    8e82:	ad 96       	adiw	r28, 0x2d	; 45
    8e84:	0f b6       	in	r0, 0x3f	; 63
    8e86:	f8 94       	cli
    8e88:	de bf       	out	0x3e, r29	; 62
    8e8a:	0f be       	out	0x3f, r0	; 63
    8e8c:	cd bf       	out	0x3d, r28	; 61
    8e8e:	df 91       	pop	r29
    8e90:	cf 91       	pop	r28
    8e92:	1f 91       	pop	r17
    8e94:	0f 91       	pop	r16
    8e96:	ff 90       	pop	r15
    8e98:	ef 90       	pop	r14
    8e9a:	df 90       	pop	r13
    8e9c:	cf 90       	pop	r12
    8e9e:	bf 90       	pop	r11
    8ea0:	af 90       	pop	r10
    8ea2:	9f 90       	pop	r9
    8ea4:	8f 90       	pop	r8
    8ea6:	7f 90       	pop	r7
    8ea8:	6f 90       	pop	r6
    8eaa:	5f 90       	pop	r5
    8eac:	4f 90       	pop	r4
    8eae:	3f 90       	pop	r3
    8eb0:	2f 90       	pop	r2
    8eb2:	0c 94 93 3e 	jmp	0x7d26	; 0x7d26 <_ZN4UTFT5clrXYEv>

00008eb6 <_ZN4UTFT5printEPciii>:
    8eb6:	2f 92       	push	r2
    8eb8:	3f 92       	push	r3
    8eba:	4f 92       	push	r4
    8ebc:	5f 92       	push	r5
    8ebe:	6f 92       	push	r6
    8ec0:	7f 92       	push	r7
    8ec2:	8f 92       	push	r8
    8ec4:	9f 92       	push	r9
    8ec6:	af 92       	push	r10
    8ec8:	bf 92       	push	r11
    8eca:	cf 92       	push	r12
    8ecc:	df 92       	push	r13
    8ece:	ef 92       	push	r14
    8ed0:	ff 92       	push	r15
    8ed2:	0f 93       	push	r16
    8ed4:	1f 93       	push	r17
    8ed6:	cf 93       	push	r28
    8ed8:	df 93       	push	r29
    8eda:	6c 01       	movw	r12, r24
    8edc:	2b 01       	movw	r4, r22
    8ede:	ea 01       	movw	r28, r20
    8ee0:	39 01       	movw	r6, r18
    8ee2:	18 01       	movw	r2, r16
    8ee4:	fb 01       	movw	r30, r22
    8ee6:	01 90       	ld	r0, Z+
    8ee8:	00 20       	and	r0, r0
    8eea:	e9 f7       	brne	.-6      	; 0x8ee6 <_ZN4UTFT5printEPciii+0x30>
    8eec:	31 97       	sbiw	r30, 0x01	; 1
    8eee:	5f 01       	movw	r10, r30
    8ef0:	a6 1a       	sub	r10, r22
    8ef2:	b7 0a       	sbc	r11, r23
    8ef4:	fc 01       	movw	r30, r24
    8ef6:	84 81       	ldd	r24, Z+4	; 0x04
    8ef8:	81 11       	cpse	r24, r1
    8efa:	19 c0       	rjmp	.+50     	; 0x8f2e <_ZN4UTFT5printEPciii+0x78>
    8efc:	4f 30       	cpi	r20, 0x0F	; 15
    8efe:	57 42       	sbci	r21, 0x27	; 39
    8f00:	61 f4       	brne	.+24     	; 0x8f1a <_ZN4UTFT5printEPciii+0x64>
    8f02:	f6 01       	movw	r30, r12
    8f04:	c5 81       	ldd	r28, Z+5	; 0x05
    8f06:	d6 81       	ldd	r29, Z+6	; 0x06
    8f08:	21 96       	adiw	r28, 0x01	; 1
    8f0a:	24 a5       	ldd	r18, Z+44	; 0x2c
    8f0c:	2a 9d       	mul	r18, r10
    8f0e:	c0 01       	movw	r24, r0
    8f10:	2b 9d       	mul	r18, r11
    8f12:	90 0d       	add	r25, r0
    8f14:	11 24       	eor	r1, r1
    8f16:	c8 1b       	sub	r28, r24
    8f18:	d9 0b       	sbc	r29, r25
    8f1a:	ce 30       	cpi	r28, 0x0E	; 14
    8f1c:	f7 e2       	ldi	r31, 0x27	; 39
    8f1e:	df 07       	cpc	r29, r31
    8f20:	b9 f5       	brne	.+110    	; 0x8f90 <_ZN4UTFT5printEPciii+0xda>
    8f22:	f6 01       	movw	r30, r12
    8f24:	85 81       	ldd	r24, Z+5	; 0x05
    8f26:	96 81       	ldd	r25, Z+6	; 0x06
    8f28:	a7 81       	ldd	r26, Z+7	; 0x07
    8f2a:	b0 85       	ldd	r27, Z+8	; 0x08
    8f2c:	18 c0       	rjmp	.+48     	; 0x8f5e <_ZN4UTFT5printEPciii+0xa8>
    8f2e:	4f 30       	cpi	r20, 0x0F	; 15
    8f30:	57 42       	sbci	r21, 0x27	; 39
    8f32:	61 f4       	brne	.+24     	; 0x8f4c <_ZN4UTFT5printEPciii+0x96>
    8f34:	f6 01       	movw	r30, r12
    8f36:	c1 85       	ldd	r28, Z+9	; 0x09
    8f38:	d2 85       	ldd	r29, Z+10	; 0x0a
    8f3a:	21 96       	adiw	r28, 0x01	; 1
    8f3c:	24 a5       	ldd	r18, Z+44	; 0x2c
    8f3e:	2a 9d       	mul	r18, r10
    8f40:	c0 01       	movw	r24, r0
    8f42:	2b 9d       	mul	r18, r11
    8f44:	90 0d       	add	r25, r0
    8f46:	11 24       	eor	r1, r1
    8f48:	c8 1b       	sub	r28, r24
    8f4a:	d9 0b       	sbc	r29, r25
    8f4c:	ce 30       	cpi	r28, 0x0E	; 14
    8f4e:	f7 e2       	ldi	r31, 0x27	; 39
    8f50:	df 07       	cpc	r29, r31
    8f52:	f1 f4       	brne	.+60     	; 0x8f90 <_ZN4UTFT5printEPciii+0xda>
    8f54:	f6 01       	movw	r30, r12
    8f56:	81 85       	ldd	r24, Z+9	; 0x09
    8f58:	92 85       	ldd	r25, Z+10	; 0x0a
    8f5a:	a3 85       	ldd	r26, Z+11	; 0x0b
    8f5c:	b4 85       	ldd	r27, Z+12	; 0x0c
    8f5e:	01 96       	adiw	r24, 0x01	; 1
    8f60:	a1 1d       	adc	r26, r1
    8f62:	b1 1d       	adc	r27, r1
    8f64:	24 a5       	ldd	r18, Z+44	; 0x2c
    8f66:	2a 9d       	mul	r18, r10
    8f68:	80 01       	movw	r16, r0
    8f6a:	2b 9d       	mul	r18, r11
    8f6c:	10 0d       	add	r17, r0
    8f6e:	11 24       	eor	r1, r1
    8f70:	01 2e       	mov	r0, r17
    8f72:	00 0c       	add	r0, r0
    8f74:	22 0b       	sbc	r18, r18
    8f76:	33 0b       	sbc	r19, r19
    8f78:	bc 01       	movw	r22, r24
    8f7a:	cd 01       	movw	r24, r26
    8f7c:	60 1b       	sub	r22, r16
    8f7e:	71 0b       	sbc	r23, r17
    8f80:	82 0b       	sbc	r24, r18
    8f82:	93 0b       	sbc	r25, r19
    8f84:	22 e0       	ldi	r18, 0x02	; 2
    8f86:	30 e0       	ldi	r19, 0x00	; 0
    8f88:	40 e0       	ldi	r20, 0x00	; 0
    8f8a:	50 e0       	ldi	r21, 0x00	; 0
    8f8c:	75 d3       	rcall	.+1770   	; 0x9678 <__divmodsi4>
    8f8e:	e9 01       	movw	r28, r18
    8f90:	81 2c       	mov	r8, r1
    8f92:	91 2c       	mov	r9, r1
    8f94:	8a 14       	cp	r8, r10
    8f96:	9b 04       	cpc	r9, r11
    8f98:	0c f5       	brge	.+66     	; 0x8fdc <_ZN4UTFT5printEPciii+0x126>
    8f9a:	21 14       	cp	r2, r1
    8f9c:	31 04       	cpc	r3, r1
    8f9e:	79 f4       	brne	.+30     	; 0x8fbe <_ZN4UTFT5printEPciii+0x108>
    8fa0:	f6 01       	movw	r30, r12
    8fa2:	84 a5       	ldd	r24, Z+44	; 0x2c
    8fa4:	88 9d       	mul	r24, r8
    8fa6:	a0 01       	movw	r20, r0
    8fa8:	89 9d       	mul	r24, r9
    8faa:	50 0d       	add	r21, r0
    8fac:	11 24       	eor	r1, r1
    8fae:	4c 0f       	add	r20, r28
    8fb0:	5d 1f       	adc	r21, r29
    8fb2:	93 01       	movw	r18, r6
    8fb4:	f2 01       	movw	r30, r4
    8fb6:	60 81       	ld	r22, Z
    8fb8:	c6 01       	movw	r24, r12
    8fba:	f7 db       	rcall	.-2066   	; 0x87aa <_ZN4UTFT9printCharEhii>
    8fbc:	08 c0       	rjmp	.+16     	; 0x8fce <_ZN4UTFT5printEPciii+0x118>
    8fbe:	71 01       	movw	r14, r2
    8fc0:	84 01       	movw	r16, r8
    8fc2:	93 01       	movw	r18, r6
    8fc4:	ae 01       	movw	r20, r28
    8fc6:	f2 01       	movw	r30, r4
    8fc8:	60 81       	ld	r22, Z
    8fca:	c6 01       	movw	r24, r12
    8fcc:	d2 dd       	rcall	.-1116   	; 0x8b72 <_ZN4UTFT10rotateCharEhiiii>
    8fce:	ff ef       	ldi	r31, 0xFF	; 255
    8fd0:	8f 1a       	sub	r8, r31
    8fd2:	9f 0a       	sbc	r9, r31
    8fd4:	8f ef       	ldi	r24, 0xFF	; 255
    8fd6:	48 1a       	sub	r4, r24
    8fd8:	58 0a       	sbc	r5, r24
    8fda:	dc cf       	rjmp	.-72     	; 0x8f94 <_ZN4UTFT5printEPciii+0xde>
    8fdc:	df 91       	pop	r29
    8fde:	cf 91       	pop	r28
    8fe0:	1f 91       	pop	r17
    8fe2:	0f 91       	pop	r16
    8fe4:	ff 90       	pop	r15
    8fe6:	ef 90       	pop	r14
    8fe8:	df 90       	pop	r13
    8fea:	cf 90       	pop	r12
    8fec:	bf 90       	pop	r11
    8fee:	af 90       	pop	r10
    8ff0:	9f 90       	pop	r9
    8ff2:	8f 90       	pop	r8
    8ff4:	7f 90       	pop	r7
    8ff6:	6f 90       	pop	r6
    8ff8:	5f 90       	pop	r5
    8ffa:	4f 90       	pop	r4
    8ffc:	3f 90       	pop	r3
    8ffe:	2f 90       	pop	r2
    9000:	08 95       	ret

00009002 <_ZN4UTFT5printE6Stringiii>:
    9002:	6f 92       	push	r6
    9004:	7f 92       	push	r7
    9006:	8f 92       	push	r8
    9008:	9f 92       	push	r9
    900a:	af 92       	push	r10
    900c:	bf 92       	push	r11
    900e:	cf 92       	push	r12
    9010:	df 92       	push	r13
    9012:	ef 92       	push	r14
    9014:	ff 92       	push	r15
    9016:	0f 93       	push	r16
    9018:	1f 93       	push	r17
    901a:	cf 93       	push	r28
    901c:	df 93       	push	r29
    901e:	cd b7       	in	r28, 0x3d	; 61
    9020:	de b7       	in	r29, 0x3e	; 62
    9022:	5c 01       	movw	r10, r24
    9024:	cb 01       	movw	r24, r22
    9026:	4a 01       	movw	r8, r20
    9028:	39 01       	movw	r6, r18
    902a:	cd b6       	in	r12, 0x3d	; 61
    902c:	de b6       	in	r13, 0x3e	; 62
    902e:	fb 01       	movw	r30, r22
    9030:	44 81       	ldd	r20, Z+4	; 0x04
    9032:	55 81       	ldd	r21, Z+5	; 0x05
    9034:	4f 5f       	subi	r20, 0xFF	; 255
    9036:	5f 4f       	sbci	r21, 0xFF	; 255
    9038:	2d b7       	in	r18, 0x3d	; 61
    903a:	3e b7       	in	r19, 0x3e	; 62
    903c:	24 1b       	sub	r18, r20
    903e:	35 0b       	sbc	r19, r21
    9040:	0f b6       	in	r0, 0x3f	; 63
    9042:	f8 94       	cli
    9044:	3e bf       	out	0x3e, r19	; 62
    9046:	0f be       	out	0x3f, r0	; 63
    9048:	2d bf       	out	0x3d, r18	; 61
    904a:	ed b7       	in	r30, 0x3d	; 61
    904c:	fe b7       	in	r31, 0x3e	; 62
    904e:	31 96       	adiw	r30, 0x01	; 1
    9050:	7f 01       	movw	r14, r30
    9052:	20 e0       	ldi	r18, 0x00	; 0
    9054:	30 e0       	ldi	r19, 0x00	; 0
    9056:	bf 01       	movw	r22, r30
    9058:	0e 94 3c 31 	call	0x6278	; 0x6278 <_ZNK6String8getBytesEPhjj>
    905c:	93 01       	movw	r18, r6
    905e:	a4 01       	movw	r20, r8
    9060:	b7 01       	movw	r22, r14
    9062:	c5 01       	movw	r24, r10
    9064:	28 df       	rcall	.-432    	; 0x8eb6 <_ZN4UTFT5printEPciii>
    9066:	0f b6       	in	r0, 0x3f	; 63
    9068:	f8 94       	cli
    906a:	de be       	out	0x3e, r13	; 62
    906c:	0f be       	out	0x3f, r0	; 63
    906e:	cd be       	out	0x3d, r12	; 61
    9070:	df 91       	pop	r29
    9072:	cf 91       	pop	r28
    9074:	1f 91       	pop	r17
    9076:	0f 91       	pop	r16
    9078:	ff 90       	pop	r15
    907a:	ef 90       	pop	r14
    907c:	df 90       	pop	r13
    907e:	cf 90       	pop	r12
    9080:	bf 90       	pop	r11
    9082:	af 90       	pop	r10
    9084:	9f 90       	pop	r9
    9086:	8f 90       	pop	r8
    9088:	7f 90       	pop	r7
    908a:	6f 90       	pop	r6
    908c:	08 95       	ret

0000908e <_ZN4UTFT9printNumIEliiic>:
    908e:	2f 92       	push	r2
    9090:	3f 92       	push	r3
    9092:	4f 92       	push	r4
    9094:	5f 92       	push	r5
    9096:	6f 92       	push	r6
    9098:	7f 92       	push	r7
    909a:	8f 92       	push	r8
    909c:	9f 92       	push	r9
    909e:	af 92       	push	r10
    90a0:	bf 92       	push	r11
    90a2:	cf 92       	push	r12
    90a4:	ef 92       	push	r14
    90a6:	ff 92       	push	r15
    90a8:	0f 93       	push	r16
    90aa:	1f 93       	push	r17
    90ac:	cf 93       	push	r28
    90ae:	df 93       	push	r29
    90b0:	cd b7       	in	r28, 0x3d	; 61
    90b2:	de b7       	in	r29, 0x3e	; 62
    90b4:	ea 97       	sbiw	r28, 0x3a	; 58
    90b6:	0f b6       	in	r0, 0x3f	; 63
    90b8:	f8 94       	cli
    90ba:	de bf       	out	0x3e, r29	; 62
    90bc:	0f be       	out	0x3f, r0	; 63
    90be:	cd bf       	out	0x3d, r28	; 61
    90c0:	9e ab       	std	Y+54, r25	; 0x36
    90c2:	8d ab       	std	Y+53, r24	; 0x35
    90c4:	2a 01       	movw	r4, r20
    90c6:	3b 01       	movw	r6, r22
    90c8:	38 af       	std	Y+56, r19	; 0x38
    90ca:	2f ab       	std	Y+55, r18	; 0x37
    90cc:	1a af       	std	Y+58, r17	; 0x3a
    90ce:	09 af       	std	Y+57, r16	; 0x39
    90d0:	41 15       	cp	r20, r1
    90d2:	51 05       	cpc	r21, r1
    90d4:	61 05       	cpc	r22, r1
    90d6:	71 05       	cpc	r23, r1
    90d8:	f1 f4       	brne	.+60     	; 0x9116 <_ZN4UTFT9printNumIEliiic+0x88>
    90da:	e1 14       	cp	r14, r1
    90dc:	f1 04       	cpc	r15, r1
    90de:	b9 f0       	breq	.+46     	; 0x910e <_ZN4UTFT9printNumIEliiic+0x80>
    90e0:	de 01       	movw	r26, r28
    90e2:	11 96       	adiw	r26, 0x01	; 1
    90e4:	80 e0       	ldi	r24, 0x00	; 0
    90e6:	90 e0       	ldi	r25, 0x00	; 0
    90e8:	fd 01       	movw	r30, r26
    90ea:	21 e0       	ldi	r18, 0x01	; 1
    90ec:	e2 1a       	sub	r14, r18
    90ee:	f1 08       	sbc	r15, r1
    90f0:	8e 15       	cp	r24, r14
    90f2:	9f 05       	cpc	r25, r15
    90f4:	1c f4       	brge	.+6      	; 0x90fc <_ZN4UTFT9printNumIEliiic+0x6e>
    90f6:	cd 92       	st	X+, r12
    90f8:	01 96       	adiw	r24, 0x01	; 1
    90fa:	fa cf       	rjmp	.-12     	; 0x90f0 <_ZN4UTFT9printNumIEliiic+0x62>
    90fc:	e8 0f       	add	r30, r24
    90fe:	f9 1f       	adc	r31, r25
    9100:	20 e3       	ldi	r18, 0x30	; 48
    9102:	20 83       	st	Z, r18
    9104:	fe 01       	movw	r30, r28
    9106:	e8 0f       	add	r30, r24
    9108:	f9 1f       	adc	r31, r25
    910a:	12 82       	std	Z+2, r1	; 0x02
    910c:	84 c0       	rjmp	.+264    	; 0x9216 <_ZN4UTFT9printNumIEliiic+0x188>
    910e:	80 e3       	ldi	r24, 0x30	; 48
    9110:	89 83       	std	Y+1, r24	; 0x01
    9112:	1a 82       	std	Y+2, r1	; 0x02
    9114:	80 c0       	rjmp	.+256    	; 0x9216 <_ZN4UTFT9printNumIEliiic+0x188>
    9116:	77 ff       	sbrs	r23, 7
    9118:	0a c0       	rjmp	.+20     	; 0x912e <_ZN4UTFT9printNumIEliiic+0xa0>
    911a:	70 94       	com	r7
    911c:	60 94       	com	r6
    911e:	50 94       	com	r5
    9120:	40 94       	com	r4
    9122:	41 1c       	adc	r4, r1
    9124:	51 1c       	adc	r5, r1
    9126:	61 1c       	adc	r6, r1
    9128:	71 1c       	adc	r7, r1
    912a:	11 e0       	ldi	r17, 0x01	; 1
    912c:	01 c0       	rjmp	.+2      	; 0x9130 <_ZN4UTFT9printNumIEliiic+0xa2>
    912e:	10 e0       	ldi	r17, 0x00	; 0
    9130:	5e 01       	movw	r10, r28
    9132:	3c e1       	ldi	r19, 0x1C	; 28
    9134:	a3 0e       	add	r10, r19
    9136:	b1 1c       	adc	r11, r1
    9138:	15 01       	movw	r2, r10
    913a:	c3 01       	movw	r24, r6
    913c:	b2 01       	movw	r22, r4
    913e:	2a e0       	ldi	r18, 0x0A	; 10
    9140:	30 e0       	ldi	r19, 0x00	; 0
    9142:	40 e0       	ldi	r20, 0x00	; 0
    9144:	50 e0       	ldi	r21, 0x00	; 0
    9146:	98 d2       	rcall	.+1328   	; 0x9678 <__divmodsi4>
    9148:	20 e3       	ldi	r18, 0x30	; 48
    914a:	26 0f       	add	r18, r22
    914c:	f1 01       	movw	r30, r2
    914e:	21 93       	st	Z+, r18
    9150:	1f 01       	movw	r2, r30
    9152:	4f 01       	movw	r8, r30
    9154:	8a 18       	sub	r8, r10
    9156:	9b 08       	sbc	r9, r11
    9158:	a3 01       	movw	r20, r6
    915a:	92 01       	movw	r18, r4
    915c:	26 1b       	sub	r18, r22
    915e:	37 0b       	sbc	r19, r23
    9160:	48 0b       	sbc	r20, r24
    9162:	59 0b       	sbc	r21, r25
    9164:	ca 01       	movw	r24, r20
    9166:	b9 01       	movw	r22, r18
    9168:	2a e0       	ldi	r18, 0x0A	; 10
    916a:	30 e0       	ldi	r19, 0x00	; 0
    916c:	40 e0       	ldi	r20, 0x00	; 0
    916e:	50 e0       	ldi	r21, 0x00	; 0
    9170:	83 d2       	rcall	.+1286   	; 0x9678 <__divmodsi4>
    9172:	29 01       	movw	r4, r18
    9174:	3a 01       	movw	r6, r20
    9176:	23 2b       	or	r18, r19
    9178:	24 2b       	or	r18, r20
    917a:	25 2b       	or	r18, r21
    917c:	f1 f6       	brne	.-68     	; 0x913a <_ZN4UTFT9printNumIEliiic+0xac>
    917e:	f5 01       	movw	r30, r10
    9180:	e8 0d       	add	r30, r8
    9182:	f9 1d       	adc	r31, r9
    9184:	10 82       	st	Z, r1
    9186:	11 23       	and	r17, r17
    9188:	11 f0       	breq	.+4      	; 0x918e <_ZN4UTFT9printNumIEliiic+0x100>
    918a:	8d e2       	ldi	r24, 0x2D	; 45
    918c:	89 83       	std	Y+1, r24	; 0x01
    918e:	81 2f       	mov	r24, r17
    9190:	90 e0       	ldi	r25, 0x00	; 0
    9192:	94 01       	movw	r18, r8
    9194:	28 0f       	add	r18, r24
    9196:	39 1f       	adc	r19, r25
    9198:	2e 15       	cp	r18, r14
    919a:	3f 05       	cpc	r19, r15
    919c:	c4 f4       	brge	.+48     	; 0x91ce <_ZN4UTFT9printNumIEliiic+0x140>
    919e:	40 e0       	ldi	r20, 0x00	; 0
    91a0:	50 e0       	ldi	r21, 0x00	; 0
    91a2:	e8 18       	sub	r14, r8
    91a4:	f9 08       	sbc	r15, r9
    91a6:	e8 1a       	sub	r14, r24
    91a8:	f9 0a       	sbc	r15, r25
    91aa:	4e 15       	cp	r20, r14
    91ac:	5f 05       	cpc	r21, r15
    91ae:	6c f4       	brge	.+26     	; 0x91ca <_ZN4UTFT9printNumIEliiic+0x13c>
    91b0:	fa 01       	movw	r30, r20
    91b2:	e8 0f       	add	r30, r24
    91b4:	f9 1f       	adc	r31, r25
    91b6:	61 e0       	ldi	r22, 0x01	; 1
    91b8:	70 e0       	ldi	r23, 0x00	; 0
    91ba:	6c 0f       	add	r22, r28
    91bc:	7d 1f       	adc	r23, r29
    91be:	e6 0f       	add	r30, r22
    91c0:	f7 1f       	adc	r31, r23
    91c2:	c0 82       	st	Z, r12
    91c4:	4f 5f       	subi	r20, 0xFF	; 255
    91c6:	5f 4f       	sbci	r21, 0xFF	; 255
    91c8:	f0 cf       	rjmp	.-32     	; 0x91aa <_ZN4UTFT9printNumIEliiic+0x11c>
    91ca:	f7 fe       	sbrs	r15, 7
    91cc:	02 c0       	rjmp	.+4      	; 0x91d2 <_ZN4UTFT9printNumIEliiic+0x144>
    91ce:	e1 2c       	mov	r14, r1
    91d0:	f1 2c       	mov	r15, r1
    91d2:	d5 01       	movw	r26, r10
    91d4:	a8 0d       	add	r26, r8
    91d6:	b9 1d       	adc	r27, r9
    91d8:	40 e0       	ldi	r20, 0x00	; 0
    91da:	50 e0       	ldi	r21, 0x00	; 0
    91dc:	8e 0d       	add	r24, r14
    91de:	9f 1d       	adc	r25, r15
    91e0:	48 15       	cp	r20, r8
    91e2:	59 05       	cpc	r21, r9
    91e4:	71 f0       	breq	.+28     	; 0x9202 <_ZN4UTFT9printNumIEliiic+0x174>
    91e6:	fa 01       	movw	r30, r20
    91e8:	e8 0f       	add	r30, r24
    91ea:	f9 1f       	adc	r31, r25
    91ec:	61 e0       	ldi	r22, 0x01	; 1
    91ee:	70 e0       	ldi	r23, 0x00	; 0
    91f0:	6c 0f       	add	r22, r28
    91f2:	7d 1f       	adc	r23, r29
    91f4:	e6 0f       	add	r30, r22
    91f6:	f7 1f       	adc	r31, r23
    91f8:	6e 91       	ld	r22, -X
    91fa:	60 83       	st	Z, r22
    91fc:	4f 5f       	subi	r20, 0xFF	; 255
    91fe:	5f 4f       	sbci	r21, 0xFF	; 255
    9200:	ef cf       	rjmp	.-34     	; 0x91e0 <_ZN4UTFT9printNumIEliiic+0x152>
    9202:	81 e0       	ldi	r24, 0x01	; 1
    9204:	90 e0       	ldi	r25, 0x00	; 0
    9206:	8c 0f       	add	r24, r28
    9208:	9d 1f       	adc	r25, r29
    920a:	e8 0e       	add	r14, r24
    920c:	f9 1e       	adc	r15, r25
    920e:	f7 01       	movw	r30, r14
    9210:	e2 0f       	add	r30, r18
    9212:	f3 1f       	adc	r31, r19
    9214:	10 82       	st	Z, r1
    9216:	00 e0       	ldi	r16, 0x00	; 0
    9218:	10 e0       	ldi	r17, 0x00	; 0
    921a:	29 ad       	ldd	r18, Y+57	; 0x39
    921c:	3a ad       	ldd	r19, Y+58	; 0x3a
    921e:	4f a9       	ldd	r20, Y+55	; 0x37
    9220:	58 ad       	ldd	r21, Y+56	; 0x38
    9222:	be 01       	movw	r22, r28
    9224:	6f 5f       	subi	r22, 0xFF	; 255
    9226:	7f 4f       	sbci	r23, 0xFF	; 255
    9228:	8d a9       	ldd	r24, Y+53	; 0x35
    922a:	9e a9       	ldd	r25, Y+54	; 0x36
    922c:	44 de       	rcall	.-888    	; 0x8eb6 <_ZN4UTFT5printEPciii>
    922e:	ea 96       	adiw	r28, 0x3a	; 58
    9230:	0f b6       	in	r0, 0x3f	; 63
    9232:	f8 94       	cli
    9234:	de bf       	out	0x3e, r29	; 62
    9236:	0f be       	out	0x3f, r0	; 63
    9238:	cd bf       	out	0x3d, r28	; 61
    923a:	df 91       	pop	r29
    923c:	cf 91       	pop	r28
    923e:	1f 91       	pop	r17
    9240:	0f 91       	pop	r16
    9242:	ff 90       	pop	r15
    9244:	ef 90       	pop	r14
    9246:	cf 90       	pop	r12
    9248:	bf 90       	pop	r11
    924a:	af 90       	pop	r10
    924c:	9f 90       	pop	r9
    924e:	8f 90       	pop	r8
    9250:	7f 90       	pop	r7
    9252:	6f 90       	pop	r6
    9254:	5f 90       	pop	r5
    9256:	4f 90       	pop	r4
    9258:	3f 90       	pop	r3
    925a:	2f 90       	pop	r2
    925c:	08 95       	ret

0000925e <_ZN4UTFT7setFontEPh>:

	print(st,x,y);
}

void UTFT::setFont(uint8_t* font)
{
    925e:	dc 01       	movw	r26, r24
	cfont.font=font;
    9260:	9b 96       	adiw	r26, 0x2b	; 43
    9262:	7c 93       	st	X, r23
    9264:	6e 93       	st	-X, r22
    9266:	9a 97       	sbiw	r26, 0x2a	; 42
	cfont.x_size=fontbyte(0);
    9268:	fb 01       	movw	r30, r22
    926a:	84 91       	lpm	r24, Z
    926c:	9c 96       	adiw	r26, 0x2c	; 44
    926e:	8c 93       	st	X, r24
    9270:	9c 97       	sbiw	r26, 0x2c	; 44
	cfont.y_size=fontbyte(1);
    9272:	31 96       	adiw	r30, 0x01	; 1
    9274:	e4 91       	lpm	r30, Z
    9276:	9d 96       	adiw	r26, 0x2d	; 45
    9278:	ec 93       	st	X, r30
    927a:	9d 97       	sbiw	r26, 0x2d	; 45
	cfont.offset=fontbyte(2);
    927c:	fb 01       	movw	r30, r22
    927e:	32 96       	adiw	r30, 0x02	; 2
    9280:	e4 91       	lpm	r30, Z
    9282:	9e 96       	adiw	r26, 0x2e	; 46
    9284:	ec 93       	st	X, r30
    9286:	9e 97       	sbiw	r26, 0x2e	; 46
	cfont.numchars=fontbyte(3);
    9288:	fb 01       	movw	r30, r22
    928a:	33 96       	adiw	r30, 0x03	; 3
    928c:	64 91       	lpm	r22, Z
    928e:	9f 96       	adiw	r26, 0x2f	; 47
    9290:	6c 93       	st	X, r22
    9292:	08 95       	ret

00009294 <yield>:
 * libraries or sketches that supports cooperative threads.
 *
 * Its defined as a weak symbol and it can be redefined to implement a
 * real cooperative scheduler.
 */
static void __empty() {
    9294:	08 95       	ret

00009296 <turnOffPWM>:
//
//static inline void turnOffPWM(uint8_t timer) __attribute__ ((always_inline));
//static inline void turnOffPWM(uint8_t timer)
static void turnOffPWM(uint8_t timer)
{
	switch (timer)
    9296:	90 e0       	ldi	r25, 0x00	; 0
    9298:	fc 01       	movw	r30, r24
    929a:	31 97       	sbiw	r30, 0x01	; 1
    929c:	e2 31       	cpi	r30, 0x12	; 18
    929e:	f1 05       	cpc	r31, r1
    92a0:	08 f0       	brcs	.+2      	; 0x92a4 <turnOffPWM+0xe>
    92a2:	4d c0       	rjmp	.+154    	; 0x933e <turnOffPWM+0xa8>
    92a4:	88 27       	eor	r24, r24
    92a6:	ee 58       	subi	r30, 0x8E	; 142
    92a8:	ff 4f       	sbci	r31, 0xFF	; 255
    92aa:	8f 4f       	sbci	r24, 0xFF	; 255
    92ac:	01 c2       	rjmp	.+1026   	; 0x96b0 <__tablejump2__>
	{
		#if defined(TCCR1A) && defined(COM1A1)
		case TIMER1A:   cbi(TCCR1A, COM1A1);    break;
    92ae:	80 91 80 00 	lds	r24, 0x0080	; 0x800080 <__TEXT_REGION_LENGTH__+0x700080>
    92b2:	8f 77       	andi	r24, 0x7F	; 127
    92b4:	03 c0       	rjmp	.+6      	; 0x92bc <turnOffPWM+0x26>
		#endif
		#if defined(TCCR1A) && defined(COM1B1)
		case TIMER1B:   cbi(TCCR1A, COM1B1);    break;
    92b6:	80 91 80 00 	lds	r24, 0x0080	; 0x800080 <__TEXT_REGION_LENGTH__+0x700080>
    92ba:	8f 7d       	andi	r24, 0xDF	; 223
    92bc:	80 93 80 00 	sts	0x0080, r24	; 0x800080 <__TEXT_REGION_LENGTH__+0x700080>
    92c0:	08 95       	ret
		#endif
		#if defined(TCCR1A) && defined(COM1C1)
		case TIMER1C:   cbi(TCCR1A, COM1C1);    break;
    92c2:	80 91 80 00 	lds	r24, 0x0080	; 0x800080 <__TEXT_REGION_LENGTH__+0x700080>
    92c6:	87 7f       	andi	r24, 0xF7	; 247
    92c8:	f9 cf       	rjmp	.-14     	; 0x92bc <turnOffPWM+0x26>
		#if defined(TCCR2) && defined(COM21)
		case  TIMER2:   cbi(TCCR2, COM21);      break;
		#endif
		
		#if defined(TCCR0A) && defined(COM0A1)
		case  TIMER0A:  cbi(TCCR0A, COM0A1);    break;
    92ca:	84 b5       	in	r24, 0x24	; 36
    92cc:	8f 77       	andi	r24, 0x7F	; 127
    92ce:	02 c0       	rjmp	.+4      	; 0x92d4 <turnOffPWM+0x3e>
		#endif
		
		#if defined(TCCR0A) && defined(COM0B1)
		case  TIMER0B:  cbi(TCCR0A, COM0B1);    break;
    92d0:	84 b5       	in	r24, 0x24	; 36
    92d2:	8f 7d       	andi	r24, 0xDF	; 223
    92d4:	84 bd       	out	0x24, r24	; 36
    92d6:	08 95       	ret
		#endif
		#if defined(TCCR2A) && defined(COM2A1)
		case  TIMER2A:  cbi(TCCR2A, COM2A1);    break;
    92d8:	80 91 b0 00 	lds	r24, 0x00B0	; 0x8000b0 <__TEXT_REGION_LENGTH__+0x7000b0>
    92dc:	8f 77       	andi	r24, 0x7F	; 127
    92de:	03 c0       	rjmp	.+6      	; 0x92e6 <turnOffPWM+0x50>
		#endif
		#if defined(TCCR2A) && defined(COM2B1)
		case  TIMER2B:  cbi(TCCR2A, COM2B1);    break;
    92e0:	80 91 b0 00 	lds	r24, 0x00B0	; 0x8000b0 <__TEXT_REGION_LENGTH__+0x7000b0>
    92e4:	8f 7d       	andi	r24, 0xDF	; 223
    92e6:	80 93 b0 00 	sts	0x00B0, r24	; 0x8000b0 <__TEXT_REGION_LENGTH__+0x7000b0>
    92ea:	08 95       	ret
		#endif
		
		#if defined(TCCR3A) && defined(COM3A1)
		case  TIMER3A:  cbi(TCCR3A, COM3A1);    break;
    92ec:	80 91 90 00 	lds	r24, 0x0090	; 0x800090 <__TEXT_REGION_LENGTH__+0x700090>
    92f0:	8f 77       	andi	r24, 0x7F	; 127
    92f2:	07 c0       	rjmp	.+14     	; 0x9302 <turnOffPWM+0x6c>
		#endif
		#if defined(TCCR3A) && defined(COM3B1)
		case  TIMER3B:  cbi(TCCR3A, COM3B1);    break;
    92f4:	80 91 90 00 	lds	r24, 0x0090	; 0x800090 <__TEXT_REGION_LENGTH__+0x700090>
    92f8:	8f 7d       	andi	r24, 0xDF	; 223
    92fa:	03 c0       	rjmp	.+6      	; 0x9302 <turnOffPWM+0x6c>
		#endif
		#if defined(TCCR3A) && defined(COM3C1)
		case  TIMER3C:  cbi(TCCR3A, COM3C1);    break;
    92fc:	80 91 90 00 	lds	r24, 0x0090	; 0x800090 <__TEXT_REGION_LENGTH__+0x700090>
    9300:	87 7f       	andi	r24, 0xF7	; 247
    9302:	80 93 90 00 	sts	0x0090, r24	; 0x800090 <__TEXT_REGION_LENGTH__+0x700090>
    9306:	08 95       	ret
		#endif

		#if defined(TCCR4A) && defined(COM4A1)
		case  TIMER4A:  cbi(TCCR4A, COM4A1);    break;
    9308:	80 91 a0 00 	lds	r24, 0x00A0	; 0x8000a0 <__TEXT_REGION_LENGTH__+0x7000a0>
    930c:	8f 77       	andi	r24, 0x7F	; 127
    930e:	07 c0       	rjmp	.+14     	; 0x931e <turnOffPWM+0x88>
		#endif					
		#if defined(TCCR4A) && defined(COM4B1)
		case  TIMER4B:  cbi(TCCR4A, COM4B1);    break;
    9310:	80 91 a0 00 	lds	r24, 0x00A0	; 0x8000a0 <__TEXT_REGION_LENGTH__+0x7000a0>
    9314:	8f 7d       	andi	r24, 0xDF	; 223
    9316:	03 c0       	rjmp	.+6      	; 0x931e <turnOffPWM+0x88>
		#endif
		#if defined(TCCR4A) && defined(COM4C1)
		case  TIMER4C:  cbi(TCCR4A, COM4C1);    break;
    9318:	80 91 a0 00 	lds	r24, 0x00A0	; 0x8000a0 <__TEXT_REGION_LENGTH__+0x7000a0>
    931c:	87 7f       	andi	r24, 0xF7	; 247
    931e:	80 93 a0 00 	sts	0x00A0, r24	; 0x8000a0 <__TEXT_REGION_LENGTH__+0x7000a0>
    9322:	08 95       	ret
		#if defined(TCCR4C) && defined(COM4D1)
		case TIMER4D:	cbi(TCCR4C, COM4D1);	break;
		#endif			
			
		#if defined(TCCR5A)
		case  TIMER5A:  cbi(TCCR5A, COM5A1);    break;
    9324:	80 91 20 01 	lds	r24, 0x0120	; 0x800120 <__TEXT_REGION_LENGTH__+0x700120>
    9328:	8f 77       	andi	r24, 0x7F	; 127
    932a:	07 c0       	rjmp	.+14     	; 0x933a <turnOffPWM+0xa4>
		case  TIMER5B:  cbi(TCCR5A, COM5B1);    break;
    932c:	80 91 20 01 	lds	r24, 0x0120	; 0x800120 <__TEXT_REGION_LENGTH__+0x700120>
    9330:	8f 7d       	andi	r24, 0xDF	; 223
    9332:	03 c0       	rjmp	.+6      	; 0x933a <turnOffPWM+0xa4>
		case  TIMER5C:  cbi(TCCR5A, COM5C1);    break;
    9334:	80 91 20 01 	lds	r24, 0x0120	; 0x800120 <__TEXT_REGION_LENGTH__+0x700120>
    9338:	87 7f       	andi	r24, 0xF7	; 247
    933a:	80 93 20 01 	sts	0x0120, r24	; 0x800120 <__TEXT_REGION_LENGTH__+0x700120>
    933e:	08 95       	ret

00009340 <pinMode>:
#define ARDUINO_MAIN
#include "wiring_private.h"
#include "pins_arduino.h"

void pinMode(uint8_t pin, uint8_t mode)
{
    9340:	cf 93       	push	r28
    9342:	df 93       	push	r29
	uint8_t bit = digitalPinToBitMask(pin);
    9344:	90 e0       	ldi	r25, 0x00	; 0
    9346:	fc 01       	movw	r30, r24
    9348:	ec 59       	subi	r30, 0x9C	; 156
    934a:	fe 4c       	sbci	r31, 0xCE	; 206
    934c:	24 91       	lpm	r18, Z
	uint8_t port = digitalPinToPort(pin);
    934e:	fc 01       	movw	r30, r24
    9350:	e6 55       	subi	r30, 0x56	; 86
    9352:	fe 4c       	sbci	r31, 0xCE	; 206
    9354:	84 91       	lpm	r24, Z
	volatile uint8_t *reg, *out;

	if (port == NOT_A_PIN) return;
    9356:	88 23       	and	r24, r24
    9358:	61 f1       	breq	.+88     	; 0x93b2 <pinMode+0x72>

	// JWS: can I let the optimizer do this?
	reg = portModeRegister(port);
    935a:	90 e0       	ldi	r25, 0x00	; 0
    935c:	88 0f       	add	r24, r24
    935e:	99 1f       	adc	r25, r25
    9360:	fc 01       	movw	r30, r24
    9362:	ec 5d       	subi	r30, 0xDC	; 220
    9364:	fd 4c       	sbci	r31, 0xCD	; 205
    9366:	c5 91       	lpm	r28, Z+
    9368:	d4 91       	lpm	r29, Z
	out = portOutputRegister(port);
    936a:	fc 01       	movw	r30, r24
    936c:	e6 5f       	subi	r30, 0xF6	; 246
    936e:	fd 4c       	sbci	r31, 0xCD	; 205
    9370:	a5 91       	lpm	r26, Z+
    9372:	b4 91       	lpm	r27, Z

	if (mode == INPUT) { 
    9374:	61 11       	cpse	r22, r1
    9376:	09 c0       	rjmp	.+18     	; 0x938a <pinMode+0x4a>
		uint8_t oldSREG = SREG;
    9378:	9f b7       	in	r25, 0x3f	; 63
                cli();
    937a:	f8 94       	cli
		*reg &= ~bit;
    937c:	88 81       	ld	r24, Y
    937e:	20 95       	com	r18
    9380:	82 23       	and	r24, r18
    9382:	88 83       	st	Y, r24
		*out &= ~bit;
    9384:	ec 91       	ld	r30, X
    9386:	2e 23       	and	r18, r30
    9388:	0b c0       	rjmp	.+22     	; 0x93a0 <pinMode+0x60>
		SREG = oldSREG;
	} else if (mode == INPUT_PULLUP) {
    938a:	62 30       	cpi	r22, 0x02	; 2
    938c:	61 f4       	brne	.+24     	; 0x93a6 <pinMode+0x66>
		uint8_t oldSREG = SREG;
    938e:	9f b7       	in	r25, 0x3f	; 63
                cli();
    9390:	f8 94       	cli
		*reg &= ~bit;
    9392:	38 81       	ld	r19, Y
    9394:	82 2f       	mov	r24, r18
    9396:	80 95       	com	r24
    9398:	83 23       	and	r24, r19
    939a:	88 83       	st	Y, r24
		*out |= bit;
    939c:	ec 91       	ld	r30, X
    939e:	2e 2b       	or	r18, r30
    93a0:	2c 93       	st	X, r18
		SREG = oldSREG;
    93a2:	9f bf       	out	0x3f, r25	; 63
    93a4:	06 c0       	rjmp	.+12     	; 0x93b2 <pinMode+0x72>
	} else {
		uint8_t oldSREG = SREG;
    93a6:	8f b7       	in	r24, 0x3f	; 63
                cli();
    93a8:	f8 94       	cli
		*reg |= bit;
    93aa:	e8 81       	ld	r30, Y
    93ac:	2e 2b       	or	r18, r30
    93ae:	28 83       	st	Y, r18
		SREG = oldSREG;
    93b0:	8f bf       	out	0x3f, r24	; 63
	}
}
    93b2:	df 91       	pop	r29
    93b4:	cf 91       	pop	r28
    93b6:	08 95       	ret

000093b8 <digitalWrite>:
		#endif
	}
}

void digitalWrite(uint8_t pin, uint8_t val)
{
    93b8:	1f 93       	push	r17
    93ba:	cf 93       	push	r28
    93bc:	df 93       	push	r29
	uint8_t timer = digitalPinToTimer(pin);
    93be:	28 2f       	mov	r18, r24
    93c0:	30 e0       	ldi	r19, 0x00	; 0
    93c2:	f9 01       	movw	r30, r18
    93c4:	e2 5e       	subi	r30, 0xE2	; 226
    93c6:	fe 4c       	sbci	r31, 0xCE	; 206
    93c8:	84 91       	lpm	r24, Z
	uint8_t bit = digitalPinToBitMask(pin);
    93ca:	f9 01       	movw	r30, r18
    93cc:	ec 59       	subi	r30, 0x9C	; 156
    93ce:	fe 4c       	sbci	r31, 0xCE	; 206
    93d0:	d4 91       	lpm	r29, Z
	uint8_t port = digitalPinToPort(pin);
    93d2:	f9 01       	movw	r30, r18
    93d4:	e6 55       	subi	r30, 0x56	; 86
    93d6:	fe 4c       	sbci	r31, 0xCE	; 206
    93d8:	c4 91       	lpm	r28, Z
	volatile uint8_t *out;

	if (port == NOT_A_PIN) return;
    93da:	cc 23       	and	r28, r28
    93dc:	c1 f0       	breq	.+48     	; 0x940e <digitalWrite+0x56>
    93de:	16 2f       	mov	r17, r22

	// If the pin that support PWM output, we need to turn it off
	// before doing a digital write.
	if (timer != NOT_ON_TIMER) turnOffPWM(timer);
    93e0:	81 11       	cpse	r24, r1
    93e2:	59 df       	rcall	.-334    	; 0x9296 <turnOffPWM>

	out = portOutputRegister(port);
    93e4:	ec 2f       	mov	r30, r28
    93e6:	f0 e0       	ldi	r31, 0x00	; 0
    93e8:	ee 0f       	add	r30, r30
    93ea:	ff 1f       	adc	r31, r31
    93ec:	e6 5f       	subi	r30, 0xF6	; 246
    93ee:	fd 4c       	sbci	r31, 0xCD	; 205
    93f0:	a5 91       	lpm	r26, Z+
    93f2:	b4 91       	lpm	r27, Z

	uint8_t oldSREG = SREG;
    93f4:	8f b7       	in	r24, 0x3f	; 63
	cli();
    93f6:	f8 94       	cli

	if (val == LOW) {
    93f8:	11 11       	cpse	r17, r1
    93fa:	05 c0       	rjmp	.+10     	; 0x9406 <digitalWrite+0x4e>
		*out &= ~bit;
    93fc:	9c 91       	ld	r25, X
    93fe:	ed 2f       	mov	r30, r29
    9400:	e0 95       	com	r30
    9402:	e9 23       	and	r30, r25
    9404:	02 c0       	rjmp	.+4      	; 0x940a <digitalWrite+0x52>
	} else {
		*out |= bit;
    9406:	ec 91       	ld	r30, X
    9408:	ed 2b       	or	r30, r29
    940a:	ec 93       	st	X, r30
	}

	SREG = oldSREG;
    940c:	8f bf       	out	0x3f, r24	; 63
}
    940e:	df 91       	pop	r29
    9410:	cf 91       	pop	r28
    9412:	1f 91       	pop	r17
    9414:	08 95       	ret

00009416 <_Z3maplllll>:
  long diff = howbig - howsmall;
  return random(diff) + howsmall;
}

long map(long x, long in_min, long in_max, long out_min, long out_max)
{
    9416:	4f 92       	push	r4
    9418:	5f 92       	push	r5
    941a:	6f 92       	push	r6
    941c:	7f 92       	push	r7
    941e:	af 92       	push	r10
    9420:	bf 92       	push	r11
    9422:	cf 92       	push	r12
    9424:	df 92       	push	r13
    9426:	ef 92       	push	r14
    9428:	ff 92       	push	r15
    942a:	0f 93       	push	r16
    942c:	1f 93       	push	r17
    942e:	cf 93       	push	r28
    9430:	df 93       	push	r29
    9432:	cd b7       	in	r28, 0x3d	; 61
    9434:	de b7       	in	r29, 0x3e	; 62
    9436:	29 01       	movw	r4, r18
    9438:	3a 01       	movw	r6, r20
  return (x - in_min) * (out_max - out_min) / (in_max - in_min) + out_min;
    943a:	9b 01       	movw	r18, r22
    943c:	ac 01       	movw	r20, r24
    943e:	24 19       	sub	r18, r4
    9440:	35 09       	sbc	r19, r5
    9442:	46 09       	sbc	r20, r6
    9444:	57 09       	sbc	r21, r7
    9446:	8a 89       	ldd	r24, Y+18	; 0x12
    9448:	9b 89       	ldd	r25, Y+19	; 0x13
    944a:	ac 89       	ldd	r26, Y+20	; 0x14
    944c:	bd 89       	ldd	r27, Y+21	; 0x15
    944e:	bc 01       	movw	r22, r24
    9450:	cd 01       	movw	r24, r26
    9452:	6a 19       	sub	r22, r10
    9454:	7b 09       	sbc	r23, r11
    9456:	8c 09       	sbc	r24, r12
    9458:	9d 09       	sbc	r25, r13
    945a:	aa d0       	rcall	.+340    	; 0x95b0 <__mulsi3>
    945c:	a8 01       	movw	r20, r16
    945e:	97 01       	movw	r18, r14
    9460:	24 19       	sub	r18, r4
    9462:	35 09       	sbc	r19, r5
    9464:	46 09       	sbc	r20, r6
    9466:	57 09       	sbc	r21, r7
    9468:	07 d1       	rcall	.+526    	; 0x9678 <__divmodsi4>
    946a:	ca 01       	movw	r24, r20
    946c:	b9 01       	movw	r22, r18
    946e:	6a 0d       	add	r22, r10
    9470:	7b 1d       	adc	r23, r11
    9472:	8c 1d       	adc	r24, r12
    9474:	9d 1d       	adc	r25, r13
}
    9476:	df 91       	pop	r29
    9478:	cf 91       	pop	r28
    947a:	1f 91       	pop	r17
    947c:	0f 91       	pop	r16
    947e:	ff 90       	pop	r15
    9480:	ef 90       	pop	r14
    9482:	df 90       	pop	r13
    9484:	cf 90       	pop	r12
    9486:	bf 90       	pop	r11
    9488:	af 90       	pop	r10
    948a:	7f 90       	pop	r7
    948c:	6f 90       	pop	r6
    948e:	5f 90       	pop	r5
    9490:	4f 90       	pop	r4
    9492:	08 95       	ret

00009494 <cos>:
    9494:	04 d0       	rcall	.+8      	; 0x949e <__fp_rempio2>
    9496:	e3 95       	inc	r30
    9498:	2a c0       	rjmp	.+84     	; 0x94ee <__fp_sinus>
    949a:	0c 94 ff 2d 	jmp	0x5bfe	; 0x5bfe <__fp_nan>

0000949e <__fp_rempio2>:
    949e:	0e 94 29 2e 	call	0x5c52	; 0x5c52 <__fp_splitA>
    94a2:	d8 f3       	brcs	.-10     	; 0x949a <cos+0x6>
    94a4:	e8 94       	clt
    94a6:	e0 e0       	ldi	r30, 0x00	; 0
    94a8:	bb 27       	eor	r27, r27
    94aa:	9f 57       	subi	r25, 0x7F	; 127
    94ac:	f0 f0       	brcs	.+60     	; 0x94ea <__fp_rempio2+0x4c>
    94ae:	2a ed       	ldi	r18, 0xDA	; 218
    94b0:	3f e0       	ldi	r19, 0x0F	; 15
    94b2:	49 ec       	ldi	r20, 0xC9	; 201
    94b4:	06 c0       	rjmp	.+12     	; 0x94c2 <__fp_rempio2+0x24>
    94b6:	ee 0f       	add	r30, r30
    94b8:	bb 0f       	add	r27, r27
    94ba:	66 1f       	adc	r22, r22
    94bc:	77 1f       	adc	r23, r23
    94be:	88 1f       	adc	r24, r24
    94c0:	28 f0       	brcs	.+10     	; 0x94cc <__fp_rempio2+0x2e>
    94c2:	b2 3a       	cpi	r27, 0xA2	; 162
    94c4:	62 07       	cpc	r22, r18
    94c6:	73 07       	cpc	r23, r19
    94c8:	84 07       	cpc	r24, r20
    94ca:	28 f0       	brcs	.+10     	; 0x94d6 <__fp_rempio2+0x38>
    94cc:	b2 5a       	subi	r27, 0xA2	; 162
    94ce:	62 0b       	sbc	r22, r18
    94d0:	73 0b       	sbc	r23, r19
    94d2:	84 0b       	sbc	r24, r20
    94d4:	e3 95       	inc	r30
    94d6:	9a 95       	dec	r25
    94d8:	72 f7       	brpl	.-36     	; 0x94b6 <__fp_rempio2+0x18>
    94da:	80 38       	cpi	r24, 0x80	; 128
    94dc:	30 f4       	brcc	.+12     	; 0x94ea <__fp_rempio2+0x4c>
    94de:	9a 95       	dec	r25
    94e0:	bb 0f       	add	r27, r27
    94e2:	66 1f       	adc	r22, r22
    94e4:	77 1f       	adc	r23, r23
    94e6:	88 1f       	adc	r24, r24
    94e8:	d2 f7       	brpl	.-12     	; 0x94de <__fp_rempio2+0x40>
    94ea:	90 48       	sbci	r25, 0x80	; 128
    94ec:	1b c0       	rjmp	.+54     	; 0x9524 <__fp_mpack_finite>

000094ee <__fp_sinus>:
    94ee:	ef 93       	push	r30
    94f0:	e0 ff       	sbrs	r30, 0
    94f2:	07 c0       	rjmp	.+14     	; 0x9502 <__fp_sinus+0x14>
    94f4:	a2 ea       	ldi	r26, 0xA2	; 162
    94f6:	2a ed       	ldi	r18, 0xDA	; 218
    94f8:	3f e0       	ldi	r19, 0x0F	; 15
    94fa:	49 ec       	ldi	r20, 0xC9	; 201
    94fc:	5f eb       	ldi	r21, 0xBF	; 191
    94fe:	0e 94 38 2d 	call	0x5a70	; 0x5a70 <__addsf3x>
    9502:	0e 94 10 2e 	call	0x5c20	; 0x5c20 <__fp_round>
    9506:	0f 90       	pop	r0
    9508:	03 94       	inc	r0
    950a:	01 fc       	sbrc	r0, 1
    950c:	90 58       	subi	r25, 0x80	; 128
    950e:	e8 e0       	ldi	r30, 0x08	; 8
    9510:	f1 e0       	ldi	r31, 0x01	; 1
    9512:	14 c0       	rjmp	.+40     	; 0x953c <__fp_powsodd>

00009514 <sin>:
    9514:	9f 93       	push	r25
    9516:	c3 df       	rcall	.-122    	; 0x949e <__fp_rempio2>
    9518:	0f 90       	pop	r0
    951a:	07 fc       	sbrc	r0, 7
    951c:	ee 5f       	subi	r30, 0xFE	; 254
    951e:	e7 cf       	rjmp	.-50     	; 0x94ee <__fp_sinus>

00009520 <__fp_mpack>:
    9520:	9f 3f       	cpi	r25, 0xFF	; 255
    9522:	31 f0       	breq	.+12     	; 0x9530 <__fp_mpack_finite+0xc>

00009524 <__fp_mpack_finite>:
    9524:	91 50       	subi	r25, 0x01	; 1
    9526:	20 f4       	brcc	.+8      	; 0x9530 <__fp_mpack_finite+0xc>
    9528:	87 95       	ror	r24
    952a:	77 95       	ror	r23
    952c:	67 95       	ror	r22
    952e:	b7 95       	ror	r27
    9530:	88 0f       	add	r24, r24
    9532:	91 1d       	adc	r25, r1
    9534:	96 95       	lsr	r25
    9536:	87 95       	ror	r24
    9538:	97 f9       	bld	r25, 7
    953a:	08 95       	ret

0000953c <__fp_powsodd>:
    953c:	9f 93       	push	r25
    953e:	8f 93       	push	r24
    9540:	7f 93       	push	r23
    9542:	6f 93       	push	r22
    9544:	ff 93       	push	r31
    9546:	ef 93       	push	r30
    9548:	9b 01       	movw	r18, r22
    954a:	ac 01       	movw	r20, r24
    954c:	0e 94 4a 2e 	call	0x5c94	; 0x5c94 <__mulsf3>
    9550:	ef 91       	pop	r30
    9552:	ff 91       	pop	r31
    9554:	06 d0       	rcall	.+12     	; 0x9562 <__fp_powser>
    9556:	2f 91       	pop	r18
    9558:	3f 91       	pop	r19
    955a:	4f 91       	pop	r20
    955c:	5f 91       	pop	r21
    955e:	0c 94 4a 2e 	jmp	0x5c94	; 0x5c94 <__mulsf3>

00009562 <__fp_powser>:
    9562:	df 93       	push	r29
    9564:	cf 93       	push	r28
    9566:	1f 93       	push	r17
    9568:	0f 93       	push	r16
    956a:	ff 92       	push	r15
    956c:	ef 92       	push	r14
    956e:	df 92       	push	r13
    9570:	7b 01       	movw	r14, r22
    9572:	8c 01       	movw	r16, r24
    9574:	68 94       	set
    9576:	06 c0       	rjmp	.+12     	; 0x9584 <__fp_powser+0x22>
    9578:	da 2e       	mov	r13, r26
    957a:	ef 01       	movw	r28, r30
    957c:	0e 94 56 2e 	call	0x5cac	; 0x5cac <__mulsf3x>
    9580:	fe 01       	movw	r30, r28
    9582:	e8 94       	clt
    9584:	a5 91       	lpm	r26, Z+
    9586:	25 91       	lpm	r18, Z+
    9588:	35 91       	lpm	r19, Z+
    958a:	45 91       	lpm	r20, Z+
    958c:	55 91       	lpm	r21, Z+
    958e:	a6 f3       	brts	.-24     	; 0x9578 <__fp_powser+0x16>
    9590:	ef 01       	movw	r28, r30
    9592:	0e 94 38 2d 	call	0x5a70	; 0x5a70 <__addsf3x>
    9596:	fe 01       	movw	r30, r28
    9598:	97 01       	movw	r18, r14
    959a:	a8 01       	movw	r20, r16
    959c:	da 94       	dec	r13
    959e:	69 f7       	brne	.-38     	; 0x957a <__fp_powser+0x18>
    95a0:	df 90       	pop	r13
    95a2:	ef 90       	pop	r14
    95a4:	ff 90       	pop	r15
    95a6:	0f 91       	pop	r16
    95a8:	1f 91       	pop	r17
    95aa:	cf 91       	pop	r28
    95ac:	df 91       	pop	r29
    95ae:	08 95       	ret

000095b0 <__mulsi3>:
    95b0:	db 01       	movw	r26, r22
    95b2:	8f 93       	push	r24
    95b4:	9f 93       	push	r25
    95b6:	84 d0       	rcall	.+264    	; 0x96c0 <__muluhisi3>
    95b8:	bf 91       	pop	r27
    95ba:	af 91       	pop	r26
    95bc:	a2 9f       	mul	r26, r18
    95be:	80 0d       	add	r24, r0
    95c0:	91 1d       	adc	r25, r1
    95c2:	a3 9f       	mul	r26, r19
    95c4:	90 0d       	add	r25, r0
    95c6:	b2 9f       	mul	r27, r18
    95c8:	90 0d       	add	r25, r0
    95ca:	11 24       	eor	r1, r1
    95cc:	08 95       	ret

000095ce <__udivmodqi4>:
    95ce:	99 1b       	sub	r25, r25
    95d0:	79 e0       	ldi	r23, 0x09	; 9
    95d2:	04 c0       	rjmp	.+8      	; 0x95dc <__udivmodqi4_ep>

000095d4 <__udivmodqi4_loop>:
    95d4:	99 1f       	adc	r25, r25
    95d6:	96 17       	cp	r25, r22
    95d8:	08 f0       	brcs	.+2      	; 0x95dc <__udivmodqi4_ep>
    95da:	96 1b       	sub	r25, r22

000095dc <__udivmodqi4_ep>:
    95dc:	88 1f       	adc	r24, r24
    95de:	7a 95       	dec	r23
    95e0:	c9 f7       	brne	.-14     	; 0x95d4 <__udivmodqi4_loop>
    95e2:	80 95       	com	r24
    95e4:	08 95       	ret

000095e6 <__udivmodhi4>:
    95e6:	aa 1b       	sub	r26, r26
    95e8:	bb 1b       	sub	r27, r27
    95ea:	51 e1       	ldi	r21, 0x11	; 17
    95ec:	07 c0       	rjmp	.+14     	; 0x95fc <__udivmodhi4_ep>

000095ee <__udivmodhi4_loop>:
    95ee:	aa 1f       	adc	r26, r26
    95f0:	bb 1f       	adc	r27, r27
    95f2:	a6 17       	cp	r26, r22
    95f4:	b7 07       	cpc	r27, r23
    95f6:	10 f0       	brcs	.+4      	; 0x95fc <__udivmodhi4_ep>
    95f8:	a6 1b       	sub	r26, r22
    95fa:	b7 0b       	sbc	r27, r23

000095fc <__udivmodhi4_ep>:
    95fc:	88 1f       	adc	r24, r24
    95fe:	99 1f       	adc	r25, r25
    9600:	5a 95       	dec	r21
    9602:	a9 f7       	brne	.-22     	; 0x95ee <__udivmodhi4_loop>
    9604:	80 95       	com	r24
    9606:	90 95       	com	r25
    9608:	bc 01       	movw	r22, r24
    960a:	cd 01       	movw	r24, r26
    960c:	08 95       	ret

0000960e <__divmodhi4>:
    960e:	97 fb       	bst	r25, 7
    9610:	07 2e       	mov	r0, r23
    9612:	16 f4       	brtc	.+4      	; 0x9618 <__divmodhi4+0xa>
    9614:	00 94       	com	r0
    9616:	06 d0       	rcall	.+12     	; 0x9624 <__divmodhi4_neg1>
    9618:	77 fd       	sbrc	r23, 7
    961a:	08 d0       	rcall	.+16     	; 0x962c <__divmodhi4_neg2>
    961c:	e4 df       	rcall	.-56     	; 0x95e6 <__udivmodhi4>
    961e:	07 fc       	sbrc	r0, 7
    9620:	05 d0       	rcall	.+10     	; 0x962c <__divmodhi4_neg2>
    9622:	3e f4       	brtc	.+14     	; 0x9632 <__divmodhi4_exit>

00009624 <__divmodhi4_neg1>:
    9624:	90 95       	com	r25
    9626:	81 95       	neg	r24
    9628:	9f 4f       	sbci	r25, 0xFF	; 255
    962a:	08 95       	ret

0000962c <__divmodhi4_neg2>:
    962c:	70 95       	com	r23
    962e:	61 95       	neg	r22
    9630:	7f 4f       	sbci	r23, 0xFF	; 255

00009632 <__divmodhi4_exit>:
    9632:	08 95       	ret

00009634 <__udivmodsi4>:
    9634:	a1 e2       	ldi	r26, 0x21	; 33
    9636:	1a 2e       	mov	r1, r26
    9638:	aa 1b       	sub	r26, r26
    963a:	bb 1b       	sub	r27, r27
    963c:	fd 01       	movw	r30, r26
    963e:	0d c0       	rjmp	.+26     	; 0x965a <__udivmodsi4_ep>

00009640 <__udivmodsi4_loop>:
    9640:	aa 1f       	adc	r26, r26
    9642:	bb 1f       	adc	r27, r27
    9644:	ee 1f       	adc	r30, r30
    9646:	ff 1f       	adc	r31, r31
    9648:	a2 17       	cp	r26, r18
    964a:	b3 07       	cpc	r27, r19
    964c:	e4 07       	cpc	r30, r20
    964e:	f5 07       	cpc	r31, r21
    9650:	20 f0       	brcs	.+8      	; 0x965a <__udivmodsi4_ep>
    9652:	a2 1b       	sub	r26, r18
    9654:	b3 0b       	sbc	r27, r19
    9656:	e4 0b       	sbc	r30, r20
    9658:	f5 0b       	sbc	r31, r21

0000965a <__udivmodsi4_ep>:
    965a:	66 1f       	adc	r22, r22
    965c:	77 1f       	adc	r23, r23
    965e:	88 1f       	adc	r24, r24
    9660:	99 1f       	adc	r25, r25
    9662:	1a 94       	dec	r1
    9664:	69 f7       	brne	.-38     	; 0x9640 <__udivmodsi4_loop>
    9666:	60 95       	com	r22
    9668:	70 95       	com	r23
    966a:	80 95       	com	r24
    966c:	90 95       	com	r25
    966e:	9b 01       	movw	r18, r22
    9670:	ac 01       	movw	r20, r24
    9672:	bd 01       	movw	r22, r26
    9674:	cf 01       	movw	r24, r30
    9676:	08 95       	ret

00009678 <__divmodsi4>:
    9678:	05 2e       	mov	r0, r21
    967a:	97 fb       	bst	r25, 7
    967c:	16 f4       	brtc	.+4      	; 0x9682 <__divmodsi4+0xa>
    967e:	00 94       	com	r0
    9680:	0f d0       	rcall	.+30     	; 0x96a0 <__negsi2>
    9682:	57 fd       	sbrc	r21, 7
    9684:	05 d0       	rcall	.+10     	; 0x9690 <__divmodsi4_neg2>
    9686:	d6 df       	rcall	.-84     	; 0x9634 <__udivmodsi4>
    9688:	07 fc       	sbrc	r0, 7
    968a:	02 d0       	rcall	.+4      	; 0x9690 <__divmodsi4_neg2>
    968c:	46 f4       	brtc	.+16     	; 0x969e <__divmodsi4_exit>
    968e:	08 c0       	rjmp	.+16     	; 0x96a0 <__negsi2>

00009690 <__divmodsi4_neg2>:
    9690:	50 95       	com	r21
    9692:	40 95       	com	r20
    9694:	30 95       	com	r19
    9696:	21 95       	neg	r18
    9698:	3f 4f       	sbci	r19, 0xFF	; 255
    969a:	4f 4f       	sbci	r20, 0xFF	; 255
    969c:	5f 4f       	sbci	r21, 0xFF	; 255

0000969e <__divmodsi4_exit>:
    969e:	08 95       	ret

000096a0 <__negsi2>:
    96a0:	90 95       	com	r25
    96a2:	80 95       	com	r24
    96a4:	70 95       	com	r23
    96a6:	61 95       	neg	r22
    96a8:	7f 4f       	sbci	r23, 0xFF	; 255
    96aa:	8f 4f       	sbci	r24, 0xFF	; 255
    96ac:	9f 4f       	sbci	r25, 0xFF	; 255
    96ae:	08 95       	ret

000096b0 <__tablejump2__>:
    96b0:	ee 0f       	add	r30, r30
    96b2:	ff 1f       	adc	r31, r31
    96b4:	88 1f       	adc	r24, r24
    96b6:	8b bf       	out	0x3b, r24	; 59
    96b8:	07 90       	elpm	r0, Z+
    96ba:	f6 91       	elpm	r31, Z
    96bc:	e0 2d       	mov	r30, r0
    96be:	19 94       	eijmp

000096c0 <__muluhisi3>:
    96c0:	09 d0       	rcall	.+18     	; 0x96d4 <__umulhisi3>
    96c2:	a5 9f       	mul	r26, r21
    96c4:	90 0d       	add	r25, r0
    96c6:	b4 9f       	mul	r27, r20
    96c8:	90 0d       	add	r25, r0
    96ca:	a4 9f       	mul	r26, r20
    96cc:	80 0d       	add	r24, r0
    96ce:	91 1d       	adc	r25, r1
    96d0:	11 24       	eor	r1, r1
    96d2:	08 95       	ret

000096d4 <__umulhisi3>:
    96d4:	a2 9f       	mul	r26, r18
    96d6:	b0 01       	movw	r22, r0
    96d8:	b3 9f       	mul	r27, r19
    96da:	c0 01       	movw	r24, r0
    96dc:	a3 9f       	mul	r26, r19
    96de:	70 0d       	add	r23, r0
    96e0:	81 1d       	adc	r24, r1
    96e2:	11 24       	eor	r1, r1
    96e4:	91 1d       	adc	r25, r1
    96e6:	b2 9f       	mul	r27, r18
    96e8:	70 0d       	add	r23, r0
    96ea:	81 1d       	adc	r24, r1
    96ec:	11 24       	eor	r1, r1
    96ee:	91 1d       	adc	r25, r1
    96f0:	08 95       	ret

000096f2 <malloc>:
    96f2:	cf 93       	push	r28
    96f4:	df 93       	push	r29
    96f6:	82 30       	cpi	r24, 0x02	; 2
    96f8:	91 05       	cpc	r25, r1
    96fa:	10 f4       	brcc	.+4      	; 0x9700 <malloc+0xe>
    96fc:	82 e0       	ldi	r24, 0x02	; 2
    96fe:	90 e0       	ldi	r25, 0x00	; 0
    9700:	e0 91 d4 0a 	lds	r30, 0x0AD4	; 0x800ad4 <__flp>
    9704:	f0 91 d5 0a 	lds	r31, 0x0AD5	; 0x800ad5 <__flp+0x1>
    9708:	20 e0       	ldi	r18, 0x00	; 0
    970a:	30 e0       	ldi	r19, 0x00	; 0
    970c:	c0 e0       	ldi	r28, 0x00	; 0
    970e:	d0 e0       	ldi	r29, 0x00	; 0
    9710:	30 97       	sbiw	r30, 0x00	; 0
    9712:	11 f1       	breq	.+68     	; 0x9758 <malloc+0x66>
    9714:	40 81       	ld	r20, Z
    9716:	51 81       	ldd	r21, Z+1	; 0x01
    9718:	48 17       	cp	r20, r24
    971a:	59 07       	cpc	r21, r25
    971c:	c0 f0       	brcs	.+48     	; 0x974e <malloc+0x5c>
    971e:	48 17       	cp	r20, r24
    9720:	59 07       	cpc	r21, r25
    9722:	61 f4       	brne	.+24     	; 0x973c <malloc+0x4a>
    9724:	82 81       	ldd	r24, Z+2	; 0x02
    9726:	93 81       	ldd	r25, Z+3	; 0x03
    9728:	20 97       	sbiw	r28, 0x00	; 0
    972a:	19 f0       	breq	.+6      	; 0x9732 <malloc+0x40>
    972c:	9b 83       	std	Y+3, r25	; 0x03
    972e:	8a 83       	std	Y+2, r24	; 0x02
    9730:	2b c0       	rjmp	.+86     	; 0x9788 <malloc+0x96>
    9732:	90 93 d5 0a 	sts	0x0AD5, r25	; 0x800ad5 <__flp+0x1>
    9736:	80 93 d4 0a 	sts	0x0AD4, r24	; 0x800ad4 <__flp>
    973a:	26 c0       	rjmp	.+76     	; 0x9788 <malloc+0x96>
    973c:	21 15       	cp	r18, r1
    973e:	31 05       	cpc	r19, r1
    9740:	19 f0       	breq	.+6      	; 0x9748 <malloc+0x56>
    9742:	42 17       	cp	r20, r18
    9744:	53 07       	cpc	r21, r19
    9746:	18 f4       	brcc	.+6      	; 0x974e <malloc+0x5c>
    9748:	9a 01       	movw	r18, r20
    974a:	be 01       	movw	r22, r28
    974c:	df 01       	movw	r26, r30
    974e:	ef 01       	movw	r28, r30
    9750:	02 80       	ldd	r0, Z+2	; 0x02
    9752:	f3 81       	ldd	r31, Z+3	; 0x03
    9754:	e0 2d       	mov	r30, r0
    9756:	dc cf       	rjmp	.-72     	; 0x9710 <malloc+0x1e>
    9758:	21 15       	cp	r18, r1
    975a:	31 05       	cpc	r19, r1
    975c:	09 f1       	breq	.+66     	; 0x97a0 <malloc+0xae>
    975e:	28 1b       	sub	r18, r24
    9760:	39 0b       	sbc	r19, r25
    9762:	24 30       	cpi	r18, 0x04	; 4
    9764:	31 05       	cpc	r19, r1
    9766:	90 f4       	brcc	.+36     	; 0x978c <malloc+0x9a>
    9768:	12 96       	adiw	r26, 0x02	; 2
    976a:	8d 91       	ld	r24, X+
    976c:	9c 91       	ld	r25, X
    976e:	13 97       	sbiw	r26, 0x03	; 3
    9770:	61 15       	cp	r22, r1
    9772:	71 05       	cpc	r23, r1
    9774:	21 f0       	breq	.+8      	; 0x977e <malloc+0x8c>
    9776:	fb 01       	movw	r30, r22
    9778:	93 83       	std	Z+3, r25	; 0x03
    977a:	82 83       	std	Z+2, r24	; 0x02
    977c:	04 c0       	rjmp	.+8      	; 0x9786 <malloc+0x94>
    977e:	90 93 d5 0a 	sts	0x0AD5, r25	; 0x800ad5 <__flp+0x1>
    9782:	80 93 d4 0a 	sts	0x0AD4, r24	; 0x800ad4 <__flp>
    9786:	fd 01       	movw	r30, r26
    9788:	32 96       	adiw	r30, 0x02	; 2
    978a:	44 c0       	rjmp	.+136    	; 0x9814 <malloc+0x122>
    978c:	fd 01       	movw	r30, r26
    978e:	e2 0f       	add	r30, r18
    9790:	f3 1f       	adc	r31, r19
    9792:	81 93       	st	Z+, r24
    9794:	91 93       	st	Z+, r25
    9796:	22 50       	subi	r18, 0x02	; 2
    9798:	31 09       	sbc	r19, r1
    979a:	2d 93       	st	X+, r18
    979c:	3c 93       	st	X, r19
    979e:	3a c0       	rjmp	.+116    	; 0x9814 <malloc+0x122>
    97a0:	20 91 d2 0a 	lds	r18, 0x0AD2	; 0x800ad2 <__brkval>
    97a4:	30 91 d3 0a 	lds	r19, 0x0AD3	; 0x800ad3 <__brkval+0x1>
    97a8:	23 2b       	or	r18, r19
    97aa:	41 f4       	brne	.+16     	; 0x97bc <malloc+0xca>
    97ac:	20 91 02 02 	lds	r18, 0x0202	; 0x800202 <__malloc_heap_start>
    97b0:	30 91 03 02 	lds	r19, 0x0203	; 0x800203 <__malloc_heap_start+0x1>
    97b4:	30 93 d3 0a 	sts	0x0AD3, r19	; 0x800ad3 <__brkval+0x1>
    97b8:	20 93 d2 0a 	sts	0x0AD2, r18	; 0x800ad2 <__brkval>
    97bc:	20 91 00 02 	lds	r18, 0x0200	; 0x800200 <__data_start>
    97c0:	30 91 01 02 	lds	r19, 0x0201	; 0x800201 <__data_start+0x1>
    97c4:	21 15       	cp	r18, r1
    97c6:	31 05       	cpc	r19, r1
    97c8:	41 f4       	brne	.+16     	; 0x97da <malloc+0xe8>
    97ca:	2d b7       	in	r18, 0x3d	; 61
    97cc:	3e b7       	in	r19, 0x3e	; 62
    97ce:	40 91 04 02 	lds	r20, 0x0204	; 0x800204 <__malloc_margin>
    97d2:	50 91 05 02 	lds	r21, 0x0205	; 0x800205 <__malloc_margin+0x1>
    97d6:	24 1b       	sub	r18, r20
    97d8:	35 0b       	sbc	r19, r21
    97da:	e0 91 d2 0a 	lds	r30, 0x0AD2	; 0x800ad2 <__brkval>
    97de:	f0 91 d3 0a 	lds	r31, 0x0AD3	; 0x800ad3 <__brkval+0x1>
    97e2:	e2 17       	cp	r30, r18
    97e4:	f3 07       	cpc	r31, r19
    97e6:	a0 f4       	brcc	.+40     	; 0x9810 <malloc+0x11e>
    97e8:	2e 1b       	sub	r18, r30
    97ea:	3f 0b       	sbc	r19, r31
    97ec:	28 17       	cp	r18, r24
    97ee:	39 07       	cpc	r19, r25
    97f0:	78 f0       	brcs	.+30     	; 0x9810 <malloc+0x11e>
    97f2:	ac 01       	movw	r20, r24
    97f4:	4e 5f       	subi	r20, 0xFE	; 254
    97f6:	5f 4f       	sbci	r21, 0xFF	; 255
    97f8:	24 17       	cp	r18, r20
    97fa:	35 07       	cpc	r19, r21
    97fc:	48 f0       	brcs	.+18     	; 0x9810 <malloc+0x11e>
    97fe:	4e 0f       	add	r20, r30
    9800:	5f 1f       	adc	r21, r31
    9802:	50 93 d3 0a 	sts	0x0AD3, r21	; 0x800ad3 <__brkval+0x1>
    9806:	40 93 d2 0a 	sts	0x0AD2, r20	; 0x800ad2 <__brkval>
    980a:	81 93       	st	Z+, r24
    980c:	91 93       	st	Z+, r25
    980e:	02 c0       	rjmp	.+4      	; 0x9814 <malloc+0x122>
    9810:	e0 e0       	ldi	r30, 0x00	; 0
    9812:	f0 e0       	ldi	r31, 0x00	; 0
    9814:	cf 01       	movw	r24, r30
    9816:	df 91       	pop	r29
    9818:	cf 91       	pop	r28
    981a:	08 95       	ret

0000981c <free>:
    981c:	0f 93       	push	r16
    981e:	1f 93       	push	r17
    9820:	cf 93       	push	r28
    9822:	df 93       	push	r29
    9824:	00 97       	sbiw	r24, 0x00	; 0
    9826:	09 f4       	brne	.+2      	; 0x982a <free+0xe>
    9828:	8c c0       	rjmp	.+280    	; 0x9942 <free+0x126>
    982a:	fc 01       	movw	r30, r24
    982c:	32 97       	sbiw	r30, 0x02	; 2
    982e:	13 82       	std	Z+3, r1	; 0x03
    9830:	12 82       	std	Z+2, r1	; 0x02
    9832:	00 91 d4 0a 	lds	r16, 0x0AD4	; 0x800ad4 <__flp>
    9836:	10 91 d5 0a 	lds	r17, 0x0AD5	; 0x800ad5 <__flp+0x1>
    983a:	01 15       	cp	r16, r1
    983c:	11 05       	cpc	r17, r1
    983e:	81 f4       	brne	.+32     	; 0x9860 <free+0x44>
    9840:	20 81       	ld	r18, Z
    9842:	31 81       	ldd	r19, Z+1	; 0x01
    9844:	82 0f       	add	r24, r18
    9846:	93 1f       	adc	r25, r19
    9848:	20 91 d2 0a 	lds	r18, 0x0AD2	; 0x800ad2 <__brkval>
    984c:	30 91 d3 0a 	lds	r19, 0x0AD3	; 0x800ad3 <__brkval+0x1>
    9850:	28 17       	cp	r18, r24
    9852:	39 07       	cpc	r19, r25
    9854:	79 f5       	brne	.+94     	; 0x98b4 <free+0x98>
    9856:	f0 93 d3 0a 	sts	0x0AD3, r31	; 0x800ad3 <__brkval+0x1>
    985a:	e0 93 d2 0a 	sts	0x0AD2, r30	; 0x800ad2 <__brkval>
    985e:	71 c0       	rjmp	.+226    	; 0x9942 <free+0x126>
    9860:	d8 01       	movw	r26, r16
    9862:	40 e0       	ldi	r20, 0x00	; 0
    9864:	50 e0       	ldi	r21, 0x00	; 0
    9866:	ae 17       	cp	r26, r30
    9868:	bf 07       	cpc	r27, r31
    986a:	50 f4       	brcc	.+20     	; 0x9880 <free+0x64>
    986c:	12 96       	adiw	r26, 0x02	; 2
    986e:	2d 91       	ld	r18, X+
    9870:	3c 91       	ld	r19, X
    9872:	13 97       	sbiw	r26, 0x03	; 3
    9874:	ad 01       	movw	r20, r26
    9876:	21 15       	cp	r18, r1
    9878:	31 05       	cpc	r19, r1
    987a:	09 f1       	breq	.+66     	; 0x98be <free+0xa2>
    987c:	d9 01       	movw	r26, r18
    987e:	f3 cf       	rjmp	.-26     	; 0x9866 <free+0x4a>
    9880:	9d 01       	movw	r18, r26
    9882:	da 01       	movw	r26, r20
    9884:	33 83       	std	Z+3, r19	; 0x03
    9886:	22 83       	std	Z+2, r18	; 0x02
    9888:	60 81       	ld	r22, Z
    988a:	71 81       	ldd	r23, Z+1	; 0x01
    988c:	86 0f       	add	r24, r22
    988e:	97 1f       	adc	r25, r23
    9890:	82 17       	cp	r24, r18
    9892:	93 07       	cpc	r25, r19
    9894:	69 f4       	brne	.+26     	; 0x98b0 <free+0x94>
    9896:	ec 01       	movw	r28, r24
    9898:	28 81       	ld	r18, Y
    989a:	39 81       	ldd	r19, Y+1	; 0x01
    989c:	26 0f       	add	r18, r22
    989e:	37 1f       	adc	r19, r23
    98a0:	2e 5f       	subi	r18, 0xFE	; 254
    98a2:	3f 4f       	sbci	r19, 0xFF	; 255
    98a4:	31 83       	std	Z+1, r19	; 0x01
    98a6:	20 83       	st	Z, r18
    98a8:	8a 81       	ldd	r24, Y+2	; 0x02
    98aa:	9b 81       	ldd	r25, Y+3	; 0x03
    98ac:	93 83       	std	Z+3, r25	; 0x03
    98ae:	82 83       	std	Z+2, r24	; 0x02
    98b0:	45 2b       	or	r20, r21
    98b2:	29 f4       	brne	.+10     	; 0x98be <free+0xa2>
    98b4:	f0 93 d5 0a 	sts	0x0AD5, r31	; 0x800ad5 <__flp+0x1>
    98b8:	e0 93 d4 0a 	sts	0x0AD4, r30	; 0x800ad4 <__flp>
    98bc:	42 c0       	rjmp	.+132    	; 0x9942 <free+0x126>
    98be:	13 96       	adiw	r26, 0x03	; 3
    98c0:	fc 93       	st	X, r31
    98c2:	ee 93       	st	-X, r30
    98c4:	12 97       	sbiw	r26, 0x02	; 2
    98c6:	ed 01       	movw	r28, r26
    98c8:	49 91       	ld	r20, Y+
    98ca:	59 91       	ld	r21, Y+
    98cc:	9e 01       	movw	r18, r28
    98ce:	24 0f       	add	r18, r20
    98d0:	35 1f       	adc	r19, r21
    98d2:	e2 17       	cp	r30, r18
    98d4:	f3 07       	cpc	r31, r19
    98d6:	71 f4       	brne	.+28     	; 0x98f4 <free+0xd8>
    98d8:	80 81       	ld	r24, Z
    98da:	91 81       	ldd	r25, Z+1	; 0x01
    98dc:	84 0f       	add	r24, r20
    98de:	95 1f       	adc	r25, r21
    98e0:	02 96       	adiw	r24, 0x02	; 2
    98e2:	11 96       	adiw	r26, 0x01	; 1
    98e4:	9c 93       	st	X, r25
    98e6:	8e 93       	st	-X, r24
    98e8:	82 81       	ldd	r24, Z+2	; 0x02
    98ea:	93 81       	ldd	r25, Z+3	; 0x03
    98ec:	13 96       	adiw	r26, 0x03	; 3
    98ee:	9c 93       	st	X, r25
    98f0:	8e 93       	st	-X, r24
    98f2:	12 97       	sbiw	r26, 0x02	; 2
    98f4:	e0 e0       	ldi	r30, 0x00	; 0
    98f6:	f0 e0       	ldi	r31, 0x00	; 0
    98f8:	d8 01       	movw	r26, r16
    98fa:	12 96       	adiw	r26, 0x02	; 2
    98fc:	8d 91       	ld	r24, X+
    98fe:	9c 91       	ld	r25, X
    9900:	13 97       	sbiw	r26, 0x03	; 3
    9902:	00 97       	sbiw	r24, 0x00	; 0
    9904:	19 f0       	breq	.+6      	; 0x990c <free+0xf0>
    9906:	f8 01       	movw	r30, r16
    9908:	8c 01       	movw	r16, r24
    990a:	f6 cf       	rjmp	.-20     	; 0x98f8 <free+0xdc>
    990c:	8d 91       	ld	r24, X+
    990e:	9c 91       	ld	r25, X
    9910:	98 01       	movw	r18, r16
    9912:	2e 5f       	subi	r18, 0xFE	; 254
    9914:	3f 4f       	sbci	r19, 0xFF	; 255
    9916:	82 0f       	add	r24, r18
    9918:	93 1f       	adc	r25, r19
    991a:	20 91 d2 0a 	lds	r18, 0x0AD2	; 0x800ad2 <__brkval>
    991e:	30 91 d3 0a 	lds	r19, 0x0AD3	; 0x800ad3 <__brkval+0x1>
    9922:	28 17       	cp	r18, r24
    9924:	39 07       	cpc	r19, r25
    9926:	69 f4       	brne	.+26     	; 0x9942 <free+0x126>
    9928:	30 97       	sbiw	r30, 0x00	; 0
    992a:	29 f4       	brne	.+10     	; 0x9936 <free+0x11a>
    992c:	10 92 d5 0a 	sts	0x0AD5, r1	; 0x800ad5 <__flp+0x1>
    9930:	10 92 d4 0a 	sts	0x0AD4, r1	; 0x800ad4 <__flp>
    9934:	02 c0       	rjmp	.+4      	; 0x993a <free+0x11e>
    9936:	13 82       	std	Z+3, r1	; 0x03
    9938:	12 82       	std	Z+2, r1	; 0x02
    993a:	10 93 d3 0a 	sts	0x0AD3, r17	; 0x800ad3 <__brkval+0x1>
    993e:	00 93 d2 0a 	sts	0x0AD2, r16	; 0x800ad2 <__brkval>
    9942:	df 91       	pop	r29
    9944:	cf 91       	pop	r28
    9946:	1f 91       	pop	r17
    9948:	0f 91       	pop	r16
    994a:	08 95       	ret

0000994c <realloc>:
    994c:	6f 92       	push	r6
    994e:	7f 92       	push	r7
    9950:	8f 92       	push	r8
    9952:	9f 92       	push	r9
    9954:	af 92       	push	r10
    9956:	bf 92       	push	r11
    9958:	cf 92       	push	r12
    995a:	df 92       	push	r13
    995c:	ef 92       	push	r14
    995e:	ff 92       	push	r15
    9960:	0f 93       	push	r16
    9962:	1f 93       	push	r17
    9964:	cf 93       	push	r28
    9966:	df 93       	push	r29
    9968:	ec 01       	movw	r28, r24
    996a:	00 97       	sbiw	r24, 0x00	; 0
    996c:	81 f4       	brne	.+32     	; 0x998e <realloc+0x42>
    996e:	cb 01       	movw	r24, r22
    9970:	df 91       	pop	r29
    9972:	cf 91       	pop	r28
    9974:	1f 91       	pop	r17
    9976:	0f 91       	pop	r16
    9978:	ff 90       	pop	r15
    997a:	ef 90       	pop	r14
    997c:	df 90       	pop	r13
    997e:	cf 90       	pop	r12
    9980:	bf 90       	pop	r11
    9982:	af 90       	pop	r10
    9984:	9f 90       	pop	r9
    9986:	8f 90       	pop	r8
    9988:	7f 90       	pop	r7
    998a:	6f 90       	pop	r6
    998c:	b2 ce       	rjmp	.-668    	; 0x96f2 <malloc>
    998e:	fc 01       	movw	r30, r24
    9990:	e6 0f       	add	r30, r22
    9992:	f7 1f       	adc	r31, r23
    9994:	9c 01       	movw	r18, r24
    9996:	22 50       	subi	r18, 0x02	; 2
    9998:	31 09       	sbc	r19, r1
    999a:	e2 17       	cp	r30, r18
    999c:	f3 07       	cpc	r31, r19
    999e:	08 f4       	brcc	.+2      	; 0x99a2 <realloc+0x56>
    99a0:	a8 c0       	rjmp	.+336    	; 0x9af2 <realloc+0x1a6>
    99a2:	d9 01       	movw	r26, r18
    99a4:	0d 91       	ld	r16, X+
    99a6:	1c 91       	ld	r17, X
    99a8:	11 97       	sbiw	r26, 0x01	; 1
    99aa:	06 17       	cp	r16, r22
    99ac:	17 07       	cpc	r17, r23
    99ae:	a8 f0       	brcs	.+42     	; 0x99da <realloc+0x8e>
    99b0:	05 30       	cpi	r16, 0x05	; 5
    99b2:	11 05       	cpc	r17, r1
    99b4:	08 f4       	brcc	.+2      	; 0x99b8 <realloc+0x6c>
    99b6:	9b c0       	rjmp	.+310    	; 0x9aee <realloc+0x1a2>
    99b8:	c8 01       	movw	r24, r16
    99ba:	04 97       	sbiw	r24, 0x04	; 4
    99bc:	86 17       	cp	r24, r22
    99be:	97 07       	cpc	r25, r23
    99c0:	08 f4       	brcc	.+2      	; 0x99c4 <realloc+0x78>
    99c2:	95 c0       	rjmp	.+298    	; 0x9aee <realloc+0x1a2>
    99c4:	02 50       	subi	r16, 0x02	; 2
    99c6:	11 09       	sbc	r17, r1
    99c8:	06 1b       	sub	r16, r22
    99ca:	17 0b       	sbc	r17, r23
    99cc:	01 93       	st	Z+, r16
    99ce:	11 93       	st	Z+, r17
    99d0:	6d 93       	st	X+, r22
    99d2:	7c 93       	st	X, r23
    99d4:	cf 01       	movw	r24, r30
    99d6:	22 df       	rcall	.-444    	; 0x981c <free>
    99d8:	8a c0       	rjmp	.+276    	; 0x9aee <realloc+0x1a2>
    99da:	5b 01       	movw	r10, r22
    99dc:	a0 1a       	sub	r10, r16
    99de:	b1 0a       	sbc	r11, r17
    99e0:	4c 01       	movw	r8, r24
    99e2:	80 0e       	add	r8, r16
    99e4:	91 1e       	adc	r9, r17
    99e6:	a0 91 d4 0a 	lds	r26, 0x0AD4	; 0x800ad4 <__flp>
    99ea:	b0 91 d5 0a 	lds	r27, 0x0AD5	; 0x800ad5 <__flp+0x1>
    99ee:	40 e0       	ldi	r20, 0x00	; 0
    99f0:	50 e0       	ldi	r21, 0x00	; 0
    99f2:	e1 2c       	mov	r14, r1
    99f4:	f1 2c       	mov	r15, r1
    99f6:	10 97       	sbiw	r26, 0x00	; 0
    99f8:	09 f4       	brne	.+2      	; 0x99fc <realloc+0xb0>
    99fa:	4a c0       	rjmp	.+148    	; 0x9a90 <realloc+0x144>
    99fc:	a8 15       	cp	r26, r8
    99fe:	b9 05       	cpc	r27, r9
    9a00:	d1 f5       	brne	.+116    	; 0x9a76 <realloc+0x12a>
    9a02:	6d 90       	ld	r6, X+
    9a04:	7c 90       	ld	r7, X
    9a06:	11 97       	sbiw	r26, 0x01	; 1
    9a08:	63 01       	movw	r12, r6
    9a0a:	82 e0       	ldi	r24, 0x02	; 2
    9a0c:	c8 0e       	add	r12, r24
    9a0e:	d1 1c       	adc	r13, r1
    9a10:	ca 14       	cp	r12, r10
    9a12:	db 04       	cpc	r13, r11
    9a14:	80 f1       	brcs	.+96     	; 0x9a76 <realloc+0x12a>
    9a16:	a3 01       	movw	r20, r6
    9a18:	4a 19       	sub	r20, r10
    9a1a:	5b 09       	sbc	r21, r11
    9a1c:	6a 01       	movw	r12, r20
    9a1e:	82 e0       	ldi	r24, 0x02	; 2
    9a20:	c8 0e       	add	r12, r24
    9a22:	d1 1c       	adc	r13, r1
    9a24:	12 96       	adiw	r26, 0x02	; 2
    9a26:	bc 90       	ld	r11, X
    9a28:	12 97       	sbiw	r26, 0x02	; 2
    9a2a:	13 96       	adiw	r26, 0x03	; 3
    9a2c:	ac 91       	ld	r26, X
    9a2e:	b5 e0       	ldi	r27, 0x05	; 5
    9a30:	cb 16       	cp	r12, r27
    9a32:	d1 04       	cpc	r13, r1
    9a34:	40 f0       	brcs	.+16     	; 0x9a46 <realloc+0xfa>
    9a36:	b2 82       	std	Z+2, r11	; 0x02
    9a38:	a3 83       	std	Z+3, r26	; 0x03
    9a3a:	51 83       	std	Z+1, r21	; 0x01
    9a3c:	40 83       	st	Z, r20
    9a3e:	d9 01       	movw	r26, r18
    9a40:	6d 93       	st	X+, r22
    9a42:	7c 93       	st	X, r23
    9a44:	0a c0       	rjmp	.+20     	; 0x9a5a <realloc+0x10e>
    9a46:	0e 5f       	subi	r16, 0xFE	; 254
    9a48:	1f 4f       	sbci	r17, 0xFF	; 255
    9a4a:	c3 01       	movw	r24, r6
    9a4c:	80 0f       	add	r24, r16
    9a4e:	91 1f       	adc	r25, r17
    9a50:	f9 01       	movw	r30, r18
    9a52:	91 83       	std	Z+1, r25	; 0x01
    9a54:	80 83       	st	Z, r24
    9a56:	eb 2d       	mov	r30, r11
    9a58:	fa 2f       	mov	r31, r26
    9a5a:	e1 14       	cp	r14, r1
    9a5c:	f1 04       	cpc	r15, r1
    9a5e:	31 f0       	breq	.+12     	; 0x9a6c <realloc+0x120>
    9a60:	d7 01       	movw	r26, r14
    9a62:	13 96       	adiw	r26, 0x03	; 3
    9a64:	fc 93       	st	X, r31
    9a66:	ee 93       	st	-X, r30
    9a68:	12 97       	sbiw	r26, 0x02	; 2
    9a6a:	41 c0       	rjmp	.+130    	; 0x9aee <realloc+0x1a2>
    9a6c:	f0 93 d5 0a 	sts	0x0AD5, r31	; 0x800ad5 <__flp+0x1>
    9a70:	e0 93 d4 0a 	sts	0x0AD4, r30	; 0x800ad4 <__flp>
    9a74:	3c c0       	rjmp	.+120    	; 0x9aee <realloc+0x1a2>
    9a76:	8d 91       	ld	r24, X+
    9a78:	9c 91       	ld	r25, X
    9a7a:	11 97       	sbiw	r26, 0x01	; 1
    9a7c:	48 17       	cp	r20, r24
    9a7e:	59 07       	cpc	r21, r25
    9a80:	08 f4       	brcc	.+2      	; 0x9a84 <realloc+0x138>
    9a82:	ac 01       	movw	r20, r24
    9a84:	7d 01       	movw	r14, r26
    9a86:	12 96       	adiw	r26, 0x02	; 2
    9a88:	0d 90       	ld	r0, X+
    9a8a:	bc 91       	ld	r27, X
    9a8c:	a0 2d       	mov	r26, r0
    9a8e:	b3 cf       	rjmp	.-154    	; 0x99f6 <realloc+0xaa>
    9a90:	80 91 d2 0a 	lds	r24, 0x0AD2	; 0x800ad2 <__brkval>
    9a94:	90 91 d3 0a 	lds	r25, 0x0AD3	; 0x800ad3 <__brkval+0x1>
    9a98:	88 15       	cp	r24, r8
    9a9a:	99 05       	cpc	r25, r9
    9a9c:	e1 f4       	brne	.+56     	; 0x9ad6 <realloc+0x18a>
    9a9e:	46 17       	cp	r20, r22
    9aa0:	57 07       	cpc	r21, r23
    9aa2:	c8 f4       	brcc	.+50     	; 0x9ad6 <realloc+0x18a>
    9aa4:	80 91 00 02 	lds	r24, 0x0200	; 0x800200 <__data_start>
    9aa8:	90 91 01 02 	lds	r25, 0x0201	; 0x800201 <__data_start+0x1>
    9aac:	00 97       	sbiw	r24, 0x00	; 0
    9aae:	41 f4       	brne	.+16     	; 0x9ac0 <realloc+0x174>
    9ab0:	8d b7       	in	r24, 0x3d	; 61
    9ab2:	9e b7       	in	r25, 0x3e	; 62
    9ab4:	40 91 04 02 	lds	r20, 0x0204	; 0x800204 <__malloc_margin>
    9ab8:	50 91 05 02 	lds	r21, 0x0205	; 0x800205 <__malloc_margin+0x1>
    9abc:	84 1b       	sub	r24, r20
    9abe:	95 0b       	sbc	r25, r21
    9ac0:	e8 17       	cp	r30, r24
    9ac2:	f9 07       	cpc	r31, r25
    9ac4:	b0 f4       	brcc	.+44     	; 0x9af2 <realloc+0x1a6>
    9ac6:	f0 93 d3 0a 	sts	0x0AD3, r31	; 0x800ad3 <__brkval+0x1>
    9aca:	e0 93 d2 0a 	sts	0x0AD2, r30	; 0x800ad2 <__brkval>
    9ace:	f9 01       	movw	r30, r18
    9ad0:	71 83       	std	Z+1, r23	; 0x01
    9ad2:	60 83       	st	Z, r22
    9ad4:	0c c0       	rjmp	.+24     	; 0x9aee <realloc+0x1a2>
    9ad6:	cb 01       	movw	r24, r22
    9ad8:	0c de       	rcall	.-1000   	; 0x96f2 <malloc>
    9ada:	7c 01       	movw	r14, r24
    9adc:	00 97       	sbiw	r24, 0x00	; 0
    9ade:	49 f0       	breq	.+18     	; 0x9af2 <realloc+0x1a6>
    9ae0:	a8 01       	movw	r20, r16
    9ae2:	be 01       	movw	r22, r28
    9ae4:	17 d0       	rcall	.+46     	; 0x9b14 <memcpy>
    9ae6:	ce 01       	movw	r24, r28
    9ae8:	99 de       	rcall	.-718    	; 0x981c <free>
    9aea:	c7 01       	movw	r24, r14
    9aec:	04 c0       	rjmp	.+8      	; 0x9af6 <realloc+0x1aa>
    9aee:	ce 01       	movw	r24, r28
    9af0:	02 c0       	rjmp	.+4      	; 0x9af6 <realloc+0x1aa>
    9af2:	80 e0       	ldi	r24, 0x00	; 0
    9af4:	90 e0       	ldi	r25, 0x00	; 0
    9af6:	df 91       	pop	r29
    9af8:	cf 91       	pop	r28
    9afa:	1f 91       	pop	r17
    9afc:	0f 91       	pop	r16
    9afe:	ff 90       	pop	r15
    9b00:	ef 90       	pop	r14
    9b02:	df 90       	pop	r13
    9b04:	cf 90       	pop	r12
    9b06:	bf 90       	pop	r11
    9b08:	af 90       	pop	r10
    9b0a:	9f 90       	pop	r9
    9b0c:	8f 90       	pop	r8
    9b0e:	7f 90       	pop	r7
    9b10:	6f 90       	pop	r6
    9b12:	08 95       	ret

00009b14 <memcpy>:
    9b14:	fb 01       	movw	r30, r22
    9b16:	dc 01       	movw	r26, r24
    9b18:	02 c0       	rjmp	.+4      	; 0x9b1e <memcpy+0xa>
    9b1a:	01 90       	ld	r0, Z+
    9b1c:	0d 92       	st	X+, r0
    9b1e:	41 50       	subi	r20, 0x01	; 1
    9b20:	50 40       	sbci	r21, 0x00	; 0
    9b22:	d8 f7       	brcc	.-10     	; 0x9b1a <memcpy+0x6>
    9b24:	08 95       	ret

00009b26 <strcat>:
    9b26:	fb 01       	movw	r30, r22
    9b28:	dc 01       	movw	r26, r24
    9b2a:	0d 90       	ld	r0, X+
    9b2c:	00 20       	and	r0, r0
    9b2e:	e9 f7       	brne	.-6      	; 0x9b2a <strcat+0x4>
    9b30:	11 97       	sbiw	r26, 0x01	; 1
    9b32:	01 90       	ld	r0, Z+
    9b34:	0d 92       	st	X+, r0
    9b36:	00 20       	and	r0, r0
    9b38:	e1 f7       	brne	.-8      	; 0x9b32 <strcat+0xc>
    9b3a:	08 95       	ret

00009b3c <strcpy>:
    9b3c:	fb 01       	movw	r30, r22
    9b3e:	dc 01       	movw	r26, r24
    9b40:	01 90       	ld	r0, Z+
    9b42:	0d 92       	st	X+, r0
    9b44:	00 20       	and	r0, r0
    9b46:	e1 f7       	brne	.-8      	; 0x9b40 <strcpy+0x4>
    9b48:	08 95       	ret

00009b4a <strncpy>:
    9b4a:	fb 01       	movw	r30, r22
    9b4c:	dc 01       	movw	r26, r24
    9b4e:	41 50       	subi	r20, 0x01	; 1
    9b50:	50 40       	sbci	r21, 0x00	; 0
    9b52:	48 f0       	brcs	.+18     	; 0x9b66 <strncpy+0x1c>
    9b54:	01 90       	ld	r0, Z+
    9b56:	0d 92       	st	X+, r0
    9b58:	00 20       	and	r0, r0
    9b5a:	c9 f7       	brne	.-14     	; 0x9b4e <strncpy+0x4>
    9b5c:	01 c0       	rjmp	.+2      	; 0x9b60 <strncpy+0x16>
    9b5e:	1d 92       	st	X+, r1
    9b60:	41 50       	subi	r20, 0x01	; 1
    9b62:	50 40       	sbci	r21, 0x00	; 0
    9b64:	e0 f7       	brcc	.-8      	; 0x9b5e <strncpy+0x14>
    9b66:	08 95       	ret

00009b68 <__itoa_ncheck>:
    9b68:	bb 27       	eor	r27, r27
    9b6a:	4a 30       	cpi	r20, 0x0A	; 10
    9b6c:	31 f4       	brne	.+12     	; 0x9b7a <__itoa_ncheck+0x12>
    9b6e:	99 23       	and	r25, r25
    9b70:	22 f4       	brpl	.+8      	; 0x9b7a <__itoa_ncheck+0x12>
    9b72:	bd e2       	ldi	r27, 0x2D	; 45
    9b74:	90 95       	com	r25
    9b76:	81 95       	neg	r24
    9b78:	9f 4f       	sbci	r25, 0xFF	; 255
    9b7a:	01 c0       	rjmp	.+2      	; 0x9b7e <__utoa_common>

00009b7c <__utoa_ncheck>:
    9b7c:	bb 27       	eor	r27, r27

00009b7e <__utoa_common>:
    9b7e:	fb 01       	movw	r30, r22
    9b80:	55 27       	eor	r21, r21
    9b82:	aa 27       	eor	r26, r26
    9b84:	88 0f       	add	r24, r24
    9b86:	99 1f       	adc	r25, r25
    9b88:	aa 1f       	adc	r26, r26
    9b8a:	a4 17       	cp	r26, r20
    9b8c:	10 f0       	brcs	.+4      	; 0x9b92 <__utoa_common+0x14>
    9b8e:	a4 1b       	sub	r26, r20
    9b90:	83 95       	inc	r24
    9b92:	50 51       	subi	r21, 0x10	; 16
    9b94:	b9 f7       	brne	.-18     	; 0x9b84 <__utoa_common+0x6>
    9b96:	a0 5d       	subi	r26, 0xD0	; 208
    9b98:	aa 33       	cpi	r26, 0x3A	; 58
    9b9a:	08 f0       	brcs	.+2      	; 0x9b9e <__utoa_common+0x20>
    9b9c:	a9 5d       	subi	r26, 0xD9	; 217
    9b9e:	a1 93       	st	Z+, r26
    9ba0:	00 97       	sbiw	r24, 0x00	; 0
    9ba2:	79 f7       	brne	.-34     	; 0x9b82 <__utoa_common+0x4>
    9ba4:	b1 11       	cpse	r27, r1
    9ba6:	b1 93       	st	Z+, r27
    9ba8:	11 92       	st	Z+, r1
    9baa:	cb 01       	movw	r24, r22
    9bac:	00 c0       	rjmp	.+0      	; 0x9bae <strrev>

00009bae <strrev>:
    9bae:	dc 01       	movw	r26, r24
    9bb0:	fc 01       	movw	r30, r24
    9bb2:	67 2f       	mov	r22, r23
    9bb4:	71 91       	ld	r23, Z+
    9bb6:	77 23       	and	r23, r23
    9bb8:	e1 f7       	brne	.-8      	; 0x9bb2 <strrev+0x4>
    9bba:	32 97       	sbiw	r30, 0x02	; 2
    9bbc:	04 c0       	rjmp	.+8      	; 0x9bc6 <strrev+0x18>
    9bbe:	7c 91       	ld	r23, X
    9bc0:	6d 93       	st	X+, r22
    9bc2:	70 83       	st	Z, r23
    9bc4:	62 91       	ld	r22, -Z
    9bc6:	ae 17       	cp	r26, r30
    9bc8:	bf 07       	cpc	r27, r31
    9bca:	c8 f3       	brcs	.-14     	; 0x9bbe <strrev+0x10>
    9bcc:	08 95       	ret

00009bce <__do_global_dtors>:
    9bce:	19 e1       	ldi	r17, 0x19	; 25
    9bd0:	c0 e2       	ldi	r28, 0x20	; 32
    9bd2:	d9 e1       	ldi	r29, 0x19	; 25
    9bd4:	00 e0       	ldi	r16, 0x00	; 0
    9bd6:	05 c0       	rjmp	.+10     	; 0x9be2 <__do_global_dtors+0x14>
    9bd8:	80 2f       	mov	r24, r16
    9bda:	fe 01       	movw	r30, r28
    9bdc:	69 dd       	rcall	.-1326   	; 0x96b0 <__tablejump2__>
    9bde:	21 96       	adiw	r28, 0x01	; 1
    9be0:	01 1d       	adc	r16, r1
    9be2:	c1 32       	cpi	r28, 0x21	; 33
    9be4:	d1 07       	cpc	r29, r17
    9be6:	80 e0       	ldi	r24, 0x00	; 0
    9be8:	08 07       	cpc	r16, r24
    9bea:	b1 f7       	brne	.-20     	; 0x9bd8 <__do_global_dtors+0xa>
    9bec:	f8 94       	cli

00009bee <__stop_program>:
    9bee:	ff cf       	rjmp	.-2      	; 0x9bee <__stop_program>
